(dp0
S'PCMC-RE'
p1
cnumpy.core.multiarray
_reconstruct
p2
(cnumpy
ndarray
p3
(I0
tp4
S'b'
p5
tp6
Rp7
(I1
(I12
tp8
cnumpy
dtype
p9
(S'f8'
p10
I0
I1
tp11
Rp12
(I3
S'<'
p13
NNNI-1
I-1
I0
tp14
bI00
S'\xf4\x0b>R\x8b\xfd^?b\x98\\Go%\x02@\xd0d"\xf2\x90\x89]?\xe6\x9c\x12\xd2\xca\xc5c?\xa4k\x81\t\xeb\xaa\xe7?\x85\n\x0cj\x88\xcd\x01@WE"\x93\xca/\xdc?b%\x02\x16s\xd3\xbb?\xd8\x88\xb52A\xd5\xde?\xfc\xa9\xf1\xd2MbP?\x9b\xe7\x14\xfa5\xcc\xe0?\xe3I\xa6wM\x15\xe9?'
p15
tp16
bsS'MMNL-RE'
p17
g2
(g3
(I0
tp18
g5
tp19
Rp20
(I1
(I10
tp21
g12
I00
S'\xb43\x9c\rY3\xec?ab\x1e\x937e\xbe?\xd9\x85~\xa2fE\xca?:\x97\xd0}1\xf3\xce?\x95\x92\xfch\xba\xb1\xc8?\xd4`s\xd8\x0b\x1f\xf3>\x92\xe88V\x01\x80\xf1?\x12\xfaq\x06\xbaB\xf4?\xc7\x00!mK\x1b\xeb?C\x99\x91\xdf\xf6x\xdc>'
p22
tp23
bsS'PL-RE'
p24
g2
(g3
(I0
tp25
g5
tp26
Rp27
(I1
(I4
tp28
g12
I00
S'\xa9\x01\x1b\x027\xad\xbb?S\xc0+\x92\xf3\xbb\xb3?\xc2\xb5\xfc\xc7)u\xe0?\xfe\xe3\xf4\xcaa;\xd3?'
p29
tp30
bsS'N'
p31
I4
sS'Mallows-greedy'
p32
((lp33
I1
aI0
aI3
aI2
acnumpy.core.multiarray
scalar
p34
(g12
S'\r0\xd6\xc3\x8e\xb4\xf5?'
p35
tp36
Rp37
tp38
sS'MMNL'
p39
g2
(g3
(I0
tp40
g5
tp41
Rp42
(I1
(I10
tp43
g12
I00
S'\xfbD"\xf6\t\xa0\xe7?\nv\xbb\x13\xec\xbf\xd0?.\xdb\xdc\xcfs)B@\xcb\xeb\xab\x97\xcc\xed\x83@\x8f\\\xf0~\x0b\xa0b@9\xdc\xd4\x9csn\xaa?\xc2\xc0W\np;&@\xd4\xce\xaa\xb7^\xd2Q@X\xa3\xd1\xf9\x00g0@y}\xd0\xac\xa7\xe5`@'
p44
tp45
bsS'test-lists'
p46
(lp47
(lp48
I2
aI1
aI3
aI0
aa(lp49
I1
aI2
aI3
aI0
aa(lp50
I1
aI3
aI0
aI2
aa(lp51
I0
aI1
aI3
aI2
aa(lp52
I3
aI1
aI2
aI0
aa(lp53
I1
aI0
aI3
aI2
aa(lp54
I0
aI1
aI2
aI3
aa(lp55
I1
aI0
aI3
aI2
aa(lp56
I1
aI3
aI0
aI2
aa(lp57
I1
aI3
aI0
aI2
aa(lp58
I0
aI1
aI3
aI2
aa(lp59
I0
aI1
aI2
aI3
aa(lp60
I3
aI2
aI1
aI0
aa(lp61
I1
aI0
aI2
aI3
aa(lp62
I0
aI3
aI1
aI2
aa(lp63
I1
aI0
aI3
aI2
aa(lp64
I1
aI3
aI2
aI0
aa(lp65
I0
aI1
aI3
aI2
aa(lp66
I1
aI3
aI0
aI2
aa(lp67
I3
aI2
aI0
aI1
aa(lp68
I1
aI0
aI3
aI2
aa(lp69
I0
aI2
aI1
aI3
aa(lp70
I0
aI1
aI2
aI3
aa(lp71
I1
aI2
aI3
aI0
aa(lp72
I1
aI0
aI2
aI3
aa(lp73
I3
aI1
aI2
aI0
aa(lp74
I1
aI0
aI2
aI3
aa(lp75
I1
aI3
aI0
aI2
aa(lp76
I1
aI0
aI2
aI3
aa(lp77
I0
aI1
aI3
aI2
aa(lp78
I1
aI0
aI3
aI2
aa(lp79
I1
aI0
aI3
aI2
aa(lp80
I1
aI0
aI3
aI2
aa(lp81
I1
aI0
aI2
aI3
aa(lp82
I1
aI2
aI3
aI0
aa(lp83
I1
aI0
aI2
aI3
aa(lp84
I0
aI1
aI3
aI2
aa(lp85
I1
aI0
aI3
aI2
aa(lp86
I1
aI2
aI0
aI3
aa(lp87
I0
aI1
aI3
aI2
aa(lp88
I1
aI3
aI0
aI2
aa(lp89
I1
aI0
aI2
aI3
aa(lp90
I2
aI3
aI0
aI1
aa(lp91
I1
aI0
aI3
aI2
aa(lp92
I0
aI1
aI3
aI2
aa(lp93
I3
aI1
aI0
aI2
aa(lp94
I0
aI1
aI3
aI2
aa(lp95
I0
aI1
aI2
aI3
aa(lp96
I1
aI3
aI0
aI2
aa(lp97
I1
aI0
aI3
aI2
aa(lp98
I0
aI1
aI3
aI2
aa(lp99
I0
aI1
aI2
aI3
aa(lp100
I3
aI1
aI0
aI2
aa(lp101
I0
aI1
aI3
aI2
aa(lp102
I0
aI1
aI3
aI2
aa(lp103
I3
aI0
aI2
aI1
aa(lp104
I1
aI0
aI2
aI3
aa(lp105
I0
aI1
aI2
aI3
aa(lp106
I0
aI1
aI3
aI2
aa(lp107
I0
aI1
aI3
aI2
aa(lp108
I0
aI1
aI2
aI3
aa(lp109
I1
aI0
aI3
aI2
aa(lp110
I0
aI1
aI3
aI2
aa(lp111
I1
aI3
aI2
aI0
aa(lp112
I1
aI0
aI3
aI2
aa(lp113
I0
aI1
aI3
aI2
aa(lp114
I2
aI1
aI3
aI0
aa(lp115
I3
aI1
aI0
aI2
aa(lp116
I0
aI3
aI1
aI2
aa(lp117
I3
aI1
aI0
aI2
aa(lp118
I1
aI3
aI0
aI2
aa(lp119
I1
aI0
aI2
aI3
aa(lp120
I0
aI1
aI3
aI2
aa(lp121
I1
aI0
aI3
aI2
aa(lp122
I1
aI0
aI3
aI2
aa(lp123
I0
aI1
aI2
aI3
aa(lp124
I0
aI1
aI3
aI2
aa(lp125
I2
aI1
aI0
aI3
aa(lp126
I0
aI1
aI3
aI2
aa(lp127
I1
aI2
aI3
aI0
aa(lp128
I1
aI3
aI0
aI2
aa(lp129
I1
aI3
aI0
aI2
aa(lp130
I1
aI0
aI3
aI2
aa(lp131
I1
aI2
aI3
aI0
aa(lp132
I1
aI2
aI3
aI0
aa(lp133
I3
aI1
aI0
aI2
aa(lp134
I1
aI3
aI0
aI2
aa(lp135
I0
aI1
aI3
aI2
aa(lp136
I1
aI0
aI2
aI3
aa(lp137
I0
aI3
aI1
aI2
aa(lp138
I1
aI3
aI0
aI2
aa(lp139
I0
aI1
aI2
aI3
aa(lp140
I1
aI2
aI0
aI3
aa(lp141
I0
aI1
aI2
aI3
aa(lp142
I1
aI0
aI3
aI2
aa(lp143
I1
aI0
aI3
aI2
aa(lp144
I1
aI0
aI2
aI3
aa(lp145
I3
aI1
aI0
aI2
aa(lp146
I1
aI3
aI0
aI2
aa(lp147
I0
aI2
aI3
aI1
aa(lp148
I1
aI2
aI3
aI0
aa(lp149
I0
aI1
aI3
aI2
aa(lp150
I2
aI1
aI3
aI0
aa(lp151
I0
aI1
aI2
aI3
aa(lp152
I0
aI1
aI2
aI3
aasS'PCMC'
p153
g2
(g3
(I0
tp154
g5
tp155
Rp156
(I1
(I12
tp157
g12
I00
S"\xbd\xac\x05\xedw\r\xbb?\xf3#\x15N\x9f\x8b#@\xffq\xcd\xeeY\xe1\xbe?S\xd4o+\x16\x9c\xb9?\xfc\xa9\xf1\xd2MbP?\xc0W\x02\xd71.*@\x7f~\xe8\x9e$+I@\xde&\xee\xd0\x84\x8b]?\xd2\xbd2s\x83;\xd4?q\x1c\xed\x8b'&\xc8?l\xd5\xe6:\x84\xc4L@\xdd\xbe\x17h\xf4\x14\xcd?"
p158
tp159
bsS'PL'
p160
g2
(g3
(I0
tp161
g5
tp162
Rp163
(I1
(I4
tp164
g12
I00
S'\x8f\xf1Ha\xd4;\xd5?\x0b\x98wP\xaa\xfd\xdd?\xdc\x03\x9a%b)\xb4?\xbb\xd5c\x13\xa3\xf0\xbe?'
p165
tp166
bsS'Mallows-greedy-RE'
p167
((lp168
I2
aI3
aI0
aI1
ag34
(g12
S'\r0\xd6\xc3\x8e\xb4\xf5?'
p169
tp170
Rp171
tp172
s.