(dp0
S'PCMC-RE'
p1
cnumpy.core.multiarray
_reconstruct
p2
(cnumpy
ndarray
p3
(I0
tp4
S'b'
p5
tp6
Rp7
(I1
(I12
tp8
cnumpy
dtype
p9
(S'f8'
p10
I0
I1
tp11
Rp12
(I3
S'<'
p13
NNNI-1
I-1
I0
tp14
bI00
S'q\xb4\xae\xa4\xd2\x88a?:\xd3\x9b\x9a\xa3\x84a?\x8d\xdb\x17)\xc1\x88\xeb?\xd0\xea18\xf7\xb7y?\x00\xcd\xf9W\xe2|\xe0?\xbd\xe2\xb08\x9e\x82\xf3?\x994\xa4\x11NcP?Z\x80;n\xa3\xd3\xb7?\x96\xfe\x14\x7f\x17|o?\xdag&0\x85\x9e\xf8?\xd6\x879\x012L\xdc?{\xfe\x9f\x87\x85fg?'
p15
tp16
bsS'MMNL-RE'
p17
g2
(g3
(I0
tp18
g5
tp19
Rp20
(I1
(I10
tp21
g12
I00
S'?\xe4\xaaO\xc3\x96\xd1?\xe0\x8d*X\x9e4\xe7?C\xa1\xa9&\x95\x91\x07@\xd6K>\x89\xc3\xc9\xde?,\x12\x9b\xe2\xa4\x1b\x13?\xe5\x8c\xd2QE\xe2\xd1?2\x8dv\x10\x04\x00\x11?\x87\x81/j\xcf\xa7\x00@\xb8C\xc2\x1e\x8b\x81"?\x92\x86(>\xe8\x8c\xec?'
p22
tp23
bsS'PL-RE'
p24
g2
(g3
(I0
tp25
g5
tp26
Rp27
(I1
(I4
tp28
g12
I00
S"\xbdB\xea\x7fS\xd3\xd4?\xce'8\xcf\x8f\xbb\xb3?\xdb\xf6YT&\xf7\xd8?\xebx\xdboD\x8d\xca?"
p29
tp30
bsS'N'
p31
I4
sS'Mallows-greedy'
p32
((lp33
I1
aI3
aI0
aI2
acnumpy.core.multiarray
scalar
p34
(g12
S'\x93{\xe1\x17\xa5\xd3\xf3?'
p35
tp36
Rp37
tp38
sS'MMNL'
p39
g2
(g3
(I0
tp40
g5
tp41
Rp42
(I1
(I10
tp43
g12
I00
S'\xd8\\\xe2\xed\x82\x87\xca?\xcah\x87D\x1f^\xe9?\tNm\x190>\x01@_\xa4\xafQ\xca\xa0\xb5?\x95\xd6&\xe8\x0b.\x11>w\xaev\xa6N\xea\xf1?\xc1\xedW\xe8\xe9@\xfa?\xcc\xcb\xad\x11\x91g\xb4?\xc4\x0f\xc3\x91\x1bq\xfa?-\xf0\x83z\x19\xb7\xcb?'
p44
tp45
bsS'test-lists'
p46
(lp47
(lp48
I1
aI0
aI3
aI2
aa(lp49
I2
aI1
aI3
aI0
aa(lp50
I1
aI2
aI3
aI0
aa(lp51
I0
aI1
aI3
aI2
aa(lp52
I1
aI3
aI0
aI2
aa(lp53
I3
aI1
aI0
aI2
aa(lp54
I1
aI0
aI2
aI3
aa(lp55
I1
aI2
aI3
aI0
aa(lp56
I1
aI3
aI2
aI0
aa(lp57
I1
aI0
aI2
aI3
aa(lp58
I3
aI0
aI2
aI1
aa(lp59
I1
aI3
aI2
aI0
aa(lp60
I1
aI0
aI3
aI2
aa(lp61
I1
aI2
aI3
aI0
aa(lp62
I2
aI1
aI3
aI0
aa(lp63
I1
aI2
aI3
aI0
aa(lp64
I1
aI2
aI0
aI3
aa(lp65
I1
aI3
aI2
aI0
aa(lp66
I3
aI1
aI0
aI2
aa(lp67
I1
aI3
aI0
aI2
aa(lp68
I1
aI0
aI2
aI3
aa(lp69
I0
aI1
aI2
aI3
aa(lp70
I0
aI1
aI2
aI3
aa(lp71
I0
aI1
aI2
aI3
aa(lp72
I1
aI0
aI3
aI2
aa(lp73
I1
aI3
aI2
aI0
aa(lp74
I1
aI2
aI3
aI0
aa(lp75
I1
aI2
aI0
aI3
aa(lp76
I3
aI1
aI2
aI0
aa(lp77
I3
aI1
aI2
aI0
aa(lp78
I3
aI0
aI2
aI1
aa(lp79
I3
aI1
aI2
aI0
aa(lp80
I1
aI3
aI0
aI2
aa(lp81
I2
aI1
aI3
aI0
aa(lp82
I1
aI2
aI0
aI3
aa(lp83
I1
aI3
aI2
aI0
aa(lp84
I2
aI3
aI1
aI0
aa(lp85
I1
aI0
aI3
aI2
aa(lp86
I1
aI2
aI3
aI0
aa(lp87
I1
aI3
aI2
aI0
aa(lp88
I3
aI1
aI2
aI0
aa(lp89
I0
aI2
aI3
aI1
aa(lp90
I3
aI0
aI1
aI2
aa(lp91
I1
aI0
aI3
aI2
aa(lp92
I1
aI2
aI3
aI0
aa(lp93
I0
aI1
aI3
aI2
aa(lp94
I1
aI3
aI2
aI0
aa(lp95
I1
aI0
aI2
aI3
aa(lp96
I1
aI3
aI0
aI2
aa(lp97
I2
aI1
aI3
aI0
aa(lp98
I2
aI3
aI1
aI0
aa(lp99
I1
aI3
aI2
aI0
aa(lp100
I1
aI0
aI2
aI3
aa(lp101
I1
aI2
aI3
aI0
aa(lp102
I0
aI3
aI2
aI1
aa(lp103
I1
aI2
aI0
aI3
aa(lp104
I1
aI3
aI0
aI2
aa(lp105
I0
aI2
aI1
aI3
aa(lp106
I1
aI2
aI0
aI3
aa(lp107
I1
aI3
aI2
aI0
aa(lp108
I1
aI3
aI2
aI0
aa(lp109
I3
aI1
aI2
aI0
aa(lp110
I1
aI3
aI0
aI2
aa(lp111
I2
aI3
aI1
aI0
aa(lp112
I2
aI1
aI3
aI0
aa(lp113
I1
aI2
aI3
aI0
aa(lp114
I1
aI0
aI3
aI2
aa(lp115
I1
aI0
aI2
aI3
aa(lp116
I2
aI3
aI0
aI1
aa(lp117
I1
aI2
aI3
aI0
aa(lp118
I1
aI2
aI3
aI0
aa(lp119
I3
aI1
aI2
aI0
aa(lp120
I1
aI0
aI2
aI3
aa(lp121
I1
aI0
aI3
aI2
aa(lp122
I1
aI2
aI3
aI0
aa(lp123
I2
aI3
aI1
aI0
aa(lp124
I0
aI1
aI2
aI3
aa(lp125
I1
aI3
aI0
aI2
aa(lp126
I0
aI2
aI3
aI1
aa(lp127
I1
aI0
aI3
aI2
aa(lp128
I1
aI3
aI2
aI0
aa(lp129
I3
aI1
aI2
aI0
aa(lp130
I1
aI2
aI3
aI0
aa(lp131
I1
aI2
aI0
aI3
aa(lp132
I1
aI3
aI2
aI0
aa(lp133
I1
aI0
aI2
aI3
aa(lp134
I2
aI1
aI3
aI0
aa(lp135
I1
aI0
aI2
aI3
aa(lp136
I1
aI0
aI3
aI2
aa(lp137
I1
aI0
aI2
aI3
aa(lp138
I1
aI2
aI3
aI0
aa(lp139
I1
aI2
aI0
aI3
aa(lp140
I3
aI0
aI1
aI2
aa(lp141
I1
aI0
aI2
aI3
aa(lp142
I1
aI0
aI2
aI3
aa(lp143
I1
aI3
aI2
aI0
aa(lp144
I1
aI2
aI0
aI3
aa(lp145
I0
aI1
aI2
aI3
aa(lp146
I1
aI2
aI3
aI0
aa(lp147
I3
aI1
aI0
aI2
aa(lp148
I3
aI1
aI0
aI2
aa(lp149
I1
aI3
aI0
aI2
aasS'PCMC'
p150
g2
(g3
(I0
tp151
g5
tp152
Rp153
(I1
(I12
tp154
g12
I00
S"\x925\xdc-P-\xf2?\xb1L\xaa\x18\xbf\x03\xf0?\xb1\xf1O4\xfeR\x9d?\xceY8\x1d8d\xc9?\x1f\xce\x84\x1f2P\xb5?\xde\x0f\xc2\x83\xb2\xd8\xd6?\xe5\xa7_H5\xa5\xf2?\xc4\x1b.9\xfa^\xd4?b\xa0\ripm\xe6?\xc7\xb5\xe1\x8e\xf71\x83?\x17\x93\xd3\x7f\x17\xec\xee?p'\xe6\xbbh\n\xd8?"
p155
tp156
bsS'PL'
p157
g2
(g3
(I0
tp158
g5
tp159
Rp160
(I1
(I4
tp161
g12
I00
S'\x96\x9e\x97\xa7h\xe6\xbd?\x11Z\x06\x0c\x11E\xe2?3c\xe1\xd9Q\x9c\xba?\xd4\x16*\x8f^\xaa\xca?'
p162
tp163
bsS'Mallows-greedy-RE'
p164
((lp165
I2
aI0
aI3
aI1
ag34
(g12
S'\x93{\xe1\x17\xa5\xd3\xf3?'
p166
tp167
Rp168
tp169
s.