(dp0
S'PCMC-RE'
p1
cnumpy.core.multiarray
_reconstruct
p2
(cnumpy
ndarray
p3
(I0
tp4
S'b'
p5
tp6
Rp7
(I1
(I6
tp8
cnumpy
dtype
p9
(S'f8'
p10
I0
I1
tp11
Rp12
(I3
S'<'
p13
NNNI-1
I-1
I0
tp14
bI00
S'r\xd3\x84\x02\xc56\xd1?yc\x98\xe9\x11\xcb\xd8?\x140\x87\xeb\xc8\xe3\xd6?=3\x00\xf3\x17\xc9P?\xf8\x887\x0e\x88S\xd2?\xfc\xa9\xf1\xd2MbP?'
p15
tp16
bsS'MMNL-RE'
p17
g2
(g3
(I0
tp18
g5
tp19
Rp20
(I1
(I4
tp21
g12
I00
S'\x00\x00\x00\x00\x00\x00\xf0?E\xc2\xa1\x9a\xf0m\xec??\x13\xd1\xa7\xb7$\xe7?V\xa0\xa6\x07X\xe1\xf1?'
p22
tp23
bsS'PL-RE'
p24
g2
(g3
(I0
tp25
g5
tp26
Rp27
(I1
(I3
tp28
g12
I00
S'\xef\xfcKdp\xd5\xd4?C\xfa\xcc\xaa\xc6\xf5\xd0?\xce\x08\xe7\xf0\xc84\xda?'
p29
tp30
bsS'N'
p31
I3
sS'Mallows-greedy'
p32
((lp33
I1
aI0
aI2
acnumpy.core.multiarray
scalar
p34
(g12
S'N\xb1e \xfc\xe4\xeb?'
p35
tp36
Rp37
tp38
sS'MMNL'
p39
g2
(g3
(I0
tp40
g5
tp41
Rp42
(I1
(I4
tp43
g12
I00
S'\x00\x00\x00\x00\x00\x00\xf0?kX\xa0h:X\xe9?\x0f\x8b{A\xfe\xf5\xee?\xe7}S\x10\xc8\xdf\xe2?'
p44
tp45
bsS'test-lists'
p46
(lp47
(lp48
I1
aI0
aI2
aa(lp49
I2
aI0
aI1
aa(lp50
I0
aI1
aI2
aa(lp51
I0
aI1
aI2
aa(lp52
I0
aI1
aI2
aa(lp53
I0
aI1
aI2
aa(lp54
I0
aI1
aI2
aa(lp55
I0
aI1
aI2
aa(lp56
I0
aI1
aI2
aa(lp57
I1
aI0
aI2
aa(lp58
I1
aI2
aI0
aa(lp59
I2
aI0
aI1
aa(lp60
I2
aI1
aI0
aa(lp61
I0
aI1
aI2
aa(lp62
I0
aI1
aI2
aa(lp63
I1
aI2
aI0
aa(lp64
I0
aI2
aI1
aa(lp65
I2
aI0
aI1
aa(lp66
I0
aI1
aI2
aa(lp67
I0
aI1
aI2
aa(lp68
I0
aI1
aI2
aa(lp69
I0
aI1
aI2
aa(lp70
I0
aI2
aI1
aa(lp71
I0
aI2
aI1
aa(lp72
I0
aI1
aI2
aa(lp73
I0
aI2
aI1
aa(lp74
I2
aI1
aI0
aa(lp75
I1
aI0
aI2
aa(lp76
I1
aI0
aI2
aa(lp77
I1
aI0
aI2
aa(lp78
I0
aI1
aI2
aa(lp79
I0
aI2
aI1
aa(lp80
I0
aI1
aI2
aa(lp81
I0
aI1
aI2
aa(lp82
I1
aI2
aI0
aa(lp83
I1
aI0
aI2
aa(lp84
I1
aI2
aI0
aa(lp85
I2
aI1
aI0
aa(lp86
I0
aI2
aI1
aa(lp87
I0
aI2
aI1
aa(lp88
I1
aI0
aI2
aa(lp89
I2
aI1
aI0
aa(lp90
I2
aI0
aI1
aa(lp91
I1
aI0
aI2
aa(lp92
I2
aI0
aI1
aa(lp93
I0
aI2
aI1
aa(lp94
I0
aI1
aI2
aa(lp95
I1
aI0
aI2
aa(lp96
I2
aI1
aI0
aa(lp97
I1
aI2
aI0
aa(lp98
I2
aI0
aI1
aa(lp99
I1
aI0
aI2
aa(lp100
I1
aI2
aI0
aa(lp101
I0
aI2
aI1
aa(lp102
I1
aI0
aI2
aa(lp103
I0
aI1
aI2
aa(lp104
I1
aI0
aI2
aa(lp105
I1
aI2
aI0
aa(lp106
I0
aI2
aI1
aa(lp107
I0
aI1
aI2
aa(lp108
I1
aI0
aI2
aa(lp109
I1
aI0
aI2
aa(lp110
I0
aI2
aI1
aa(lp111
I2
aI0
aI1
aa(lp112
I1
aI0
aI2
aa(lp113
I2
aI0
aI1
aa(lp114
I1
aI0
aI2
aa(lp115
I2
aI0
aI1
aa(lp116
I0
aI1
aI2
aa(lp117
I0
aI1
aI2
aa(lp118
I0
aI1
aI2
aa(lp119
I2
aI0
aI1
aa(lp120
I0
aI1
aI2
aa(lp121
I2
aI0
aI1
aa(lp122
I2
aI0
aI1
aa(lp123
I0
aI2
aI1
aa(lp124
I0
aI2
aI1
aa(lp125
I0
aI1
aI2
aa(lp126
I2
aI0
aI1
aasS'PCMC'
p127
g2
(g3
(I0
tp128
g5
tp129
Rp130
(I1
(I6
tp131
g12
I00
S'\xb9\xedK=9\xf0\xf0?\xbd\xc5\xd3\x15\xd1\x03k?\x8a\xe3\x1c\xa6q\x1f\xea?\x92\x9c\x818\x01.\xe9?L\xe1\x80 I\x98v?\x96ml\xcb\x1dc\xf3?'
p132
tp133
bsS'PL'
p134
g2
(g3
(I0
tp135
g5
tp136
Rp137
(I1
(I3
tp138
g12
I00
S'U\xf0\xfc(c\x93\xd5?*\x93\x8eGY[\xda?~|t\x8fC\x11\xd0?'
p139
tp140
bsS'Mallows-greedy-RE'
p141
((lp142
I2
aI0
aI1
ag34
(g12
S'N\xb1e \xfc\xe4\xeb?'
p143
tp144
Rp145
tp146
s.