(dp0
S'PCMC-RE'
p1
cnumpy.core.multiarray
_reconstruct
p2
(cnumpy
ndarray
p3
(I0
tp4
S'b'
p5
tp6
Rp7
(I1
(I6
tp8
cnumpy
dtype
p9
(S'f8'
p10
I0
I1
tp11
Rp12
(I3
S'<'
p13
NNNI-1
I-1
I0
tp14
bI00
S'\xd9l\xd3\x8aN\xd3\xf7?+\xd8\xc8\xd7\x96]\xf8?\xa7h=\x84\x04\xd9\xec?\x9bI\xbd\xa2\xb9\x97d?\x00L\xf3\xe4C\xe1\xef?E\x902r\xc7\x05Z?'
p15
tp16
bsS'MMNL-RE'
p17
g2
(g3
(I0
tp18
g5
tp19
Rp20
(I1
(I4
tp21
g12
I00
S'\x00\x00\x00\x00\x00\x00\xf0?vW`\x03\xe7\xd8\xe6?\xad\xa6\xae\x12b\x01\xf2?\x96\x93\xc7MDI\xf2?'
p22
tp23
bsS'PL-RE'
p24
g2
(g3
(I0
tp25
g5
tp26
Rp27
(I1
(I3
tp28
g12
I00
S'\xac\x16i\xab\x12\xa5\xce?l`On\x88&\xd8?<\x14\xfc;\xee\x86\xd8?'
p29
tp30
bsS'N'
p31
I3
sS'Mallows-greedy'
p32
((lp33
I0
aI2
aI1
acnumpy.core.multiarray
scalar
p34
(g12
S'\x1e\x00u;\xa3\xcf\xeb?'
p35
tp36
Rp37
tp38
sS'MMNL'
p39
g2
(g3
(I0
tp40
g5
tp41
Rp42
(I1
(I4
tp43
g12
I00
S'\x00\x00\x00\x00\x00\x00\xf0?k\xbf\r\xd6\x86\xcc\xf2?\x80"\x8c{\x8c\xc1\xe6?\xe0\xda\x03\xe7\x17\xd8\xe8?'
p44
tp45
bsS'test-lists'
p46
(lp47
(lp48
I0
aI2
aI1
aa(lp49
I0
aI2
aI1
aa(lp50
I1
aI0
aI2
aa(lp51
I1
aI0
aI2
aa(lp52
I2
aI1
aI0
aa(lp53
I0
aI2
aI1
aa(lp54
I0
aI1
aI2
aa(lp55
I0
aI1
aI2
aa(lp56
I1
aI0
aI2
aa(lp57
I1
aI2
aI0
aa(lp58
I0
aI2
aI1
aa(lp59
I0
aI2
aI1
aa(lp60
I0
aI1
aI2
aa(lp61
I0
aI1
aI2
aa(lp62
I0
aI1
aI2
aa(lp63
I1
aI0
aI2
aa(lp64
I1
aI0
aI2
aa(lp65
I0
aI2
aI1
aa(lp66
I0
aI2
aI1
aa(lp67
I1
aI0
aI2
aa(lp68
I0
aI2
aI1
aa(lp69
I1
aI0
aI2
aa(lp70
I0
aI2
aI1
aa(lp71
I2
aI0
aI1
aa(lp72
I0
aI2
aI1
aa(lp73
I0
aI2
aI1
aa(lp74
I1
aI0
aI2
aa(lp75
I0
aI2
aI1
aa(lp76
I0
aI1
aI2
aa(lp77
I0
aI2
aI1
aa(lp78
I2
aI0
aI1
aa(lp79
I1
aI0
aI2
aa(lp80
I0
aI2
aI1
aa(lp81
I0
aI1
aI2
aa(lp82
I1
aI0
aI2
aa(lp83
I2
aI1
aI0
aa(lp84
I1
aI0
aI2
aa(lp85
I0
aI1
aI2
aa(lp86
I2
aI0
aI1
aa(lp87
I1
aI0
aI2
aa(lp88
I0
aI2
aI1
aa(lp89
I0
aI1
aI2
aa(lp90
I0
aI1
aI2
aa(lp91
I1
aI2
aI0
aa(lp92
I0
aI1
aI2
aa(lp93
I1
aI0
aI2
aa(lp94
I1
aI2
aI0
aa(lp95
I0
aI1
aI2
aa(lp96
I1
aI2
aI0
aa(lp97
I1
aI2
aI0
aa(lp98
I0
aI2
aI1
aa(lp99
I2
aI1
aI0
aa(lp100
I0
aI1
aI2
aa(lp101
I0
aI2
aI1
aa(lp102
I1
aI2
aI0
aa(lp103
I2
aI0
aI1
aa(lp104
I0
aI2
aI1
aa(lp105
I0
aI2
aI1
aa(lp106
I1
aI0
aI2
aa(lp107
I0
aI1
aI2
aa(lp108
I0
aI1
aI2
aa(lp109
I2
aI0
aI1
aa(lp110
I0
aI2
aI1
aa(lp111
I0
aI1
aI2
aa(lp112
I1
aI0
aI2
aa(lp113
I1
aI0
aI2
aa(lp114
I1
aI0
aI2
aa(lp115
I0
aI1
aI2
aa(lp116
I0
aI2
aI1
aa(lp117
I0
aI2
aI1
aa(lp118
I0
aI2
aI1
aa(lp119
I0
aI1
aI2
aa(lp120
I0
aI2
aI1
aa(lp121
I1
aI2
aI0
aa(lp122
I1
aI2
aI0
aa(lp123
I1
aI0
aI2
aa(lp124
I0
aI1
aI2
aa(lp125
I0
aI1
aI2
aa(lp126
I2
aI1
aI0
aa(lp127
I2
aI0
aI1
aa(lp128
I0
aI1
aI2
aa(lp129
I1
aI0
aI2
aa(lp130
I1
aI2
aI0
aa(lp131
I1
aI0
aI2
aa(lp132
I1
aI2
aI0
aa(lp133
I0
aI2
aI1
aa(lp134
I1
aI0
aI2
aa(lp135
I0
aI2
aI1
aa(lp136
I1
aI0
aI2
aa(lp137
I0
aI2
aI1
aa(lp138
I2
aI1
aI0
aa(lp139
I1
aI2
aI0
aa(lp140
I0
aI1
aI2
aa(lp141
I0
aI1
aI2
aa(lp142
I1
aI0
aI2
aa(lp143
I2
aI0
aI1
aa(lp144
I0
aI2
aI1
aa(lp145
I1
aI2
aI0
aa(lp146
I1
aI2
aI0
aa(lp147
I1
aI0
aI2
aa(lp148
I0
aI2
aI1
aa(lp149
I0
aI1
aI2
aa(lp150
I0
aI2
aI1
aa(lp151
I1
aI0
aI2
aa(lp152
I0
aI2
aI1
aa(lp153
I0
aI1
aI2
aa(lp154
I0
aI2
aI1
aa(lp155
I1
aI2
aI0
aa(lp156
I2
aI1
aI0
aasS'PCMC'
p157
g2
(g3
(I0
tp158
g5
tp159
Rp160
(I1
(I6
tp161
g12
I00
S'\xb0\x85\xe1\x1f\x8c\x0eP@I\n\x19s\xcaga@\xbf\xc5\x80\xc9+\x8fX@\xc4\xec\x90\xef\xa8LZ?\xf2Al\xdd\xd44l@\xcc\xde\x93\xa9\xceTS?'
p162
tp163
bsS'PL'
p164
g2
(g3
(I0
tp165
g5
tp166
Rp167
(I1
(I3
tp168
g12
I00
S'\xe8\x98\xd8\x1cA>\xdc?\xd7\x99\x82\xd6\x18\x18\xd1??\xcd\xa4\x0c\xa6\xa9\xd2?'
p169
tp170
bsS'Mallows-greedy-RE'
p171
((lp172
I1
aI2
aI0
ag34
(g12
S'\x1e\x00u;\xa3\xcf\xeb?'
p173
tp174
Rp175
tp176
s.