(dp0
S'PCMC-RE'
p1
cnumpy.core.multiarray
_reconstruct
p2
(cnumpy
ndarray
p3
(I0
tp4
S'b'
p5
tp6
Rp7
(I1
(I6
tp8
cnumpy
dtype
p9
(S'f8'
p10
I0
I1
tp11
Rp12
(I3
S'<'
p13
NNNI-1
I-1
I0
tp14
bI00
S'RU\x8e\xac\xa2\xe6}?\x0e\x1a\xc6V\x83@W?\x90\xf0{\x8e\xb7\xec\x94?\xc0"\xa2|\r\x1d\xf5?\xde\xd3\x15U\xaf\xeda?\xc5&\xf0=*\x12\xd5?'
p15
tp16
bsS'MMNL-RE'
p17
g2
(g3
(I0
tp18
g5
tp19
Rp20
(I1
(I4
tp21
g12
I00
S'\x00\x00\x00\x00\x00\x00\xf0?6\x15\x10\xe7\x19c\xf3?\xa5]\xc3C\xae9\xd8?\xfc \xadhS\x8a\xf6?'
p22
tp23
bsS'PL-RE'
p24
g2
(g3
(I0
tp25
g5
tp26
Rp27
(I1
(I3
tp28
g12
I00
S"\xf1\xe3\xb0\x9d\xb4\xdb\xd9?\xb3\xd4\\\n\xda'\xc0?\xb6\xb1 ]^\x10\xde?"
p29
tp30
bsS'N'
p31
I3
sS'Mallows-greedy'
p32
((lp33
I1
aI0
aI2
acnumpy.core.multiarray
scalar
p34
(g12
S'D/\xc1\x9e\xa0W\xf3?'
p35
tp36
Rp37
tp38
sS'MMNL'
p39
g2
(g3
(I0
tp40
g5
tp41
Rp42
(I1
(I4
tp43
g12
I00
S'\x00\x00\x00\x00\x00\x00\xf0?1\xa7P\n\xec\xcf\xc5?(\xbb\xde|\xe6\xd0\xe1?\xc4Wm\x0f\xc6<\xc2?'
p44
tp45
bsS'test-lists'
p46
(lp47
(lp48
I1
aI2
aI0
aa(lp49
I1
aI2
aI0
aa(lp50
I2
aI0
aI1
aa(lp51
I1
aI2
aI0
aa(lp52
I1
aI0
aI2
aa(lp53
I1
aI0
aI2
aa(lp54
I1
aI2
aI0
aa(lp55
I1
aI2
aI0
aa(lp56
I1
aI2
aI0
aa(lp57
I1
aI2
aI0
aa(lp58
I1
aI0
aI2
aa(lp59
I0
aI2
aI1
aa(lp60
I1
aI0
aI2
aa(lp61
I0
aI1
aI2
aa(lp62
I1
aI0
aI2
aa(lp63
I1
aI2
aI0
aa(lp64
I1
aI2
aI0
aa(lp65
I1
aI2
aI0
aa(lp66
I2
aI0
aI1
aa(lp67
I1
aI0
aI2
aa(lp68
I1
aI2
aI0
aa(lp69
I1
aI0
aI2
aa(lp70
I1
aI2
aI0
aa(lp71
I1
aI0
aI2
aa(lp72
I1
aI0
aI2
aa(lp73
I1
aI0
aI2
aa(lp74
I0
aI2
aI1
aa(lp75
I1
aI0
aI2
aa(lp76
I2
aI1
aI0
aa(lp77
I0
aI1
aI2
aa(lp78
I1
aI0
aI2
aa(lp79
I1
aI0
aI2
aa(lp80
I1
aI0
aI2
aa(lp81
I1
aI0
aI2
aa(lp82
I1
aI0
aI2
aa(lp83
I1
aI2
aI0
aa(lp84
I1
aI2
aI0
aa(lp85
I2
aI1
aI0
aa(lp86
I1
aI2
aI0
aa(lp87
I1
aI0
aI2
aa(lp88
I1
aI2
aI0
aa(lp89
I2
aI1
aI0
aa(lp90
I1
aI2
aI0
aa(lp91
I1
aI0
aI2
aa(lp92
I2
aI0
aI1
aa(lp93
I0
aI2
aI1
aa(lp94
I1
aI0
aI2
aa(lp95
I0
aI2
aI1
aa(lp96
I1
aI2
aI0
aa(lp97
I2
aI1
aI0
aa(lp98
I1
aI2
aI0
aa(lp99
I1
aI2
aI0
aa(lp100
I1
aI0
aI2
aa(lp101
I1
aI0
aI2
aa(lp102
I0
aI1
aI2
aa(lp103
I1
aI2
aI0
aa(lp104
I1
aI0
aI2
aa(lp105
I1
aI2
aI0
aa(lp106
I2
aI1
aI0
aa(lp107
I2
aI1
aI0
aa(lp108
I1
aI2
aI0
aa(lp109
I1
aI2
aI0
aa(lp110
I1
aI0
aI2
aa(lp111
I1
aI0
aI2
aa(lp112
I1
aI0
aI2
aa(lp113
I1
aI0
aI2
aa(lp114
I1
aI2
aI0
aa(lp115
I1
aI2
aI0
aa(lp116
I2
aI1
aI0
aa(lp117
I1
aI2
aI0
aa(lp118
I2
aI1
aI0
aa(lp119
I0
aI1
aI2
aa(lp120
I1
aI2
aI0
aa(lp121
I0
aI1
aI2
aa(lp122
I2
aI1
aI0
aa(lp123
I0
aI1
aI2
aa(lp124
I1
aI2
aI0
aa(lp125
I1
aI2
aI0
aa(lp126
I1
aI2
aI0
aa(lp127
I1
aI0
aI2
aa(lp128
I1
aI2
aI0
aa(lp129
I1
aI2
aI0
aa(lp130
I1
aI0
aI2
aa(lp131
I2
aI1
aI0
aa(lp132
I2
aI0
aI1
aa(lp133
I0
aI1
aI2
aa(lp134
I2
aI1
aI0
aa(lp135
I1
aI2
aI0
aa(lp136
I1
aI2
aI0
aa(lp137
I1
aI0
aI2
aa(lp138
I2
aI1
aI0
aa(lp139
I1
aI0
aI2
aa(lp140
I1
aI2
aI0
aa(lp141
I1
aI0
aI2
aa(lp142
I2
aI0
aI1
aa(lp143
I1
aI0
aI2
aa(lp144
I1
aI2
aI0
aa(lp145
I1
aI0
aI2
aa(lp146
I2
aI0
aI1
aa(lp147
I1
aI0
aI2
aa(lp148
I1
aI0
aI2
aa(lp149
I1
aI0
aI2
aa(lp150
I1
aI2
aI0
aa(lp151
I1
aI0
aI2
aa(lp152
I1
aI2
aI0
aa(lp153
I0
aI1
aI2
aa(lp154
I1
aI2
aI0
aa(lp155
I0
aI2
aI1
aa(lp156
I1
aI2
aI0
aa(lp157
I1
aI2
aI0
aa(lp158
I1
aI2
aI0
aa(lp159
I0
aI1
aI2
aa(lp160
I1
aI2
aI0
aa(lp161
I1
aI2
aI0
aa(lp162
I0
aI2
aI1
aa(lp163
I1
aI0
aI2
aa(lp164
I1
aI2
aI0
aa(lp165
I1
aI0
aI2
aa(lp166
I1
aI0
aI2
aa(lp167
I1
aI2
aI0
aa(lp168
I1
aI0
aI2
aa(lp169
I1
aI0
aI2
aa(lp170
I1
aI0
aI2
aa(lp171
I1
aI2
aI0
aasS'PCMC'
p172
g2
(g3
(I0
tp173
g5
tp174
Rp175
(I1
(I6
tp176
g12
I00
S'_\xc7\x85h4^Y?\x9b\xab\xf4\xe3\x89\x18@@\xfc\xa9\xf1\xd2MbP?t\x92\xba\x17\xb8S-@%\xf7\t\xccFPB@\x18\xb88-\x98\xe8N@'
p177
tp178
bsS'PL'
p179
g2
(g3
(I0
tp180
g5
tp181
Rp182
(I1
(I3
tp183
g12
I00
S'[\xf9L\xed\xf8\x14\xc9?\xb3\xf3\x8e\xdc\x98|\xe4?\xd87w\xa0\xa3\xf8\xc4?'
p184
tp185
bsS'Mallows-greedy-RE'
p186
((lp187
I2
aI0
aI1
ag34
(g12
S'D/\xc1\x9e\xa0W\xf3?'
p188
tp189
Rp190
tp191
s.