(dp0
S'PCMC-RE'
p1
cnumpy.core.multiarray
_reconstruct
p2
(cnumpy
ndarray
p3
(I0
tp4
S'b'
p5
tp6
Rp7
(I1
(I12
tp8
cnumpy
dtype
p9
(S'f8'
p10
I0
I1
tp11
Rp12
(I3
S'<'
p13
NNNI-1
I-1
I0
tp14
bI00
S'\x8b\x9bB\x80\x8f\xb2\xd0?\xbb\xea\xe1\x14\xf1\xd2~?d\xe3\x00.\x07\xc8\xd5?\xf7%F\xd5\x00\x01\xe2?1Q\x8d\x1d\xb1y\x9c?\x87\xf2K\xf1\x8d|\xde?0\xfcZ\xf2\x88Hx?g9\x1e\xe46K\xbb?f\xb47DD\x8bZ?\xa4\xc6\xde(P\xa5\xf2?\xd8\xa08\t\xf8_\xe8?\xfc\xa9\xf1\xd2MbP?'
p15
tp16
bsS'MMNL-RE'
p17
g2
(g3
(I0
tp18
g5
tp19
Rp20
(I1
(I10
tp21
g12
I00
S'\xf2}\xc3*\x84\x9d\xe0?\x1e\x04y\xaa\xf7\xc4\xde?\x84\xeb>")\xfa\x0e@2f\xe9He\xd7\xe2>\xab\x82\xce\xfbQ\xf4\xd2>\x8a\x89\xea${\xd3\x1d@@B`]\xd1\x9d\xa1>\x8e\x01+J?=\x13@.,s\xd8\\\xae\xcf>\xf1L\x90M$v\r@'
p22
tp23
bsS'PL-RE'
p24
g2
(g3
(I0
tp25
g5
tp26
Rp27
(I1
(I4
tp28
g12
I00
S'(;\x01\xb7\rB\xdd?d\xa6p\xb4\xf5i\xd1?\xbfQ\x95i\x95\x81\xbc?\x08\x94Qt.g\xc4?'
p29
tp30
bsS'N'
p31
I4
sS'Mallows-greedy'
p32
((lp33
I2
aI3
aI1
aI0
acnumpy.core.multiarray
scalar
p34
(g12
S'm\x02np7\xb0\xf3?'
p35
tp36
Rp37
tp38
sS'MMNL'
p39
g2
(g3
(I0
tp40
g5
tp41
Rp42
(I1
(I10
tp43
g12
I00
S'\x15\x83\xc7\x80R3\xce?;\x1f\xce_+s\xe8?*]\x13\xc8\xd8\x8f\x00@\x95\xd6&\xe8\x0b.\x11>6)&\xd3\x06\x186>$\x987/F\xf7{?\x151\x8fh\xc0T+>uox\t\xdd\xde\x97?u\xbb\x11\x88\x1e\x0c\x01@U\xea\xc2j0>\x82?'
p44
tp45
bsS'test-lists'
p46
(lp47
(lp48
I3
aI0
aI2
aI1
aa(lp49
I3
aI1
aI2
aI0
aa(lp50
I3
aI2
aI1
aI0
aa(lp51
I3
aI2
aI1
aI0
aa(lp52
I1
aI3
aI2
aI0
aa(lp53
I2
aI1
aI3
aI0
aa(lp54
I0
aI3
aI2
aI1
aa(lp55
I2
aI3
aI1
aI0
aa(lp56
I2
aI1
aI3
aI0
aa(lp57
I3
aI0
aI2
aI1
aa(lp58
I0
aI3
aI2
aI1
aa(lp59
I2
aI3
aI1
aI0
aa(lp60
I2
aI1
aI3
aI0
aa(lp61
I0
aI3
aI2
aI1
aa(lp62
I2
aI1
aI3
aI0
aa(lp63
I2
aI1
aI3
aI0
aa(lp64
I3
aI2
aI1
aI0
aa(lp65
I3
aI2
aI0
aI1
aa(lp66
I2
aI3
aI1
aI0
aa(lp67
I2
aI3
aI1
aI0
aa(lp68
I3
aI2
aI0
aI1
aa(lp69
I2
aI3
aI1
aI0
aa(lp70
I3
aI2
aI1
aI0
aa(lp71
I1
aI0
aI2
aI3
aa(lp72
I3
aI0
aI2
aI1
aa(lp73
I2
aI3
aI1
aI0
aa(lp74
I0
aI3
aI2
aI1
aa(lp75
I3
aI2
aI1
aI0
aa(lp76
I2
aI1
aI3
aI0
aa(lp77
I1
aI3
aI2
aI0
aa(lp78
I3
aI2
aI0
aI1
aa(lp79
I3
aI2
aI1
aI0
aa(lp80
I2
aI3
aI0
aI1
aa(lp81
I2
aI3
aI1
aI0
aa(lp82
I2
aI1
aI0
aI3
aa(lp83
I3
aI0
aI2
aI1
aa(lp84
I3
aI2
aI1
aI0
aa(lp85
I3
aI1
aI2
aI0
aa(lp86
I0
aI3
aI1
aI2
aa(lp87
I3
aI2
aI1
aI0
aa(lp88
I1
aI3
aI2
aI0
aa(lp89
I3
aI2
aI0
aI1
aa(lp90
I0
aI1
aI2
aI3
aa(lp91
I2
aI0
aI3
aI1
aa(lp92
I2
aI3
aI1
aI0
aa(lp93
I3
aI2
aI1
aI0
aa(lp94
I2
aI0
aI3
aI1
aa(lp95
I2
aI3
aI1
aI0
aa(lp96
I2
aI3
aI1
aI0
aa(lp97
I3
aI1
aI2
aI0
aa(lp98
I3
aI1
aI0
aI2
aa(lp99
I0
aI3
aI1
aI2
aa(lp100
I0
aI3
aI2
aI1
aa(lp101
I2
aI1
aI0
aI3
aa(lp102
I0
aI2
aI3
aI1
aa(lp103
I2
aI1
aI3
aI0
aa(lp104
I1
aI2
aI3
aI0
aa(lp105
I2
aI3
aI0
aI1
aa(lp106
I2
aI1
aI0
aI3
aa(lp107
I0
aI3
aI1
aI2
aa(lp108
I2
aI1
aI3
aI0
aa(lp109
I3
aI0
aI1
aI2
aa(lp110
I2
aI1
aI3
aI0
aa(lp111
I2
aI3
aI1
aI0
aa(lp112
I2
aI3
aI1
aI0
aa(lp113
I1
aI2
aI3
aI0
aa(lp114
I2
aI0
aI3
aI1
aa(lp115
I2
aI1
aI3
aI0
aa(lp116
I1
aI2
aI3
aI0
aa(lp117
I3
aI2
aI1
aI0
aa(lp118
I3
aI0
aI1
aI2
aa(lp119
I0
aI1
aI2
aI3
aa(lp120
I2
aI3
aI1
aI0
aa(lp121
I3
aI2
aI1
aI0
aa(lp122
I3
aI2
aI0
aI1
aa(lp123
I2
aI3
aI1
aI0
aa(lp124
I2
aI3
aI0
aI1
aa(lp125
I0
aI3
aI2
aI1
aa(lp126
I3
aI2
aI1
aI0
aa(lp127
I0
aI2
aI3
aI1
aa(lp128
I0
aI2
aI3
aI1
aa(lp129
I3
aI0
aI2
aI1
aa(lp130
I3
aI2
aI0
aI1
aa(lp131
I2
aI3
aI1
aI0
aa(lp132
I0
aI2
aI3
aI1
aa(lp133
I0
aI2
aI1
aI3
aa(lp134
I1
aI2
aI3
aI0
aa(lp135
I1
aI3
aI2
aI0
aasS'PCMC'
p136
g2
(g3
(I0
tp137
g5
tp138
Rp139
(I1
(I12
tp140
g12
I00
S'n\xaeJ\xfay=q?\xcdK\x84\x0b\x81H\xee?\xd5\xd7\x1ctA\xd8\xe2?\xb0\x01/\x83\xb4\xb0P?\x0f\xa2\xa7y\xf3o\n@\x9a1\x81\xa3Z\x00\xe9?\xf8s8\xc4\x95\x9e\xda?\x01\xd6E\xfdzV\xef?\xb1\x9bi\xc5V\x19\xf7?!\x9b\xd0a\xaf\x0c\xb3?u\xe6\xa8\xe9\x08\x1b\xde?a\xa0\xfaj^4\x01@'
p141
tp142
bsS'PL'
p143
g2
(g3
(I0
tp144
g5
tp145
Rp146
(I1
(I4
tp147
g12
I00
S'f\xe4\x06\xaby\xcc\xb4?\x0b\xee\xc2\xd6?X\xc6?\xc0\xa6\xb9\x91\xd4\x1a\xdb?!)#\x18\xed\x85\xd4?'
p148
tp149
bsS'Mallows-greedy-RE'
p150
((lp151
I0
aI1
aI3
aI2
ag34
(g12
S'm\x02np7\xb0\xf3?'
p152
tp153
Rp154
tp155
s.