(dp0
S'PCMC-RE'
p1
cnumpy.core.multiarray
_reconstruct
p2
(cnumpy
ndarray
p3
(I0
tp4
S'b'
p5
tp6
Rp7
(I1
(I12
tp8
cnumpy
dtype
p9
(S'f8'
p10
I0
I1
tp11
Rp12
(I3
S'<'
p13
NNNI-1
I-1
I0
tp14
bI00
S"'\xf8\xdf\x9d\xb9'\xc3?\x0bt\xf1\x04\xf9\x89\xe3?y\xc1\xe2)\x86\x04\xe2?\xe2\x19\xe0%U\x87\xe6?\x13\x88\xd5d\xe1%\xb5?\xc5\x86\xac0?\xa6\x95?,\x8f\x070CM\x01@6\xc8J\xd1r\x14\xc7?\xffx\xedRF.v?\xf6l'\x13\x84\xe5\xe3?\xe3oz\xac\xe5\x98{?\xfc\xa9\xf1\xd2MbP?"
p15
tp16
bsS'MMNL-RE'
p17
g2
(g3
(I0
tp18
g5
tp19
Rp20
(I1
(I10
tp21
g12
I00
S'\xec\xe9\xa1\xbda\x1f\xed?\xa0\xb0\xf0\x12\xf2\x04\xb7?\xb7\x06\xb6O\xb5\xd3B@\xac\xb1\xad*\x8d"\x17@\xed\xfa\xd9\xc4\x8a\xfb#@\x95\xd6&\xe8\x0b.\x11>\xd8\xdd\'\xcc\xeb\x8a\t@\x93hc`\\\xc1m@P\x9b\x8e^ \xa7@@\xfb\xcaq\x07\xcf-8@'
p22
tp23
bsS'PL-RE'
p24
g2
(g3
(I0
tp25
g5
tp26
Rp27
(I1
(I4
tp28
g12
I00
S'\xe8\xd1\x82\xff\xccQ\xda?qS\x81>n\xd7\xbf?%\xe9\xdaWU\xae\xb4?\xf4\x1e\xe6\x1a\xc2\x8c\xd8?'
p29
tp30
bsS'N'
p31
I4
sS'Mallows-greedy'
p32
((lp33
I2
aI1
aI3
aI0
acnumpy.core.multiarray
scalar
p34
(g12
S'qm\xd2i6\xcd\xf3?'
p35
tp36
Rp37
tp38
sS'MMNL'
p39
g2
(g3
(I0
tp40
g5
tp41
Rp42
(I1
(I10
tp43
g12
I00
S'f\n\x10\xe6s-\xd9?\xcd\xfa\xf7\x0cFi\xe3?\x95\xd6&\xe8\x0b.\x11>\x82l\xe2<\x8fC\xe6? \x1e\x0b\x05\x94\x18\xb3?|,\xf8x\x87\x84\xf8?a6\x14\xf0\x96K\xff?\xf2Z\x1d:Rr\xd8?\x95\xd6&\xe8\x0b.\x11>\x00\xa7\xbb\xeb\xa2\x83\xe6?'
p44
tp45
bsS'test-lists'
p46
(lp47
(lp48
I2
aI1
aI3
aI0
aa(lp49
I1
aI3
aI2
aI0
aa(lp50
I0
aI2
aI1
aI3
aa(lp51
I2
aI1
aI0
aI3
aa(lp52
I2
aI1
aI3
aI0
aa(lp53
I2
aI1
aI0
aI3
aa(lp54
I2
aI0
aI3
aI1
aa(lp55
I2
aI1
aI3
aI0
aa(lp56
I2
aI0
aI3
aI1
aa(lp57
I1
aI2
aI0
aI3
aa(lp58
I1
aI0
aI3
aI2
aa(lp59
I2
aI1
aI0
aI3
aa(lp60
I1
aI0
aI3
aI2
aa(lp61
I2
aI1
aI0
aI3
aa(lp62
I3
aI2
aI0
aI1
aa(lp63
I2
aI1
aI3
aI0
aa(lp64
I1
aI3
aI0
aI2
aa(lp65
I2
aI1
aI0
aI3
aa(lp66
I2
aI3
aI0
aI1
aa(lp67
I1
aI0
aI2
aI3
aa(lp68
I2
aI0
aI1
aI3
aa(lp69
I1
aI2
aI3
aI0
aa(lp70
I3
aI0
aI1
aI2
aa(lp71
I1
aI0
aI3
aI2
aa(lp72
I1
aI2
aI0
aI3
aa(lp73
I1
aI2
aI0
aI3
aa(lp74
I2
aI0
aI1
aI3
aa(lp75
I1
aI0
aI3
aI2
aa(lp76
I3
aI1
aI0
aI2
aa(lp77
I1
aI0
aI3
aI2
aa(lp78
I2
aI3
aI1
aI0
aa(lp79
I2
aI3
aI1
aI0
aa(lp80
I1
aI3
aI0
aI2
aa(lp81
I2
aI1
aI0
aI3
aa(lp82
I2
aI1
aI3
aI0
aa(lp83
I3
aI2
aI0
aI1
aa(lp84
I2
aI1
aI3
aI0
aa(lp85
I1
aI0
aI3
aI2
aa(lp86
I2
aI1
aI3
aI0
aa(lp87
I2
aI1
aI0
aI3
aa(lp88
I3
aI2
aI1
aI0
aa(lp89
I2
aI1
aI3
aI0
aa(lp90
I1
aI0
aI3
aI2
aa(lp91
I2
aI1
aI0
aI3
aa(lp92
I1
aI2
aI0
aI3
aa(lp93
I2
aI1
aI0
aI3
aa(lp94
I1
aI2
aI3
aI0
aa(lp95
I2
aI1
aI0
aI3
aa(lp96
I2
aI1
aI3
aI0
aa(lp97
I2
aI1
aI0
aI3
aa(lp98
I1
aI0
aI3
aI2
aa(lp99
I1
aI3
aI0
aI2
aa(lp100
I2
aI1
aI3
aI0
aa(lp101
I2
aI0
aI1
aI3
aa(lp102
I2
aI1
aI0
aI3
aa(lp103
I2
aI1
aI3
aI0
aa(lp104
I2
aI1
aI3
aI0
aa(lp105
I2
aI1
aI3
aI0
aa(lp106
I2
aI3
aI0
aI1
aa(lp107
I1
aI2
aI3
aI0
aa(lp108
I0
aI3
aI2
aI1
aa(lp109
I2
aI1
aI0
aI3
aa(lp110
I2
aI0
aI1
aI3
aa(lp111
I0
aI2
aI1
aI3
aa(lp112
I2
aI3
aI1
aI0
aa(lp113
I2
aI3
aI0
aI1
aa(lp114
I1
aI2
aI0
aI3
aa(lp115
I2
aI1
aI0
aI3
aa(lp116
I2
aI1
aI0
aI3
aa(lp117
I2
aI1
aI3
aI0
aa(lp118
I2
aI1
aI0
aI3
aa(lp119
I2
aI1
aI0
aI3
aa(lp120
I2
aI1
aI3
aI0
aa(lp121
I2
aI1
aI0
aI3
aa(lp122
I2
aI3
aI0
aI1
aa(lp123
I2
aI3
aI1
aI0
aa(lp124
I1
aI2
aI0
aI3
aa(lp125
I1
aI2
aI3
aI0
aa(lp126
I2
aI1
aI0
aI3
aa(lp127
I0
aI2
aI3
aI1
aa(lp128
I1
aI2
aI3
aI0
aa(lp129
I2
aI3
aI1
aI0
aa(lp130
I1
aI3
aI0
aI2
aa(lp131
I2
aI0
aI1
aI3
aa(lp132
I1
aI0
aI3
aI2
aa(lp133
I2
aI3
aI1
aI0
aa(lp134
I2
aI3
aI1
aI0
aa(lp135
I2
aI1
aI3
aI0
aa(lp136
I2
aI3
aI1
aI0
aa(lp137
I2
aI0
aI1
aI3
aa(lp138
I2
aI1
aI0
aI3
aa(lp139
I1
aI3
aI0
aI2
aa(lp140
I2
aI1
aI0
aI3
aa(lp141
I2
aI1
aI3
aI0
aa(lp142
I1
aI2
aI3
aI0
aa(lp143
I2
aI1
aI3
aI0
aa(lp144
I2
aI1
aI0
aI3
aa(lp145
I1
aI3
aI0
aI2
aa(lp146
I1
aI2
aI3
aI0
aa(lp147
I2
aI1
aI0
aI3
aa(lp148
I1
aI3
aI0
aI2
aa(lp149
I2
aI1
aI0
aI3
aa(lp150
I1
aI0
aI3
aI2
aa(lp151
I3
aI0
aI2
aI1
aa(lp152
I2
aI1
aI0
aI3
aasS'PCMC'
p153
g2
(g3
(I0
tp154
g5
tp155
Rp156
(I1
(I12
tp157
g12
I00
S'\xac(\x8a\xbe{\xf7\xaf@\xfc\xa9\xf1\xd2MbP?bI\xc1\xebT\x07<@g+!$\x1b\xce\x8e@\x8d\x94\xde\x94\xee\x18\x97@+\xa4\xdfR=+}@\xb7\xc5\xb4\xd0b\xd9d?SzZM\xdbl\x8b@\x12\xeb\xfc\n\xd493@1>\x03\x9f\xaa\x83=@\xb4\xe4\xfc=\x90 \x98@l\x84\x08[\\v?@'
p158
tp159
bsS'PL'
p160
g2
(g3
(I0
tp161
g5
tp162
Rp163
(I1
(I4
tp164
g12
I00
S'\xc3\xb5\xbcgVK\xbf?\xc2\x1d\x1a\x92\x99l\xd5?\xc1\x91\xcf\xaf\x9b\xf9\xda?(\x8c\x9c\x90\xd4\x1b\xbf?'
p165
tp166
bsS'Mallows-greedy-RE'
p167
((lp168
I0
aI3
aI1
aI2
ag34
(g12
S'qm\xd2i6\xcd\xf3?'
p169
tp170
Rp171
tp172
s.