(dp0
S'PCMC-RE'
p1
cnumpy.core.multiarray
_reconstruct
p2
(cnumpy
ndarray
p3
(I0
tp4
S'b'
p5
tp6
Rp7
(I1
(I12
tp8
cnumpy
dtype
p9
(S'f8'
p10
I0
I1
tp11
Rp12
(I3
S'<'
p13
NNNI-1
I-1
I0
tp14
bI00
S't\x89M\xef\x1d\x14\xe8?\xe0\x9c\x88\xd2\xe9\rQ?Z\x1bEH\rL\xd3?1}U\x0cG\xdf\xe9?*\x81\x0fCS\x91\xf4?j\xe1\xeeI\x1b\x00i?\xfc\xa9\xf1\xd2MbP?\xe7\x93XX\xb3i\x0c@\t>\xf5ju\xefd?^\x14\x1eC)U\xec?\xfa>Jc\x87\xe1h?gJ3S#\xads?'
p15
tp16
bsS'MMNL-RE'
p17
g2
(g3
(I0
tp18
g5
tp19
Rp20
(I1
(I10
tp21
g12
I00
S"'\x89\x98\xb3\x9f\xc2\xd6?l\xbb3&\xb0\x9e\xe4?\xb2\x0e\n\xfdb\xa4\x8d?\x0f\xb4\xb71\x8f8\xf6?\xf3\xbf\x87\xc0\x95\x0c\xf0?\xb7\xd4\xadc\x84/\xcd?\xe0|t\xfaQL\xb7?s\xe2\xb7=\x10\xf5\xd0?\xedB>\x0ez$\x9c? \x9b.\x91\xda\xca\xd8?"
p22
tp23
bsS'PL-RE'
p24
g2
(g3
(I0
tp25
g5
tp26
Rp27
(I1
(I4
tp28
g12
I00
S'\x95YU\xe3E5\xd6?\x82P\xb3o\x96\x1a\xd6?\xb0\xb5\xf6\x00\xd4$\xc6?&\xf6\xf7Xs;\xc1?'
p29
tp30
bsS'N'
p31
I4
sS'Mallows-greedy'
p32
((lp33
I3
aI2
aI0
aI1
acnumpy.core.multiarray
scalar
p34
(g12
S'i{}F\x161\xf1?'
p35
tp36
Rp37
tp38
sS'MMNL'
p39
g2
(g3
(I0
tp40
g5
tp41
Rp42
(I1
(I10
tp43
g12
I00
S't\xa2\x1c\xc2^\x1e\xe8?3v\x8d\xf7\x84\x86\xcf?1\xf3\x82xI\xe2\xd3?\x00\x0c/\x0c\x865\x84?_\x1a$\xa6\x87\xb1\xbd?\xa3T\x11\xd8\xa3\xb3\xea?x\x9c\x03#\x8e<\xe0?\\3\x83\xf1I\x04\xf3?\xf5M~\x12#\x97\xf0?\x9f\x1c\x9d%\x1eB\x80?'
p44
tp45
bsS'test-lists'
p46
(lp47
(lp48
I0
aI3
aI2
aI1
aa(lp49
I2
aI3
aI1
aI0
aa(lp50
I0
aI3
aI1
aI2
aa(lp51
I3
aI2
aI1
aI0
aa(lp52
I3
aI2
aI1
aI0
aa(lp53
I3
aI2
aI1
aI0
aa(lp54
I2
aI1
aI3
aI0
aa(lp55
I1
aI2
aI3
aI0
aa(lp56
I2
aI3
aI0
aI1
aa(lp57
I3
aI2
aI1
aI0
aa(lp58
I3
aI2
aI1
aI0
aa(lp59
I2
aI3
aI1
aI0
aa(lp60
I3
aI2
aI0
aI1
aa(lp61
I1
aI2
aI0
aI3
aa(lp62
I3
aI2
aI0
aI1
aa(lp63
I0
aI3
aI2
aI1
aa(lp64
I2
aI1
aI0
aI3
aa(lp65
I3
aI0
aI1
aI2
aa(lp66
I3
aI0
aI2
aI1
aa(lp67
I2
aI3
aI1
aI0
aa(lp68
I1
aI0
aI2
aI3
aa(lp69
I3
aI0
aI1
aI2
aa(lp70
I3
aI2
aI1
aI0
aa(lp71
I3
aI1
aI2
aI0
aa(lp72
I1
aI3
aI2
aI0
aa(lp73
I3
aI0
aI2
aI1
aa(lp74
I3
aI0
aI1
aI2
aa(lp75
I1
aI3
aI0
aI2
aa(lp76
I1
aI3
aI2
aI0
aa(lp77
I2
aI3
aI1
aI0
aa(lp78
I1
aI2
aI0
aI3
aa(lp79
I0
aI3
aI2
aI1
aa(lp80
I0
aI2
aI1
aI3
aa(lp81
I0
aI2
aI3
aI1
aa(lp82
I3
aI2
aI0
aI1
aa(lp83
I0
aI2
aI3
aI1
aa(lp84
I3
aI1
aI2
aI0
aa(lp85
I3
aI0
aI2
aI1
aa(lp86
I2
aI3
aI1
aI0
aa(lp87
I1
aI2
aI3
aI0
aa(lp88
I1
aI0
aI2
aI3
aa(lp89
I3
aI2
aI1
aI0
aa(lp90
I3
aI2
aI0
aI1
aa(lp91
I3
aI0
aI2
aI1
aa(lp92
I3
aI2
aI1
aI0
aa(lp93
I2
aI3
aI1
aI0
aa(lp94
I3
aI1
aI2
aI0
aa(lp95
I3
aI0
aI2
aI1
aa(lp96
I0
aI3
aI2
aI1
aa(lp97
I3
aI2
aI0
aI1
aa(lp98
I0
aI1
aI2
aI3
aa(lp99
I3
aI0
aI2
aI1
aa(lp100
I3
aI2
aI0
aI1
aa(lp101
I2
aI1
aI3
aI0
aa(lp102
I2
aI3
aI0
aI1
aa(lp103
I1
aI0
aI2
aI3
aa(lp104
I2
aI3
aI1
aI0
aa(lp105
I2
aI0
aI3
aI1
aa(lp106
I3
aI2
aI0
aI1
aa(lp107
I3
aI2
aI1
aI0
aa(lp108
I3
aI2
aI1
aI0
aa(lp109
I3
aI2
aI0
aI1
aa(lp110
I3
aI0
aI2
aI1
aa(lp111
I2
aI1
aI3
aI0
aa(lp112
I2
aI0
aI1
aI3
aa(lp113
I2
aI3
aI1
aI0
aa(lp114
I3
aI0
aI2
aI1
aa(lp115
I3
aI0
aI2
aI1
aa(lp116
I3
aI1
aI2
aI0
aa(lp117
I2
aI3
aI1
aI0
aa(lp118
I3
aI0
aI2
aI1
aa(lp119
I2
aI3
aI1
aI0
aa(lp120
I1
aI2
aI3
aI0
aa(lp121
I3
aI2
aI1
aI0
aa(lp122
I2
aI1
aI0
aI3
aa(lp123
I2
aI0
aI3
aI1
aa(lp124
I2
aI3
aI1
aI0
aa(lp125
I3
aI2
aI0
aI1
aa(lp126
I2
aI3
aI0
aI1
aa(lp127
I0
aI3
aI2
aI1
aa(lp128
I3
aI0
aI2
aI1
aa(lp129
I0
aI1
aI2
aI3
aa(lp130
I3
aI0
aI2
aI1
aa(lp131
I0
aI3
aI2
aI1
aa(lp132
I3
aI0
aI2
aI1
aa(lp133
I0
aI2
aI3
aI1
aa(lp134
I1
aI3
aI2
aI0
aa(lp135
I2
aI3
aI1
aI0
aa(lp136
I3
aI2
aI1
aI0
aa(lp137
I2
aI3
aI0
aI1
aa(lp138
I0
aI3
aI2
aI1
aa(lp139
I3
aI0
aI2
aI1
aa(lp140
I3
aI2
aI0
aI1
aa(lp141
I1
aI2
aI3
aI0
aa(lp142
I3
aI0
aI2
aI1
aa(lp143
I3
aI2
aI1
aI0
aa(lp144
I3
aI0
aI2
aI1
aasS'PCMC'
p145
g2
(g3
(I0
tp146
g5
tp147
Rp148
(I1
(I12
tp149
g12
I00
S'\xd2\xf7\xca\x14\xcdkW?\xda\xc7\xc4\xf4\xd9\xde\xe7?\xd2\x9b;\x04en\xe7?\xd1\xa5\x18\xa8\xea\xf1T?\xdcyY\xf4\xf4\x8a\xd1?\x05+\xfb9\x97Y\xe2?\x81d\xb1\xf3\x90\xe1\xd1?L\xb4\x17\xe8A\xba\xac?\xe8\x00\xea`\xab!\xed?ol\xce\xcb\x90\xa4\xd3?p\x1b\xf4\x89\xf8O\xd3?\x96Z\xe9\xe9\xdf[\xe2?'
p150
tp151
bsS'PL'
p152
g2
(g3
(I0
tp153
g5
tp154
Rp155
(I1
(I4
tp156
g12
I00
S'\xf4\x9a[\xba\xb0{\xc1?\x12d\xbf\xfa?\x95\xc1?\x11\xfe\xc7\xf0\x1a?\xd6?i\x82\xaa\xb4l8\xd8?'
p157
tp158
bsS'Mallows-greedy-RE'
p159
((lp160
I0
aI1
aI2
aI3
ag34
(g12
S'FSCr\xf3+\xf1?'
p161
tp162
Rp163
tp164
s.