(dp0
S'PCMC-RE'
p1
cnumpy.core.multiarray
_reconstruct
p2
(cnumpy
ndarray
p3
(I0
tp4
S'b'
p5
tp6
Rp7
(I1
(I6
tp8
cnumpy
dtype
p9
(S'f8'
p10
I0
I1
tp11
Rp12
(I3
S'<'
p13
NNNI-1
I-1
I0
tp14
bI00
S'\\\x11\xcc1\xb38\xe8?\x8f\xa2\xd2\x97\xcc\xa6\xe2?&\xcci\x8e\xf7\xf6\xdb?\xfc\xa9\xf1\xd2MbP?o\xae\xaeH\x96\xd5\xfd?x\x8c\xf9\x02h\x91l?'
p15
tp16
bsS'MMNL-RE'
p17
g2
(g3
(I0
tp18
g5
tp19
Rp20
(I1
(I4
tp21
g12
I00
S'\x00\x00\x00\x00\x00\x00\xf0?\xfe\xba\x8e\x92J\xa4\xef?i\xf2V\xb0\xae\x08\xfa?\xbf9T*\xe8N\xd5?'
p22
tp23
bsS'PL-RE'
p24
g2
(g3
(I0
tp25
g5
tp26
Rp27
(I1
(I3
tp28
g12
I00
S'`w\xf4o\xd5u\xd5?"\x0c\x01\x9f*\xa8\xe1?m\xc1%HU\xe7\xbc?'
p29
tp30
bsS'N'
p31
I3
sS'Mallows-greedy'
p32
((lp33
I2
aI0
aI1
acnumpy.core.multiarray
scalar
p34
(g12
S'\xdbHxG\x04\x91\xf5?'
p35
tp36
Rp37
tp38
sS'MMNL'
p39
g2
(g3
(I0
tp40
g5
tp41
Rp42
(I1
(I4
tp43
g12
I00
S'\x00\x00\x00\x00\x00\x00\xf0?\x8f\xa2g\xe9\x1f\x04\xde?\xd0\xa4\xa7\xb0,\xa1\xd2?\xc1\x8a\x00\xde\x9d\t\xf7?'
p44
tp45
bsS'test-lists'
p46
(lp47
(lp48
I0
aI2
aI1
aa(lp49
I2
aI0
aI1
aa(lp50
I0
aI2
aI1
aa(lp51
I0
aI2
aI1
aa(lp52
I2
aI0
aI1
aa(lp53
I1
aI0
aI2
aa(lp54
I2
aI0
aI1
aa(lp55
I1
aI0
aI2
aa(lp56
I0
aI2
aI1
aa(lp57
I2
aI0
aI1
aa(lp58
I1
aI2
aI0
aa(lp59
I2
aI0
aI1
aa(lp60
I1
aI0
aI2
aa(lp61
I2
aI1
aI0
aa(lp62
I2
aI1
aI0
aa(lp63
I2
aI1
aI0
aa(lp64
I0
aI1
aI2
aa(lp65
I2
aI0
aI1
aa(lp66
I2
aI0
aI1
aa(lp67
I2
aI0
aI1
aa(lp68
I2
aI0
aI1
aa(lp69
I2
aI0
aI1
aa(lp70
I2
aI0
aI1
aa(lp71
I2
aI0
aI1
aa(lp72
I2
aI0
aI1
aa(lp73
I0
aI1
aI2
aa(lp74
I2
aI0
aI1
aa(lp75
I2
aI1
aI0
aa(lp76
I2
aI1
aI0
aa(lp77
I1
aI0
aI2
aa(lp78
I0
aI2
aI1
aa(lp79
I2
aI0
aI1
aa(lp80
I1
aI2
aI0
aa(lp81
I2
aI0
aI1
aa(lp82
I1
aI2
aI0
aa(lp83
I2
aI1
aI0
aa(lp84
I1
aI2
aI0
aa(lp85
I0
aI2
aI1
aa(lp86
I0
aI2
aI1
aa(lp87
I2
aI1
aI0
aa(lp88
I2
aI0
aI1
aa(lp89
I0
aI1
aI2
aa(lp90
I2
aI1
aI0
aa(lp91
I2
aI0
aI1
aa(lp92
I0
aI1
aI2
aa(lp93
I2
aI1
aI0
aa(lp94
I2
aI1
aI0
aa(lp95
I1
aI2
aI0
aa(lp96
I2
aI1
aI0
aa(lp97
I2
aI0
aI1
aa(lp98
I1
aI0
aI2
aa(lp99
I0
aI2
aI1
aa(lp100
I2
aI1
aI0
aa(lp101
I2
aI0
aI1
aa(lp102
I2
aI0
aI1
aa(lp103
I2
aI0
aI1
aa(lp104
I2
aI1
aI0
aa(lp105
I0
aI2
aI1
aa(lp106
I0
aI1
aI2
aa(lp107
I2
aI1
aI0
aa(lp108
I2
aI0
aI1
aa(lp109
I2
aI0
aI1
aa(lp110
I2
aI0
aI1
aa(lp111
I2
aI0
aI1
aa(lp112
I2
aI0
aI1
aa(lp113
I0
aI2
aI1
aa(lp114
I2
aI1
aI0
aa(lp115
I1
aI0
aI2
aa(lp116
I1
aI2
aI0
aa(lp117
I2
aI0
aI1
aa(lp118
I2
aI1
aI0
aa(lp119
I2
aI1
aI0
aa(lp120
I0
aI2
aI1
aa(lp121
I2
aI0
aI1
aa(lp122
I2
aI1
aI0
aa(lp123
I2
aI0
aI1
aa(lp124
I2
aI1
aI0
aa(lp125
I2
aI0
aI1
aa(lp126
I2
aI0
aI1
aa(lp127
I2
aI0
aI1
aa(lp128
I2
aI0
aI1
aa(lp129
I2
aI0
aI1
aa(lp130
I2
aI0
aI1
aa(lp131
I2
aI1
aI0
aa(lp132
I2
aI0
aI1
aa(lp133
I2
aI0
aI1
aa(lp134
I0
aI1
aI2
aa(lp135
I0
aI2
aI1
aa(lp136
I2
aI0
aI1
aa(lp137
I2
aI0
aI1
aa(lp138
I2
aI0
aI1
aa(lp139
I0
aI1
aI2
aa(lp140
I2
aI1
aI0
aa(lp141
I0
aI1
aI2
aa(lp142
I2
aI0
aI1
aa(lp143
I2
aI1
aI0
aa(lp144
I2
aI0
aI1
aa(lp145
I2
aI1
aI0
aa(lp146
I2
aI0
aI1
aa(lp147
I2
aI1
aI0
aa(lp148
I2
aI1
aI0
aa(lp149
I2
aI1
aI0
aa(lp150
I0
aI2
aI1
aa(lp151
I2
aI1
aI0
aa(lp152
I2
aI0
aI1
aa(lp153
I2
aI0
aI1
aa(lp154
I1
aI2
aI0
aa(lp155
I2
aI1
aI0
aa(lp156
I2
aI0
aI1
aa(lp157
I2
aI0
aI1
aa(lp158
I2
aI0
aI1
aa(lp159
I2
aI1
aI0
aa(lp160
I2
aI1
aI0
aa(lp161
I1
aI2
aI0
aa(lp162
I2
aI1
aI0
aa(lp163
I2
aI1
aI0
aa(lp164
I2
aI0
aI1
aa(lp165
I2
aI0
aI1
aa(lp166
I2
aI0
aI1
aa(lp167
I2
aI0
aI1
aa(lp168
I0
aI2
aI1
aa(lp169
I2
aI0
aI1
aa(lp170
I2
aI1
aI0
aasS'PCMC'
p171
g2
(g3
(I0
tp172
g5
tp173
Rp174
(I1
(I6
tp175
g12
I00
S'Z\xab:\x8d\xde\xa9\xea?\x01B\x13"EL\x00@[$,\'\x1bO\xf6?\x8c\x01\xf5:w\x17e?})\x99>_/\xe3?\xfc\xa9\xf1\xd2MbP?'
p176
tp177
bsS'PL'
p178
g2
(g3
(I0
tp179
g5
tp180
Rp181
(I1
(I3
tp182
g12
I00
S'\xdbW\xdb\xab\xc4I\xcb?\xb7\xa8\xdc\xe1\xbc\xef\xc0?\xdb\xff\x91\x9c\x9f\xf1\xe4?'
p183
tp184
bsS'Mallows-greedy-RE'
p185
((lp186
I1
aI0
aI2
ag34
(g12
S'\xdbHxG\x04\x91\xf5?'
p187
tp188
Rp189
tp190
s.