(dp0
S'PCMC-RE'
p1
cnumpy.core.multiarray
_reconstruct
p2
(cnumpy
ndarray
p3
(I0
tp4
S'b'
p5
tp6
Rp7
(I1
(I6
tp8
cnumpy
dtype
p9
(S'f8'
p10
I0
I1
tp11
Rp12
(I3
S'<'
p13
NNNI-1
I-1
I0
tp14
bI00
S'\x92\xa5\xcf3\x94\xde\x9e?Ku\xd5\x84\xcb\xf6\x19@H\x7fM\xe9\xf5\x81\x98?\x17\x01\x82\xae~\x18\xa4?\xdd\xcb\xb3\x86\xf4\x0c\x10@\xdff\xe8\xba\x1f,\x94?'
p15
tp16
bsS'MMNL-RE'
p17
g2
(g3
(I0
tp18
g5
tp19
Rp20
(I1
(I4
tp21
g12
I00
S'\x00\x00\x00\x00\x00\x00\xf0?\xdb\x0f\x85\xbd\xea\x86\xe9?MV\xe5\x9d\xdd\xe2\xe9?QU\xc6\xff\xf3R\xf6?'
p22
tp23
bsS'PL-RE'
p24
g2
(g3
(I0
tp25
g5
tp26
Rp27
(I1
(I3
tp28
g12
I00
S'\x11\xadH?\xd5\x01\xd1?%\xb7\x0e\xbb\x15?\xd1?\xcb\x9b\xa8\x05\x15\xbf\xdd?'
p29
tp30
bsS'N'
p31
I3
sS'Mallows-greedy'
p32
((lp33
I1
aI0
aI2
acnumpy.core.multiarray
scalar
p34
(g12
S'3\xd0\xb6k\xb6\xf7\xeb?'
p35
tp36
Rp37
tp38
sS'MMNL'
p39
g2
(g3
(I0
tp40
g5
tp41
Rp42
(I1
(I4
tp43
g12
I00
S'\x00\x00\x00\x00\x00\x00\xf0?\xc9k\xcd\x85%\x90\xf0?\xac\x135\x99o\xe3\xf0?x\xc8\xdf\xa4"=\xe6?'
p44
tp45
bsS'test-lists'
p46
(lp47
(lp48
I1
aI0
aI2
aa(lp49
I0
aI2
aI1
aa(lp50
I0
aI1
aI2
aa(lp51
I0
aI2
aI1
aa(lp52
I0
aI2
aI1
aa(lp53
I0
aI2
aI1
aa(lp54
I2
aI1
aI0
aa(lp55
I0
aI2
aI1
aa(lp56
I0
aI1
aI2
aa(lp57
I1
aI2
aI0
aa(lp58
I0
aI1
aI2
aa(lp59
I0
aI2
aI1
aa(lp60
I1
aI2
aI0
aa(lp61
I0
aI2
aI1
aa(lp62
I0
aI2
aI1
aa(lp63
I0
aI1
aI2
aa(lp64
I2
aI0
aI1
aa(lp65
I0
aI2
aI1
aa(lp66
I1
aI0
aI2
aa(lp67
I1
aI0
aI2
aa(lp68
I0
aI1
aI2
aa(lp69
I1
aI2
aI0
aa(lp70
I2
aI0
aI1
aa(lp71
I1
aI0
aI2
aa(lp72
I0
aI1
aI2
aa(lp73
I2
aI0
aI1
aa(lp74
I2
aI1
aI0
aa(lp75
I2
aI1
aI0
aa(lp76
I0
aI2
aI1
aa(lp77
I2
aI1
aI0
aa(lp78
I2
aI0
aI1
aa(lp79
I0
aI1
aI2
aa(lp80
I0
aI1
aI2
aa(lp81
I1
aI0
aI2
aa(lp82
I1
aI0
aI2
aa(lp83
I0
aI2
aI1
aa(lp84
I0
aI2
aI1
aa(lp85
I2
aI1
aI0
aa(lp86
I0
aI1
aI2
aa(lp87
I0
aI1
aI2
aa(lp88
I1
aI2
aI0
aa(lp89
I1
aI2
aI0
aa(lp90
I0
aI2
aI1
aa(lp91
I2
aI1
aI0
aa(lp92
I0
aI2
aI1
aa(lp93
I0
aI1
aI2
aa(lp94
I0
aI2
aI1
aa(lp95
I0
aI1
aI2
aa(lp96
I0
aI2
aI1
aa(lp97
I1
aI0
aI2
aa(lp98
I0
aI2
aI1
aa(lp99
I0
aI1
aI2
aa(lp100
I1
aI0
aI2
aa(lp101
I1
aI0
aI2
aa(lp102
I0
aI1
aI2
aa(lp103
I2
aI1
aI0
aa(lp104
I0
aI2
aI1
aa(lp105
I1
aI0
aI2
aa(lp106
I1
aI0
aI2
aa(lp107
I1
aI0
aI2
aa(lp108
I1
aI2
aI0
aa(lp109
I1
aI0
aI2
aa(lp110
I1
aI2
aI0
aa(lp111
I0
aI2
aI1
aa(lp112
I0
aI1
aI2
aa(lp113
I1
aI2
aI0
aa(lp114
I2
aI0
aI1
aa(lp115
I1
aI2
aI0
aa(lp116
I0
aI2
aI1
aa(lp117
I0
aI2
aI1
aa(lp118
I0
aI1
aI2
aa(lp119
I0
aI1
aI2
aa(lp120
I0
aI2
aI1
aa(lp121
I0
aI1
aI2
aa(lp122
I2
aI0
aI1
aa(lp123
I0
aI2
aI1
aa(lp124
I0
aI2
aI1
aa(lp125
I1
aI2
aI0
aa(lp126
I0
aI2
aI1
aa(lp127
I0
aI1
aI2
aa(lp128
I0
aI1
aI2
aa(lp129
I1
aI2
aI0
aa(lp130
I1
aI0
aI2
aa(lp131
I2
aI1
aI0
aa(lp132
I2
aI1
aI0
aa(lp133
I1
aI0
aI2
aa(lp134
I0
aI1
aI2
aa(lp135
I1
aI2
aI0
aa(lp136
I0
aI1
aI2
aa(lp137
I1
aI0
aI2
aa(lp138
I1
aI0
aI2
aa(lp139
I1
aI0
aI2
aa(lp140
I0
aI1
aI2
aa(lp141
I1
aI0
aI2
aa(lp142
I1
aI2
aI0
aa(lp143
I2
aI0
aI1
aa(lp144
I1
aI0
aI2
aa(lp145
I1
aI0
aI2
aa(lp146
I2
aI0
aI1
aa(lp147
I2
aI1
aI0
aa(lp148
I1
aI2
aI0
aasS'PCMC'
p149
g2
(g3
(I0
tp150
g5
tp151
Rp152
(I1
(I6
tp153
g12
I00
S'\xea\x12:O\xd3\xaa7@M\xb7\xdf\xb3\xef\nR?,\xe5W\xafi\x9e:@]\xccB\xab\xa6YT@\xfc\xa9\xf1\xd2MbP?j\x0c\x17*\xf3\xa5a@'
p154
tp155
bsS'PL'
p156
g2
(g3
(I0
tp157
g5
tp158
Rp159
(I1
(I3
tp160
g12
I00
S'\xd9\xdfd\xa7~\xc8\xd7?\xb1c\x0e\x8b\x12@\xd8?\xefx\x19\x9b\xdd\xee\xcf?'
p161
tp162
bsS'Mallows-greedy-RE'
p163
((lp164
I2
aI1
aI0
ag34
(g12
S'*\xca\x95vT(\xec?'
p165
tp166
Rp167
tp168
s.