(dp0
S'PCMC-RE'
p1
cnumpy.core.multiarray
_reconstruct
p2
(cnumpy
ndarray
p3
(I0
tp4
S'b'
p5
tp6
Rp7
(I1
(I6
tp8
cnumpy
dtype
p9
(S'f8'
p10
I0
I1
tp11
Rp12
(I3
S'<'
p13
NNNI-1
I-1
I0
tp14
bI00
S'\xfc\xa9\xf1\xd2MbP?\x8eU\xdb\xb5\xfe\x88\x05@3\n5\x12f\xc3_?\x1d\xe8V@\x17\x9b\xe3?\xa5\xd23\xb2\x98\xf9\xfb?6JK\xabU\x1d\xdf?'
p15
tp16
bsS'MMNL-RE'
p17
g2
(g3
(I0
tp18
g5
tp19
Rp20
(I1
(I4
tp21
g12
I00
S'\x00\x00\x00\x00\x00\x00\xf0?\xffH)>\x8eI\xe2?\xddW\xe1\xeb\x86\xc6\xdf?\xe5\x9b"K\x1f\x10\xe8?'
p22
tp23
bsS'PL-RE'
p24
g2
(g3
(I0
tp25
g5
tp26
Rp27
(I1
(I3
tp28
g12
I00
S'z\xcf\x1c\x1c\xbd\x18\xd4?\xcf\x86&\x90\xabu\xd1?\xb5\xa9\xbcS\x97q\xda?'
p29
tp30
bsS'N'
p31
I3
sS'Mallows-greedy'
p32
((lp33
I1
aI0
aI2
acnumpy.core.multiarray
scalar
p34
(g12
S'\xbch\xb0\xdbA\x16\xeb?'
p35
tp36
Rp37
tp38
sS'MMNL'
p39
g2
(g3
(I0
tp40
g5
tp41
Rp42
(I1
(I4
tp43
g12
I00
S'\x00\x00\x00\x00\x00\x00\xf0?\x98\x02\xdcvR\x83\xf1?\xc4\xd5\xc4\x01;g\xf0?\x19\x06\xa8jc|\xe5?'
p44
tp45
bsS'test-lists'
p46
(lp47
(lp48
I1
aI0
aI2
aa(lp49
I1
aI0
aI2
aa(lp50
I1
aI0
aI2
aa(lp51
I2
aI1
aI0
aa(lp52
I0
aI2
aI1
aa(lp53
I2
aI0
aI1
aa(lp54
I1
aI0
aI2
aa(lp55
I0
aI2
aI1
aa(lp56
I2
aI0
aI1
aa(lp57
I0
aI1
aI2
aa(lp58
I1
aI2
aI0
aa(lp59
I1
aI0
aI2
aa(lp60
I1
aI0
aI2
aa(lp61
I0
aI1
aI2
aa(lp62
I1
aI0
aI2
aa(lp63
I1
aI2
aI0
aa(lp64
I1
aI0
aI2
aa(lp65
I0
aI1
aI2
aa(lp66
I2
aI0
aI1
aa(lp67
I0
aI2
aI1
aa(lp68
I1
aI0
aI2
aa(lp69
I0
aI2
aI1
aa(lp70
I1
aI2
aI0
aa(lp71
I1
aI0
aI2
aa(lp72
I2
aI1
aI0
aa(lp73
I2
aI0
aI1
aa(lp74
I2
aI0
aI1
aa(lp75
I0
aI1
aI2
aa(lp76
I1
aI2
aI0
aa(lp77
I2
aI0
aI1
aa(lp78
I1
aI0
aI2
aa(lp79
I2
aI1
aI0
aa(lp80
I2
aI0
aI1
aa(lp81
I1
aI0
aI2
aa(lp82
I0
aI2
aI1
aa(lp83
I1
aI0
aI2
aa(lp84
I1
aI2
aI0
aa(lp85
I2
aI0
aI1
aa(lp86
I1
aI0
aI2
aa(lp87
I2
aI0
aI1
aa(lp88
I2
aI0
aI1
aa(lp89
I2
aI1
aI0
aa(lp90
I2
aI0
aI1
aa(lp91
I2
aI1
aI0
aa(lp92
I1
aI2
aI0
aa(lp93
I1
aI2
aI0
aa(lp94
I0
aI2
aI1
aa(lp95
I1
aI2
aI0
aa(lp96
I2
aI0
aI1
aa(lp97
I2
aI0
aI1
aa(lp98
I1
aI2
aI0
aa(lp99
I0
aI2
aI1
aa(lp100
I1
aI2
aI0
aa(lp101
I1
aI0
aI2
aa(lp102
I1
aI2
aI0
aa(lp103
I0
aI1
aI2
aa(lp104
I1
aI2
aI0
aa(lp105
I0
aI2
aI1
aa(lp106
I2
aI0
aI1
aa(lp107
I1
aI0
aI2
aa(lp108
I2
aI1
aI0
aa(lp109
I1
aI0
aI2
aa(lp110
I0
aI2
aI1
aa(lp111
I0
aI1
aI2
aa(lp112
I1
aI0
aI2
aa(lp113
I2
aI0
aI1
aa(lp114
I1
aI0
aI2
aa(lp115
I2
aI0
aI1
aa(lp116
I0
aI2
aI1
aa(lp117
I1
aI2
aI0
aa(lp118
I0
aI1
aI2
aa(lp119
I2
aI1
aI0
aa(lp120
I2
aI1
aI0
aa(lp121
I1
aI2
aI0
aa(lp122
I2
aI1
aI0
aa(lp123
I0
aI1
aI2
aa(lp124
I0
aI1
aI2
aa(lp125
I2
aI0
aI1
aa(lp126
I1
aI2
aI0
aa(lp127
I0
aI1
aI2
aa(lp128
I2
aI0
aI1
aa(lp129
I1
aI0
aI2
aa(lp130
I2
aI0
aI1
aa(lp131
I2
aI1
aI0
aa(lp132
I1
aI0
aI2
aa(lp133
I2
aI0
aI1
aa(lp134
I1
aI0
aI2
aa(lp135
I0
aI1
aI2
aa(lp136
I1
aI2
aI0
aa(lp137
I2
aI1
aI0
aa(lp138
I2
aI0
aI1
aa(lp139
I1
aI0
aI2
aa(lp140
I0
aI1
aI2
aa(lp141
I2
aI1
aI0
aa(lp142
I0
aI1
aI2
aa(lp143
I1
aI0
aI2
aa(lp144
I2
aI0
aI1
aa(lp145
I1
aI0
aI2
aa(lp146
I0
aI2
aI1
aa(lp147
I1
aI0
aI2
aasS'PCMC'
p148
g2
(g3
(I0
tp149
g5
tp150
Rp151
(I1
(I6
tp152
g12
I00
S'K\x7ff\xf5\xfb\x89j@\xfc\xa9\xf1\xd2MbP?O\x89_\x8b\xb8Ih@B\xbb3\x99\xa3\x0c#@\xe7\xa3\xefb\n\xf7h?B\xfe\x11\xe47\xe3(@'
p153
tp154
bsS'PL'
p155
g2
(g3
(I0
tp156
g5
tp157
Rp158
(I1
(I3
tp159
g12
I00
S'\xa2j{|\xf1\x18\xd9?\x9a\xaf_u\xd1\x81\xd7?\x87\xcbI\x1cz\xca\xce?'
p160
tp161
bsS'Mallows-greedy-RE'
p162
((lp163
I2
aI0
aI1
ag34
(g12
S'\xbch\xb0\xdbA\x16\xeb?'
p164
tp165
Rp166
tp167
s.