(dp0
S'PCMC-RE'
p1
cnumpy.core.multiarray
_reconstruct
p2
(cnumpy
ndarray
p3
(I0
tp4
S'b'
p5
tp6
Rp7
(I1
(I12
tp8
cnumpy
dtype
p9
(S'f8'
p10
I0
I1
tp11
Rp12
(I3
S'<'
p13
NNNI-1
I-1
I0
tp14
bI00
S"\x11d\xff/w\xef\xf4?\xfe\xa5\xfa8\xe6\xf7\x80?L\x17\xc9\\\xb6@\x02@\xf6\xc3/F\xe4^+@\xc5l\xcf\xcbs\x7f\xab?\xfc\xa9\xf1\xd2MbP?'i\x86\xe9&+\x9e?\xf8\xec\xd7\x9c;\xd9\xa3?\xdb\x97%\x9b\xad+\xa3?m\xb5$b\x04\x1b\x16@\r\xb4\xe9\xddE\xe8c?$d\xa8l\xbc3\xb3?"
p15
tp16
bsS'MMNL-RE'
p17
g2
(g3
(I0
tp18
g5
tp19
Rp20
(I1
(I10
tp21
g12
I00
S'krf\xe2_\x88\xcc?ecf\x07\xe8\xdd\xe8?\xe8\x16\xaf\x9d\x16k\x13?v4\xa8\xc0\xacm\x04@\xa2\xde"`\xde\x89\xfa>\xa6\x0f\xd6n[\xd0\xd5?\x95\xd6&\xe8\x0b.\x11>\x81%\xa2\xd6\xe9\x90\xea?\xc3\xcdu\xafON\x10@1\xcb)\xd91\xf9\xa1?'
p22
tp23
bsS'PL-RE'
p24
g2
(g3
(I0
tp25
g5
tp26
Rp27
(I1
(I4
tp28
g12
I00
S's\xfc_x\x13\x9f\xe1?!K\xf7\xe0\xc8\x0b\xc0?\xf5z\x8f\xfck\x9d\xc9?E\x90\xf2\x81\xfa\xb4\xbf?'
p29
tp30
bsS'N'
p31
I4
sS'Mallows-greedy'
p32
((lp33
I1
aI3
aI2
aI0
acnumpy.core.multiarray
scalar
p34
(g12
S'\x0f\xef\xb2\x13Y\x94\xf2?'
p35
tp36
Rp37
tp38
sS'MMNL'
p39
g2
(g3
(I0
tp40
g5
tp41
Rp42
(I1
(I10
tp43
g12
I00
S'\xf6\xf2\xe5\x9c\x0c\x15\xdc?\x85\x06\x8d\xb1y\xf5\xe1?\x95\xd6&\xe8\x0b.\x11>\x95\xd9\xe6\x19\xf4o\xd2?\x16\xe0)h\xab\xa8\xd5?r\xfbu<\xce\x88\xf6?\x95\xd6&\xe8\x0b.\x11>\x08\xfc\xc1\xd2\xa4\\\xf3?>\xe6\x8f\xcdQ^\xfa?\x95\xd6&\xe8\x0b.\x11>'
p44
tp45
bsS'test-lists'
p46
(lp47
(lp48
I2
aI1
aI0
aI3
aa(lp49
I3
aI1
aI2
aI0
aa(lp50
I1
aI2
aI3
aI0
aa(lp51
I3
aI1
aI2
aI0
aa(lp52
I3
aI1
aI2
aI0
aa(lp53
I0
aI2
aI1
aI3
aa(lp54
I1
aI0
aI2
aI3
aa(lp55
I2
aI1
aI0
aI3
aa(lp56
I0
aI3
aI2
aI1
aa(lp57
I3
aI2
aI1
aI0
aa(lp58
I2
aI1
aI3
aI0
aa(lp59
I1
aI2
aI3
aI0
aa(lp60
I3
aI1
aI2
aI0
aa(lp61
I3
aI1
aI2
aI0
aa(lp62
I2
aI1
aI3
aI0
aa(lp63
I3
aI2
aI1
aI0
aa(lp64
I3
aI1
aI0
aI2
aa(lp65
I1
aI2
aI3
aI0
aa(lp66
I1
aI2
aI3
aI0
aa(lp67
I1
aI3
aI2
aI0
aa(lp68
I1
aI2
aI0
aI3
aa(lp69
I3
aI2
aI1
aI0
aa(lp70
I3
aI1
aI2
aI0
aa(lp71
I2
aI1
aI0
aI3
aa(lp72
I2
aI3
aI1
aI0
aa(lp73
I2
aI1
aI3
aI0
aa(lp74
I2
aI1
aI3
aI0
aa(lp75
I3
aI2
aI1
aI0
aa(lp76
I3
aI1
aI2
aI0
aa(lp77
I2
aI1
aI0
aI3
aa(lp78
I2
aI1
aI3
aI0
aa(lp79
I3
aI2
aI1
aI0
aa(lp80
I2
aI1
aI0
aI3
aa(lp81
I3
aI1
aI0
aI2
aa(lp82
I1
aI0
aI3
aI2
aa(lp83
I2
aI1
aI0
aI3
aa(lp84
I3
aI1
aI0
aI2
aa(lp85
I3
aI1
aI2
aI0
aa(lp86
I3
aI1
aI0
aI2
aa(lp87
I3
aI1
aI2
aI0
aa(lp88
I1
aI2
aI0
aI3
aa(lp89
I1
aI3
aI0
aI2
aa(lp90
I3
aI1
aI2
aI0
aa(lp91
I1
aI2
aI0
aI3
aa(lp92
I3
aI1
aI2
aI0
aa(lp93
I3
aI1
aI2
aI0
aa(lp94
I2
aI1
aI0
aI3
aa(lp95
I3
aI1
aI2
aI0
aa(lp96
I3
aI2
aI1
aI0
aa(lp97
I0
aI1
aI2
aI3
aa(lp98
I3
aI1
aI2
aI0
aa(lp99
I3
aI1
aI0
aI2
aa(lp100
I3
aI1
aI0
aI2
aa(lp101
I2
aI1
aI3
aI0
aa(lp102
I1
aI2
aI0
aI3
aa(lp103
I2
aI1
aI3
aI0
aa(lp104
I1
aI0
aI2
aI3
aa(lp105
I2
aI1
aI0
aI3
aa(lp106
I2
aI1
aI3
aI0
aa(lp107
I2
aI3
aI1
aI0
aa(lp108
I1
aI0
aI2
aI3
aa(lp109
I1
aI3
aI0
aI2
aa(lp110
I3
aI1
aI2
aI0
aa(lp111
I1
aI3
aI2
aI0
aa(lp112
I1
aI0
aI2
aI3
aa(lp113
I2
aI1
aI3
aI0
aa(lp114
I1
aI0
aI2
aI3
aa(lp115
I3
aI1
aI2
aI0
aa(lp116
I1
aI0
aI3
aI2
aa(lp117
I3
aI1
aI2
aI0
aa(lp118
I3
aI1
aI2
aI0
aa(lp119
I3
aI1
aI2
aI0
aa(lp120
I3
aI1
aI2
aI0
aa(lp121
I3
aI1
aI2
aI0
aa(lp122
I3
aI2
aI1
aI0
aa(lp123
I3
aI1
aI2
aI0
aa(lp124
I0
aI3
aI2
aI1
aa(lp125
I3
aI1
aI2
aI0
aa(lp126
I1
aI3
aI0
aI2
aa(lp127
I1
aI2
aI0
aI3
aa(lp128
I1
aI0
aI3
aI2
aa(lp129
I2
aI1
aI3
aI0
aa(lp130
I1
aI2
aI3
aI0
aa(lp131
I3
aI1
aI2
aI0
aa(lp132
I1
aI0
aI3
aI2
aa(lp133
I3
aI0
aI1
aI2
aa(lp134
I3
aI1
aI2
aI0
aa(lp135
I1
aI2
aI3
aI0
aa(lp136
I1
aI2
aI0
aI3
aa(lp137
I3
aI1
aI2
aI0
aa(lp138
I3
aI1
aI2
aI0
aa(lp139
I3
aI1
aI0
aI2
aa(lp140
I2
aI1
aI0
aI3
aa(lp141
I2
aI1
aI3
aI0
aasS'PCMC'
p142
g2
(g3
(I0
tp143
g5
tp144
Rp145
(I1
(I12
tp146
g12
I00
S'In\x85x\xdb\x9a\xf5?\x95\xe8\xd3\xfe\x89@\xe6?9\x81l\xc5\x1d|P?\xc8>\x17\x1b\x84\x86\xbb?S\x9e8\xa6<\xdc\xd5?\x80\r\x0f_\x10\x10\xe4?\x80\x15\xb2\x14\xb5&\xd5?\x19\xb4\xa5$\xb6d\xe3?\xc5}\xef0n&b?s\x95\x14\xb6\x1f\xe6U?\x1ca\x8d\xa2\x90R\xe7?x2U\xff=\xa5`?'
p147
tp148
bsS'PL'
p149
g2
(g3
(I0
tp150
g5
tp151
Rp152
(I1
(I4
tp153
g12
I00
S'\x11]\x04,\xaf\xbd\xb8?\xa0\xb8\x83=\xb6R\xdb?s\x9f\xe8\x86\x9a\x1f\xcb?a\xe0\x06\xb4\x10\xee\xd0?'
p154
tp155
bsS'Mallows-greedy-RE'
p156
((lp157
I0
aI2
aI3
aI1
ag34
(g12
S'\x0f\xef\xb2\x13Y\x94\xf2?'
p158
tp159
Rp160
tp161
s.