(dp0
S'PCMC-RE'
p1
cnumpy.core.multiarray
_reconstruct
p2
(cnumpy
ndarray
p3
(I0
tp4
S'b'
p5
tp6
Rp7
(I1
(I12
tp8
cnumpy
dtype
p9
(S'f8'
p10
I0
I1
tp11
Rp12
(I3
S'<'
p13
NNNI-1
I-1
I0
tp14
bI00
S'\xe8\xafL~m\xd4\x1d@\x14\xcb\x9c\xdeWN\xb2?\xd9\x90\x82\xb8g:\x9c?#\xe7h\x12o\xdc\xfa?\x88\xeb\x93\x8en6\x15@X\x05\x00\xcaO\xe6c?\xf3\x8e\x01Fv\xdb\x91?\x9e\xca4\xcavj\x01@\xc9\xa1xQ^2\xa7?\xdeY\xc2\x1b\xa4A\xa4?\xd2\x19\x1b\x99\xa9`w?\xe0(\xc7h\x1e\x03\xd0?'
p15
tp16
bsS'MMNL-RE'
p17
g2
(g3
(I0
tp18
g5
tp19
Rp20
(I1
(I10
tp21
g12
I00
S'>\xa8\x8a\xad\x12v\xd8?\xe2\xab:\xa9\xf6\xc4\xe3?\xcc\xc2_\x16\x91g\xe4?\x07\x99\xda\x85*\xd9\xf9>\x08\xc2\r\x1bHU\xde?I}\xb0\x9f{\x7f\xe6?\x83\xa0s)\xe2O\xe7?\xdft;<\xd9U\x01@}\x84-\xcb\x1a\xba\xe2?\xcc\xf1\xedn\xeeU\xed>'
p22
tp23
bsS'PL-RE'
p24
g2
(g3
(I0
tp25
g5
tp26
Rp27
(I1
(I4
tp28
g12
I00
S'\xc1\x9a\xee\xdd7H\xb4?\x7fJ\x08C\xde\xe4\xd1?\x0b\x1f\xe2\x96\xeaN\xe2?\xe5B\xdf^\xfa\xac\xb1?'
p29
tp30
bsS'N'
p31
I4
sS'Mallows-greedy'
p32
((lp33
I0
aI3
aI1
aI2
acnumpy.core.multiarray
scalar
p34
(g12
S'0\xd8\xc8\xc7RZ\xf6?'
p35
tp36
Rp37
tp38
sS'MMNL'
p39
g2
(g3
(I0
tp40
g5
tp41
Rp42
(I1
(I10
tp43
g12
I00
S'\xf7\x9cd\x11N\xfe\x10>\x90\rx\xff\xff\xff\xef?BX\x87\xc3c_\xc1?\xc5\xaf\xea\xbf\xfe^\xf0?\x024K\xb2\xd2#\xee?\xca\xf3J\xfa\x97t\xd3?\xc7;\x8d\n\xca\xfc\xba?5=\x96Mf\x88\xc2?{M\x9a\x91E\xc6\xd8?\x06\xb6f\xff\xf4#\xef?'
p44
tp45
bsS'test-lists'
p46
(lp47
(lp48
I0
aI1
aI3
aI2
aa(lp49
I3
aI0
aI2
aI1
aa(lp50
I3
aI0
aI1
aI2
aa(lp51
I3
aI0
aI2
aI1
aa(lp52
I3
aI2
aI0
aI1
aa(lp53
I0
aI1
aI2
aI3
aa(lp54
I0
aI1
aI2
aI3
aa(lp55
I1
aI2
aI3
aI0
aa(lp56
I3
aI0
aI1
aI2
aa(lp57
I3
aI1
aI0
aI2
aa(lp58
I3
aI0
aI2
aI1
aa(lp59
I0
aI1
aI3
aI2
aa(lp60
I3
aI0
aI1
aI2
aa(lp61
I3
aI0
aI2
aI1
aa(lp62
I0
aI2
aI3
aI1
aa(lp63
I3
aI2
aI1
aI0
aa(lp64
I3
aI0
aI1
aI2
aa(lp65
I3
aI0
aI1
aI2
aa(lp66
I1
aI0
aI2
aI3
aa(lp67
I3
aI0
aI1
aI2
aa(lp68
I0
aI1
aI3
aI2
aa(lp69
I3
aI1
aI0
aI2
aa(lp70
I3
aI1
aI0
aI2
aa(lp71
I3
aI0
aI2
aI1
aa(lp72
I0
aI3
aI2
aI1
aa(lp73
I3
aI0
aI1
aI2
aa(lp74
I0
aI3
aI2
aI1
aa(lp75
I3
aI0
aI2
aI1
aa(lp76
I2
aI0
aI3
aI1
aa(lp77
I3
aI1
aI0
aI2
aa(lp78
I1
aI0
aI3
aI2
aa(lp79
I0
aI3
aI1
aI2
aa(lp80
I1
aI0
aI2
aI3
aa(lp81
I0
aI3
aI2
aI1
aa(lp82
I3
aI0
aI1
aI2
aa(lp83
I0
aI3
aI2
aI1
aa(lp84
I3
aI0
aI1
aI2
aa(lp85
I0
aI2
aI1
aI3
aa(lp86
I0
aI2
aI3
aI1
aa(lp87
I2
aI0
aI1
aI3
aa(lp88
I2
aI3
aI1
aI0
aa(lp89
I0
aI3
aI1
aI2
aa(lp90
I1
aI3
aI0
aI2
aa(lp91
I0
aI1
aI3
aI2
aa(lp92
I0
aI2
aI3
aI1
aa(lp93
I3
aI0
aI1
aI2
aa(lp94
I0
aI3
aI1
aI2
aa(lp95
I3
aI0
aI2
aI1
aa(lp96
I0
aI2
aI3
aI1
aa(lp97
I0
aI3
aI2
aI1
aa(lp98
I3
aI0
aI1
aI2
aa(lp99
I0
aI3
aI1
aI2
aa(lp100
I0
aI2
aI1
aI3
aa(lp101
I0
aI3
aI2
aI1
aa(lp102
I3
aI0
aI2
aI1
aa(lp103
I3
aI0
aI2
aI1
aa(lp104
I3
aI2
aI0
aI1
aa(lp105
I0
aI2
aI1
aI3
aa(lp106
I0
aI3
aI1
aI2
aa(lp107
I3
aI0
aI1
aI2
aa(lp108
I3
aI0
aI1
aI2
aa(lp109
I0
aI3
aI2
aI1
aa(lp110
I0
aI1
aI2
aI3
aa(lp111
I3
aI1
aI0
aI2
aa(lp112
I3
aI1
aI0
aI2
aa(lp113
I0
aI3
aI1
aI2
aa(lp114
I3
aI0
aI1
aI2
aa(lp115
I1
aI2
aI0
aI3
aa(lp116
I0
aI3
aI1
aI2
aa(lp117
I0
aI1
aI2
aI3
aa(lp118
I3
aI0
aI1
aI2
aa(lp119
I3
aI0
aI1
aI2
aa(lp120
I1
aI0
aI3
aI2
aa(lp121
I3
aI1
aI0
aI2
aa(lp122
I3
aI1
aI0
aI2
aa(lp123
I3
aI1
aI0
aI2
aa(lp124
I0
aI1
aI3
aI2
aa(lp125
I1
aI0
aI3
aI2
aa(lp126
I0
aI1
aI3
aI2
aa(lp127
I0
aI3
aI2
aI1
aa(lp128
I0
aI3
aI1
aI2
aa(lp129
I3
aI0
aI2
aI1
aa(lp130
I3
aI0
aI1
aI2
aa(lp131
I3
aI0
aI1
aI2
aa(lp132
I0
aI1
aI3
aI2
aa(lp133
I3
aI0
aI1
aI2
aa(lp134
I3
aI0
aI1
aI2
aa(lp135
I3
aI0
aI1
aI2
aa(lp136
I3
aI0
aI2
aI1
aa(lp137
I3
aI0
aI2
aI1
aa(lp138
I0
aI1
aI2
aI3
aa(lp139
I0
aI1
aI3
aI2
aa(lp140
I3
aI1
aI2
aI0
aa(lp141
I3
aI0
aI1
aI2
aa(lp142
I0
aI3
aI1
aI2
aa(lp143
I3
aI0
aI1
aI2
aa(lp144
I0
aI1
aI2
aI3
aa(lp145
I0
aI2
aI1
aI3
aa(lp146
I3
aI0
aI2
aI1
aa(lp147
I0
aI3
aI1
aI2
aa(lp148
I3
aI0
aI2
aI1
aasS'PCMC'
p149
g2
(g3
(I0
tp150
g5
tp151
Rp152
(I1
(I12
tp153
g12
I00
S'\xc0\xbau{^\xe3\x8b@\x1e\x0f\x8br\xa6i\x06@\xb9\x17\x95\x1fA\xfav@\x9b\xc3\xce\x01\xd0j\xb0@\x12\x07b\x1d\x87\xd1=@\xb6g\xa8\xdb,\x87B@\xa7\x02u\x87L\x82)@\xa3\x97_Gm\x07S@\xc4IK\xc6\x8d\xd8U?@-v\x06t\x18r@\x1a(\x86\x94$l2@\xfc\xa9\xf1\xd2MbP?'
p154
tp155
bsS'PL'
p156
g2
(g3
(I0
tp157
g5
tp158
Rp159
(I1
(I4
tp160
g12
I00
S'/\xa2\x13\x8b!\xc8\xda?k@\xa4E\xdd\xd3\xbf?{\xa7\xd0"|Q\xae?\xc98)\x9f\xb7x\xd9?'
p161
tp162
bsS'Mallows-greedy-RE'
p163
((lp164
I2
aI1
aI0
aI3
ag34
(g12
S'7\xf8o\x18\xe5$\xf7?'
p165
tp166
Rp167
tp168
s.