(dp0
S'PCMC-RE'
p1
cnumpy.core.multiarray
_reconstruct
p2
(cnumpy
ndarray
p3
(I0
tp4
S'b'
p5
tp6
Rp7
(I1
(I12
tp8
cnumpy
dtype
p9
(S'f8'
p10
I0
I1
tp11
Rp12
(I3
S'<'
p13
NNNI-1
I-1
I0
tp14
bI00
S'\xe9B\x94\x1e\x8e\xbbJ@ ~\xec\x88\x1d#N@\xb1u\x86\x0b\r\x83\xcd?\xbc\xa0j\xb9d\xfeB@N^\xcd\x97O\n\xcc?S\xfb\rp\x85tP?\xdd\xb3}\xf5\xe2\x99^@g\xc8\x1e\x9f\x06\xbe\xef?\xd6\x9d*L\xb9\xde\xda?\x8a\x0fXp\x82\x0b\xf7?\x9a\r\x80\x1dy\x1al?*\x1f\xcc\xa6M\x92\xd2?'
p15
tp16
bsS'MMNL-RE'
p17
g2
(g3
(I0
tp18
g5
tp19
Rp20
(I1
(I10
tp21
g12
I00
S'\x1b\x1f\x956U\xf7\xd9?sp\xb5dU\x04\xe3?\\A5\x08\xafq\xd2?\x95\xd7J\x9f\r\x1a\xf5?P\xffwCu\xc7\xf2?\xd0\t\xdedMO\xf1?r"-o\x0eY\xeb?\x95\xd6&\xe8\x0b.\x11>\x95\xd6&\xe8\x0b.\x11>Cq\xa4\x8e!\xb4\xdb?'
p22
tp23
bsS'PL-RE'
p24
g2
(g3
(I0
tp25
g5
tp26
Rp27
(I1
(I4
tp28
g12
I00
S'\xdb\xe3qof\xf0\xd4?\xc6iard\xbf\xdc?\x1dgx(\x93\xfa\xbe?Ub:PAF\xba?'
p29
tp30
bsS'N'
p31
I4
sS'Mallows-greedy'
p32
((lp33
I3
aI2
aI0
aI1
acnumpy.core.multiarray
scalar
p34
(g12
S'&\x95\x96s\xefA\xf3?'
p35
tp36
Rp37
tp38
sS'MMNL'
p39
g2
(g3
(I0
tp40
g5
tp41
Rp42
(I1
(I10
tp43
g12
I00
S'\t\xa1v\xff\xff\xff\xef?-\x92\xf1\xeb\xde+\x11>\xa5%ZAx \xe1?%\xd5\xd5bw\xc7\xee?:\x86~yF]\xd8?x\x13"\xdc\x08Y\xaa?{Q\xae\x1cQ6\xf0?\xf4\xf4\xb6\xd2\xf5\xd1\xde?\xc6\xf1\x9d+6/\xf8?\x88\x99\xb9\xd0\xe3\x03\xb7?'
p44
tp45
bsS'test-lists'
p46
(lp47
(lp48
I0
aI3
aI2
aI1
aa(lp49
I1
aI3
aI2
aI0
aa(lp50
I1
aI2
aI3
aI0
aa(lp51
I3
aI0
aI2
aI1
aa(lp52
I2
aI3
aI1
aI0
aa(lp53
I2
aI3
aI0
aI1
aa(lp54
I2
aI3
aI0
aI1
aa(lp55
I2
aI0
aI1
aI3
aa(lp56
I3
aI2
aI0
aI1
aa(lp57
I2
aI1
aI3
aI0
aa(lp58
I3
aI0
aI2
aI1
aa(lp59
I2
aI0
aI3
aI1
aa(lp60
I3
aI0
aI2
aI1
aa(lp61
I3
aI1
aI0
aI2
aa(lp62
I2
aI0
aI1
aI3
aa(lp63
I3
aI2
aI0
aI1
aa(lp64
I3
aI2
aI0
aI1
aa(lp65
I3
aI0
aI1
aI2
aa(lp66
I1
aI3
aI0
aI2
aa(lp67
I2
aI3
aI0
aI1
aa(lp68
I2
aI3
aI0
aI1
aa(lp69
I3
aI2
aI1
aI0
aa(lp70
I3
aI0
aI1
aI2
aa(lp71
I2
aI0
aI3
aI1
aa(lp72
I1
aI3
aI0
aI2
aa(lp73
I1
aI3
aI0
aI2
aa(lp74
I2
aI3
aI1
aI0
aa(lp75
I2
aI3
aI1
aI0
aa(lp76
I0
aI1
aI2
aI3
aa(lp77
I1
aI0
aI2
aI3
aa(lp78
I2
aI0
aI3
aI1
aa(lp79
I3
aI0
aI1
aI2
aa(lp80
I0
aI1
aI3
aI2
aa(lp81
I2
aI3
aI1
aI0
aa(lp82
I3
aI0
aI2
aI1
aa(lp83
I2
aI0
aI3
aI1
aa(lp84
I2
aI1
aI0
aI3
aa(lp85
I2
aI0
aI1
aI3
aa(lp86
I3
aI0
aI2
aI1
aa(lp87
I0
aI2
aI3
aI1
aa(lp88
I2
aI3
aI0
aI1
aa(lp89
I3
aI2
aI1
aI0
aa(lp90
I2
aI3
aI1
aI0
aa(lp91
I3
aI0
aI1
aI2
aa(lp92
I2
aI3
aI0
aI1
aa(lp93
I2
aI3
aI1
aI0
aa(lp94
I2
aI3
aI0
aI1
aa(lp95
I3
aI0
aI1
aI2
aa(lp96
I2
aI3
aI0
aI1
aa(lp97
I3
aI2
aI0
aI1
aa(lp98
I2
aI0
aI3
aI1
aa(lp99
I2
aI1
aI0
aI3
aa(lp100
I2
aI1
aI0
aI3
aa(lp101
I3
aI0
aI1
aI2
aa(lp102
I3
aI2
aI0
aI1
aa(lp103
I3
aI2
aI0
aI1
aa(lp104
I3
aI0
aI1
aI2
aa(lp105
I3
aI0
aI2
aI1
aa(lp106
I3
aI2
aI0
aI1
aa(lp107
I3
aI1
aI2
aI0
aa(lp108
I2
aI1
aI0
aI3
aa(lp109
I3
aI0
aI2
aI1
aa(lp110
I3
aI2
aI1
aI0
aa(lp111
I3
aI0
aI1
aI2
aa(lp112
I2
aI1
aI0
aI3
aa(lp113
I1
aI3
aI2
aI0
aa(lp114
I1
aI2
aI3
aI0
aa(lp115
I3
aI1
aI0
aI2
aa(lp116
I2
aI1
aI3
aI0
aa(lp117
I2
aI3
aI1
aI0
aa(lp118
I2
aI1
aI3
aI0
aa(lp119
I2
aI0
aI3
aI1
aa(lp120
I2
aI3
aI0
aI1
aasS'PCMC'
p121
g2
(g3
(I0
tp122
g5
tp123
Rp124
(I1
(I12
tp125
g12
I00
S'\xfc\xa9\xf1\xd2MbP?\xd8(\xc2\xa5_7c?~\x01\x8e\xc0\xa1/\xf0?u\x83\xf6O\xb0\x9eX?o\xa5\x1d\xc0X\xaf\x81?\x8f\x89\xed\x89\xf6\xf6\xef?QU\x9aZ\x01\xd5h?\t\xe1\xfa\xb8\xb73u?\xbc\xec\xc8qy\x96\xd9?\x99P\x96]@\xf4\xcd?\xeb\x14t\xba\xdd~\xcb?\xe6l\xed%\x8c\x1f\xda?'
p126
tp127
bsS'PL'
p128
g2
(g3
(I0
tp129
g5
tp130
Rp131
(I1
(I4
tp132
g12
I00
S'k\xd6Ek1\xe9\xc3?U\xcc?\x96-S\xbc?Z\xf5)v\xfa\xd8\xd2?Y,\xa3n\xa1\x1d\xdc?'
p133
tp134
bsS'Mallows-greedy-RE'
p135
((lp136
I1
aI0
aI2
aI3
ag34
(g12
S'&\x95\x96s\xefA\xf3?'
p137
tp138
Rp139
tp140
s.