(dp0
S'PCMC-RE'
p1
cnumpy.core.multiarray
_reconstruct
p2
(cnumpy
ndarray
p3
(I0
tp4
S'b'
p5
tp6
Rp7
(I1
(I6
tp8
cnumpy
dtype
p9
(S'f8'
p10
I0
I1
tp11
Rp12
(I3
S'<'
p13
NNNI-1
I-1
I0
tp14
bI00
S"\xe2\xb4;\x95jYi?\xe1\xb1\xc7\x15'\x96\xb3?\x938?\xe2\x0c\x85P?\xcb\xa8\x88a\xeb\x95\xd6@\t\x1f|P\x94b\xb6?\x8a\xec\xbb\x05`\xaa\xe8@"
p15
tp16
bsS'MMNL-RE'
p17
g2
(g3
(I0
tp18
g5
tp19
Rp20
(I1
(I4
tp21
g12
I00
S'\x00\x00\x00\x00\x00\x00\xf0?\x80\xbagxN\xd8\xb9?\xd9!]6#\xbc\xca?\xc8j\xbb\xb4\x18o\xb8?'
p22
tp23
bsS'PL-RE'
p24
g2
(g3
(I0
tp25
g5
tp26
Rp27
(I1
(I3
tp28
g12
I00
S'{u\x88g\xde\xe2\xcf?\xdc\xbdr\xc7\xf9}\xe0?\x1c\x93\xacz:%\xce?'
p29
tp30
bsS'N'
p31
I3
sS'Mallows-greedy'
p32
((lp33
I2
aI0
aI1
acnumpy.core.multiarray
scalar
p34
(g12
S' \xb8U\xcd\t\xf9\xee?'
p35
tp36
Rp37
tp38
sS'MMNL'
p39
g2
(g3
(I0
tp40
g5
tp41
Rp42
(I1
(I4
tp43
g12
I00
S'\x00\x00\x00\x00\x00\x00\xf0?\xc5 \tM\xa4\xcf\xef?\xbb\x90\xc6\xfd\xb8\xcd\xe1?\x9e\x18\xa09\x82]\xf0?'
p44
tp45
bsS'test-lists'
p46
(lp47
(lp48
I2
aI1
aI0
aa(lp49
I0
aI1
aI2
aa(lp50
I2
aI1
aI0
aa(lp51
I2
aI0
aI1
aa(lp52
I2
aI0
aI1
aa(lp53
I1
aI0
aI2
aa(lp54
I0
aI1
aI2
aa(lp55
I0
aI1
aI2
aa(lp56
I2
aI0
aI1
aa(lp57
I2
aI1
aI0
aa(lp58
I2
aI1
aI0
aa(lp59
I2
aI0
aI1
aa(lp60
I0
aI2
aI1
aa(lp61
I0
aI1
aI2
aa(lp62
I2
aI0
aI1
aa(lp63
I2
aI1
aI0
aa(lp64
I1
aI2
aI0
aa(lp65
I2
aI0
aI1
aa(lp66
I0
aI2
aI1
aa(lp67
I2
aI1
aI0
aa(lp68
I0
aI2
aI1
aa(lp69
I2
aI0
aI1
aa(lp70
I0
aI1
aI2
aa(lp71
I2
aI1
aI0
aa(lp72
I2
aI1
aI0
aa(lp73
I0
aI1
aI2
aa(lp74
I2
aI1
aI0
aa(lp75
I2
aI1
aI0
aa(lp76
I1
aI0
aI2
aa(lp77
I2
aI0
aI1
aa(lp78
I1
aI2
aI0
aa(lp79
I0
aI1
aI2
aa(lp80
I2
aI0
aI1
aa(lp81
I2
aI0
aI1
aa(lp82
I2
aI1
aI0
aa(lp83
I1
aI0
aI2
aa(lp84
I0
aI2
aI1
aa(lp85
I2
aI0
aI1
aa(lp86
I2
aI0
aI1
aa(lp87
I2
aI1
aI0
aa(lp88
I2
aI0
aI1
aa(lp89
I1
aI2
aI0
aa(lp90
I0
aI2
aI1
aa(lp91
I1
aI2
aI0
aa(lp92
I2
aI0
aI1
aa(lp93
I2
aI1
aI0
aa(lp94
I1
aI0
aI2
aa(lp95
I2
aI1
aI0
aa(lp96
I2
aI0
aI1
aa(lp97
I2
aI0
aI1
aa(lp98
I0
aI1
aI2
aa(lp99
I2
aI1
aI0
aa(lp100
I1
aI2
aI0
aa(lp101
I2
aI0
aI1
aa(lp102
I0
aI1
aI2
aa(lp103
I2
aI1
aI0
aa(lp104
I0
aI1
aI2
aa(lp105
I0
aI1
aI2
aa(lp106
I0
aI1
aI2
aa(lp107
I1
aI0
aI2
aa(lp108
I0
aI1
aI2
aa(lp109
I2
aI1
aI0
aa(lp110
I0
aI2
aI1
aa(lp111
I2
aI1
aI0
aa(lp112
I2
aI0
aI1
aa(lp113
I2
aI1
aI0
aa(lp114
I2
aI0
aI1
aa(lp115
I0
aI2
aI1
aa(lp116
I0
aI1
aI2
aa(lp117
I0
aI2
aI1
aa(lp118
I1
aI2
aI0
aa(lp119
I2
aI0
aI1
aa(lp120
I1
aI0
aI2
aa(lp121
I0
aI1
aI2
aa(lp122
I0
aI1
aI2
aa(lp123
I0
aI1
aI2
aa(lp124
I0
aI1
aI2
aa(lp125
I1
aI0
aI2
aa(lp126
I0
aI2
aI1
aa(lp127
I2
aI0
aI1
aa(lp128
I2
aI0
aI1
aa(lp129
I0
aI1
aI2
aa(lp130
I2
aI0
aI1
aa(lp131
I1
aI2
aI0
aa(lp132
I1
aI0
aI2
aa(lp133
I0
aI1
aI2
aa(lp134
I2
aI1
aI0
aa(lp135
I2
aI0
aI1
aa(lp136
I2
aI0
aI1
aa(lp137
I2
aI1
aI0
aa(lp138
I1
aI0
aI2
aa(lp139
I2
aI0
aI1
aa(lp140
I2
aI1
aI0
aa(lp141
I0
aI2
aI1
aa(lp142
I2
aI0
aI1
aa(lp143
I2
aI0
aI1
aa(lp144
I0
aI1
aI2
aa(lp145
I1
aI2
aI0
aa(lp146
I2
aI1
aI0
aa(lp147
I2
aI1
aI0
aa(lp148
I0
aI2
aI1
aa(lp149
I2
aI0
aI1
aa(lp150
I2
aI1
aI0
aa(lp151
I1
aI0
aI2
aa(lp152
I2
aI0
aI1
aa(lp153
I2
aI1
aI0
aa(lp154
I1
aI0
aI2
aa(lp155
I0
aI2
aI1
aa(lp156
I0
aI1
aI2
aa(lp157
I0
aI2
aI1
aasS'PCMC'
p158
g2
(g3
(I0
tp159
g5
tp160
Rp161
(I1
(I6
tp162
g12
I00
S'\xc01u\x0b\xa6\x92\xe2?T\xc9]\xe1\xf8_\xe1?4\xe3\x0e\x7f]`\xf3?+\xd6\x93\\\xeb\x0cR?\xfa\xe2\xd4lNC\xdd?\xfc\xa9\xf1\xd2MbP?'
p163
tp164
bsS'PL'
p165
g2
(g3
(I0
tp166
g5
tp167
Rp168
(I1
(I3
tp169
g12
I00
S'Pgs\xc8^\xb9\xd8?:\xa7\xab\xe4\xa7\xac\xcb?\x14\xc56EMp\xd9?'
p170
tp171
bsS'Mallows-greedy-RE'
p172
((lp173
I1
aI0
aI2
ag34
(g12
S' \xb8U\xcd\t\xf9\xee?'
p174
tp175
Rp176
tp177
s.