(dp0
S'PCMC-RE'
p1
cnumpy.core.multiarray
_reconstruct
p2
(cnumpy
ndarray
p3
(I0
tp4
S'b'
p5
tp6
Rp7
(I1
(I6
tp8
cnumpy
dtype
p9
(S'f8'
p10
I0
I1
tp11
Rp12
(I3
S'<'
p13
NNNI-1
I-1
I0
tp14
bI00
S'\xccS\x0b\x99n\xaf\xe4?,\xc1!*h^\xcf?Ff*.4\x80\xfa?\x16"m\x90W\xbf\x7f?\x08\xa5D}\x97[\xf5?\xc1\x1c\x05C\x89\xd7\xa3?'
p15
tp16
bsS'MMNL-RE'
p17
g2
(g3
(I0
tp18
g5
tp19
Rp20
(I1
(I4
tp21
g12
I00
S'\x00\x00\x00\x00\x00\x00\xf0?2S\x9d0\x04\xe2\xf0?\xaaD\xfe\x8f\xcb\x9c\xde?\x1a`s\xa7_\x0c\xc2?'
p22
tp23
bsS'PL-RE'
p24
g2
(g3
(I0
tp25
g5
tp26
Rp27
(I1
(I3
tp28
g12
I00
S'Uv\xd7\xc4&*\xe4?\x8fX\xce\x84\x12H\xd2?\x16\xeb\n\xc6\x7f\x8e\xb5?'
p29
tp30
bsS'N'
p31
I3
sS'Mallows-greedy'
p32
((lp33
I2
aI1
aI0
acnumpy.core.multiarray
scalar
p34
(g12
S'\x99#io\x86k\xf8?'
p35
tp36
Rp37
tp38
sS'MMNL'
p39
g2
(g3
(I0
tp40
g5
tp41
Rp42
(I1
(I4
tp43
g12
I00
S'\x00\x00\x00\x00\x00\x00\xf0?Py\r\x1f|\xe8\xce?\x83\xe8gsxp\xe1?HrK\xbeI\xd6\xf9?'
p44
tp45
bsS'test-lists'
p46
(lp47
(lp48
I2
aI1
aI0
aa(lp49
I2
aI1
aI0
aa(lp50
I2
aI0
aI1
aa(lp51
I2
aI1
aI0
aa(lp52
I2
aI1
aI0
aa(lp53
I2
aI1
aI0
aa(lp54
I2
aI1
aI0
aa(lp55
I2
aI1
aI0
aa(lp56
I2
aI1
aI0
aa(lp57
I2
aI1
aI0
aa(lp58
I2
aI1
aI0
aa(lp59
I2
aI1
aI0
aa(lp60
I2
aI1
aI0
aa(lp61
I1
aI2
aI0
aa(lp62
I2
aI1
aI0
aa(lp63
I2
aI1
aI0
aa(lp64
I2
aI1
aI0
aa(lp65
I2
aI0
aI1
aa(lp66
I1
aI0
aI2
aa(lp67
I2
aI1
aI0
aa(lp68
I2
aI1
aI0
aa(lp69
I2
aI1
aI0
aa(lp70
I2
aI1
aI0
aa(lp71
I2
aI1
aI0
aa(lp72
I2
aI1
aI0
aa(lp73
I2
aI1
aI0
aa(lp74
I2
aI1
aI0
aa(lp75
I2
aI0
aI1
aa(lp76
I2
aI1
aI0
aa(lp77
I1
aI2
aI0
aa(lp78
I2
aI1
aI0
aa(lp79
I2
aI1
aI0
aa(lp80
I2
aI1
aI0
aa(lp81
I1
aI0
aI2
aa(lp82
I2
aI1
aI0
aa(lp83
I1
aI2
aI0
aa(lp84
I1
aI2
aI0
aa(lp85
I2
aI0
aI1
aa(lp86
I2
aI0
aI1
aa(lp87
I2
aI1
aI0
aa(lp88
I2
aI1
aI0
aa(lp89
I2
aI1
aI0
aa(lp90
I1
aI2
aI0
aa(lp91
I2
aI1
aI0
aa(lp92
I2
aI1
aI0
aa(lp93
I2
aI1
aI0
aa(lp94
I2
aI1
aI0
aa(lp95
I2
aI1
aI0
aa(lp96
I2
aI0
aI1
aa(lp97
I2
aI1
aI0
aa(lp98
I1
aI2
aI0
aa(lp99
I2
aI1
aI0
aa(lp100
I2
aI1
aI0
aa(lp101
I2
aI1
aI0
aa(lp102
I2
aI1
aI0
aa(lp103
I0
aI2
aI1
aa(lp104
I2
aI1
aI0
aa(lp105
I1
aI2
aI0
aa(lp106
I2
aI1
aI0
aa(lp107
I2
aI1
aI0
aa(lp108
I2
aI1
aI0
aa(lp109
I2
aI1
aI0
aa(lp110
I0
aI1
aI2
aa(lp111
I2
aI0
aI1
aa(lp112
I1
aI2
aI0
aa(lp113
I2
aI1
aI0
aa(lp114
I2
aI1
aI0
aa(lp115
I2
aI1
aI0
aa(lp116
I2
aI1
aI0
aa(lp117
I2
aI0
aI1
aa(lp118
I2
aI1
aI0
aa(lp119
I2
aI1
aI0
aa(lp120
I2
aI1
aI0
aa(lp121
I2
aI1
aI0
aa(lp122
I2
aI0
aI1
aa(lp123
I1
aI2
aI0
aa(lp124
I1
aI2
aI0
aa(lp125
I2
aI1
aI0
aa(lp126
I1
aI2
aI0
aa(lp127
I2
aI1
aI0
aa(lp128
I2
aI1
aI0
aa(lp129
I2
aI1
aI0
aa(lp130
I2
aI1
aI0
aa(lp131
I2
aI1
aI0
aa(lp132
I2
aI1
aI0
aasS'PCMC'
p133
g2
(g3
(I0
tp134
g5
tp135
Rp136
(I1
(I6
tp137
g12
I00
S"\xa1\xdf\xdb\x7f\r\xb0\xec?\xbd*\x85\n\xc6\x9bY?\x9fSW\x15\xf3i\xd6?\xa9@'s\x87\xc1\xe0?\xfc\xa9\xf1\xd2MbP?\xc1O\xbei\xbdw\xc3?"
p138
tp139
bsS'PL'
p140
g2
(g3
(I0
tp141
g5
tp142
Rp143
(I1
(I3
tp144
g12
I00
S'K\x8e\xcd\x19C\xbe\xb9?\t\xa7\xd2\xce\xdc\x0c\xcd?u\xa4\x11i\x00\x85\xe5?'
p145
tp146
bsS'Mallows-greedy-RE'
p147
((lp148
I0
aI1
aI2
ag34
(g12
S'\x99#io\x86k\xf8?'
p149
tp150
Rp151
tp152
s.