(dp0
S'PCMC-RE'
p1
cnumpy.core.multiarray
_reconstruct
p2
(cnumpy
ndarray
p3
(I0
tp4
S'b'
p5
tp6
Rp7
(I1
(I12
tp8
cnumpy
dtype
p9
(S'f8'
p10
I0
I1
tp11
Rp12
(I3
S'<'
p13
NNNI-1
I-1
I0
tp14
bI00
S'\xad\xd9P\x98U]\x07@\xabGkP\xc6\xd7h?\xa1\xe5\xa7\x0b\xbdI\xdc?\\L K\xcai\xe9?\x00\xa0\xd31\x14\xbc\xf2?\xfc\xa9\xf1\xd2MbP?\x81\xdb2F\xea\xf4T?\x85\x03>\xadJG\xe1?C\xbf\x97:\x89\x89\xef?{\xaa_\xbc)9\xbb?h\xe4\xbcU\x87\xbdc?b\xf5=\xa2\\\xba\xf1?'
p15
tp16
bsS'MMNL-RE'
p17
g2
(g3
(I0
tp18
g5
tp19
Rp20
(I1
(I10
tp21
g12
I00
S'~\xcd\xce[h\xe0\xe8?\x0b\xca\xc4\x90^~\xcc?D\xc6\x81\xf3\xcd.\xd1?\xdf\x84\x05,\t\x84W?koWv\xd3\xf5\xf0?0x5\xc6n\x1bj?\x89-!\xfbL\xc7\x00@\x87\xd0JDk/\\?\xcd\x91E-\xe6x\xe4?\xd5AU\xe6a\xdb\x05@'
p22
tp23
bsS'PL-RE'
p24
g2
(g3
(I0
tp25
g5
tp26
Rp27
(I1
(I4
tp28
g12
I00
S'{\xc4Eg\x95\x90\xb1?\xc3c\xaaBq\xff\xcc?\xdd_O\xd1L\xe8\xd8?#\xfd\x893\xd53\xd4?'
p29
tp30
bsS'N'
p31
I4
sS'Mallows-greedy'
p32
((lp33
I0
aI1
aI3
aI2
acnumpy.core.multiarray
scalar
p34
(g12
S'\xfc\xc6\xe1\x14C\xe3\xf3?'
p35
tp36
Rp37
tp38
sS'MMNL'
p39
g2
(g3
(I0
tp40
g5
tp41
Rp42
(I1
(I10
tp43
g12
I00
S'\xe6\xba\xb2\x11\xc4\xf9\xdb?\x8e\xa2&\xf7\x1d\x03\xe2?G\xc8\x95\xf1\x81;\xf9?/\xfaR\xf9\xb2G\xee?\x19\xf6\xf6T\x87\xa9\xdf>\x82\xe2\xd6W\x83\xad\xe8?3<\xba\xaf\x04t\xc3>\n\xa9\x97]\xa6\x83\xe2?\xde\xdfL\xbe[\x96\xba>\xb7\x18-\xf3\xb1{\xe8?'
p44
tp45
bsS'test-lists'
p46
(lp47
(lp48
I0
aI1
aI3
aI2
aa(lp49
I0
aI1
aI3
aI2
aa(lp50
I0
aI1
aI2
aI3
aa(lp51
I0
aI3
aI1
aI2
aa(lp52
I0
aI2
aI1
aI3
aa(lp53
I0
aI3
aI1
aI2
aa(lp54
I0
aI2
aI3
aI1
aa(lp55
I0
aI1
aI3
aI2
aa(lp56
I0
aI3
aI1
aI2
aa(lp57
I0
aI2
aI1
aI3
aa(lp58
I0
aI2
aI3
aI1
aa(lp59
I0
aI3
aI2
aI1
aa(lp60
I0
aI1
aI2
aI3
aa(lp61
I0
aI1
aI3
aI2
aa(lp62
I2
aI0
aI1
aI3
aa(lp63
I3
aI1
aI0
aI2
aa(lp64
I1
aI2
aI3
aI0
aa(lp65
I1
aI0
aI3
aI2
aa(lp66
I0
aI2
aI1
aI3
aa(lp67
I1
aI0
aI3
aI2
aa(lp68
I0
aI2
aI3
aI1
aa(lp69
I1
aI0
aI2
aI3
aa(lp70
I3
aI0
aI2
aI1
aa(lp71
I0
aI1
aI2
aI3
aa(lp72
I0
aI1
aI2
aI3
aa(lp73
I0
aI1
aI3
aI2
aa(lp74
I3
aI0
aI1
aI2
aa(lp75
I0
aI1
aI3
aI2
aa(lp76
I0
aI1
aI2
aI3
aa(lp77
I1
aI3
aI0
aI2
aa(lp78
I2
aI0
aI1
aI3
aa(lp79
I3
aI0
aI2
aI1
aa(lp80
I0
aI1
aI2
aI3
aa(lp81
I0
aI3
aI2
aI1
aa(lp82
I0
aI1
aI3
aI2
aa(lp83
I2
aI0
aI3
aI1
aa(lp84
I2
aI0
aI3
aI1
aa(lp85
I1
aI0
aI2
aI3
aa(lp86
I0
aI1
aI3
aI2
aa(lp87
I0
aI1
aI2
aI3
aa(lp88
I3
aI2
aI0
aI1
aa(lp89
I0
aI1
aI3
aI2
aa(lp90
I0
aI3
aI2
aI1
aa(lp91
I0
aI1
aI2
aI3
aa(lp92
I0
aI3
aI1
aI2
aa(lp93
I1
aI0
aI2
aI3
aa(lp94
I0
aI1
aI3
aI2
aa(lp95
I0
aI2
aI1
aI3
aa(lp96
I0
aI2
aI1
aI3
aa(lp97
I0
aI2
aI3
aI1
aa(lp98
I2
aI3
aI1
aI0
aa(lp99
I0
aI2
aI1
aI3
aa(lp100
I0
aI1
aI3
aI2
aa(lp101
I0
aI3
aI1
aI2
aa(lp102
I0
aI2
aI3
aI1
aa(lp103
I0
aI1
aI2
aI3
aa(lp104
I0
aI2
aI3
aI1
aa(lp105
I0
aI1
aI2
aI3
aa(lp106
I0
aI1
aI3
aI2
aa(lp107
I3
aI0
aI1
aI2
aa(lp108
I1
aI0
aI2
aI3
aa(lp109
I0
aI3
aI1
aI2
aa(lp110
I0
aI1
aI3
aI2
aa(lp111
I0
aI1
aI3
aI2
aa(lp112
I0
aI1
aI2
aI3
aa(lp113
I0
aI1
aI3
aI2
aa(lp114
I0
aI3
aI2
aI1
aa(lp115
I2
aI0
aI3
aI1
aa(lp116
I0
aI2
aI1
aI3
aa(lp117
I0
aI3
aI2
aI1
aa(lp118
I0
aI3
aI1
aI2
aa(lp119
I0
aI2
aI1
aI3
aa(lp120
I0
aI3
aI1
aI2
aa(lp121
I0
aI2
aI1
aI3
aa(lp122
I0
aI3
aI1
aI2
aa(lp123
I0
aI3
aI1
aI2
aa(lp124
I0
aI1
aI3
aI2
aa(lp125
I0
aI3
aI2
aI1
aa(lp126
I2
aI1
aI0
aI3
aa(lp127
I3
aI0
aI1
aI2
aa(lp128
I0
aI3
aI2
aI1
aa(lp129
I0
aI1
aI2
aI3
aa(lp130
I0
aI2
aI3
aI1
aa(lp131
I3
aI1
aI0
aI2
aa(lp132
I1
aI2
aI0
aI3
aa(lp133
I0
aI1
aI2
aI3
aa(lp134
I0
aI1
aI3
aI2
aa(lp135
I0
aI3
aI1
aI2
aa(lp136
I0
aI1
aI3
aI2
aa(lp137
I0
aI1
aI2
aI3
aa(lp138
I3
aI0
aI1
aI2
aa(lp139
I0
aI1
aI3
aI2
aa(lp140
I0
aI3
aI1
aI2
aa(lp141
I3
aI1
aI0
aI2
aa(lp142
I0
aI1
aI3
aI2
aa(lp143
I0
aI3
aI1
aI2
aa(lp144
I3
aI0
aI2
aI1
aa(lp145
I0
aI1
aI2
aI3
aa(lp146
I0
aI1
aI2
aI3
aa(lp147
I0
aI1
aI2
aI3
aa(lp148
I0
aI1
aI3
aI2
aa(lp149
I2
aI0
aI3
aI1
aa(lp150
I2
aI0
aI1
aI3
aa(lp151
I1
aI0
aI2
aI3
aa(lp152
I0
aI3
aI1
aI2
aasS'PCMC'
p153
g2
(g3
(I0
tp154
g5
tp155
Rp156
(I1
(I12
tp157
g12
I00
S'\x1b\xcb\x843T\xc7k@X\xed\xe5\x07\xa8\x04R?;0\xf4|\x07+\x05@P\x04%\x9a\xe0=\x8c@\x91C\xe3:M\x18\x86@B\xf2\xa1\xf9\x1a\x8c#@\xfc\xa9\xf1\xd2MbP?\xf9\x96\x96\xb1\x90\x1f\x97@\x05\xa8;\xd4e$\x0f@\x89\xafU\xec\xf7%!@\xd4Vz\x19\xbe\xfb,@\\\xc02S}}\x12@'
p158
tp159
bsS'PL'
p160
g2
(g3
(I0
tp161
g5
tp162
Rp163
(I1
(I4
tp164
g12
I00
S'\x87(2\x82FA\xe3?^C\xd4\xc9\xee\xf6\xc6?D\x1d\xd7)\xc8\xad\xba?\xc5\x17\xef0&Z\xbd?'
p165
tp166
bsS'Mallows-greedy-RE'
p167
((lp168
I2
aI3
aI1
aI0
ag34
(g12
S'\xfc\xc6\xe1\x14C\xe3\xf3?'
p169
tp170
Rp171
tp172
s.