(dp0
S'PCMC-RE'
p1
cnumpy.core.multiarray
_reconstruct
p2
(cnumpy
ndarray
p3
(I0
tp4
S'b'
p5
tp6
Rp7
(I1
(I6
tp8
cnumpy
dtype
p9
(S'f8'
p10
I0
I1
tp11
Rp12
(I3
S'<'
p13
NNNI-1
I-1
I0
tp14
bI00
S'\xc3\x1c2w-\xfbT? o \xf5\x84\x02\xe5?\xfc\xa9\xf1\xd2MbP?\x080_\xbb+\xf7\xef?\xe6U\xb6\x8c"d\xf5?\xcd\xca;\x86o\x02\xfa?'
p15
tp16
bsS'MMNL-RE'
p17
g2
(g3
(I0
tp18
g5
tp19
Rp20
(I1
(I4
tp21
g12
I00
S'\x00\x00\x00\x00\x00\x00\xf0?1\r\xa6\xc6\x8c"\xf2?A\xbc+-\xf1\xf2\xef?\xf9\xf57\x86%\xbc\xe2?'
p22
tp23
bsS'PL-RE'
p24
g2
(g3
(I0
tp25
g5
tp26
Rp27
(I1
(I3
tp28
g12
I00
S'+O1\xf1\n\xb2\xda?\x125\xd3\xab\xe2\x83\xd7?\x84\xf7\xf6\xc5$\x94\xcb?'
p29
tp30
bsS'N'
p31
I3
sS'Mallows-greedy'
p32
((lp33
I2
aI1
aI0
acnumpy.core.multiarray
scalar
p34
(g12
S'\xb9i\xd7\xf0\x9a\x89\xed?'
p35
tp36
Rp37
tp38
sS'MMNL'
p39
g2
(g3
(I0
tp40
g5
tp41
Rp42
(I1
(I4
tp43
g12
I00
S'\x00\x00\x00\x00\x00\x00\xf0?x\x92\xbebV#\xe7?\x87\xb0-\xbf\x91\xeb\xeb?\xf9>\x9cf\xb0\x0b\xf5?'
p44
tp45
bsS'test-lists'
p46
(lp47
(lp48
I0
aI2
aI1
aa(lp49
I1
aI0
aI2
aa(lp50
I0
aI1
aI2
aa(lp51
I2
aI0
aI1
aa(lp52
I1
aI2
aI0
aa(lp53
I2
aI1
aI0
aa(lp54
I2
aI1
aI0
aa(lp55
I2
aI0
aI1
aa(lp56
I2
aI0
aI1
aa(lp57
I1
aI2
aI0
aa(lp58
I0
aI1
aI2
aa(lp59
I2
aI1
aI0
aa(lp60
I2
aI0
aI1
aa(lp61
I2
aI1
aI0
aa(lp62
I2
aI1
aI0
aa(lp63
I1
aI2
aI0
aa(lp64
I2
aI0
aI1
aa(lp65
I2
aI1
aI0
aa(lp66
I0
aI2
aI1
aa(lp67
I1
aI2
aI0
aa(lp68
I2
aI1
aI0
aa(lp69
I2
aI0
aI1
aa(lp70
I2
aI0
aI1
aa(lp71
I0
aI1
aI2
aa(lp72
I2
aI0
aI1
aa(lp73
I2
aI1
aI0
aa(lp74
I2
aI1
aI0
aa(lp75
I2
aI1
aI0
aa(lp76
I0
aI2
aI1
aa(lp77
I0
aI2
aI1
aa(lp78
I1
aI0
aI2
aa(lp79
I2
aI0
aI1
aa(lp80
I2
aI0
aI1
aa(lp81
I1
aI2
aI0
aa(lp82
I2
aI0
aI1
aa(lp83
I1
aI0
aI2
aa(lp84
I1
aI2
aI0
aa(lp85
I2
aI1
aI0
aa(lp86
I1
aI2
aI0
aa(lp87
I2
aI1
aI0
aa(lp88
I2
aI0
aI1
aa(lp89
I0
aI2
aI1
aa(lp90
I1
aI2
aI0
aa(lp91
I2
aI1
aI0
aa(lp92
I1
aI2
aI0
aa(lp93
I0
aI1
aI2
aa(lp94
I0
aI1
aI2
aa(lp95
I2
aI0
aI1
aa(lp96
I0
aI2
aI1
aa(lp97
I2
aI0
aI1
aa(lp98
I2
aI1
aI0
aa(lp99
I1
aI0
aI2
aa(lp100
I2
aI0
aI1
aa(lp101
I1
aI0
aI2
aa(lp102
I0
aI2
aI1
aa(lp103
I2
aI1
aI0
aa(lp104
I1
aI2
aI0
aa(lp105
I2
aI0
aI1
aa(lp106
I0
aI1
aI2
aa(lp107
I1
aI0
aI2
aa(lp108
I2
aI0
aI1
aa(lp109
I1
aI2
aI0
aa(lp110
I2
aI1
aI0
aa(lp111
I1
aI2
aI0
aa(lp112
I1
aI0
aI2
aa(lp113
I2
aI1
aI0
aa(lp114
I0
aI1
aI2
aa(lp115
I0
aI2
aI1
aa(lp116
I2
aI0
aI1
aa(lp117
I0
aI1
aI2
aa(lp118
I2
aI0
aI1
aa(lp119
I0
aI1
aI2
aa(lp120
I2
aI1
aI0
aa(lp121
I2
aI1
aI0
aasS'PCMC'
p122
g2
(g3
(I0
tp123
g5
tp124
Rp125
(I1
(I6
tp126
g12
I00
S'\xb2\x8ea\xe7\x06\xb3\xe4?AS\xa7\xad5%\xee?\xa1R\x94\x7fs\xc1\xe2?\xfc\xa9\xf1\xd2MbP?\x7fqCj\x86\xe2\xdd?\xd7\xd1\x85\x19]SV?'
p127
tp128
bsS'PL'
p129
g2
(g3
(I0
tp130
g5
tp131
Rp132
(I1
(I3
tp133
g12
I00
S'T\x15\x1f\xe7l\xcb\xcf?\xa1t%\x0f\xdd.\xd3?\xb6\x00K}l\xeb\xdc?'
p134
tp135
bsS'Mallows-greedy-RE'
p136
((lp137
I0
aI1
aI2
ag34
(g12
S'\xb9i\xd7\xf0\x9a\x89\xed?'
p138
tp139
Rp140
tp141
s.