(dp0
S'PCMC-RE'
p1
cnumpy.core.multiarray
_reconstruct
p2
(cnumpy
ndarray
p3
(I0
tp4
S'b'
p5
tp6
Rp7
(I1
(I6
tp8
cnumpy
dtype
p9
(S'f8'
p10
I0
I1
tp11
Rp12
(I3
S'<'
p13
NNNI-1
I-1
I0
tp14
bI00
S'\xb2\x05\x15\xb7\xae\xd4Z?\xbf\x18\xf6\xd6\xf3\xfe\xfa?\xfc\xa9\xf1\xd2MbP?\rT\x18R\xb2\x15\x0b@\xcf\xc4\xd7F\xa0\x94\xf4?\xf2\x9b\xfa\xd6\x88N\x05@'
p15
tp16
bsS'MMNL-RE'
p17
g2
(g3
(I0
tp18
g5
tp19
Rp20
(I1
(I4
tp21
g12
I00
S'\x00\x00\x00\x00\x00\x00\xf0?\x02\x13g\xe3\xb4\t\xe6?\xe8\xd8\x01\xdd\xfb\xe1\xea?\xf2\x1c\xe69\x02\x8a\xef?'
p22
tp23
bsS'PL-RE'
p24
g2
(g3
(I0
tp25
g5
tp26
Rp27
(I1
(I3
tp28
g12
I00
S'p\xf3\xb0G\x93\x87\xd1?\x07\x8cK\x8f b\xd5?\x87\x80\x03)L\x16\xd9?'
p29
tp30
bsS'N'
p31
I3
sS'Mallows-greedy'
p32
((lp33
I0
aI1
aI2
acnumpy.core.multiarray
scalar
p34
(g12
S'\xb8$\x19\xa3\xc3P\xea?'
p35
tp36
Rp37
tp38
sS'MMNL'
p39
g2
(g3
(I0
tp40
g5
tp41
Rp42
(I1
(I4
tp43
g12
I00
S"\x00\x00\x00\x00\x00\x00\xf0?\xb54\x13\xacwg\xf2?\x8cm\x7f\xa9\x8a\x15\xf1?\xcaE\x18\x02'\xb1\xe9?"
p44
tp45
bsS'test-lists'
p46
(lp47
(lp48
I1
aI0
aI2
aa(lp49
I0
aI1
aI2
aa(lp50
I0
aI2
aI1
aa(lp51
I0
aI2
aI1
aa(lp52
I2
aI1
aI0
aa(lp53
I0
aI1
aI2
aa(lp54
I2
aI1
aI0
aa(lp55
I1
aI2
aI0
aa(lp56
I1
aI0
aI2
aa(lp57
I0
aI2
aI1
aa(lp58
I1
aI2
aI0
aa(lp59
I1
aI0
aI2
aa(lp60
I1
aI2
aI0
aa(lp61
I1
aI0
aI2
aa(lp62
I1
aI2
aI0
aa(lp63
I0
aI1
aI2
aa(lp64
I1
aI0
aI2
aa(lp65
I0
aI2
aI1
aa(lp66
I0
aI1
aI2
aa(lp67
I1
aI2
aI0
aa(lp68
I1
aI2
aI0
aa(lp69
I0
aI2
aI1
aa(lp70
I1
aI0
aI2
aa(lp71
I1
aI0
aI2
aa(lp72
I2
aI1
aI0
aa(lp73
I2
aI0
aI1
aa(lp74
I1
aI0
aI2
aa(lp75
I1
aI0
aI2
aa(lp76
I1
aI2
aI0
aa(lp77
I1
aI2
aI0
aa(lp78
I1
aI0
aI2
aa(lp79
I1
aI0
aI2
aa(lp80
I2
aI1
aI0
aa(lp81
I2
aI1
aI0
aa(lp82
I1
aI2
aI0
aa(lp83
I0
aI1
aI2
aa(lp84
I1
aI0
aI2
aa(lp85
I0
aI1
aI2
aa(lp86
I0
aI2
aI1
aa(lp87
I1
aI2
aI0
aa(lp88
I0
aI2
aI1
aa(lp89
I0
aI1
aI2
aa(lp90
I1
aI2
aI0
aa(lp91
I1
aI2
aI0
aa(lp92
I1
aI2
aI0
aa(lp93
I0
aI2
aI1
aa(lp94
I1
aI2
aI0
aa(lp95
I1
aI0
aI2
aa(lp96
I2
aI1
aI0
aa(lp97
I1
aI2
aI0
aa(lp98
I0
aI1
aI2
aa(lp99
I2
aI0
aI1
aa(lp100
I0
aI1
aI2
aa(lp101
I0
aI1
aI2
aa(lp102
I1
aI0
aI2
aa(lp103
I1
aI0
aI2
aa(lp104
I0
aI2
aI1
aa(lp105
I0
aI2
aI1
aa(lp106
I1
aI0
aI2
aa(lp107
I1
aI0
aI2
aa(lp108
I1
aI0
aI2
aa(lp109
I1
aI0
aI2
aa(lp110
I2
aI0
aI1
aa(lp111
I2
aI0
aI1
aa(lp112
I2
aI1
aI0
aa(lp113
I2
aI0
aI1
aa(lp114
I0
aI1
aI2
aa(lp115
I2
aI1
aI0
aa(lp116
I0
aI1
aI2
aa(lp117
I0
aI2
aI1
aa(lp118
I0
aI1
aI2
aa(lp119
I1
aI0
aI2
aa(lp120
I0
aI2
aI1
aa(lp121
I0
aI1
aI2
aa(lp122
I0
aI1
aI2
aa(lp123
I1
aI0
aI2
aa(lp124
I1
aI0
aI2
aa(lp125
I0
aI1
aI2
aa(lp126
I0
aI1
aI2
aa(lp127
I0
aI2
aI1
aa(lp128
I1
aI2
aI0
aa(lp129
I0
aI1
aI2
aa(lp130
I1
aI0
aI2
aa(lp131
I2
aI1
aI0
aa(lp132
I0
aI1
aI2
aa(lp133
I2
aI1
aI0
aa(lp134
I0
aI2
aI1
aa(lp135
I0
aI1
aI2
aasS'PCMC'
p136
g2
(g3
(I0
tp137
g5
tp138
Rp139
(I1
(I6
tp140
g12
I00
S'\x1b.\xfa\xbeG\x9cr@{\xe8\xb0\\j}\xa1?\x8f\xdd\xec\x01\x1aUv@\xfc\xa9\xf1\xd2MbP?\x08`\xcc\x0f3\n\xa7?-\x0b\xbc4\xf2]]?'
p141
tp142
bsS'PL'
p143
g2
(g3
(I0
tp144
g5
tp145
Rp146
(I1
(I3
tp147
g12
I00
S'OvB\x82\x83^\xd8?P\x91\xd7<\x12\x9f\xd6?b\xf8\xe5@j\x02\xd1?'
p148
tp149
bsS'Mallows-greedy-RE'
p150
((lp151
I2
aI1
aI0
ag34
(g12
S'\xb8$\x19\xa3\xc3P\xea?'
p152
tp153
Rp154
tp155
s.