(dp0
S'PCMC-RE'
p1
cnumpy.core.multiarray
_reconstruct
p2
(cnumpy
ndarray
p3
(I0
tp4
S'b'
p5
tp6
Rp7
(I1
(I6
tp8
cnumpy
dtype
p9
(S'f8'
p10
I0
I1
tp11
Rp12
(I3
S'<'
p13
NNNI-1
I-1
I0
tp14
bI00
S"\xfc\xa9\xf1\xd2MbP?\xe0[\xfa\x9cn\x16\x1f@io\xea\xddi\xb4\x85?\xf8\xaf\x9c\xb7:\x96L@\x16:\xec\xa7]'%@\xd6\x7fC\x93\xede0@"
p15
tp16
bsS'MMNL-RE'
p17
g2
(g3
(I0
tp18
g5
tp19
Rp20
(I1
(I4
tp21
g12
I00
S'\x00\x00\x00\x00\x00\x00\xf0?\xe2?-\xabd\x1c\xfa?\x0e\xff\xbb\xb3n]\xd2?\x80\xd9\xf9\x04\x0f\xfe\xf1?'
p22
tp23
bsS'PL-RE'
p24
g2
(g3
(I0
tp25
g5
tp26
Rp27
(I1
(I3
tp28
g12
I00
S'\xa2`L\xab\xb4(\xe1?\x86\x7f\xff\xd7"#\xb8?\xd9^g\xf3\xcd\xa5\xd7?'
p29
tp30
bsS'N'
p31
I3
sS'Mallows-greedy'
p32
((lp33
I1
aI2
aI0
acnumpy.core.multiarray
scalar
p34
(g12
S'\x95\xf7\xc37eb\xf5?'
p35
tp36
Rp37
tp38
sS'MMNL'
p39
g2
(g3
(I0
tp40
g5
tp41
Rp42
(I1
(I4
tp43
g12
I00
S'\x00\x00\x00\x00\x00\x00\xf0?\xc9\xc3OFZ\x7f\xd4?|\x15\x08N]\xff\xf8?P\xf3ds\xe5\xee\xda?'
p44
tp45
bsS'test-lists'
p46
(lp47
(lp48
I2
aI1
aI0
aa(lp49
I1
aI2
aI0
aa(lp50
I1
aI2
aI0
aa(lp51
I1
aI2
aI0
aa(lp52
I1
aI2
aI0
aa(lp53
I1
aI0
aI2
aa(lp54
I2
aI0
aI1
aa(lp55
I2
aI0
aI1
aa(lp56
I1
aI0
aI2
aa(lp57
I1
aI2
aI0
aa(lp58
I2
aI0
aI1
aa(lp59
I1
aI2
aI0
aa(lp60
I2
aI1
aI0
aa(lp61
I1
aI2
aI0
aa(lp62
I1
aI2
aI0
aa(lp63
I1
aI2
aI0
aa(lp64
I0
aI1
aI2
aa(lp65
I2
aI0
aI1
aa(lp66
I1
aI2
aI0
aa(lp67
I1
aI2
aI0
aa(lp68
I1
aI0
aI2
aa(lp69
I1
aI2
aI0
aa(lp70
I1
aI2
aI0
aa(lp71
I1
aI0
aI2
aa(lp72
I1
aI0
aI2
aa(lp73
I1
aI0
aI2
aa(lp74
I2
aI1
aI0
aa(lp75
I0
aI2
aI1
aa(lp76
I1
aI0
aI2
aa(lp77
I2
aI0
aI1
aa(lp78
I1
aI2
aI0
aa(lp79
I1
aI2
aI0
aa(lp80
I0
aI2
aI1
aa(lp81
I1
aI0
aI2
aa(lp82
I2
aI0
aI1
aa(lp83
I0
aI1
aI2
aa(lp84
I1
aI2
aI0
aa(lp85
I2
aI1
aI0
aa(lp86
I1
aI0
aI2
aa(lp87
I0
aI2
aI1
aa(lp88
I1
aI2
aI0
aa(lp89
I1
aI0
aI2
aa(lp90
I1
aI0
aI2
aa(lp91
I2
aI1
aI0
aa(lp92
I1
aI2
aI0
aa(lp93
I1
aI2
aI0
aa(lp94
I1
aI0
aI2
aa(lp95
I2
aI1
aI0
aa(lp96
I1
aI2
aI0
aa(lp97
I1
aI0
aI2
aa(lp98
I1
aI0
aI2
aa(lp99
I1
aI0
aI2
aa(lp100
I1
aI2
aI0
aa(lp101
I2
aI1
aI0
aa(lp102
I1
aI2
aI0
aa(lp103
I0
aI2
aI1
aa(lp104
I1
aI0
aI2
aa(lp105
I1
aI2
aI0
aa(lp106
I0
aI2
aI1
aa(lp107
I1
aI2
aI0
aa(lp108
I1
aI2
aI0
aa(lp109
I1
aI2
aI0
aa(lp110
I1
aI2
aI0
aa(lp111
I1
aI2
aI0
aa(lp112
I1
aI0
aI2
aa(lp113
I0
aI2
aI1
aa(lp114
I1
aI0
aI2
aa(lp115
I1
aI2
aI0
aa(lp116
I1
aI2
aI0
aa(lp117
I1
aI2
aI0
aa(lp118
I0
aI1
aI2
aa(lp119
I1
aI2
aI0
aa(lp120
I1
aI2
aI0
aa(lp121
I2
aI0
aI1
aa(lp122
I1
aI2
aI0
aa(lp123
I1
aI0
aI2
aasS'PCMC'
p124
g2
(g3
(I0
tp125
g5
tp126
Rp127
(I1
(I6
tp128
g12
I00
S'dD]\x84J\x9dX?[i\xb2\xb9\xca\xda\xf5?\xfc\xa9\xf1\xd2MbP?\xbfg2\x0e\xdcB\xd3?\x12\xaf]t\x870\xee?\xdaW\x91\x07B\xbf\xf4?'
p129
tp130
bsS'PL'
p131
g2
(g3
(I0
tp132
g5
tp133
Rp134
(I1
(I3
tp135
g12
I00
S'([\xfb\x8b\x13\xcc\xc1?d\xde\xfe\xbbU\xb4\xe5?G+\t\x84\x95b\xc7?'
p136
tp137
bsS'Mallows-greedy-RE'
p138
((lp139
I0
aI2
aI1
ag34
(g12
S'\x95\xf7\xc37eb\xf5?'
p140
tp141
Rp142
tp143
s.