(dp0
S'PCMC-RE'
p1
cnumpy.core.multiarray
_reconstruct
p2
(cnumpy
ndarray
p3
(I0
tp4
S'b'
p5
tp6
Rp7
(I1
(I12
tp8
cnumpy
dtype
p9
(S'f8'
p10
I0
I1
tp11
Rp12
(I3
S'<'
p13
NNNI-1
I-1
I0
tp14
bI00
S'\xa3lA\xf4|\x0e\xed?1\x9f\rAN\x9c\xd3?o\xdf\xc2\x139\x89\xd4?]\x16E\xe1\xc6\xe4\xf0?\x93\xd1&\x95qkU?\xbc\x93\xed\xa5n<\xd8?c\x00w\xee\xfcT\xde?\xfc\xa9\xf1\xd2MbP?{\xc57>@\xb3\xc3?\xe8\x94`\xab\n\xb8\xe8?\n\xf1n7H\x1a\xed?.QMCw\x94\xd3?'
p15
tp16
bsS'MMNL-RE'
p17
g2
(g3
(I0
tp18
g5
tp19
Rp20
(I1
(I10
tp21
g12
I00
S"Q!\xcfp;\xad\xca?\xac7\xcc#\xb1T\xe9?\xce\xa4\xff\xf8=\xf0\xe3?\x9e7\xa4h\xbc\xc3\xee?\x16\xd4\xa3\xc8\xb5\xa5\xed?\x02'\x86\x92\x05\xcf\xe5?F\xfa\xff\xfe\xfa\x9e\x84?\x16\xd9+QY\xaa\xed?[\x92\xbb\xacY\x05U?5\x03\xec[(%\xe0?"
p22
tp23
bsS'PL-RE'
p24
g2
(g3
(I0
tp25
g5
tp26
Rp27
(I1
(I4
tp28
g12
I00
S'\x06\x0c\xa1\x81H\xce\xd5?\xa2AFti\xce\xd2?/\xdf\xf5v\xc6\x83\xce?\x84\x85;\x9d\xd5B\xc0?'
p29
tp30
bsS'N'
p31
I4
sS'Mallows-greedy'
p32
((lp33
I3
aI2
aI1
aI0
acnumpy.core.multiarray
scalar
p34
(g12
S'\xadD\xc6\x8e\xbdy\xef?'
p35
tp36
Rp37
tp38
sS'MMNL'
p39
g2
(g3
(I0
tp40
g5
tp41
Rp42
(I1
(I10
tp43
g12
I00
S'\x98\x1bf\xcdn\xae\xd7?4\xf2L\x99\xc8(\xe4?\x1b8IJ_\xf1X?\xa6\x0b\xc6t\xfcp\xf0?\x8d\x0b\xdf\xd0\x1a\xa8[?\x97\x8a\xcf\\\xf0\xa8\xf1?\xaa\x9bj\x83\x03Nc?\xcb?n\xe0\xbb\x87\xf6?\x11\xea2\x94\xd8\xe6\x01@\xf6\x03\xbd+\xb7\x80\xe2?'
p44
tp45
bsS'test-lists'
p46
(lp47
(lp48
I2
aI3
aI1
aI0
aa(lp49
I2
aI3
aI1
aI0
aa(lp50
I3
aI1
aI2
aI0
aa(lp51
I2
aI3
aI0
aI1
aa(lp52
I2
aI3
aI0
aI1
aa(lp53
I3
aI0
aI1
aI2
aa(lp54
I3
aI1
aI2
aI0
aa(lp55
I3
aI0
aI1
aI2
aa(lp56
I1
aI0
aI2
aI3
aa(lp57
I3
aI0
aI2
aI1
aa(lp58
I1
aI0
aI3
aI2
aa(lp59
I3
aI2
aI1
aI0
aa(lp60
I2
aI3
aI1
aI0
aa(lp61
I3
aI0
aI1
aI2
aa(lp62
I2
aI3
aI1
aI0
aa(lp63
I3
aI2
aI1
aI0
aa(lp64
I3
aI2
aI1
aI0
aa(lp65
I2
aI3
aI1
aI0
aa(lp66
I3
aI2
aI0
aI1
aa(lp67
I3
aI1
aI2
aI0
aa(lp68
I1
aI3
aI0
aI2
aa(lp69
I3
aI1
aI0
aI2
aa(lp70
I3
aI2
aI0
aI1
aa(lp71
I2
aI3
aI1
aI0
aa(lp72
I2
aI3
aI1
aI0
aa(lp73
I2
aI0
aI3
aI1
aa(lp74
I3
aI2
aI1
aI0
aa(lp75
I3
aI1
aI0
aI2
aa(lp76
I3
aI2
aI1
aI0
aa(lp77
I1
aI3
aI2
aI0
aa(lp78
I3
aI2
aI1
aI0
aa(lp79
I0
aI2
aI3
aI1
aa(lp80
I2
aI1
aI0
aI3
aa(lp81
I2
aI3
aI1
aI0
aa(lp82
I2
aI0
aI3
aI1
aa(lp83
I3
aI1
aI2
aI0
aa(lp84
I2
aI3
aI1
aI0
aa(lp85
I1
aI0
aI2
aI3
aa(lp86
I0
aI2
aI1
aI3
aa(lp87
I2
aI1
aI0
aI3
aa(lp88
I3
aI2
aI0
aI1
aa(lp89
I1
aI0
aI3
aI2
aa(lp90
I3
aI0
aI2
aI1
aa(lp91
I0
aI1
aI3
aI2
aa(lp92
I0
aI3
aI1
aI2
aa(lp93
I3
aI1
aI0
aI2
aa(lp94
I3
aI0
aI2
aI1
aa(lp95
I3
aI1
aI0
aI2
aa(lp96
I1
aI3
aI0
aI2
aa(lp97
I3
aI1
aI0
aI2
aa(lp98
I3
aI1
aI2
aI0
aa(lp99
I3
aI1
aI2
aI0
aa(lp100
I3
aI1
aI2
aI0
aa(lp101
I3
aI0
aI1
aI2
aa(lp102
I0
aI3
aI1
aI2
aa(lp103
I1
aI3
aI0
aI2
aa(lp104
I3
aI2
aI0
aI1
aa(lp105
I3
aI1
aI0
aI2
aa(lp106
I3
aI0
aI1
aI2
aa(lp107
I2
aI3
aI1
aI0
aa(lp108
I1
aI3
aI2
aI0
aa(lp109
I0
aI1
aI2
aI3
aa(lp110
I1
aI2
aI0
aI3
aa(lp111
I2
aI3
aI0
aI1
aa(lp112
I0
aI2
aI3
aI1
aa(lp113
I3
aI1
aI0
aI2
aa(lp114
I1
aI3
aI0
aI2
aa(lp115
I3
aI1
aI2
aI0
aa(lp116
I2
aI3
aI1
aI0
aa(lp117
I3
aI0
aI2
aI1
aa(lp118
I2
aI3
aI0
aI1
aa(lp119
I3
aI0
aI1
aI2
aa(lp120
I2
aI3
aI0
aI1
aa(lp121
I2
aI1
aI3
aI0
aa(lp122
I3
aI1
aI0
aI2
aa(lp123
I1
aI2
aI3
aI0
aa(lp124
I3
aI0
aI1
aI2
aa(lp125
I0
aI1
aI2
aI3
aa(lp126
I1
aI0
aI2
aI3
aa(lp127
I3
aI2
aI0
aI1
aasS'PCMC'
p128
g2
(g3
(I0
tp129
g5
tp130
Rp131
(I1
(I12
tp132
g12
I00
S'Ds\x7f\x98o#R?3N<\n\xefK\xff?\x02\xcf\xb4S\x8bK\xf3?>W\x9d9H\tT?*)\xf7\xf7\x0f"\xf1?x\xe3\xc0H\xfb\x19\xf5?\x80\x88uD1\xe7\xf5?\xdc\x12\x96?c\x8f\xee?\xa4\xc5Cb\xfdI\xa6?\xb8X\xfc\xc8\xa3\x98\xdf?\x8a\x89\xdf\xd3\xd7\x96\xe0?\x93+~D\n\xfa\xa7?'
p133
tp134
bsS'PL'
p135
g2
(g3
(I0
tp136
g5
tp137
Rp138
(I1
(I4
tp139
g12
I00
S'\xd0s\xa1K2\x82\xc5?\xb2\xbb\x1f\x8f\x06F\xc7?\xdc\t1\xf9\xe9\xf3\xcd?R\xe3\x06\x96\xee\xa1\xda?'
p140
tp141
bsS'Mallows-greedy-RE'
p142
((lp143
I0
aI1
aI2
aI3
ag34
(g12
S'\xadD\xc6\x8e\xbdy\xef?'
p144
tp145
Rp146
tp147
s.