(dp0
S'PCMC-RE'
p1
cnumpy.core.multiarray
_reconstruct
p2
(cnumpy
ndarray
p3
(I0
tp4
S'b'
p5
tp6
Rp7
(I1
(I6
tp8
cnumpy
dtype
p9
(S'f8'
p10
I0
I1
tp11
Rp12
(I3
S'<'
p13
NNNI-1
I-1
I0
tp14
bI00
S'_\x7f^$pl\x0b@\xc1\\\xd3p\xf3\x8d[?{ \xb2A\x13\xe7\xf3?Z}\\F\xceH\xdd?\xfc\xa9\xf1\xd2MbP?\xb01\xe4t\xbd\xe7\xd7?'
p15
tp16
bsS'MMNL-RE'
p17
g2
(g3
(I0
tp18
g5
tp19
Rp20
(I1
(I4
tp21
g12
I00
S'\x00\x00\x00\x00\x00\x00\xf0?O\x85`4\xe9\\\xdb?oGE\xe4cX\xf0?\x14.\x14q\xc7\x03\xf2?'
p22
tp23
bsS'PL-RE'
p24
g2
(g3
(I0
tp25
g5
tp26
Rp27
(I1
(I3
tp28
g12
I00
S'\x13\xecb\xc1\x99@\xc5?#NYc\xe6c\xd9?\xd2;\xf5\xbb\xcc\xfb\xdb?'
p29
tp30
bsS'N'
p31
I3
sS'Mallows-greedy'
p32
((lp33
I0
aI1
aI2
acnumpy.core.multiarray
scalar
p34
(g12
S'\x0b\x03\xadz\xea\x93\xf1?'
p35
tp36
Rp37
tp38
sS'MMNL'
p39
g2
(g3
(I0
tp40
g5
tp41
Rp42
(I1
(I4
tp43
g12
I00
S'\x00\x00\x00\x00\x00\x00\xf0?\x98"I@\x9d\xcb\xf6?\xa1\x88|ckU\xe2?5\xcar\x8e\xcf#\xe0?'
p44
tp45
bsS'test-lists'
p46
(lp47
(lp48
I0
aI1
aI2
aa(lp49
I0
aI1
aI2
aa(lp50
I0
aI1
aI2
aa(lp51
I1
aI0
aI2
aa(lp52
I0
aI2
aI1
aa(lp53
I1
aI2
aI0
aa(lp54
I0
aI2
aI1
aa(lp55
I2
aI0
aI1
aa(lp56
I1
aI0
aI2
aa(lp57
I0
aI1
aI2
aa(lp58
I0
aI1
aI2
aa(lp59
I1
aI0
aI2
aa(lp60
I1
aI2
aI0
aa(lp61
I0
aI1
aI2
aa(lp62
I1
aI0
aI2
aa(lp63
I2
aI0
aI1
aa(lp64
I1
aI0
aI2
aa(lp65
I0
aI1
aI2
aa(lp66
I0
aI1
aI2
aa(lp67
I0
aI2
aI1
aa(lp68
I2
aI0
aI1
aa(lp69
I0
aI2
aI1
aa(lp70
I0
aI2
aI1
aa(lp71
I0
aI2
aI1
aa(lp72
I2
aI0
aI1
aa(lp73
I0
aI2
aI1
aa(lp74
I1
aI2
aI0
aa(lp75
I2
aI0
aI1
aa(lp76
I0
aI1
aI2
aa(lp77
I2
aI1
aI0
aa(lp78
I0
aI1
aI2
aa(lp79
I0
aI1
aI2
aa(lp80
I2
aI0
aI1
aa(lp81
I0
aI1
aI2
aa(lp82
I0
aI2
aI1
aa(lp83
I0
aI1
aI2
aa(lp84
I0
aI1
aI2
aa(lp85
I0
aI2
aI1
aa(lp86
I1
aI2
aI0
aa(lp87
I0
aI1
aI2
aa(lp88
I0
aI1
aI2
aa(lp89
I1
aI2
aI0
aa(lp90
I1
aI0
aI2
aa(lp91
I1
aI2
aI0
aa(lp92
I0
aI2
aI1
aa(lp93
I1
aI0
aI2
aa(lp94
I2
aI1
aI0
aa(lp95
I0
aI1
aI2
aa(lp96
I1
aI0
aI2
aa(lp97
I0
aI1
aI2
aa(lp98
I0
aI2
aI1
aa(lp99
I0
aI2
aI1
aa(lp100
I0
aI2
aI1
aa(lp101
I2
aI0
aI1
aa(lp102
I1
aI0
aI2
aa(lp103
I0
aI2
aI1
aa(lp104
I0
aI1
aI2
aa(lp105
I1
aI0
aI2
aa(lp106
I0
aI1
aI2
aa(lp107
I0
aI2
aI1
aa(lp108
I2
aI0
aI1
aa(lp109
I1
aI0
aI2
aa(lp110
I0
aI1
aI2
aa(lp111
I0
aI2
aI1
aa(lp112
I0
aI1
aI2
aa(lp113
I2
aI0
aI1
aa(lp114
I2
aI1
aI0
aa(lp115
I0
aI1
aI2
aa(lp116
I0
aI1
aI2
aa(lp117
I0
aI2
aI1
aa(lp118
I0
aI1
aI2
aa(lp119
I0
aI2
aI1
aa(lp120
I1
aI0
aI2
aasS'PCMC'
p121
g2
(g3
(I0
tp122
g5
tp123
Rp124
(I1
(I6
tp125
g12
I00
S'\x0b\xd8EU\xf9\xce\xf4?\xcbq\xb2\xb2\x19)\x90?\x19\x8b\xcc\x98\xb6\xee\x0c@\xd79\xaa\xc6Oy\xad?+H@D\x0bV\x9d?(\x07cO\xc0}\xb3?'
p126
tp127
bsS'PL'
p128
g2
(g3
(I0
tp129
g5
tp130
Rp131
(I1
(I3
tp132
g12
I00
S'\x95gf\xde\xbd8\xe2?\x1e\x19\xd6<rO\xcd?\x90H\x90I\x96\xcd\xc9?'
p133
tp134
bsS'Mallows-greedy-RE'
p135
((lp136
I2
aI1
aI0
ag34
(g12
S'\x0b\x03\xadz\xea\x93\xf1?'
p137
tp138
Rp139
tp140
s.