(dp0
S'PCMC-RE'
p1
cnumpy.core.multiarray
_reconstruct
p2
(cnumpy
ndarray
p3
(I0
tp4
S'b'
p5
tp6
Rp7
(I1
(I6
tp8
cnumpy
dtype
p9
(S'f8'
p10
I0
I1
tp11
Rp12
(I3
S'<'
p13
NNNI-1
I-1
I0
tp14
bI00
S'F\tv2L\xcb\t@\xbc\x00q\x0c\xbe+y?\xde\xc3\x1c\x92\x93H\xf3?\xfc\xa9\xf1\xd2MbP?|\xd7;\xfb\xbb\xdf\x81?\xe2\xf2\xd2\xda\x0b\xecX?'
p15
tp16
bsS'MMNL-RE'
p17
g2
(g3
(I0
tp18
g5
tp19
Rp20
(I1
(I4
tp21
g12
I00
S'\x00\x00\x00\x00\x00\x00\xf0?R\xe9\xbc\xfa\x1fI\xe3?\x93)\x13\xdf\xf4@\xf7?\xaei\x1e@\x1b>\xdf?'
p22
tp23
bsS'PL-RE'
p24
g2
(g3
(I0
tp25
g5
tp26
Rp27
(I1
(I3
tp28
g12
I00
S'\xe6`)\xd4)R\xce?\xe9\xb9\x8f\xc6\xa0G\xe2?~\xb7\x97\x11S\x8f\xc8?'
p29
tp30
bsS'N'
p31
I3
sS'Mallows-greedy'
p32
((lp33
I2
aI0
aI1
acnumpy.core.multiarray
scalar
p34
(g12
S'C\x81\x968N\xe1\xf1?'
p35
tp36
Rp37
tp38
sS'MMNL'
p39
g2
(g3
(I0
tp40
g5
tp41
Rp42
(I1
(I4
tp43
g12
I00
S'\x00\x00\x00\x00\x00\x00\xf0? \xd6\xd3\r\xc9\xc1\xf0?\xf1\xbd\xcb\xd7\x1fI\xd8?l(j\xffh\xf1\xf2?'
p44
tp45
bsS'test-lists'
p46
(lp47
(lp48
I1
aI0
aI2
aa(lp49
I1
aI0
aI2
aa(lp50
I2
aI0
aI1
aa(lp51
I2
aI0
aI1
aa(lp52
I1
aI0
aI2
aa(lp53
I2
aI0
aI1
aa(lp54
I1
aI0
aI2
aa(lp55
I2
aI1
aI0
aa(lp56
I0
aI1
aI2
aa(lp57
I1
aI2
aI0
aa(lp58
I2
aI0
aI1
aa(lp59
I0
aI2
aI1
aa(lp60
I1
aI0
aI2
aa(lp61
I1
aI2
aI0
aa(lp62
I2
aI0
aI1
aa(lp63
I1
aI2
aI0
aa(lp64
I2
aI1
aI0
aa(lp65
I2
aI0
aI1
aa(lp66
I2
aI0
aI1
aa(lp67
I0
aI1
aI2
aa(lp68
I2
aI0
aI1
aa(lp69
I0
aI1
aI2
aa(lp70
I0
aI2
aI1
aa(lp71
I2
aI0
aI1
aa(lp72
I2
aI0
aI1
aa(lp73
I2
aI0
aI1
aa(lp74
I0
aI2
aI1
aa(lp75
I2
aI0
aI1
aa(lp76
I0
aI2
aI1
aa(lp77
I0
aI2
aI1
aa(lp78
I0
aI1
aI2
aa(lp79
I0
aI2
aI1
aa(lp80
I0
aI2
aI1
aa(lp81
I2
aI0
aI1
aa(lp82
I2
aI0
aI1
aa(lp83
I0
aI2
aI1
aa(lp84
I2
aI1
aI0
aa(lp85
I2
aI1
aI0
aa(lp86
I1
aI0
aI2
aa(lp87
I1
aI0
aI2
aa(lp88
I0
aI2
aI1
aa(lp89
I2
aI0
aI1
aa(lp90
I1
aI0
aI2
aa(lp91
I2
aI0
aI1
aa(lp92
I0
aI2
aI1
aa(lp93
I0
aI2
aI1
aa(lp94
I0
aI2
aI1
aa(lp95
I2
aI0
aI1
aa(lp96
I2
aI0
aI1
aa(lp97
I2
aI0
aI1
aa(lp98
I2
aI0
aI1
aa(lp99
I1
aI2
aI0
aa(lp100
I2
aI0
aI1
aa(lp101
I1
aI2
aI0
aa(lp102
I2
aI0
aI1
aa(lp103
I0
aI2
aI1
aa(lp104
I1
aI2
aI0
aa(lp105
I0
aI2
aI1
aa(lp106
I2
aI1
aI0
aa(lp107
I0
aI1
aI2
aa(lp108
I0
aI1
aI2
aa(lp109
I2
aI0
aI1
aa(lp110
I1
aI2
aI0
aa(lp111
I2
aI0
aI1
aa(lp112
I2
aI0
aI1
aa(lp113
I2
aI0
aI1
aa(lp114
I0
aI2
aI1
aa(lp115
I0
aI2
aI1
aa(lp116
I2
aI1
aI0
aa(lp117
I2
aI0
aI1
aa(lp118
I0
aI2
aI1
aa(lp119
I2
aI0
aI1
aa(lp120
I0
aI1
aI2
aa(lp121
I0
aI1
aI2
aa(lp122
I2
aI0
aI1
aa(lp123
I0
aI2
aI1
aa(lp124
I1
aI2
aI0
aa(lp125
I0
aI1
aI2
aa(lp126
I1
aI0
aI2
aa(lp127
I2
aI0
aI1
aa(lp128
I0
aI1
aI2
aa(lp129
I2
aI0
aI1
aa(lp130
I0
aI2
aI1
aa(lp131
I0
aI2
aI1
aa(lp132
I0
aI2
aI1
aa(lp133
I2
aI0
aI1
aa(lp134
I0
aI2
aI1
aa(lp135
I0
aI2
aI1
aa(lp136
I0
aI2
aI1
aa(lp137
I2
aI1
aI0
aa(lp138
I0
aI2
aI1
aa(lp139
I0
aI1
aI2
aa(lp140
I2
aI0
aI1
aasS'PCMC'
p141
g2
(g3
(I0
tp142
g5
tp143
Rp144
(I1
(I6
tp145
g12
I00
S'\n/\x03\x14\xb2FX?,+ "\xa1q\x1c@k\xda\x0eXD\x83v?\xd8)AJ\xa9\x87\x06@\xec)\x9f\xbf\xac\xd5\x18@\xd0\xbe\xab\xa6`\xe2\xef?'
p146
tp147
bsS'PL'
p148
g2
(g3
(I0
tp149
g5
tp150
Rp151
(I1
(I3
tp152
g12
I00
S'9Z\xf1\xf6\x96\xac\xd9?\x02{\x0f\xb8\xc8\x9a\xc2?H\xe8\x06\xad\x04\x06\xdd?'
p153
tp154
bsS'Mallows-greedy-RE'
p155
((lp156
I1
aI0
aI2
ag34
(g12
S'C\x81\x968N\xe1\xf1?'
p157
tp158
Rp159
tp160
s.