(dp0
S'PCMC-RE'
p1
cnumpy.core.multiarray
_reconstruct
p2
(cnumpy
ndarray
p3
(I0
tp4
S'b'
p5
tp6
Rp7
(I1
(I12
tp8
cnumpy
dtype
p9
(S'f8'
p10
I0
I1
tp11
Rp12
(I3
S'<'
p13
NNNI-1
I-1
I0
tp14
bI00
S'\x901\x91\x94\x00\x02\xa0?%\xe2GH\xc6\x1d\x87?\x99\xe4\t\xf1\r(\x06@b\x91\xcev\x0fF\x93?\x0e\x0eT\xff\xf9\rW?\xdd\xa9u\r\xe1\xe3\xaf?\x90>]#-\x97}?\xfc\xa9\xf1\xd2MbP?C\x88\xd5\x8eh\x88\xf7?\x85\xc5T\xf8;k\t@\xbfdX\xd9`\x07\x94?q/F\x86\xa2N\xe4?'
p15
tp16
bsS'MMNL-RE'
p17
g2
(g3
(I0
tp18
g5
tp19
Rp20
(I1
(I10
tp21
g12
I00
S"\xfe\xb3\x85\xdcq\x11\xd7?\x01&\xbd\x11Gw\xe4?\xb1\xf6\xc9\x8bn\xfd\x02@\xa1\xda\xa4`\xce\x12r?>\xbckM\xd1l,>l@w\x17Fb\xf0?'|$\xc7\xdf\xff\xa0>Qe\x1e\x04m\xdf\xe6?\xce\x0c'\xe4\x1d\xa2\xb1>g\xd4\x16\xcb*\x98\xf8?"
p22
tp23
bsS'PL-RE'
p24
g2
(g3
(I0
tp25
g5
tp26
Rp27
(I1
(I4
tp28
g12
I00
S'\xb8\xfc\xc6q\xd10\xd1?>\xab\x0b9Nv\xc8?\x17)\\h9p\xc8?\x1c\x19\x85\xbd\xea[\xd6?'
p29
tp30
bsS'N'
p31
I4
sS'Mallows-greedy'
p32
((lp33
I2
aI1
aI3
aI0
acnumpy.core.multiarray
scalar
p34
(g12
S'\xe1H\xa7\x1d\x08{\xec?'
p35
tp36
Rp37
tp38
sS'MMNL'
p39
g2
(g3
(I0
tp40
g5
tp41
Rp42
(I1
(I10
tp43
g12
I00
S"\xc0\x1f\x1b8\x85\x18\xd7? p\xf2c\xbds\xe4?\x95\xd6&\xe8\x0b.\x11>[5\xaf\x05\xa1b\xed?\x05\x104\x9a[{\xfe?\xfcoO'\x05\xe4\xad?\x87\xbeK\\6\xd7\xea>\x1a\xbd#L\xe1\xa4\xf8?6\xb0\xf9\x9f:6\t?W\xc2\xbafj\xb4\xe2?"
p44
tp45
bsS'test-lists'
p46
(lp47
(lp48
I3
aI0
aI2
aI1
aa(lp49
I2
aI3
aI1
aI0
aa(lp50
I1
aI2
aI3
aI0
aa(lp51
I0
aI2
aI1
aI3
aa(lp52
I0
aI3
aI2
aI1
aa(lp53
I2
aI3
aI1
aI0
aa(lp54
I1
aI2
aI3
aI0
aa(lp55
I0
aI2
aI3
aI1
aa(lp56
I2
aI3
aI0
aI1
aa(lp57
I2
aI0
aI1
aI3
aa(lp58
I1
aI2
aI3
aI0
aa(lp59
I2
aI3
aI1
aI0
aa(lp60
I1
aI3
aI2
aI0
aa(lp61
I1
aI2
aI3
aI0
aa(lp62
I1
aI0
aI2
aI3
aa(lp63
I0
aI3
aI2
aI1
aa(lp64
I0
aI2
aI3
aI1
aa(lp65
I2
aI1
aI3
aI0
aa(lp66
I1
aI3
aI2
aI0
aa(lp67
I0
aI2
aI3
aI1
aa(lp68
I2
aI3
aI1
aI0
aa(lp69
I2
aI1
aI3
aI0
aa(lp70
I2
aI3
aI1
aI0
aa(lp71
I0
aI1
aI2
aI3
aa(lp72
I1
aI2
aI3
aI0
aa(lp73
I1
aI2
aI3
aI0
aa(lp74
I1
aI0
aI3
aI2
aa(lp75
I2
aI1
aI3
aI0
aa(lp76
I1
aI2
aI3
aI0
aa(lp77
I2
aI0
aI3
aI1
aa(lp78
I0
aI1
aI2
aI3
aa(lp79
I1
aI2
aI0
aI3
aa(lp80
I0
aI2
aI1
aI3
aa(lp81
I2
aI3
aI1
aI0
aa(lp82
I3
aI2
aI1
aI0
aa(lp83
I0
aI2
aI3
aI1
aa(lp84
I2
aI1
aI3
aI0
aa(lp85
I1
aI2
aI3
aI0
aa(lp86
I0
aI2
aI1
aI3
aa(lp87
I0
aI2
aI1
aI3
aa(lp88
I2
aI1
aI3
aI0
aa(lp89
I1
aI2
aI3
aI0
aa(lp90
I3
aI2
aI1
aI0
aa(lp91
I0
aI1
aI3
aI2
aa(lp92
I1
aI2
aI0
aI3
aa(lp93
I1
aI2
aI3
aI0
aa(lp94
I2
aI1
aI0
aI3
aa(lp95
I3
aI2
aI1
aI0
aa(lp96
I2
aI1
aI3
aI0
aa(lp97
I1
aI2
aI3
aI0
aa(lp98
I2
aI3
aI0
aI1
aa(lp99
I2
aI0
aI3
aI1
aa(lp100
I0
aI2
aI3
aI1
aa(lp101
I1
aI3
aI2
aI0
aa(lp102
I1
aI3
aI2
aI0
aa(lp103
I1
aI3
aI2
aI0
aa(lp104
I3
aI2
aI0
aI1
aa(lp105
I0
aI2
aI1
aI3
aa(lp106
I3
aI1
aI2
aI0
aa(lp107
I2
aI3
aI0
aI1
aa(lp108
I0
aI2
aI1
aI3
aa(lp109
I2
aI3
aI0
aI1
aa(lp110
I2
aI3
aI0
aI1
aa(lp111
I0
aI2
aI1
aI3
aa(lp112
I1
aI2
aI0
aI3
aa(lp113
I1
aI0
aI2
aI3
aa(lp114
I2
aI3
aI0
aI1
aa(lp115
I1
aI3
aI2
aI0
aa(lp116
I2
aI0
aI3
aI1
aa(lp117
I2
aI3
aI1
aI0
aa(lp118
I1
aI2
aI3
aI0
aa(lp119
I0
aI2
aI1
aI3
aa(lp120
I1
aI2
aI3
aI0
aa(lp121
I3
aI1
aI2
aI0
aa(lp122
I0
aI2
aI1
aI3
aa(lp123
I1
aI2
aI3
aI0
aa(lp124
I0
aI1
aI2
aI3
aa(lp125
I3
aI2
aI1
aI0
aa(lp126
I3
aI1
aI2
aI0
aa(lp127
I1
aI3
aI2
aI0
aa(lp128
I1
aI3
aI0
aI2
aa(lp129
I3
aI1
aI2
aI0
aa(lp130
I2
aI3
aI1
aI0
aa(lp131
I0
aI2
aI3
aI1
aa(lp132
I1
aI3
aI0
aI2
aa(lp133
I2
aI3
aI1
aI0
aa(lp134
I2
aI1
aI3
aI0
aa(lp135
I1
aI0
aI2
aI3
aa(lp136
I1
aI2
aI3
aI0
aasS'PCMC'
p137
g2
(g3
(I0
tp138
g5
tp139
Rp140
(I1
(I12
tp141
g12
I00
S'\xee\x92\x954k\xdd\x93@[\xc8\xf8\x9e3{\x86@\xc2\xf9\x1c\xf0%\xdbo?<\x1d\xfbF\xe4\x8a\x90@\xdd\xdd\xf2\xed\x0c\xb0\x9f@\xa4D^\x8a\xfc\xec\xf5?v\x05\xd7\xbf\xeb\xafr@\x92.\xd5\x1cY,\xa4@\x1d\x1e\t\xea?\xff\xaa@\xfc\xa9\xf1\xd2MbP?\xf26t\x7f\xd5\xc0\xf0?7|>.\xf2\x15\xc0@'
p142
tp143
bsS'PL'
p144
g2
(g3
(I0
tp145
g5
tp146
Rp147
(I1
(I4
tp148
g12
I00
S'64\xa4\xf0\r\xf0\xc6?\xf4\xcbV\xe5\xd6\x14\xd2?\xa3\xecV{\xf1\x0b\xd5?\x99Z\x00Na\xce\xca?'
p149
tp150
bsS'Mallows-greedy-RE'
p151
((lp152
I3
aI0
aI1
aI2
ag34
(g12
S'\xb36@\xa8S\xb2\xeb?'
p153
tp154
Rp155
tp156
s.