(dp0
S'PCMC-RE'
p1
cnumpy.core.multiarray
_reconstruct
p2
(cnumpy
ndarray
p3
(I0
tp4
S'b'
p5
tp6
Rp7
(I1
(I6
tp8
cnumpy
dtype
p9
(S'f8'
p10
I0
I1
tp11
Rp12
(I3
S'<'
p13
NNNI-1
I-1
I0
tp14
bI00
S'\xfc\xa9\xf1\xd2MbP?!\xe7\xfed\xc5\x9c\xd5?\xe5\xcd.\xb1\x90iQ?\xf6S>`\xda{\xe1?\xb7\xbc\xe2u\x8c\xf9\xc1?\xc6\x97\x8f\xb4\xce\x15\xc5?'
p15
tp16
bsS'MMNL-RE'
p17
g2
(g3
(I0
tp18
g5
tp19
Rp20
(I1
(I4
tp21
g12
I00
S'\x00\x00\x00\x00\x00\x00\xf0?\x93]~`\x8cm\xb1?T\x86\xcf\xcb\xe2\x1f\xad?*\x1c6&ot\xc6?'
p22
tp23
bsS'PL-RE'
p24
g2
(g3
(I0
tp25
g5
tp26
Rp27
(I1
(I3
tp28
g12
I00
S'\x98\xa3\xc6\x87B\x02\xcd?\xb6<\xda\x05,=\xc8?\xec\xc7\x97\\$\xb0\xe2?'
p29
tp30
bsS'N'
p31
I3
sS'Mallows-greedy'
p32
((lp33
I1
aI0
aI2
acnumpy.core.multiarray
scalar
p34
(g12
S'\xde\xc3Mf`\x02\xf2?'
p35
tp36
Rp37
tp38
sS'MMNL'
p39
g2
(g3
(I0
tp40
g5
tp41
Rp42
(I1
(I4
tp43
g12
I00
S'\x00\x00\x00\x00\x00\x00\xf0?\xd9\xfd\xab\xd3\xea{\xea?\xe4\xe0s\x8b\xf3\xe1\xf0?\xa3\x92\x99\xe36R\xd7?'
p44
tp45
bsS'test-lists'
p46
(lp47
(lp48
I0
aI1
aI2
aa(lp49
I2
aI0
aI1
aa(lp50
I1
aI0
aI2
aa(lp51
I0
aI1
aI2
aa(lp52
I1
aI2
aI0
aa(lp53
I1
aI0
aI2
aa(lp54
I1
aI0
aI2
aa(lp55
I1
aI0
aI2
aa(lp56
I0
aI2
aI1
aa(lp57
I1
aI2
aI0
aa(lp58
I0
aI1
aI2
aa(lp59
I1
aI0
aI2
aa(lp60
I1
aI2
aI0
aa(lp61
I0
aI1
aI2
aa(lp62
I0
aI1
aI2
aa(lp63
I1
aI0
aI2
aa(lp64
I1
aI2
aI0
aa(lp65
I1
aI2
aI0
aa(lp66
I0
aI1
aI2
aa(lp67
I2
aI1
aI0
aa(lp68
I1
aI0
aI2
aa(lp69
I1
aI2
aI0
aa(lp70
I0
aI1
aI2
aa(lp71
I0
aI1
aI2
aa(lp72
I1
aI2
aI0
aa(lp73
I0
aI1
aI2
aa(lp74
I1
aI0
aI2
aa(lp75
I0
aI1
aI2
aa(lp76
I0
aI1
aI2
aa(lp77
I0
aI1
aI2
aa(lp78
I0
aI1
aI2
aa(lp79
I1
aI0
aI2
aa(lp80
I1
aI2
aI0
aa(lp81
I0
aI1
aI2
aa(lp82
I1
aI2
aI0
aa(lp83
I1
aI2
aI0
aa(lp84
I0
aI1
aI2
aa(lp85
I0
aI2
aI1
aa(lp86
I1
aI0
aI2
aa(lp87
I1
aI2
aI0
aa(lp88
I1
aI0
aI2
aa(lp89
I1
aI0
aI2
aa(lp90
I1
aI0
aI2
aa(lp91
I0
aI1
aI2
aa(lp92
I0
aI2
aI1
aa(lp93
I0
aI1
aI2
aa(lp94
I2
aI1
aI0
aa(lp95
I1
aI0
aI2
aa(lp96
I1
aI0
aI2
aa(lp97
I0
aI1
aI2
aa(lp98
I1
aI2
aI0
aa(lp99
I0
aI1
aI2
aa(lp100
I0
aI1
aI2
aa(lp101
I1
aI0
aI2
aa(lp102
I0
aI2
aI1
aa(lp103
I1
aI0
aI2
aa(lp104
I1
aI0
aI2
aa(lp105
I0
aI2
aI1
aa(lp106
I2
aI1
aI0
aa(lp107
I0
aI1
aI2
aa(lp108
I1
aI0
aI2
aa(lp109
I1
aI2
aI0
aa(lp110
I1
aI0
aI2
aa(lp111
I2
aI1
aI0
aa(lp112
I1
aI0
aI2
aa(lp113
I1
aI0
aI2
aa(lp114
I0
aI1
aI2
aa(lp115
I0
aI1
aI2
aa(lp116
I0
aI1
aI2
aa(lp117
I1
aI2
aI0
aa(lp118
I1
aI0
aI2
aa(lp119
I1
aI0
aI2
aa(lp120
I1
aI0
aI2
aa(lp121
I0
aI1
aI2
aa(lp122
I1
aI0
aI2
aa(lp123
I0
aI1
aI2
aa(lp124
I1
aI2
aI0
aa(lp125
I1
aI0
aI2
aa(lp126
I1
aI0
aI2
aa(lp127
I1
aI0
aI2
aa(lp128
I0
aI1
aI2
aa(lp129
I0
aI1
aI2
aa(lp130
I0
aI1
aI2
aa(lp131
I1
aI2
aI0
aa(lp132
I1
aI0
aI2
aa(lp133
I2
aI1
aI0
aa(lp134
I1
aI0
aI2
aa(lp135
I1
aI2
aI0
aa(lp136
I0
aI1
aI2
aa(lp137
I0
aI2
aI1
aa(lp138
I1
aI0
aI2
aa(lp139
I1
aI2
aI0
aa(lp140
I2
aI1
aI0
aa(lp141
I1
aI2
aI0
aa(lp142
I1
aI2
aI0
aa(lp143
I1
aI0
aI2
aa(lp144
I2
aI0
aI1
aa(lp145
I0
aI1
aI2
aa(lp146
I0
aI1
aI2
aa(lp147
I2
aI1
aI0
aa(lp148
I1
aI0
aI2
aa(lp149
I1
aI2
aI0
aa(lp150
I0
aI1
aI2
aa(lp151
I1
aI2
aI0
aa(lp152
I1
aI0
aI2
aa(lp153
I1
aI2
aI0
aa(lp154
I0
aI2
aI1
aa(lp155
I1
aI2
aI0
aa(lp156
I0
aI1
aI2
aa(lp157
I1
aI0
aI2
aa(lp158
I1
aI0
aI2
aa(lp159
I1
aI0
aI2
aasS'PCMC'
p160
g2
(g3
(I0
tp161
g5
tp162
Rp163
(I1
(I6
tp164
g12
I00
S'\xb3\xdd\xff\xf3F\x05\xee?\xfc\xa9\xf1\xd2MbP?\xd8\x8b0\xfc\xb7\xfc\xe9?\xec\x91\x14R\xa2J\xe5?-0\xc5\x0f\x1b.[?\x94\xe3\x02-\xae\xbb\x01@'
p165
tp166
bsS'PL'
p167
g2
(g3
(I0
tp168
g5
tp169
Rp170
(I1
(I3
tp171
g12
I00
S'\xf9d\x023%\x92\xd7?\xd1\x81A\xf1\x19\r\xde?h2x\xb7\x81\xc1\xc4?'
p172
tp173
bsS'Mallows-greedy-RE'
p174
((lp175
I2
aI0
aI1
ag34
(g12
S'\xde\xc3Mf`\x02\xf2?'
p176
tp177
Rp178
tp179
s.