(dp0
S'PCMC-RE'
p1
cnumpy.core.multiarray
_reconstruct
p2
(cnumpy
ndarray
p3
(I0
tp4
S'b'
p5
tp6
Rp7
(I1
(I6
tp8
cnumpy
dtype
p9
(S'f8'
p10
I0
I1
tp11
Rp12
(I3
S'<'
p13
NNNI-1
I-1
I0
tp14
bI00
S'w\x9aA\x84[\x19r?#\x03\xbe\x05\xc3\xa1\xf3?\xdf\xfe\x9b\xcb\xda\xa8W?\x0f/\xd6\x9d\x80\xca\xe3?\x8c\x8e\x0c\x0e\xa0\x99\xc0?tm\x86c\x82\xcc\xd8?'
p15
tp16
bsS'MMNL-RE'
p17
g2
(g3
(I0
tp18
g5
tp19
Rp20
(I1
(I4
tp21
g12
I00
S'\x00\x00\x00\x00\x00\x00\xf0?\x1e4L<\x15\xbb\xc0?\xe9?<1\xeeU\xe1?\xabA\xac\xa0\xcb]\xec?'
p22
tp23
bsS'PL-RE'
p24
g2
(g3
(I0
tp25
g5
tp26
Rp27
(I1
(I3
tp28
g12
I00
S'\xab\xde4\xf8\x03w\xb5?\xb7\x1f\xdd\xfa\xac=\xd6?O\xd4\x8a\x03I2\xe2?'
p29
tp30
bsS'N'
p31
I3
sS'Mallows-greedy'
p32
((lp33
I0
aI1
aI2
acnumpy.core.multiarray
scalar
p34
(g12
S'\xc2\xd3((%L\xf7?'
p35
tp36
Rp37
tp38
sS'MMNL'
p39
g2
(g3
(I0
tp40
g5
tp41
Rp42
(I1
(I4
tp43
g12
I00
S'\x00\x00\x00\x00\x00\x00\xf0?\x0fO=Z\x07\x04\xf6?v\x8d\xe5\xac\x9b\xf2\xd2?%#0\xf5w\x15\xca?'
p44
tp45
bsS'test-lists'
p46
(lp47
(lp48
I0
aI2
aI1
aa(lp49
I2
aI0
aI1
aa(lp50
I0
aI2
aI1
aa(lp51
I0
aI1
aI2
aa(lp52
I0
aI1
aI2
aa(lp53
I0
aI2
aI1
aa(lp54
I0
aI1
aI2
aa(lp55
I0
aI1
aI2
aa(lp56
I1
aI0
aI2
aa(lp57
I0
aI2
aI1
aa(lp58
I1
aI2
aI0
aa(lp59
I0
aI2
aI1
aa(lp60
I1
aI0
aI2
aa(lp61
I0
aI2
aI1
aa(lp62
I0
aI1
aI2
aa(lp63
I1
aI0
aI2
aa(lp64
I0
aI1
aI2
aa(lp65
I2
aI1
aI0
aa(lp66
I1
aI0
aI2
aa(lp67
I0
aI2
aI1
aa(lp68
I0
aI2
aI1
aa(lp69
I0
aI1
aI2
aa(lp70
I1
aI0
aI2
aa(lp71
I0
aI1
aI2
aa(lp72
I0
aI1
aI2
aa(lp73
I2
aI0
aI1
aa(lp74
I0
aI2
aI1
aa(lp75
I0
aI2
aI1
aa(lp76
I0
aI2
aI1
aa(lp77
I0
aI2
aI1
aa(lp78
I0
aI1
aI2
aa(lp79
I2
aI0
aI1
aa(lp80
I0
aI2
aI1
aa(lp81
I0
aI1
aI2
aa(lp82
I0
aI2
aI1
aa(lp83
I1
aI0
aI2
aa(lp84
I0
aI1
aI2
aa(lp85
I0
aI2
aI1
aa(lp86
I0
aI1
aI2
aa(lp87
I0
aI2
aI1
aa(lp88
I0
aI1
aI2
aa(lp89
I0
aI2
aI1
aa(lp90
I1
aI0
aI2
aa(lp91
I1
aI2
aI0
aa(lp92
I0
aI2
aI1
aa(lp93
I0
aI2
aI1
aa(lp94
I0
aI1
aI2
aa(lp95
I0
aI2
aI1
aa(lp96
I1
aI0
aI2
aa(lp97
I0
aI1
aI2
aa(lp98
I0
aI1
aI2
aa(lp99
I0
aI1
aI2
aa(lp100
I0
aI2
aI1
aa(lp101
I0
aI2
aI1
aa(lp102
I0
aI2
aI1
aa(lp103
I2
aI0
aI1
aa(lp104
I1
aI2
aI0
aa(lp105
I0
aI1
aI2
aa(lp106
I0
aI2
aI1
aa(lp107
I0
aI1
aI2
aa(lp108
I0
aI1
aI2
aa(lp109
I0
aI2
aI1
aa(lp110
I0
aI1
aI2
aa(lp111
I1
aI0
aI2
aa(lp112
I0
aI2
aI1
aa(lp113
I0
aI1
aI2
aa(lp114
I0
aI2
aI1
aa(lp115
I0
aI1
aI2
aa(lp116
I0
aI2
aI1
aa(lp117
I0
aI1
aI2
aa(lp118
I0
aI1
aI2
aa(lp119
I2
aI1
aI0
aa(lp120
I0
aI2
aI1
aa(lp121
I0
aI1
aI2
aa(lp122
I0
aI2
aI1
aa(lp123
I0
aI1
aI2
aa(lp124
I0
aI2
aI1
aa(lp125
I0
aI1
aI2
aa(lp126
I0
aI2
aI1
aa(lp127
I0
aI2
aI1
aa(lp128
I0
aI1
aI2
aa(lp129
I0
aI1
aI2
aa(lp130
I0
aI1
aI2
aa(lp131
I0
aI2
aI1
aa(lp132
I2
aI0
aI1
aa(lp133
I0
aI1
aI2
aa(lp134
I0
aI2
aI1
aa(lp135
I0
aI1
aI2
aa(lp136
I1
aI0
aI2
aasS'PCMC'
p137
g2
(g3
(I0
tp138
g5
tp139
Rp140
(I1
(I6
tp141
g12
I00
S'\xfc\xa9\xf1\xd2MbP?\x0f{I\x95p\xb1\xea?w\x86\xdf\xab\xfe\xdce?\x80[xA\x9eml?\xb1\xffVOi\xe9\x1c@T\xcdZ\x1e!\xc5q?'
p142
tp143
bsS'PL'
p144
g2
(g3
(I0
tp145
g5
tp146
Rp147
(I1
(I3
tp148
g12
I00
S'$\xbev\xa4!y\xe7? D\xd7\x8f\xb73\xc4?\xa7\x86\x9b\xbc\x83\xcf\xbb?'
p149
tp150
bsS'Mallows-greedy-RE'
p151
((lp152
I2
aI1
aI0
ag34
(g12
S'\xc2\xd3((%L\xf7?'
p153
tp154
Rp155
tp156
s.