(dp0
S'PCMC-RE'
p1
cnumpy.core.multiarray
_reconstruct
p2
(cnumpy
ndarray
p3
(I0
tp4
S'b'
p5
tp6
Rp7
(I1
(I12
tp8
cnumpy
dtype
p9
(S'f8'
p10
I0
I1
tp11
Rp12
(I3
S'<'
p13
NNNI-1
I-1
I0
tp14
bI00
S'\xbd?\xe4\xe93\x05J@\xc4hM|W*~?\xa1\t\xeb+T\x81&@}8\xba[z\xbe\x04@\x99\x8e\xfc\x7f\x80~\xd6?6#\x9a\xca\x1e\xa7\x1b@\xfc\xa9\xf1\xd2MbP?\x9e&Y\xd032\xb5?\xa1jk\xc7\xa4\xf8\xc8?\x86\xc0\x8f\xc9B\xcb\x12@\xe7B\xa4\x99\xe6qJ@\x8e\x93:\xb2\xba\x14\xed?'
p15
tp16
bsS'MMNL-RE'
p17
g2
(g3
(I0
tp18
g5
tp19
Rp20
(I1
(I10
tp21
g12
I00
S']1f=\xfd\xb5\xe4?F\x9d3\x85\x05\x94\xd6?\x95\xd6&\xe8\x0b.\x11>\xa0q7pu\n\xde?\x86\x8f\x94\xb7\x88\xdd\xe0?\x17\x88R\x0e_$\xea?F&\xc0\x1br\x15\xe7?\xe0Q\x0f\x89(B\xeb?\x95\xd6&\xe8\x0b.\x11>\x0cB\xe09\xf2V\xe6?'
p22
tp23
bsS'PL-RE'
p24
g2
(g3
(I0
tp25
g5
tp26
Rp27
(I1
(I4
tp28
g12
I00
S'\xc9\xa1\xda\xd4\xaa3\x99?E63f<Z\xd7?\x10\xbbqt<\x9e\xe1?\xdcK\xdd\x1c\x80\xb0\xae?'
p29
tp30
bsS'N'
p31
I4
sS'Mallows-greedy'
p32
((lp33
I0
aI3
aI1
aI2
acnumpy.core.multiarray
scalar
p34
(g12
S'\xd9\xf8\x8a\xd6U\x13\xfd?'
p35
tp36
Rp37
tp38
sS'MMNL'
p39
g2
(g3
(I0
tp40
g5
tp41
Rp42
(I1
(I10
tp43
g12
I00
S'\xa6\xe1_\xfe\x8bh\xe2?\xb4<@\x03\xe8.\xdb?L Z\xa9M\xec\xf0?\x93(\xd3v5c\xfa?\x95\xd6&\xe8\x0b.\x11>\xd4"\xbdI\xda\xb7\xd4?\x95\xd6&\xe8\x0b.\x11>\x08\xa6@\xf8\xd0\xe7\xdb?nL\x15p4,\xed?\xcd\xa1\xd7\xff\xe7\xe2\xf3?'
p44
tp45
bsS'test-lists'
p46
(lp47
(lp48
I0
aI3
aI1
aI2
aa(lp49
I2
aI3
aI1
aI0
aa(lp50
I0
aI3
aI1
aI2
aa(lp51
I0
aI3
aI2
aI1
aa(lp52
I0
aI3
aI1
aI2
aa(lp53
I0
aI3
aI1
aI2
aa(lp54
I0
aI3
aI1
aI2
aa(lp55
I0
aI3
aI1
aI2
aa(lp56
I0
aI3
aI2
aI1
aa(lp57
I0
aI3
aI1
aI2
aa(lp58
I0
aI3
aI2
aI1
aa(lp59
I3
aI0
aI1
aI2
aa(lp60
I0
aI3
aI2
aI1
aa(lp61
I3
aI0
aI1
aI2
aa(lp62
I0
aI3
aI2
aI1
aa(lp63
I0
aI3
aI1
aI2
aa(lp64
I0
aI1
aI3
aI2
aa(lp65
I0
aI3
aI1
aI2
aa(lp66
I0
aI3
aI1
aI2
aa(lp67
I0
aI3
aI1
aI2
aa(lp68
I0
aI2
aI3
aI1
aa(lp69
I3
aI0
aI2
aI1
aa(lp70
I3
aI0
aI2
aI1
aa(lp71
I0
aI3
aI2
aI1
aa(lp72
I0
aI3
aI1
aI2
aa(lp73
I0
aI3
aI1
aI2
aa(lp74
I0
aI3
aI1
aI2
aa(lp75
I0
aI3
aI2
aI1
aa(lp76
I0
aI3
aI1
aI2
aa(lp77
I0
aI3
aI1
aI2
aa(lp78
I0
aI3
aI1
aI2
aa(lp79
I3
aI0
aI2
aI1
aa(lp80
I0
aI3
aI1
aI2
aa(lp81
I0
aI3
aI1
aI2
aa(lp82
I3
aI0
aI1
aI2
aa(lp83
I0
aI2
aI3
aI1
aa(lp84
I0
aI1
aI3
aI2
aa(lp85
I3
aI1
aI0
aI2
aa(lp86
I0
aI3
aI1
aI2
aa(lp87
I3
aI0
aI1
aI2
aa(lp88
I3
aI0
aI1
aI2
aa(lp89
I3
aI0
aI1
aI2
aa(lp90
I0
aI3
aI2
aI1
aa(lp91
I3
aI0
aI1
aI2
aa(lp92
I3
aI0
aI1
aI2
aa(lp93
I3
aI1
aI2
aI0
aa(lp94
I0
aI3
aI2
aI1
aa(lp95
I0
aI1
aI3
aI2
aa(lp96
I3
aI0
aI1
aI2
aa(lp97
I0
aI3
aI1
aI2
aa(lp98
I3
aI0
aI1
aI2
aa(lp99
I3
aI1
aI0
aI2
aa(lp100
I0
aI3
aI1
aI2
aa(lp101
I3
aI1
aI0
aI2
aa(lp102
I0
aI3
aI1
aI2
aa(lp103
I0
aI3
aI2
aI1
aa(lp104
I0
aI3
aI1
aI2
aa(lp105
I3
aI0
aI2
aI1
aa(lp106
I0
aI1
aI3
aI2
aa(lp107
I0
aI1
aI3
aI2
aa(lp108
I0
aI3
aI2
aI1
aa(lp109
I0
aI3
aI1
aI2
aa(lp110
I0
aI3
aI2
aI1
aa(lp111
I3
aI0
aI1
aI2
aa(lp112
I0
aI1
aI3
aI2
aa(lp113
I0
aI3
aI1
aI2
aa(lp114
I0
aI3
aI1
aI2
aa(lp115
I0
aI3
aI1
aI2
aa(lp116
I3
aI0
aI2
aI1
aa(lp117
I2
aI0
aI3
aI1
aa(lp118
I0
aI2
aI1
aI3
aa(lp119
I0
aI3
aI2
aI1
aa(lp120
I0
aI3
aI2
aI1
aa(lp121
I3
aI0
aI1
aI2
aa(lp122
I3
aI0
aI1
aI2
aa(lp123
I0
aI3
aI1
aI2
aa(lp124
I0
aI3
aI1
aI2
aa(lp125
I0
aI3
aI2
aI1
aa(lp126
I0
aI3
aI2
aI1
aa(lp127
I0
aI3
aI2
aI1
aa(lp128
I0
aI3
aI2
aI1
aa(lp129
I0
aI3
aI2
aI1
aa(lp130
I3
aI0
aI1
aI2
aa(lp131
I0
aI3
aI2
aI1
aa(lp132
I3
aI1
aI0
aI2
aa(lp133
I0
aI3
aI1
aI2
aa(lp134
I0
aI3
aI1
aI2
aa(lp135
I0
aI3
aI2
aI1
aa(lp136
I3
aI0
aI1
aI2
aasS'PCMC'
p137
g2
(g3
(I0
tp138
g5
tp139
Rp140
(I1
(I12
tp141
g12
I00
S'\xfc\xa9\xf1\xd2MbP?u\x9a\x10\xb5N\x9b\xbd?\xf0\xe28:\x88E\xdd?\xf4\x1cR\x1di\x94X?\x05\x8d\xac\x1a\xc9\x82\xf0?4\x90h\xb9\xeb\x9e\xf1?\xff0\xda\xe9@\xc7\x05@4\xc7\xf9\xa5&\x18\xfd?\x8e\xaf\xf7]\xaa\xc5\xe0?N\n\xcd\x869\xa3\xf2?\xaf\x15$]O\x9b\xb4?\xc9\xefs\x00\xc0\xac\xc1?'
p142
tp143
bsS'PL'
p144
g2
(g3
(I0
tp145
g5
tp146
Rp147
(I1
(I4
tp148
g12
I00
S'I\x8b\xe7\xae\x142\xe5?j\xa9\xf8\x88+3\xa7?\x1a\x9e\x90\xbbjj\x9d?^\xcaX\x85\xca\xde\xd0?'
p149
tp150
bsS'Mallows-greedy-RE'
p151
((lp152
I2
aI1
aI3
aI0
ag34
(g12
S'\xd9\xf8\x8a\xd6U\x13\xfd?'
p153
tp154
Rp155
tp156
s.