(dp0
S'PCMC-RE'
p1
cnumpy.core.multiarray
_reconstruct
p2
(cnumpy
ndarray
p3
(I0
tp4
S'b'
p5
tp6
Rp7
(I1
(I12
tp8
cnumpy
dtype
p9
(S'f8'
p10
I0
I1
tp11
Rp12
(I3
S'<'
p13
NNNI-1
I-1
I0
tp14
bI00
S'\xc2\xe1nwM\xc8\xde?\xdd\x81\xcd\xca\x8f\xa5b?\xadk\x87V\xcbL\xd4?\\D\xd1F/\xab\xe9?\xec\x90\x80{\xdd\x8a\xa8?\x1d\xcc\xed\x1e\x8e\x88\xd2?\xdf\xaeV}\xacW\x8a?\xa9D4G\xff\xb9\xc3?\x9a\xb9[\xb2\x0f\xc4\xfb?v\xc4\xf3\x16"#\xec?Y\x03I\xd8U\xf3\xe6?x\xd6\xf6\x81\x107\xd5?'
p15
tp16
bsS'MMNL-RE'
p17
g2
(g3
(I0
tp18
g5
tp19
Rp20
(I1
(I10
tp21
g12
I00
S"\xab\x87\xff\xf4\xe82\xc6?\x15\x1e\xc0\xc2Es\xea?+\t\x96\x87\xe9\x1d\xcc?\xf8;\xe0\xa8\x0e\x93\xf2?\x95\xd6&\xe8\x0b.\x11>t\xc7\x18\x86c\x96\xe8?\x12\t)<\xc6\xa1\xd8?Ub\x8f\x07\x16\xff\x9a?p'\xfc\xe7Y\xa1\xf4?\xea\xa1\xb0-\x89,\xc4?"
p22
tp23
bsS'PL-RE'
p24
g2
(g3
(I0
tp25
g5
tp26
Rp27
(I1
(I4
tp28
g12
I00
S'N\xdb\x87d\xbc\xad\xde?Ch\x86\x1a\xa5\xd1\xd3?\x08\xeb\x10\x1e\xb6\x1b\xa6? >_zOz\xc5?'
p29
tp30
bsS'N'
p31
I4
sS'Mallows-greedy'
p32
((lp33
I2
aI3
aI1
aI0
acnumpy.core.multiarray
scalar
p34
(g12
S'rZ4\xf9\xd2\x9d\xf7?'
p35
tp36
Rp37
tp38
sS'MMNL'
p39
g2
(g3
(I0
tp40
g5
tp41
Rp42
(I1
(I10
tp43
g12
I00
S'\x0f0q\x7f\x9e|\xe0?\xe1\x9f\x1d\x01\xc3\x06\xdf?\xff\xacE\xba\x9f\xc0\xd4?Y\xccd\xb0Q\x86\xe1>\xa3\\\xfa\xfa\x12~\xdf?\xbaO\xd76\x15\x94\xe7>\xee\xd5@\x1a\x8bQ\xeb?\x86\x00\xc1\xf1\xfc\x04\x07@\x14\xd6\xf7\xcc N\xe5?\x90:\xeb-dG\x07?'
p44
tp45
bsS'test-lists'
p46
(lp47
(lp48
I2
aI3
aI0
aI1
aa(lp49
I2
aI3
aI0
aI1
aa(lp50
I1
aI2
aI3
aI0
aa(lp51
I0
aI2
aI1
aI3
aa(lp52
I2
aI3
aI1
aI0
aa(lp53
I2
aI0
aI1
aI3
aa(lp54
I2
aI0
aI1
aI3
aa(lp55
I1
aI3
aI0
aI2
aa(lp56
I2
aI3
aI1
aI0
aa(lp57
I2
aI1
aI3
aI0
aa(lp58
I1
aI2
aI0
aI3
aa(lp59
I1
aI2
aI3
aI0
aa(lp60
I0
aI1
aI2
aI3
aa(lp61
I1
aI0
aI2
aI3
aa(lp62
I2
aI1
aI0
aI3
aa(lp63
I2
aI3
aI1
aI0
aa(lp64
I2
aI1
aI3
aI0
aa(lp65
I1
aI2
aI3
aI0
aa(lp66
I2
aI1
aI0
aI3
aa(lp67
I2
aI3
aI1
aI0
aa(lp68
I2
aI0
aI1
aI3
aa(lp69
I1
aI2
aI0
aI3
aa(lp70
I2
aI3
aI0
aI1
aa(lp71
I2
aI3
aI1
aI0
aa(lp72
I2
aI3
aI0
aI1
aa(lp73
I2
aI3
aI0
aI1
aa(lp74
I2
aI3
aI0
aI1
aa(lp75
I2
aI3
aI1
aI0
aa(lp76
I2
aI3
aI0
aI1
aa(lp77
I2
aI1
aI0
aI3
aa(lp78
I2
aI3
aI1
aI0
aa(lp79
I2
aI3
aI1
aI0
aa(lp80
I0
aI2
aI3
aI1
aa(lp81
I1
aI0
aI2
aI3
aa(lp82
I2
aI3
aI1
aI0
aa(lp83
I2
aI1
aI0
aI3
aa(lp84
I2
aI1
aI3
aI0
aa(lp85
I2
aI0
aI3
aI1
aa(lp86
I2
aI3
aI1
aI0
aa(lp87
I2
aI3
aI0
aI1
aa(lp88
I2
aI3
aI0
aI1
aa(lp89
I1
aI2
aI3
aI0
aa(lp90
I2
aI3
aI0
aI1
aa(lp91
I2
aI3
aI0
aI1
aa(lp92
I2
aI1
aI3
aI0
aa(lp93
I2
aI3
aI1
aI0
aa(lp94
I2
aI3
aI0
aI1
aa(lp95
I2
aI1
aI3
aI0
aa(lp96
I2
aI3
aI1
aI0
aa(lp97
I2
aI3
aI1
aI0
aa(lp98
I1
aI0
aI3
aI2
aa(lp99
I2
aI3
aI0
aI1
aa(lp100
I1
aI0
aI3
aI2
aa(lp101
I3
aI2
aI1
aI0
aa(lp102
I2
aI0
aI3
aI1
aa(lp103
I2
aI3
aI1
aI0
aa(lp104
I2
aI0
aI3
aI1
aa(lp105
I2
aI1
aI3
aI0
aa(lp106
I2
aI3
aI1
aI0
aa(lp107
I2
aI3
aI0
aI1
aa(lp108
I2
aI1
aI0
aI3
aa(lp109
I2
aI1
aI3
aI0
aa(lp110
I2
aI3
aI1
aI0
aa(lp111
I3
aI2
aI0
aI1
aa(lp112
I3
aI2
aI0
aI1
aa(lp113
I2
aI1
aI3
aI0
aa(lp114
I3
aI2
aI0
aI1
aa(lp115
I2
aI3
aI0
aI1
aa(lp116
I2
aI1
aI3
aI0
aa(lp117
I2
aI3
aI0
aI1
aa(lp118
I2
aI1
aI3
aI0
aa(lp119
I2
aI3
aI0
aI1
aa(lp120
I2
aI1
aI3
aI0
aa(lp121
I2
aI0
aI1
aI3
aa(lp122
I2
aI3
aI1
aI0
aa(lp123
I1
aI0
aI2
aI3
aa(lp124
I2
aI3
aI0
aI1
aa(lp125
I2
aI1
aI3
aI0
aa(lp126
I2
aI3
aI1
aI0
aa(lp127
I2
aI1
aI0
aI3
aa(lp128
I2
aI3
aI0
aI1
aa(lp129
I2
aI3
aI0
aI1
aa(lp130
I3
aI2
aI0
aI1
aasS'PCMC'
p131
g2
(g3
(I0
tp132
g5
tp133
Rp134
(I1
(I12
tp135
g12
I00
S'\x8a\x98\xbdu\xe3\xf4c@\xa6$/\x91)R\\?\xcb|\x82\xd5P\xd1\\?\xe7\xc6y\xa1RqW@\x9b`\x88\xf4Wj%@\xde\xf9t\x12b\xe8[@\x9e\x15&\xc2\x83\x8eT?\xff\xc7\xb0\xf0\xe0t\x0c@\xce\xb1%W\xa3\xc4K@\xfc\xa9\xf1\xd2MbP?\xab\t\x1e\x06\n\x87H@\xff\xfc\x07\x15\x8d\xfbp@'
p136
tp137
bsS'PL'
p138
g2
(g3
(I0
tp139
g5
tp140
Rp141
(I1
(I4
tp142
g12
I00
S'b\x7fX\x05{n\xb0?\x7f\x86ct\x0c\r\xb8?f(`I\x04S\xe5?\x7f[\xa1\x1d+v\xc6?'
p143
tp144
bsS'Mallows-greedy-RE'
p145
((lp146
I0
aI1
aI3
aI2
ag34
(g12
S'rZ4\xf9\xd2\x9d\xf7?'
p147
tp148
Rp149
tp150
s.