(dp0
S'PCMC-RE'
p1
cnumpy.core.multiarray
_reconstruct
p2
(cnumpy
ndarray
p3
(I0
tp4
S'b'
p5
tp6
Rp7
(I1
(I6
tp8
cnumpy
dtype
p9
(S'f8'
p10
I0
I1
tp11
Rp12
(I3
S'<'
p13
NNNI-1
I-1
I0
tp14
bI00
S'\xfc\xa9\xf1\xd2MbP?j\x1bN\x89aQq@\xef\xb1\x8fb\xc1\xf7s?\xc2\x157\x95\xfc{j@Bx\x98:\xcf\xf7g@\x84\x1a\xc8\xd9\x14,M@'
p15
tp16
bsS'MMNL-RE'
p17
g2
(g3
(I0
tp18
g5
tp19
Rp20
(I1
(I4
tp21
g12
I00
S'\x00\x00\x00\x00\x00\x00\xf0?\x80\xb6$1+\xdb\xe8?\xe2\x9c\xdaY\xcfA\xce?B\xbe\xbf\xa7Rk\xf0?'
p22
tp23
bsS'PL-RE'
p24
g2
(g3
(I0
tp25
g5
tp26
Rp27
(I1
(I3
tp28
g12
I00
S'\x1cdF\x97_`\xd8?\\\xec\xa8\x03_\xac\xbd?f\xb0\xe7SD\x1a\xe0?'
p29
tp30
bsS'N'
p31
I3
sS'Mallows-greedy'
p32
((lp33
I1
aI0
aI2
acnumpy.core.multiarray
scalar
p34
(g12
S',\xacK\xd3\xa9\xd2\xf3?'
p35
tp36
Rp37
tp38
sS'MMNL'
p39
g2
(g3
(I0
tp40
g5
tp41
Rp42
(I1
(I4
tp43
g12
I00
S'\x00\x00\x00\x00\x00\x00\xf0?=\x9d\xec\x98\xf8\x95\xe0?vE\xd5\x9cn\x96\xf6?\xcb\xf6t\x9e\xb7\x19\xd7?'
p44
tp45
bsS'test-lists'
p46
(lp47
(lp48
I1
aI2
aI0
aa(lp49
I1
aI0
aI2
aa(lp50
I0
aI1
aI2
aa(lp51
I0
aI2
aI1
aa(lp52
I1
aI0
aI2
aa(lp53
I2
aI1
aI0
aa(lp54
I1
aI0
aI2
aa(lp55
I1
aI2
aI0
aa(lp56
I1
aI0
aI2
aa(lp57
I1
aI0
aI2
aa(lp58
I1
aI2
aI0
aa(lp59
I1
aI0
aI2
aa(lp60
I0
aI1
aI2
aa(lp61
I1
aI2
aI0
aa(lp62
I1
aI0
aI2
aa(lp63
I1
aI2
aI0
aa(lp64
I1
aI2
aI0
aa(lp65
I2
aI1
aI0
aa(lp66
I1
aI0
aI2
aa(lp67
I1
aI0
aI2
aa(lp68
I2
aI1
aI0
aa(lp69
I1
aI0
aI2
aa(lp70
I0
aI1
aI2
aa(lp71
I1
aI0
aI2
aa(lp72
I1
aI2
aI0
aa(lp73
I1
aI2
aI0
aa(lp74
I1
aI0
aI2
aa(lp75
I1
aI0
aI2
aa(lp76
I2
aI0
aI1
aa(lp77
I1
aI0
aI2
aa(lp78
I1
aI2
aI0
aa(lp79
I1
aI0
aI2
aa(lp80
I1
aI0
aI2
aa(lp81
I2
aI0
aI1
aa(lp82
I1
aI2
aI0
aa(lp83
I1
aI0
aI2
aa(lp84
I0
aI1
aI2
aa(lp85
I1
aI2
aI0
aa(lp86
I0
aI2
aI1
aa(lp87
I1
aI2
aI0
aa(lp88
I1
aI0
aI2
aa(lp89
I1
aI2
aI0
aa(lp90
I0
aI2
aI1
aa(lp91
I1
aI0
aI2
aa(lp92
I1
aI0
aI2
aa(lp93
I1
aI2
aI0
aa(lp94
I1
aI2
aI0
aa(lp95
I1
aI0
aI2
aa(lp96
I0
aI1
aI2
aa(lp97
I0
aI1
aI2
aa(lp98
I1
aI0
aI2
aa(lp99
I1
aI2
aI0
aa(lp100
I0
aI2
aI1
aa(lp101
I1
aI0
aI2
aa(lp102
I1
aI2
aI0
aa(lp103
I1
aI0
aI2
aa(lp104
I0
aI1
aI2
aa(lp105
I1
aI0
aI2
aa(lp106
I1
aI0
aI2
aa(lp107
I2
aI1
aI0
aa(lp108
I1
aI0
aI2
aa(lp109
I0
aI1
aI2
aa(lp110
I1
aI2
aI0
aa(lp111
I1
aI2
aI0
aa(lp112
I1
aI0
aI2
aa(lp113
I1
aI0
aI2
aa(lp114
I0
aI2
aI1
aa(lp115
I0
aI2
aI1
aa(lp116
I2
aI0
aI1
aa(lp117
I0
aI2
aI1
aa(lp118
I1
aI2
aI0
aa(lp119
I0
aI2
aI1
aa(lp120
I0
aI2
aI1
aa(lp121
I1
aI2
aI0
aa(lp122
I1
aI2
aI0
aa(lp123
I1
aI2
aI0
aa(lp124
I2
aI0
aI1
aa(lp125
I0
aI1
aI2
aa(lp126
I1
aI0
aI2
aa(lp127
I1
aI0
aI2
aa(lp128
I1
aI0
aI2
aa(lp129
I2
aI1
aI0
aa(lp130
I1
aI0
aI2
aa(lp131
I1
aI0
aI2
aa(lp132
I2
aI1
aI0
aa(lp133
I0
aI2
aI1
aa(lp134
I1
aI0
aI2
aa(lp135
I2
aI1
aI0
aa(lp136
I2
aI1
aI0
aasS'PCMC'
p137
g2
(g3
(I0
tp138
g5
tp139
Rp140
(I1
(I6
tp141
g12
I00
S'V\xe1\x8c\x8f\xca\xd8]@\xe4\xf2z\x87\x01\x08\xa2?W\xd6\x13i$:D@\x94\x10\x8aj Gy?\x91\xf7\x05\\\xda\xe8\xaf?\xea\xf6\xa4i\x8d\xc0\x84?'
p142
tp143
bsS'PL'
p144
g2
(g3
(I0
tp145
g5
tp146
Rp147
(I1
(I3
tp148
g12
I00
S'<+Oi`\xf5\xcc?\nJ\xdc\xab\x00\xb8\xe3?\x98\xac?\xe7\x9c*\xc4?'
p149
tp150
bsS'Mallows-greedy-RE'
p151
((lp152
I2
aI0
aI1
ag34
(g12
S',\xacK\xd3\xa9\xd2\xf3?'
p153
tp154
Rp155
tp156
s.