(dp0
S'PCMC-RE'
p1
cnumpy.core.multiarray
_reconstruct
p2
(cnumpy
ndarray
p3
(I0
tp4
S'b'
p5
tp6
Rp7
(I1
(I12
tp8
cnumpy
dtype
p9
(S'f8'
p10
I0
I1
tp11
Rp12
(I3
S'<'
p13
NNNI-1
I-1
I0
tp14
bI00
S'>\x90\xcc\xa3\xd5wS?4k.\xf8o\xc3\xec?>\x7f\x0c\x08(~\xc0?\xfc\xa9\xf1\xd2MbP?\x1eO\xcb!\x05\xed\xfb?sM\xd7o\xa8\n\xd1?\x9a\xf3\x19x\xd5<\xf7?\x83\x1dC\x98\x8c\xb4\xe4?:\xaf\xc8\xe0V\x8a\xa7?;\xcb\xcc\xce_\xae\xe1?\xafu\xa9f~u\xe6?\xcdG7\t^\xb2\x00@'
p15
tp16
bsS'MMNL-RE'
p17
g2
(g3
(I0
tp18
g5
tp19
Rp20
(I1
(I10
tp21
g12
I00
S'\xf1\x16D\xa6\xab-\x11>\xa3\x92v\xff\xff\xff\xef?\xaa\xf8\xdd7Q*\xf2?\xfc\xf3@T\x82\x0c\xf3?\x0b\xf2$SGU\xeb?\x17\x15\xc7\xd9\xb9\x06\xda?\xcd\xd9\xd1R\xc1M\xf3?\xa6\x07\x92\r\x11\xf0\xf0?j\x85\xffz\x1c\x94\xe3?Q\x96J\x815a\xc0?'
p22
tp23
bsS'PL-RE'
p24
g2
(g3
(I0
tp25
g5
tp26
Rp27
(I1
(I4
tp28
g12
I00
S'%Z\x04\xe8\x05_\xdb?\x05\x92i}\xcd\xb2\xc2?\xb2\xee\x1f5mV\xd8?\x1fq7!1\x89\xa7?'
p29
tp30
bsS'N'
p31
I4
sS'Mallows-greedy'
p32
((lp33
I3
aI1
aI2
aI0
acnumpy.core.multiarray
scalar
p34
(g12
S'\xfbhY\x04\x84\xe8\xf7?'
p35
tp36
Rp37
tp38
sS'MMNL'
p39
g2
(g3
(I0
tp40
g5
tp41
Rp42
(I1
(I10
tp43
g12
I00
S':\x90v\xff\xff\xff\xef?\xd7q]\xc7\xf8-\x11>\xec\xd3\x8b\xa0\x83\xa9\xc8?\xb9\x91:\xf9\x9f\xd9\xd6?\xbd\xe1\x1df\xd3\xcb\xe4?\x04+\x1a7m\x1c\xed?\xfb\xc0\x06\xa1\xdb\xff\xd0?\xb6\x06|\xc8\xbd\xbe\xeb?P\xb6\xf1\x948k\x00@\x15\xd3\xf3Nb\x03\xf4?'
p44
tp45
bsS'test-lists'
p46
(lp47
(lp48
I3
aI1
aI2
aI0
aa(lp49
I1
aI3
aI2
aI0
aa(lp50
I1
aI0
aI3
aI2
aa(lp51
I3
aI0
aI1
aI2
aa(lp52
I1
aI3
aI0
aI2
aa(lp53
I3
aI1
aI0
aI2
aa(lp54
I3
aI2
aI0
aI1
aa(lp55
I3
aI0
aI1
aI2
aa(lp56
I3
aI0
aI1
aI2
aa(lp57
I1
aI0
aI3
aI2
aa(lp58
I3
aI2
aI1
aI0
aa(lp59
I3
aI0
aI1
aI2
aa(lp60
I3
aI2
aI0
aI1
aa(lp61
I0
aI1
aI3
aI2
aa(lp62
I3
aI2
aI1
aI0
aa(lp63
I1
aI3
aI2
aI0
aa(lp64
I3
aI2
aI0
aI1
aa(lp65
I3
aI1
aI2
aI0
aa(lp66
I3
aI1
aI2
aI0
aa(lp67
I1
aI3
aI2
aI0
aa(lp68
I3
aI1
aI0
aI2
aa(lp69
I1
aI3
aI0
aI2
aa(lp70
I1
aI2
aI3
aI0
aa(lp71
I0
aI3
aI2
aI1
aa(lp72
I3
aI1
aI2
aI0
aa(lp73
I0
aI3
aI1
aI2
aa(lp74
I1
aI3
aI2
aI0
aa(lp75
I3
aI1
aI2
aI0
aa(lp76
I1
aI0
aI3
aI2
aa(lp77
I1
aI0
aI3
aI2
aa(lp78
I0
aI2
aI3
aI1
aa(lp79
I1
aI2
aI3
aI0
aa(lp80
I1
aI0
aI3
aI2
aa(lp81
I3
aI1
aI0
aI2
aa(lp82
I3
aI1
aI2
aI0
aa(lp83
I3
aI2
aI1
aI0
aa(lp84
I3
aI2
aI1
aI0
aa(lp85
I3
aI0
aI2
aI1
aa(lp86
I3
aI0
aI2
aI1
aa(lp87
I3
aI1
aI2
aI0
aa(lp88
I3
aI0
aI1
aI2
aa(lp89
I0
aI1
aI3
aI2
aa(lp90
I3
aI1
aI2
aI0
aa(lp91
I1
aI3
aI2
aI0
aa(lp92
I1
aI3
aI0
aI2
aa(lp93
I3
aI2
aI1
aI0
aa(lp94
I3
aI1
aI0
aI2
aa(lp95
I3
aI0
aI1
aI2
aa(lp96
I0
aI3
aI1
aI2
aa(lp97
I1
aI0
aI2
aI3
aa(lp98
I3
aI2
aI0
aI1
aa(lp99
I3
aI0
aI1
aI2
aa(lp100
I0
aI3
aI1
aI2
aa(lp101
I1
aI3
aI2
aI0
aa(lp102
I3
aI2
aI1
aI0
aa(lp103
I1
aI3
aI2
aI0
aa(lp104
I3
aI1
aI0
aI2
aa(lp105
I3
aI0
aI1
aI2
aa(lp106
I1
aI3
aI2
aI0
aa(lp107
I0
aI3
aI1
aI2
aa(lp108
I3
aI1
aI2
aI0
aa(lp109
I3
aI2
aI1
aI0
aa(lp110
I3
aI1
aI2
aI0
aa(lp111
I1
aI2
aI0
aI3
aa(lp112
I3
aI1
aI2
aI0
aa(lp113
I3
aI1
aI2
aI0
aa(lp114
I3
aI1
aI2
aI0
aa(lp115
I3
aI1
aI2
aI0
aa(lp116
I0
aI3
aI1
aI2
aa(lp117
I3
aI0
aI1
aI2
aa(lp118
I0
aI1
aI3
aI2
aa(lp119
I3
aI1
aI0
aI2
aa(lp120
I1
aI3
aI2
aI0
aa(lp121
I1
aI3
aI2
aI0
aa(lp122
I0
aI3
aI2
aI1
aa(lp123
I3
aI0
aI2
aI1
aa(lp124
I3
aI1
aI2
aI0
aa(lp125
I3
aI0
aI2
aI1
aa(lp126
I3
aI1
aI2
aI0
aa(lp127
I3
aI2
aI1
aI0
aa(lp128
I3
aI2
aI1
aI0
aa(lp129
I1
aI3
aI0
aI2
aa(lp130
I3
aI1
aI2
aI0
aa(lp131
I1
aI3
aI0
aI2
aa(lp132
I3
aI1
aI0
aI2
aa(lp133
I3
aI1
aI0
aI2
aa(lp134
I3
aI1
aI0
aI2
aa(lp135
I3
aI0
aI1
aI2
aasS'PCMC'
p136
g2
(g3
(I0
tp137
g5
tp138
Rp139
(I1
(I12
tp140
g12
I00
S'1\x9f\xbf\x02\xa8\xe3\xf2?\xa5|\xcbe\xd2u\x8c?\xde \x8d"\x84\xddm?\xdd\x12"\xe5-6\xd7?\xfc\xa9\xf1\xd2MbP?\xc5\'\xe2\xda_\xf2\xf6?\xff\xb3\xd7\x0fA\x19\x80?\x8c\xd9\xaf\xf4\x8cef?\t\x06E\x19\xe4g\x06@\xc6\x1a\x8f?\xf1We?\xc7h\xdb\x1a\x91*\xdf?\xa7\x95\xde\x99\xae\xdb\xc8?'
p141
tp142
bsS'PL'
p143
g2
(g3
(I0
tp144
g5
tp145
Rp146
(I1
(I4
tp147
g12
I00
S"C\xd5\x0c?t6\xaf?\xe4#|\xcf\xe4Q\xca?8\x00R\x06\xc3\x83\xb5?\xab\xe9e'\xa7\xc7\xe4?"
p148
tp149
bsS'Mallows-greedy-RE'
p150
((lp151
I0
aI2
aI1
aI3
ag34
(g12
S'\xfbhY\x04\x84\xe8\xf7?'
p152
tp153
Rp154
tp155
s.