(dp0
S'PCMC-RE'
p1
cnumpy.core.multiarray
_reconstruct
p2
(cnumpy
ndarray
p3
(I0
tp4
S'b'
p5
tp6
Rp7
(I1
(I6
tp8
cnumpy
dtype
p9
(S'f8'
p10
I0
I1
tp11
Rp12
(I3
S'<'
p13
NNNI-1
I-1
I0
tp14
bI00
S'\xe0!\x1e\x1c\x80\xf9y?\x04\xd1\xa6\x17}%\xf8?O\xd3\x1c\xc8\x96%\x82?\x9e\xb6G\xc0\xcf\xf9f?tT^\xd2\xfbU\x01@\xf5\xa8\x17{WWr?'
p15
tp16
bsS'MMNL-RE'
p17
g2
(g3
(I0
tp18
g5
tp19
Rp20
(I1
(I4
tp21
g12
I00
S'\x00\x00\x00\x00\x00\x00\xf0?A\xa4]\x1c\x81:\xdd?$\xcd\x8ev\x089\xd8?f&\x04\x8e\x05\xf2\xd2?'
p22
tp23
bsS'PL-RE'
p24
g2
(g3
(I0
tp25
g5
tp26
Rp27
(I1
(I3
tp28
g12
I00
S"\xb7-\x93\xf3\xaa\xd6\xd9?\x80\x8d\xea'\xd3i\xd5?\xc7D\x82\xe4\x81\xbf\xd0?"
p29
tp30
bsS'N'
p31
I3
sS'Mallows-greedy'
p32
((lp33
I2
aI1
aI0
acnumpy.core.multiarray
scalar
p34
(g12
S'h\xf8V\x85\xcd\x01\xeb?'
p35
tp36
Rp37
tp38
sS'MMNL'
p39
g2
(g3
(I0
tp40
g5
tp41
Rp42
(I1
(I4
tp43
g12
I00
S'\x00\x00\x00\x00\x00\x00\xf0?P\x1a\x98\xdd\xbe\xc2\xe6?\xed\x10pTW\xe4\xea?n\xfd\xce\xa3\x90-\xf0?'
p44
tp45
bsS'test-lists'
p46
(lp47
(lp48
I1
aI2
aI0
aa(lp49
I2
aI1
aI0
aa(lp50
I2
aI0
aI1
aa(lp51
I1
aI2
aI0
aa(lp52
I2
aI1
aI0
aa(lp53
I2
aI0
aI1
aa(lp54
I2
aI0
aI1
aa(lp55
I2
aI1
aI0
aa(lp56
I0
aI1
aI2
aa(lp57
I1
aI2
aI0
aa(lp58
I0
aI2
aI1
aa(lp59
I2
aI1
aI0
aa(lp60
I1
aI0
aI2
aa(lp61
I1
aI0
aI2
aa(lp62
I0
aI1
aI2
aa(lp63
I2
aI0
aI1
aa(lp64
I2
aI1
aI0
aa(lp65
I2
aI1
aI0
aa(lp66
I1
aI0
aI2
aa(lp67
I1
aI0
aI2
aa(lp68
I2
aI0
aI1
aa(lp69
I1
aI2
aI0
aa(lp70
I2
aI0
aI1
aa(lp71
I2
aI1
aI0
aa(lp72
I1
aI2
aI0
aa(lp73
I0
aI2
aI1
aa(lp74
I1
aI0
aI2
aa(lp75
I2
aI1
aI0
aa(lp76
I1
aI2
aI0
aa(lp77
I1
aI0
aI2
aa(lp78
I1
aI2
aI0
aa(lp79
I2
aI1
aI0
aa(lp80
I2
aI0
aI1
aa(lp81
I1
aI2
aI0
aa(lp82
I1
aI2
aI0
aa(lp83
I0
aI2
aI1
aa(lp84
I2
aI1
aI0
aa(lp85
I2
aI1
aI0
aa(lp86
I0
aI1
aI2
aa(lp87
I1
aI0
aI2
aa(lp88
I2
aI1
aI0
aa(lp89
I1
aI0
aI2
aa(lp90
I1
aI0
aI2
aa(lp91
I2
aI0
aI1
aa(lp92
I2
aI1
aI0
aa(lp93
I2
aI1
aI0
aa(lp94
I0
aI1
aI2
aa(lp95
I2
aI0
aI1
aa(lp96
I1
aI2
aI0
aa(lp97
I0
aI1
aI2
aa(lp98
I2
aI0
aI1
aa(lp99
I1
aI0
aI2
aa(lp100
I1
aI0
aI2
aa(lp101
I2
aI0
aI1
aa(lp102
I1
aI2
aI0
aa(lp103
I1
aI2
aI0
aa(lp104
I2
aI1
aI0
aa(lp105
I0
aI2
aI1
aa(lp106
I2
aI1
aI0
aa(lp107
I2
aI0
aI1
aa(lp108
I1
aI0
aI2
aa(lp109
I2
aI1
aI0
aa(lp110
I2
aI1
aI0
aa(lp111
I1
aI0
aI2
aa(lp112
I2
aI1
aI0
aa(lp113
I1
aI2
aI0
aa(lp114
I1
aI2
aI0
aa(lp115
I2
aI1
aI0
aa(lp116
I1
aI2
aI0
aa(lp117
I1
aI2
aI0
aa(lp118
I2
aI1
aI0
aa(lp119
I1
aI2
aI0
aa(lp120
I1
aI0
aI2
aa(lp121
I2
aI0
aI1
aa(lp122
I0
aI1
aI2
aasS'PCMC'
p123
g2
(g3
(I0
tp124
g5
tp125
Rp126
(I1
(I6
tp127
g12
I00
S'ut\xe6i\xa1\xed0@\xf8\x82j@0pP?\x90\xc2\xa2v\x85E*@\xaf\xd2\xbf\x05\xaa\n7@hW\x18\xfb\x08CR?>c\x13\xbc{\x8a1@'
p128
tp129
bsS'PL'
p130
g2
(g3
(I0
tp131
g5
tp132
Rp133
(I1
(I3
tp134
g12
I00
S'\xe3k:\x85:\xc3\xd1?\x89\xf1\x87\xc4\x94\xfc\xd4?\x95\xa2=\xb60@\xd9?'
p135
tp136
bsS'Mallows-greedy-RE'
p137
((lp138
I0
aI1
aI2
ag34
(g12
S'h\xf8V\x85\xcd\x01\xeb?'
p139
tp140
Rp141
tp142
s.