(dp0
S'PCMC-RE'
p1
cnumpy.core.multiarray
_reconstruct
p2
(cnumpy
ndarray
p3
(I0
tp4
S'b'
p5
tp6
Rp7
(I1
(I6
tp8
cnumpy
dtype
p9
(S'f8'
p10
I0
I1
tp11
Rp12
(I3
S'<'
p13
NNNI-1
I-1
I0
tp14
bI00
S'U/\xaa7\x1c\x02]?\xf6|l\x89q\xe5\xf2?\xfc\xa9\xf1\xd2MbP?.\x84k\xbcr\xee\xe8?\x92\x1f\nb\xe5\xc5\xbf?,\xa9\x004\x04\xf7\xcb?'
p15
tp16
bsS'MMNL-RE'
p17
g2
(g3
(I0
tp18
g5
tp19
Rp20
(I1
(I4
tp21
g12
I00
S'\x00\x00\x00\x00\x00\x00\xf0?m\xcax\xed\xa1\xe4\xc5?d\x1c\xee\xe8\x1d\xda\xd5?\xc5&s\x01\xf6\x8c\xf5?'
p22
tp23
bsS'PL-RE'
p24
g2
(g3
(I0
tp25
g5
tp26
Rp27
(I1
(I3
tp28
g12
I00
S'\xa6F\xb4\xa5t\x8c\xb7?\x07\x99IV$\x81\xc7?\xea\x10\xb7U(.\xe7?'
p29
tp30
bsS'N'
p31
I3
sS'Mallows-greedy'
p32
((lp33
I0
aI1
aI2
acnumpy.core.multiarray
scalar
p34
(g12
S'B7\xb7\xe7\xd0\xc2\xf8?'
p35
tp36
Rp37
tp38
sS'MMNL'
p39
g2
(g3
(I0
tp40
g5
tp41
Rp42
(I1
(I4
tp43
g12
I00
S'\x00\x00\x00\x00\x00\x00\xf0?i\xbd\xb7\x1f^\xfe\xfe?\xcen\x95E\x13%\xec?\xeaG\x10\xb5\x08\xf7\xd0?'
p44
tp45
bsS'test-lists'
p46
(lp47
(lp48
I1
aI2
aI0
aa(lp49
I2
aI0
aI1
aa(lp50
I1
aI0
aI2
aa(lp51
I1
aI2
aI0
aa(lp52
I0
aI1
aI2
aa(lp53
I1
aI0
aI2
aa(lp54
I0
aI1
aI2
aa(lp55
I1
aI0
aI2
aa(lp56
I2
aI0
aI1
aa(lp57
I1
aI0
aI2
aa(lp58
I0
aI1
aI2
aa(lp59
I0
aI2
aI1
aa(lp60
I2
aI1
aI0
aa(lp61
I0
aI1
aI2
aa(lp62
I0
aI1
aI2
aa(lp63
I0
aI2
aI1
aa(lp64
I1
aI0
aI2
aa(lp65
I1
aI2
aI0
aa(lp66
I1
aI0
aI2
aa(lp67
I1
aI0
aI2
aa(lp68
I1
aI0
aI2
aa(lp69
I0
aI1
aI2
aa(lp70
I2
aI0
aI1
aa(lp71
I0
aI1
aI2
aa(lp72
I0
aI1
aI2
aa(lp73
I1
aI0
aI2
aa(lp74
I0
aI2
aI1
aa(lp75
I1
aI0
aI2
aa(lp76
I0
aI1
aI2
aa(lp77
I0
aI1
aI2
aa(lp78
I0
aI1
aI2
aa(lp79
I0
aI1
aI2
aa(lp80
I1
aI0
aI2
aa(lp81
I0
aI1
aI2
aa(lp82
I0
aI2
aI1
aa(lp83
I0
aI1
aI2
aa(lp84
I1
aI0
aI2
aa(lp85
I0
aI2
aI1
aa(lp86
I0
aI1
aI2
aa(lp87
I2
aI0
aI1
aa(lp88
I1
aI0
aI2
aa(lp89
I1
aI0
aI2
aa(lp90
I0
aI1
aI2
aa(lp91
I0
aI2
aI1
aa(lp92
I1
aI2
aI0
aa(lp93
I0
aI1
aI2
aa(lp94
I0
aI1
aI2
aa(lp95
I0
aI1
aI2
aa(lp96
I1
aI0
aI2
aa(lp97
I1
aI2
aI0
aa(lp98
I1
aI2
aI0
aa(lp99
I0
aI2
aI1
aa(lp100
I0
aI2
aI1
aa(lp101
I0
aI1
aI2
aa(lp102
I0
aI1
aI2
aa(lp103
I0
aI1
aI2
aa(lp104
I0
aI2
aI1
aa(lp105
I0
aI1
aI2
aa(lp106
I1
aI0
aI2
aa(lp107
I0
aI1
aI2
aa(lp108
I1
aI0
aI2
aa(lp109
I1
aI0
aI2
aa(lp110
I0
aI1
aI2
aa(lp111
I1
aI0
aI2
aa(lp112
I0
aI2
aI1
aa(lp113
I0
aI1
aI2
aa(lp114
I1
aI0
aI2
aa(lp115
I1
aI0
aI2
aa(lp116
I2
aI0
aI1
aa(lp117
I0
aI2
aI1
aasS'PCMC'
p118
g2
(g3
(I0
tp119
g5
tp120
Rp121
(I1
(I6
tp122
g12
I00
S'\xd7v\xd8L`\xb1\xf8?\xff\x00\xbev\x02m @\xfe3\xecK\xed\x81\x08@6v?\xaaJ\xfbT?\x82\xe5\xb9\xc0\x17\x88S@k\xd2\x14\xb8\xa8|k?'
p123
tp124
bsS'PL'
p125
g2
(g3
(I0
tp126
g5
tp127
Rp128
(I1
(I3
tp129
g12
I00
S']\xe0\x81\xb7R\x1d\xe4?\xb7\x8c!M\x0fD\xd2?2\xcaj\x0f-\x05\xb6?'
p130
tp131
bsS'Mallows-greedy-RE'
p132
((lp133
I2
aI1
aI0
ag34
(g12
S'B7\xb7\xe7\xd0\xc2\xf8?'
p134
tp135
Rp136
tp137
s.