(dp0
S'PCMC-RE'
p1
cnumpy.core.multiarray
_reconstruct
p2
(cnumpy
ndarray
p3
(I0
tp4
S'b'
p5
tp6
Rp7
(I1
(I6
tp8
cnumpy
dtype
p9
(S'f8'
p10
I0
I1
tp11
Rp12
(I3
S'<'
p13
NNNI-1
I-1
I0
tp14
bI00
S'1\xdeG2T\x0c\xe0?HG\x12\x16\xacn\xe5?\x9cY\xbd?\x08\xd7\xf9?\xacY\xa4)\x84\x02R?\x98?P9\xa2f\xf5?\xfc\xa9\xf1\xd2MbP?'
p15
tp16
bsS'MMNL-RE'
p17
g2
(g3
(I0
tp18
g5
tp19
Rp20
(I1
(I4
tp21
g12
I00
S'\x00\x00\x00\x00\x00\x00\xf0?M\x08\xcb;r\xbc\xfc?H\xb0Er\x96\xd4\xe3?)\x12pr\x08a\xea?'
p22
tp23
bsS'PL-RE'
p24
g2
(g3
(I0
tp25
g5
tp26
Rp27
(I1
(I3
tp28
g12
I00
S'k\xb7X\xd7\xee\xbc\xe1?\x86\x11L\xb1Q{\xc8?e\x88\xa8xyH\xd0?'
p29
tp30
bsS'N'
p31
I3
sS'Mallows-greedy'
p32
((lp33
I1
aI2
aI0
acnumpy.core.multiarray
scalar
p34
(g12
S'\xedj\xee\x95\xf7\xa6\xf1?'
p35
tp36
Rp37
tp38
sS'MMNL'
p39
g2
(g3
(I0
tp40
g5
tp41
Rp42
(I1
(I4
tp43
g12
I00
S'\x00\x00\x00\x00\x00\x00\xf0?F\x95\x93\x7f\xb8\xcb\xda?Z\xdb\x86\xf1A\x1f\xf2?\x7f1v_\xb6\xd7\xe8?'
p44
tp45
bsS'test-lists'
p46
(lp47
(lp48
I2
aI1
aI0
aa(lp49
I1
aI2
aI0
aa(lp50
I1
aI2
aI0
aa(lp51
I2
aI1
aI0
aa(lp52
I2
aI1
aI0
aa(lp53
I1
aI0
aI2
aa(lp54
I2
aI1
aI0
aa(lp55
I1
aI0
aI2
aa(lp56
I1
aI2
aI0
aa(lp57
I1
aI2
aI0
aa(lp58
I2
aI0
aI1
aa(lp59
I2
aI1
aI0
aa(lp60
I1
aI0
aI2
aa(lp61
I2
aI0
aI1
aa(lp62
I2
aI1
aI0
aa(lp63
I1
aI0
aI2
aa(lp64
I2
aI1
aI0
aa(lp65
I1
aI2
aI0
aa(lp66
I1
aI0
aI2
aa(lp67
I1
aI2
aI0
aa(lp68
I0
aI1
aI2
aa(lp69
I1
aI2
aI0
aa(lp70
I1
aI0
aI2
aa(lp71
I1
aI2
aI0
aa(lp72
I2
aI1
aI0
aa(lp73
I1
aI0
aI2
aa(lp74
I1
aI0
aI2
aa(lp75
I2
aI1
aI0
aa(lp76
I2
aI0
aI1
aa(lp77
I1
aI2
aI0
aa(lp78
I0
aI1
aI2
aa(lp79
I1
aI2
aI0
aa(lp80
I1
aI2
aI0
aa(lp81
I1
aI2
aI0
aa(lp82
I2
aI1
aI0
aa(lp83
I2
aI0
aI1
aa(lp84
I2
aI0
aI1
aa(lp85
I1
aI2
aI0
aa(lp86
I1
aI0
aI2
aa(lp87
I1
aI0
aI2
aa(lp88
I1
aI2
aI0
aa(lp89
I1
aI0
aI2
aa(lp90
I1
aI0
aI2
aa(lp91
I1
aI0
aI2
aa(lp92
I1
aI0
aI2
aa(lp93
I1
aI0
aI2
aa(lp94
I2
aI1
aI0
aa(lp95
I1
aI2
aI0
aa(lp96
I2
aI1
aI0
aa(lp97
I0
aI1
aI2
aa(lp98
I1
aI0
aI2
aa(lp99
I1
aI2
aI0
aa(lp100
I1
aI0
aI2
aa(lp101
I1
aI0
aI2
aa(lp102
I2
aI1
aI0
aa(lp103
I1
aI2
aI0
aa(lp104
I1
aI0
aI2
aa(lp105
I1
aI2
aI0
aa(lp106
I1
aI2
aI0
aa(lp107
I1
aI0
aI2
aa(lp108
I2
aI1
aI0
aa(lp109
I1
aI0
aI2
aa(lp110
I1
aI2
aI0
aa(lp111
I0
aI2
aI1
aa(lp112
I2
aI1
aI0
aa(lp113
I1
aI2
aI0
aa(lp114
I1
aI0
aI2
aa(lp115
I1
aI2
aI0
aa(lp116
I2
aI1
aI0
aa(lp117
I1
aI2
aI0
aa(lp118
I1
aI2
aI0
aa(lp119
I1
aI0
aI2
aa(lp120
I1
aI0
aI2
aa(lp121
I1
aI2
aI0
aa(lp122
I2
aI0
aI1
aa(lp123
I2
aI1
aI0
aa(lp124
I2
aI1
aI0
aa(lp125
I2
aI1
aI0
aa(lp126
I1
aI2
aI0
aa(lp127
I1
aI0
aI2
aa(lp128
I1
aI2
aI0
aa(lp129
I1
aI2
aI0
aa(lp130
I1
aI2
aI0
aa(lp131
I1
aI2
aI0
aa(lp132
I2
aI1
aI0
aa(lp133
I2
aI0
aI1
aa(lp134
I0
aI1
aI2
aa(lp135
I2
aI0
aI1
aa(lp136
I1
aI2
aI0
aa(lp137
I1
aI2
aI0
aa(lp138
I0
aI2
aI1
aa(lp139
I2
aI0
aI1
aa(lp140
I0
aI1
aI2
aa(lp141
I0
aI1
aI2
aa(lp142
I1
aI2
aI0
aa(lp143
I2
aI1
aI0
aa(lp144
I2
aI1
aI0
aa(lp145
I1
aI0
aI2
aa(lp146
I0
aI2
aI1
aa(lp147
I2
aI1
aI0
aa(lp148
I2
aI1
aI0
aa(lp149
I2
aI1
aI0
aa(lp150
I2
aI1
aI0
aa(lp151
I1
aI2
aI0
aa(lp152
I1
aI2
aI0
aa(lp153
I1
aI0
aI2
aa(lp154
I1
aI2
aI0
aasS'PCMC'
p155
g2
(g3
(I0
tp156
g5
tp157
Rp158
(I1
(I6
tp159
g12
I00
S"P\xbea\x90\xf3&\x89@\xd5=\xd1iWCU?'\xc9\x1d\r\x93\x80o@\x83\xbb\xb1>\xb9\xbbe@\xfc\xa9\xf1\xd2MbP?8\xb6\x8cV-\xdak@"
p160
tp161
bsS'PL'
p162
g2
(g3
(I0
tp163
g5
tp164
Rp165
(I1
(I3
tp166
g12
I00
S'-$\xac`\x1c\x06\xc7?\x8eo*\xbcp$\xdf?Z~\x7f\x13\x81X\xd5?'
p167
tp168
bsS'Mallows-greedy-RE'
p169
((lp170
I0
aI2
aI1
ag34
(g12
S'\xedj\xee\x95\xf7\xa6\xf1?'
p171
tp172
Rp173
tp174
s.