(dp0
S'PCMC-RE'
p1
cnumpy.core.multiarray
_reconstruct
p2
(cnumpy
ndarray
p3
(I0
tp4
S'b'
p5
tp6
Rp7
(I1
(I6
tp8
cnumpy
dtype
p9
(S'f8'
p10
I0
I1
tp11
Rp12
(I3
S'<'
p13
NNNI-1
I-1
I0
tp14
bI00
S'=\xe9zp)\t^?)P}\x96N\xc4\xe7?\xfc\xa9\xf1\xd2MbP?\x885\xbbo\xf9\xa4\n@\xf2T$E\x17\xcf\xf3?\xa9TT\xcd\xc6\xc0 @'
p15
tp16
bsS'MMNL-RE'
p17
g2
(g3
(I0
tp18
g5
tp19
Rp20
(I1
(I4
tp21
g12
I00
S'\x00\x00\x00\x00\x00\x00\xf0?\x98\\\\\xd8y\xf0\xe5?\xedX\xd9\xcfR\x19\xf1?*7\x8a\x9f\x9a\xce\xda?'
p22
tp23
bsS'PL-RE'
p24
g2
(g3
(I0
tp25
g5
tp26
Rp27
(I1
(I3
tp28
g12
I00
S"\xb1\xb9\xbfn\xf90\xd4?\x87\xb7\xac\x80\x1dy\xdf?\x8a\x1d'!\xd2\xab\xc8?"
p29
tp30
bsS'N'
p31
I3
sS'Mallows-greedy'
p32
((lp33
I2
aI0
aI1
acnumpy.core.multiarray
scalar
p34
(g12
S'"\xcbG\x1ed\xb2\xf0?'
p35
tp36
Rp37
tp38
sS'MMNL'
p39
g2
(g3
(I0
tp40
g5
tp41
Rp42
(I1
(I4
tp43
g12
I00
S'\x00\x00\x00\x00\x00\x00\xf0?)\x05\xf3\xfc\xb6j\xe2?\xaf\xb95VEw\xd9?\x8a\xd3\xd0\x80\xb8\x9f\xed?'
p44
tp45
bsS'test-lists'
p46
(lp47
(lp48
I1
aI0
aI2
aa(lp49
I2
aI1
aI0
aa(lp50
I0
aI2
aI1
aa(lp51
I0
aI2
aI1
aa(lp52
I2
aI0
aI1
aa(lp53
I2
aI0
aI1
aa(lp54
I0
aI2
aI1
aa(lp55
I0
aI2
aI1
aa(lp56
I2
aI1
aI0
aa(lp57
I0
aI2
aI1
aa(lp58
I2
aI0
aI1
aa(lp59
I0
aI2
aI1
aa(lp60
I2
aI1
aI0
aa(lp61
I2
aI1
aI0
aa(lp62
I0
aI1
aI2
aa(lp63
I2
aI0
aI1
aa(lp64
I0
aI2
aI1
aa(lp65
I2
aI0
aI1
aa(lp66
I0
aI1
aI2
aa(lp67
I2
aI0
aI1
aa(lp68
I2
aI1
aI0
aa(lp69
I2
aI0
aI1
aa(lp70
I2
aI0
aI1
aa(lp71
I2
aI0
aI1
aa(lp72
I2
aI0
aI1
aa(lp73
I0
aI2
aI1
aa(lp74
I2
aI0
aI1
aa(lp75
I2
aI1
aI0
aa(lp76
I0
aI2
aI1
aa(lp77
I2
aI0
aI1
aa(lp78
I1
aI0
aI2
aa(lp79
I0
aI2
aI1
aa(lp80
I2
aI1
aI0
aa(lp81
I0
aI2
aI1
aa(lp82
I2
aI0
aI1
aa(lp83
I2
aI0
aI1
aa(lp84
I2
aI0
aI1
aa(lp85
I1
aI0
aI2
aa(lp86
I0
aI2
aI1
aa(lp87
I0
aI1
aI2
aa(lp88
I2
aI0
aI1
aa(lp89
I1
aI2
aI0
aa(lp90
I1
aI0
aI2
aa(lp91
I0
aI2
aI1
aa(lp92
I2
aI0
aI1
aa(lp93
I2
aI0
aI1
aa(lp94
I0
aI2
aI1
aa(lp95
I2
aI0
aI1
aa(lp96
I2
aI1
aI0
aa(lp97
I2
aI0
aI1
aa(lp98
I2
aI0
aI1
aa(lp99
I2
aI0
aI1
aa(lp100
I2
aI0
aI1
aa(lp101
I0
aI1
aI2
aa(lp102
I0
aI2
aI1
aa(lp103
I0
aI1
aI2
aa(lp104
I0
aI2
aI1
aa(lp105
I2
aI1
aI0
aa(lp106
I0
aI2
aI1
aa(lp107
I0
aI1
aI2
aa(lp108
I0
aI2
aI1
aa(lp109
I1
aI2
aI0
aa(lp110
I2
aI1
aI0
aa(lp111
I2
aI1
aI0
aa(lp112
I2
aI1
aI0
aa(lp113
I2
aI0
aI1
aa(lp114
I2
aI0
aI1
aa(lp115
I0
aI1
aI2
aa(lp116
I1
aI2
aI0
aa(lp117
I2
aI1
aI0
aa(lp118
I0
aI2
aI1
aa(lp119
I2
aI1
aI0
aa(lp120
I2
aI1
aI0
aa(lp121
I2
aI0
aI1
aa(lp122
I2
aI0
aI1
aa(lp123
I2
aI1
aI0
aa(lp124
I1
aI0
aI2
aa(lp125
I0
aI1
aI2
aa(lp126
I2
aI1
aI0
aa(lp127
I2
aI1
aI0
aa(lp128
I2
aI1
aI0
aa(lp129
I2
aI0
aI1
aa(lp130
I2
aI1
aI0
aa(lp131
I0
aI1
aI2
aa(lp132
I0
aI2
aI1
aa(lp133
I2
aI1
aI0
aa(lp134
I0
aI2
aI1
aa(lp135
I2
aI0
aI1
aa(lp136
I2
aI1
aI0
aa(lp137
I0
aI2
aI1
aa(lp138
I2
aI1
aI0
aa(lp139
I1
aI0
aI2
aa(lp140
I1
aI2
aI0
aa(lp141
I0
aI2
aI1
aa(lp142
I2
aI1
aI0
aa(lp143
I2
aI0
aI1
aa(lp144
I0
aI2
aI1
aa(lp145
I0
aI2
aI1
aa(lp146
I1
aI2
aI0
aa(lp147
I2
aI1
aI0
aa(lp148
I2
aI0
aI1
aa(lp149
I2
aI1
aI0
aa(lp150
I0
aI2
aI1
aa(lp151
I0
aI1
aI2
aa(lp152
I2
aI1
aI0
aasS'PCMC'
p153
g2
(g3
(I0
tp154
g5
tp155
Rp156
(I1
(I6
tp157
g12
I00
S'\x00D\n\xa6\r\xa9\x04@\x04qHHk\t\x0c@\x92\xac@\x10\x1cE\x10@sU\xc7\xbc\xf8\xb6\x7f?\x1f\x95\xc22c\xce\xfe?&R\xa3P$\xddv?'
p158
tp159
bsS'PL'
p160
g2
(g3
(I0
tp161
g5
tp162
Rp163
(I1
(I3
tp164
g12
I00
S'\x08y\xde\x14\x01e\xd3?\xe5\xb3\n\xad[\xd1\xca?\x08-\x9c\x14Q2\xdf?'
p165
tp166
bsS'Mallows-greedy-RE'
p167
((lp168
I1
aI0
aI2
ag34
(g12
S'"\xcbG\x1ed\xb2\xf0?'
p169
tp170
Rp171
tp172
s.