(dp0
S'PCMC-RE'
p1
cnumpy.core.multiarray
_reconstruct
p2
(cnumpy
ndarray
p3
(I0
tp4
S'b'
p5
tp6
Rp7
(I1
(I6
tp8
cnumpy
dtype
p9
(S'f8'
p10
I0
I1
tp11
Rp12
(I3
S'<'
p13
NNNI-1
I-1
I0
tp14
bI00
S'\xe30\x021\xa2\xa6\xf4?8#\xf9\xeeN\x15U?1%\xe4\xb9{\xec\xf7?\x10\xbd\x9f\x17iD\xe8?h\x8e\xd0\xd6\xe4!o?\xd2\xe3\xa8m\x82\x17\xeb?'
p15
tp16
bsS'MMNL-RE'
p17
g2
(g3
(I0
tp18
g5
tp19
Rp20
(I1
(I4
tp21
g12
I00
S'\x00\x00\x00\x00\x00\x00\xf0?+\xd0\x05gv\xec\xe0?\x1f- \xc3\xaau\xda?\xcb\x9b7\x8b\xa1\x12\xd5?'
p22
tp23
bsS'PL-RE'
p24
g2
(g3
(I0
tp25
g5
tp26
Rp27
(I1
(I3
tp28
g12
I00
S'&\xc0\xedGi\x9e\xda?7\x157t\x0e\xcf\xd4?\xa7*\xdbC\x88\x92\xd0?'
p29
tp30
bsS'N'
p31
I3
sS'Mallows-greedy'
p32
((lp33
I2
aI1
aI0
acnumpy.core.multiarray
scalar
p34
(g12
S'\xc4\xf3\x82\x99H\x88\xea?'
p35
tp36
Rp37
tp38
sS'MMNL'
p39
g2
(g3
(I0
tp40
g5
tp41
Rp42
(I1
(I4
tp43
g12
I00
S'\x00\x00\x00\x00\x00\x00\xf0?\x83&Q\x9e\xb0~\xe0?\xf5\xf8>t\xa8\xb8\xe2?\xbf\x19\xdd\xa4\xa38\xe6?'
p44
tp45
bsS'test-lists'
p46
(lp47
(lp48
I2
aI1
aI0
aa(lp49
I2
aI1
aI0
aa(lp50
I0
aI2
aI1
aa(lp51
I2
aI0
aI1
aa(lp52
I2
aI1
aI0
aa(lp53
I0
aI1
aI2
aa(lp54
I1
aI2
aI0
aa(lp55
I2
aI1
aI0
aa(lp56
I1
aI2
aI0
aa(lp57
I2
aI1
aI0
aa(lp58
I1
aI2
aI0
aa(lp59
I1
aI2
aI0
aa(lp60
I1
aI0
aI2
aa(lp61
I1
aI0
aI2
aa(lp62
I2
aI0
aI1
aa(lp63
I1
aI2
aI0
aa(lp64
I2
aI0
aI1
aa(lp65
I1
aI0
aI2
aa(lp66
I2
aI0
aI1
aa(lp67
I0
aI2
aI1
aa(lp68
I1
aI2
aI0
aa(lp69
I2
aI0
aI1
aa(lp70
I2
aI0
aI1
aa(lp71
I2
aI0
aI1
aa(lp72
I2
aI1
aI0
aa(lp73
I2
aI1
aI0
aa(lp74
I2
aI1
aI0
aa(lp75
I2
aI1
aI0
aa(lp76
I2
aI1
aI0
aa(lp77
I2
aI1
aI0
aa(lp78
I2
aI0
aI1
aa(lp79
I1
aI0
aI2
aa(lp80
I1
aI0
aI2
aa(lp81
I0
aI1
aI2
aa(lp82
I2
aI0
aI1
aa(lp83
I1
aI2
aI0
aa(lp84
I1
aI0
aI2
aa(lp85
I0
aI1
aI2
aa(lp86
I0
aI1
aI2
aa(lp87
I2
aI0
aI1
aa(lp88
I2
aI0
aI1
aa(lp89
I1
aI0
aI2
aa(lp90
I2
aI1
aI0
aa(lp91
I2
aI0
aI1
aa(lp92
I2
aI0
aI1
aa(lp93
I2
aI0
aI1
aa(lp94
I1
aI2
aI0
aa(lp95
I0
aI2
aI1
aa(lp96
I1
aI0
aI2
aa(lp97
I0
aI2
aI1
aa(lp98
I2
aI1
aI0
aa(lp99
I1
aI2
aI0
aa(lp100
I0
aI1
aI2
aa(lp101
I1
aI2
aI0
aa(lp102
I0
aI2
aI1
aa(lp103
I0
aI1
aI2
aa(lp104
I1
aI2
aI0
aa(lp105
I2
aI1
aI0
aa(lp106
I2
aI0
aI1
aa(lp107
I1
aI0
aI2
aa(lp108
I2
aI0
aI1
aa(lp109
I2
aI0
aI1
aa(lp110
I1
aI2
aI0
aa(lp111
I1
aI2
aI0
aa(lp112
I2
aI1
aI0
aa(lp113
I1
aI0
aI2
aa(lp114
I1
aI2
aI0
aa(lp115
I0
aI1
aI2
aa(lp116
I2
aI1
aI0
aa(lp117
I1
aI0
aI2
aa(lp118
I2
aI0
aI1
aa(lp119
I2
aI1
aI0
aasS'PCMC'
p120
g2
(g3
(I0
tp121
g5
tp122
Rp123
(I1
(I6
tp124
g12
I00
S'\xdd:\xfa9\x0e\xc3U?\xc9\xb0\x1b\xf4\xc5\xd8\x03@\x944\x86\xda3\xc2[?\xd8\xd4\x84\xcc\xff\xc1T?\xdb\x1au8\xa8\xe9\xf9?\x80\xf1%ud\x18\\?'
p125
tp126
bsS'PL'
p127
g2
(g3
(I0
tp128
g5
tp129
Rp130
(I1
(I3
tp131
g12
I00
S"\xf3\x8c\xf1\xe2'a\xd2?b\xf8S\x08?\xdc\xd4?\xaez\xba\x14\x99\xc2\xd8?"
p132
tp133
bsS'Mallows-greedy-RE'
p134
((lp135
I0
aI1
aI2
ag34
(g12
S'\xc4\xf3\x82\x99H\x88\xea?'
p136
tp137
Rp138
tp139
s.