(dp0
S'PCMC-RE'
p1
cnumpy.core.multiarray
_reconstruct
p2
(cnumpy
ndarray
p3
(I0
tp4
S'b'
p5
tp6
Rp7
(I1
(I6
tp8
cnumpy
dtype
p9
(S'f8'
p10
I0
I1
tp11
Rp12
(I3
S'<'
p13
NNNI-1
I-1
I0
tp14
bI00
S"\xfa\xcf\xd5\x18;:\x06@2\x8b'\xcb\x95\xfa`?\\\x1e\xac\x16\xa3|\x1b@\xc4\x93\xa1\x9av\x99\x81?\x96\xca\xb1\xc8\xf0bv?\xac\x8d\x96O\xc5\x84s?"
p15
tp16
bsS'MMNL-RE'
p17
g2
(g3
(I0
tp18
g5
tp19
Rp20
(I1
(I4
tp21
g12
I00
S'\x00\x00\x00\x00\x00\x00\xf0?\xdb-\xefG9:\xfe?{\x7fG\x15\xb3s\xe6?Ur\xdb@oX\xf0?'
p22
tp23
bsS'PL-RE'
p24
g2
(g3
(I0
tp25
g5
tp26
Rp27
(I1
(I3
tp28
g12
I00
S'\xb7\x89\x06\xf28\xbc\xe0?1\x0e\x92\x94Z\xdc\xc8?x\xe5\xa9\xd1`\x19\xd2?'
p29
tp30
bsS'N'
p31
I3
sS'Mallows-greedy'
p32
((lp33
I1
aI2
aI0
acnumpy.core.multiarray
scalar
p34
(g12
S'\xbe\xbfz\xe3t\xb6\xf0?'
p35
tp36
Rp37
tp38
sS'MMNL'
p39
g2
(g3
(I0
tp40
g5
tp41
Rp42
(I1
(I4
tp43
g12
I00
S"\x00\x00\x00\x00\x00\x00\xf0?a\xc5\xb1\xadg@\xd9?\x8eK\xa8\x03\xd4!\xeb?'\xc7\x9f\xae9\x87\xe4?"
p44
tp45
bsS'test-lists'
p46
(lp47
(lp48
I2
aI0
aI1
aa(lp49
I1
aI2
aI0
aa(lp50
I0
aI2
aI1
aa(lp51
I2
aI0
aI1
aa(lp52
I2
aI1
aI0
aa(lp53
I1
aI2
aI0
aa(lp54
I2
aI0
aI1
aa(lp55
I0
aI2
aI1
aa(lp56
I1
aI2
aI0
aa(lp57
I0
aI1
aI2
aa(lp58
I1
aI2
aI0
aa(lp59
I1
aI0
aI2
aa(lp60
I2
aI0
aI1
aa(lp61
I2
aI0
aI1
aa(lp62
I1
aI2
aI0
aa(lp63
I2
aI0
aI1
aa(lp64
I2
aI1
aI0
aa(lp65
I2
aI1
aI0
aa(lp66
I1
aI0
aI2
aa(lp67
I0
aI1
aI2
aa(lp68
I0
aI2
aI1
aa(lp69
I1
aI2
aI0
aa(lp70
I0
aI2
aI1
aa(lp71
I1
aI0
aI2
aa(lp72
I1
aI0
aI2
aa(lp73
I1
aI0
aI2
aa(lp74
I1
aI0
aI2
aa(lp75
I2
aI1
aI0
aa(lp76
I1
aI2
aI0
aa(lp77
I2
aI0
aI1
aa(lp78
I1
aI0
aI2
aa(lp79
I0
aI2
aI1
aa(lp80
I1
aI2
aI0
aa(lp81
I0
aI2
aI1
aa(lp82
I2
aI0
aI1
aa(lp83
I1
aI2
aI0
aa(lp84
I2
aI1
aI0
aa(lp85
I0
aI1
aI2
aa(lp86
I1
aI0
aI2
aa(lp87
I1
aI2
aI0
aa(lp88
I2
aI1
aI0
aa(lp89
I2
aI0
aI1
aa(lp90
I2
aI1
aI0
aa(lp91
I0
aI1
aI2
aa(lp92
I2
aI1
aI0
aa(lp93
I2
aI0
aI1
aa(lp94
I1
aI2
aI0
aa(lp95
I2
aI0
aI1
aa(lp96
I0
aI2
aI1
aa(lp97
I0
aI2
aI1
aa(lp98
I1
aI0
aI2
aa(lp99
I0
aI1
aI2
aa(lp100
I1
aI0
aI2
aa(lp101
I2
aI0
aI1
aa(lp102
I1
aI2
aI0
aa(lp103
I0
aI1
aI2
aa(lp104
I1
aI0
aI2
aa(lp105
I2
aI1
aI0
aa(lp106
I1
aI2
aI0
aa(lp107
I0
aI2
aI1
aa(lp108
I1
aI0
aI2
aa(lp109
I2
aI1
aI0
aa(lp110
I1
aI0
aI2
aa(lp111
I1
aI2
aI0
aa(lp112
I0
aI2
aI1
aa(lp113
I2
aI0
aI1
aa(lp114
I2
aI0
aI1
aa(lp115
I2
aI0
aI1
aa(lp116
I1
aI0
aI2
aa(lp117
I1
aI2
aI0
aa(lp118
I2
aI0
aI1
aa(lp119
I1
aI2
aI0
aa(lp120
I2
aI0
aI1
aa(lp121
I1
aI2
aI0
aa(lp122
I2
aI0
aI1
aa(lp123
I1
aI0
aI2
aa(lp124
I2
aI0
aI1
aa(lp125
I2
aI0
aI1
aa(lp126
I2
aI1
aI0
aa(lp127
I2
aI0
aI1
aa(lp128
I1
aI0
aI2
aasS'PCMC'
p129
g2
(g3
(I0
tp130
g5
tp131
Rp132
(I1
(I6
tp133
g12
I00
S'j\xedI\xbe%cP?O\x1f\x9e\x8f\x12\xcdA@\x80\xc7\x94\x95\xdcFQ?]\x08\xcb\xab\x82\x075@\x1fDw{\xb7\x182@\xd2\x8b\x9c\x89\xdd\xcb@@'
p134
tp135
bsS'PL'
p136
g2
(g3
(I0
tp137
g5
tp138
Rp139
(I1
(I3
tp140
g12
I00
S'\xdc\xb7\xa8)\xa2\xce\xca?\xa4\x9d(3\xb7\xcd\xdc?q\x06\x03\xb8\xf7\xca\xd5?'
p141
tp142
bsS'Mallows-greedy-RE'
p143
((lp144
I0
aI2
aI1
ag34
(g12
S'\xbe\xbfz\xe3t\xb6\xf0?'
p145
tp146
Rp147
tp148
s.