(dp0
S'PCMC-RE'
p1
cnumpy.core.multiarray
_reconstruct
p2
(cnumpy
ndarray
p3
(I0
tp4
S'b'
p5
tp6
Rp7
(I1
(I6
tp8
cnumpy
dtype
p9
(S'f8'
p10
I0
I1
tp11
Rp12
(I3
S'<'
p13
NNNI-1
I-1
I0
tp14
bI00
S"\x8f\x90dK\xe2]\xdb?\xcdUh\xf1F\x9d\x1c@\xff\xbd\xb0\xf4\x9c`\xcb?\xe8\x8a@C,\x19H@'\x1e2\xeb\x92\xf0\n@\xc3\xa9\xf8\xb2A\x12\x82@"
p15
tp16
bsS'MMNL-RE'
p17
g2
(g3
(I0
tp18
g5
tp19
Rp20
(I1
(I4
tp21
g12
I00
S'\x00\x00\x00\x00\x00\x00\xf0?\xb2\x158\xad\xd1\xdc\xbf?nn\xfa[Z\r\x00@89\xc1\xe4\xd8\xf4\xcd?'
p22
tp23
bsS'PL-RE'
p24
g2
(g3
(I0
tp25
g5
tp26
Rp27
(I1
(I3
tp28
g12
I00
S'\xb5\x15\xadm\xe9\xf1\xaa?\xfd\xc4\xcd@9&\xeb?KM\xbbBAU\xb9?'
p29
tp30
bsS'N'
p31
I3
sS'Mallows-greedy'
p32
((lp33
I0
aI2
aI1
acnumpy.core.multiarray
scalar
p34
(g12
S'\x7f\xce\xf8\xbf\xa5\xc3\xfc?'
p35
tp36
Rp37
tp38
sS'MMNL'
p39
g2
(g3
(I0
tp40
g5
tp41
Rp42
(I1
(I4
tp43
g12
I00
S'\x00\x00\x00\x00\x00\x00\xf0?\xb7\x08\xb6\xf6,\x02\xf6?(2\xe40\xeaC\xb7?\x97H\x99\xa1&\x8d\xe8?'
p44
tp45
bsS'test-lists'
p46
(lp47
(lp48
I0
aI2
aI1
aa(lp49
I2
aI1
aI0
aa(lp50
I1
aI0
aI2
aa(lp51
I2
aI0
aI1
aa(lp52
I2
aI0
aI1
aa(lp53
I2
aI0
aI1
aa(lp54
I0
aI1
aI2
aa(lp55
I0
aI2
aI1
aa(lp56
I2
aI0
aI1
aa(lp57
I0
aI2
aI1
aa(lp58
I0
aI2
aI1
aa(lp59
I0
aI1
aI2
aa(lp60
I2
aI0
aI1
aa(lp61
I0
aI2
aI1
aa(lp62
I1
aI0
aI2
aa(lp63
I0
aI2
aI1
aa(lp64
I0
aI2
aI1
aa(lp65
I2
aI0
aI1
aa(lp66
I0
aI1
aI2
aa(lp67
I0
aI2
aI1
aa(lp68
I2
aI1
aI0
aa(lp69
I2
aI0
aI1
aa(lp70
I2
aI0
aI1
aa(lp71
I2
aI0
aI1
aa(lp72
I0
aI2
aI1
aa(lp73
I2
aI0
aI1
aa(lp74
I1
aI0
aI2
aa(lp75
I0
aI2
aI1
aa(lp76
I0
aI2
aI1
aa(lp77
I0
aI2
aI1
aa(lp78
I0
aI2
aI1
aa(lp79
I0
aI2
aI1
aa(lp80
I2
aI0
aI1
aa(lp81
I0
aI2
aI1
aa(lp82
I0
aI2
aI1
aa(lp83
I0
aI2
aI1
aa(lp84
I0
aI1
aI2
aa(lp85
I0
aI2
aI1
aa(lp86
I1
aI2
aI0
aa(lp87
I2
aI0
aI1
aa(lp88
I0
aI2
aI1
aa(lp89
I0
aI2
aI1
aa(lp90
I1
aI0
aI2
aa(lp91
I0
aI2
aI1
aa(lp92
I0
aI2
aI1
aa(lp93
I0
aI2
aI1
aa(lp94
I0
aI2
aI1
aa(lp95
I0
aI2
aI1
aa(lp96
I1
aI0
aI2
aa(lp97
I2
aI0
aI1
aa(lp98
I0
aI2
aI1
aa(lp99
I0
aI1
aI2
aa(lp100
I2
aI0
aI1
aa(lp101
I0
aI2
aI1
aa(lp102
I0
aI2
aI1
aa(lp103
I2
aI1
aI0
aa(lp104
I0
aI2
aI1
aa(lp105
I1
aI2
aI0
aa(lp106
I2
aI1
aI0
aa(lp107
I1
aI0
aI2
aa(lp108
I2
aI0
aI1
aa(lp109
I0
aI2
aI1
aa(lp110
I2
aI1
aI0
aa(lp111
I0
aI2
aI1
aa(lp112
I0
aI2
aI1
aa(lp113
I0
aI2
aI1
aa(lp114
I2
aI0
aI1
aa(lp115
I0
aI2
aI1
aa(lp116
I0
aI2
aI1
aa(lp117
I0
aI2
aI1
aa(lp118
I0
aI2
aI1
aa(lp119
I0
aI2
aI1
aa(lp120
I0
aI2
aI1
aa(lp121
I0
aI2
aI1
aa(lp122
I0
aI2
aI1
aa(lp123
I0
aI2
aI1
aa(lp124
I2
aI0
aI1
aa(lp125
I0
aI2
aI1
aa(lp126
I0
aI2
aI1
aa(lp127
I0
aI2
aI1
aa(lp128
I0
aI2
aI1
aa(lp129
I2
aI0
aI1
aa(lp130
I0
aI2
aI1
aasS'PCMC'
p131
g2
(g3
(I0
tp132
g5
tp133
Rp134
(I1
(I6
tp135
g12
I00
S'\xc5\xae\xf5\xbc\xc2\xa6\xa0?\xef._\x85:I\xb0?\xa7\x16\xe0;`2\xc8?\xf6\xf2\x1ff%\xbb\x01@\x8f2\x98\xa6\x1a\xb7\xc5?\xff\xe9R\xb8\xc0\xec\xc6?'
p136
tp137
bsS'PL'
p138
g2
(g3
(I0
tp139
g5
tp140
Rp141
(I1
(I3
tp142
g12
I00
S'w\xb8\x9bv\xd5\xb4\xe3?_TH\x1b\xeb\xd4\xa4?\x84\x84_\xaf\xb7\xfb\xd5?'
p143
tp144
bsS'Mallows-greedy-RE'
p145
((lp146
I1
aI2
aI0
ag34
(g12
S'\x7f\xce\xf8\xbf\xa5\xc3\xfc?'
p147
tp148
Rp149
tp150
s.