(dp0
S'PCMC-RE'
p1
cnumpy.core.multiarray
_reconstruct
p2
(cnumpy
ndarray
p3
(I0
tp4
S'b'
p5
tp6
Rp7
(I1
(I6
tp8
cnumpy
dtype
p9
(S'f8'
p10
I0
I1
tp11
Rp12
(I3
S'<'
p13
NNNI-1
I-1
I0
tp14
bI00
S'\xf5`\x98\x97\x9c\x1c\xf4?\x058&>\xd8\x90\x18@\xe3S\x8b\xff?\x84\xdf?\xb7\x96\xbf\xa9\xc5\x8bz?\xfc\xc0\x12#\xa8]3@\xad\x0cJ\x05\x9b\x1e|?'
p15
tp16
bsS'MMNL-RE'
p17
g2
(g3
(I0
tp18
g5
tp19
Rp20
(I1
(I4
tp21
g12
I00
S'\x00\x00\x00\x00\x00\x00\xf0??O\xf3\x96O%\xee?\xb9\x7f\xa6\x879\xd5\xfd?\x9f\xcd\xf6\\B\xb1\xda?'
p22
tp23
bsS'PL-RE'
p24
g2
(g3
(I0
tp25
g5
tp26
Rp27
(I1
(I3
tp28
g12
I00
S'\x81\xa8\xec\x9a\xdc\xb3\xd2?j\xb3i\x9d5\x82\xe2?R\xe1\x7fTp\x8f\xc0?'
p29
tp30
bsS'N'
p31
I3
sS'Mallows-greedy'
p32
((lp33
I2
aI0
aI1
acnumpy.core.multiarray
scalar
p34
(g12
S'\x89n+q^;\xf6?'
p35
tp36
Rp37
tp38
sS'MMNL'
p39
g2
(g3
(I0
tp40
g5
tp41
Rp42
(I1
(I4
tp43
g12
I00
S'\x00\x00\x00\x00\x00\x00\xf0?u\x9a\x1ew\xb9g\xe4?{\xb6{\xcd\xd2\xed\xd1?\xe5\xf3#=\xc9_\xf8?'
p44
tp45
bsS'test-lists'
p46
(lp47
(lp48
I2
aI0
aI1
aa(lp49
I2
aI1
aI0
aa(lp50
I2
aI1
aI0
aa(lp51
I2
aI0
aI1
aa(lp52
I1
aI0
aI2
aa(lp53
I0
aI2
aI1
aa(lp54
I2
aI0
aI1
aa(lp55
I2
aI0
aI1
aa(lp56
I0
aI2
aI1
aa(lp57
I2
aI0
aI1
aa(lp58
I2
aI1
aI0
aa(lp59
I0
aI1
aI2
aa(lp60
I2
aI0
aI1
aa(lp61
I2
aI1
aI0
aa(lp62
I2
aI0
aI1
aa(lp63
I2
aI0
aI1
aa(lp64
I0
aI2
aI1
aa(lp65
I2
aI0
aI1
aa(lp66
I2
aI0
aI1
aa(lp67
I2
aI0
aI1
aa(lp68
I0
aI2
aI1
aa(lp69
I1
aI2
aI0
aa(lp70
I0
aI2
aI1
aa(lp71
I2
aI0
aI1
aa(lp72
I2
aI0
aI1
aa(lp73
I0
aI1
aI2
aa(lp74
I2
aI1
aI0
aa(lp75
I1
aI0
aI2
aa(lp76
I2
aI1
aI0
aa(lp77
I1
aI0
aI2
aa(lp78
I2
aI0
aI1
aa(lp79
I2
aI0
aI1
aa(lp80
I2
aI0
aI1
aa(lp81
I2
aI1
aI0
aa(lp82
I2
aI0
aI1
aa(lp83
I2
aI0
aI1
aa(lp84
I1
aI2
aI0
aa(lp85
I0
aI2
aI1
aa(lp86
I0
aI2
aI1
aa(lp87
I1
aI2
aI0
aa(lp88
I1
aI2
aI0
aa(lp89
I2
aI1
aI0
aa(lp90
I0
aI2
aI1
aa(lp91
I2
aI0
aI1
aa(lp92
I2
aI0
aI1
aa(lp93
I2
aI0
aI1
aa(lp94
I2
aI1
aI0
aa(lp95
I0
aI2
aI1
aa(lp96
I2
aI1
aI0
aa(lp97
I2
aI1
aI0
aa(lp98
I2
aI0
aI1
aa(lp99
I0
aI2
aI1
aa(lp100
I2
aI0
aI1
aa(lp101
I0
aI2
aI1
aa(lp102
I0
aI2
aI1
aa(lp103
I2
aI0
aI1
aa(lp104
I0
aI2
aI1
aa(lp105
I2
aI0
aI1
aa(lp106
I2
aI1
aI0
aa(lp107
I2
aI1
aI0
aa(lp108
I2
aI0
aI1
aa(lp109
I1
aI2
aI0
aa(lp110
I2
aI0
aI1
aa(lp111
I2
aI1
aI0
aa(lp112
I2
aI0
aI1
aa(lp113
I1
aI0
aI2
aa(lp114
I2
aI0
aI1
aa(lp115
I2
aI0
aI1
aa(lp116
I0
aI2
aI1
aa(lp117
I2
aI1
aI0
aa(lp118
I2
aI0
aI1
aa(lp119
I0
aI2
aI1
aa(lp120
I2
aI0
aI1
aa(lp121
I0
aI2
aI1
aa(lp122
I2
aI0
aI1
aa(lp123
I2
aI1
aI0
aa(lp124
I0
aI1
aI2
aa(lp125
I2
aI0
aI1
aasS'PCMC'
p126
g2
(g3
(I0
tp127
g5
tp128
Rp129
(I1
(I6
tp130
g12
I00
S'\x11\x84\xc6\x97\xa5\xb9\xb3?\xdf\xd3\x99\xf7\x02\x16\xd4?\xc7\x84\xad\x94\xb9\xd8\xd1?\x89\xda\x10\xed\xde\xf5\x00@\xd4\x8bW1\xd1\x13\xb2?i\xc6%i\x96\x80\xe2?'
p131
tp132
bsS'PL'
p133
g2
(g3
(I0
tp134
g5
tp135
Rp136
(I1
(I3
tp137
g12
I00
S'\xd3\xf9\xdf\xb7\xa6\xb7\xd0?c\xcc\xbb\x8c\xaa`\xbd?\x8a\x89xR\x17\xf8\xe3?'
p138
tp139
bsS'Mallows-greedy-RE'
p140
((lp141
I1
aI0
aI2
ag34
(g12
S'\x89n+q^;\xf6?'
p142
tp143
Rp144
tp145
s.