(dp0
S'PCMC-RE'
p1
cnumpy.core.multiarray
_reconstruct
p2
(cnumpy
ndarray
p3
(I0
tp4
S'b'
p5
tp6
Rp7
(I1
(I6
tp8
cnumpy
dtype
p9
(S'f8'
p10
I0
I1
tp11
Rp12
(I3
S'<'
p13
NNNI-1
I-1
I0
tp14
bI00
S'Uh\x8f\xb5>y\x12@(\xdfj\xf4!\xf9\xa9?\xa6\xcd\xe5\x8a\xe8\x9c\xde?\\{m\xb9\xda\x1b\xe0?\xb9\xef\x89\xe6\xaar~?\x85\x1a\xc7O\x8d:\xf0?'
p15
tp16
bsS'MMNL-RE'
p17
g2
(g3
(I0
tp18
g5
tp19
Rp20
(I1
(I4
tp21
g12
I00
S'\x00\x00\x00\x00\x00\x00\xf0?\x91\x0b\x90&\xde\x85\xb0?\xe3Q\xa3\xa0\x9a\xed\xe6?\x18\xa4\xf5\xc2\xe8~\xd7?'
p22
tp23
bsS'PL-RE'
p24
g2
(g3
(I0
tp25
g5
tp26
Rp27
(I1
(I3
tp28
g12
I00
S'2=\x85i\xf4\xc7\xac?).Eu*\xf8\xe3?\t\xfcD\x88\xacv\xd4?'
p29
tp30
bsS'N'
p31
I3
sS'Mallows-greedy'
p32
((lp33
I0
aI2
aI1
acnumpy.core.multiarray
scalar
p34
(g12
S'\xfe)\xc3+\xacI\xfa?'
p35
tp36
Rp37
tp38
sS'MMNL'
p39
g2
(g3
(I0
tp40
g5
tp41
Rp42
(I1
(I4
tp43
g12
I00
S'\x00\x00\x00\x00\x00\x00\xf0?\xd4\xd3$za\x02\xfa?\x1ew\x17\x87\x93\xa6\xc5?Ct \xf5\x10/\xd4?'
p44
tp45
bsS'test-lists'
p46
(lp47
(lp48
I2
aI0
aI1
aa(lp49
I0
aI1
aI2
aa(lp50
I0
aI2
aI1
aa(lp51
I0
aI2
aI1
aa(lp52
I0
aI2
aI1
aa(lp53
I0
aI1
aI2
aa(lp54
I0
aI2
aI1
aa(lp55
I0
aI2
aI1
aa(lp56
I0
aI2
aI1
aa(lp57
I0
aI2
aI1
aa(lp58
I2
aI1
aI0
aa(lp59
I1
aI0
aI2
aa(lp60
I0
aI2
aI1
aa(lp61
I0
aI1
aI2
aa(lp62
I0
aI2
aI1
aa(lp63
I0
aI1
aI2
aa(lp64
I0
aI2
aI1
aa(lp65
I0
aI1
aI2
aa(lp66
I0
aI1
aI2
aa(lp67
I0
aI2
aI1
aa(lp68
I0
aI2
aI1
aa(lp69
I2
aI0
aI1
aa(lp70
I0
aI2
aI1
aa(lp71
I0
aI1
aI2
aa(lp72
I0
aI2
aI1
aa(lp73
I0
aI2
aI1
aa(lp74
I0
aI1
aI2
aa(lp75
I0
aI2
aI1
aa(lp76
I0
aI1
aI2
aa(lp77
I0
aI1
aI2
aa(lp78
I0
aI1
aI2
aa(lp79
I0
aI2
aI1
aa(lp80
I0
aI2
aI1
aa(lp81
I0
aI2
aI1
aa(lp82
I2
aI0
aI1
aa(lp83
I1
aI2
aI0
aa(lp84
I0
aI2
aI1
aa(lp85
I0
aI2
aI1
aa(lp86
I0
aI1
aI2
aa(lp87
I2
aI1
aI0
aa(lp88
I0
aI2
aI1
aa(lp89
I2
aI1
aI0
aa(lp90
I0
aI2
aI1
aa(lp91
I0
aI2
aI1
aa(lp92
I0
aI2
aI1
aa(lp93
I0
aI2
aI1
aa(lp94
I0
aI2
aI1
aa(lp95
I0
aI2
aI1
aa(lp96
I1
aI0
aI2
aa(lp97
I0
aI2
aI1
aa(lp98
I2
aI0
aI1
aa(lp99
I0
aI2
aI1
aa(lp100
I0
aI1
aI2
aa(lp101
I0
aI2
aI1
aa(lp102
I1
aI2
aI0
aa(lp103
I0
aI1
aI2
aa(lp104
I0
aI2
aI1
aa(lp105
I0
aI1
aI2
aa(lp106
I1
aI2
aI0
aa(lp107
I2
aI1
aI0
aa(lp108
I0
aI1
aI2
aa(lp109
I1
aI0
aI2
aa(lp110
I0
aI2
aI1
aa(lp111
I0
aI2
aI1
aa(lp112
I0
aI1
aI2
aa(lp113
I2
aI0
aI1
aa(lp114
I0
aI1
aI2
aa(lp115
I0
aI1
aI2
aa(lp116
I2
aI1
aI0
aa(lp117
I2
aI0
aI1
aa(lp118
I0
aI2
aI1
aa(lp119
I0
aI2
aI1
aa(lp120
I0
aI1
aI2
aa(lp121
I0
aI2
aI1
aa(lp122
I0
aI2
aI1
aa(lp123
I0
aI2
aI1
aa(lp124
I0
aI2
aI1
aa(lp125
I0
aI2
aI1
aa(lp126
I0
aI2
aI1
aa(lp127
I0
aI2
aI1
aa(lp128
I0
aI2
aI1
aa(lp129
I0
aI2
aI1
aa(lp130
I2
aI0
aI1
aa(lp131
I2
aI0
aI1
aa(lp132
I0
aI2
aI1
aa(lp133
I0
aI2
aI1
aa(lp134
I0
aI2
aI1
aa(lp135
I0
aI1
aI2
aa(lp136
I0
aI2
aI1
aa(lp137
I0
aI2
aI1
aa(lp138
I1
aI2
aI0
aa(lp139
I0
aI2
aI1
aa(lp140
I0
aI2
aI1
aa(lp141
I0
aI2
aI1
aa(lp142
I0
aI2
aI1
aa(lp143
I0
aI2
aI1
aa(lp144
I0
aI2
aI1
aa(lp145
I2
aI1
aI0
aa(lp146
I0
aI1
aI2
aa(lp147
I0
aI2
aI1
aa(lp148
I0
aI1
aI2
aa(lp149
I0
aI1
aI2
aa(lp150
I2
aI1
aI0
aa(lp151
I0
aI2
aI1
aa(lp152
I0
aI2
aI1
aa(lp153
I2
aI0
aI1
aa(lp154
I0
aI2
aI1
aa(lp155
I0
aI2
aI1
aa(lp156
I0
aI2
aI1
aa(lp157
I2
aI1
aI0
aa(lp158
I2
aI1
aI0
aa(lp159
I2
aI1
aI0
aa(lp160
I0
aI2
aI1
aa(lp161
I0
aI2
aI1
aa(lp162
I2
aI1
aI0
aa(lp163
I0
aI2
aI1
aa(lp164
I0
aI1
aI2
aa(lp165
I2
aI0
aI1
aa(lp166
I0
aI1
aI2
aa(lp167
I0
aI2
aI1
aa(lp168
I0
aI2
aI1
aa(lp169
I0
aI2
aI1
aa(lp170
I0
aI2
aI1
aa(lp171
I2
aI1
aI0
aa(lp172
I0
aI2
aI1
aa(lp173
I0
aI2
aI1
aa(lp174
I0
aI1
aI2
aa(lp175
I0
aI2
aI1
aa(lp176
I0
aI2
aI1
aa(lp177
I0
aI1
aI2
aa(lp178
I2
aI0
aI1
aa(lp179
I0
aI1
aI2
aa(lp180
I0
aI2
aI1
aa(lp181
I0
aI2
aI1
aa(lp182
I0
aI2
aI1
aa(lp183
I0
aI2
aI1
aa(lp184
I0
aI2
aI1
aa(lp185
I2
aI1
aI0
aa(lp186
I0
aI2
aI1
aa(lp187
I0
aI2
aI1
aa(lp188
I2
aI0
aI1
aa(lp189
I0
aI2
aI1
aa(lp190
I0
aI1
aI2
aa(lp191
I2
aI0
aI1
aa(lp192
I0
aI2
aI1
aa(lp193
I2
aI0
aI1
aasS'PCMC'
p194
g2
(g3
(I0
tp195
g5
tp196
Rp197
(I1
(I6
tp198
g12
I00
S'}\xe4\xa6oP\xa1f?\x9b\x19\xfe\xa0\r\xa1fB\xb8\xba\x9f1\xb1\xf2q?g\xcbAug\xa4\xaaB\x96";\xae\x87\x1d\x90B \xd7\x035Q\x87\xa0B'
p199
tp200
bsS'PL'
p201
g2
(g3
(I0
tp202
g5
tp203
Rp204
(I1
(I3
tp205
g12
I00
S'\xb9\x83\xfd7\xf3\xa6\xe8?\xfb%}\x8ai\x85\xb4?\x1e^\xcbZ~!\xc3?'
p206
tp207
bsS'Mallows-greedy-RE'
p208
((lp209
I1
aI2
aI0
ag34
(g12
S'\xfe)\xc3+\xacI\xfa?'
p210
tp211
Rp212
tp213
s.