(dp0
S'PCMC-RE'
p1
cnumpy.core.multiarray
_reconstruct
p2
(cnumpy
ndarray
p3
(I0
tp4
S'b'
p5
tp6
Rp7
(I1
(I6
tp8
cnumpy
dtype
p9
(S'f8'
p10
I0
I1
tp11
Rp12
(I3
S'<'
p13
NNNI-1
I-1
I0
tp14
bI00
S'\x91\xc8\xdcV\xa4qz?\xf3\x05\x05NfFt?\x9b\x12\xc5\xb8\xe6\nh?\xa1\r\xf7\xdbw\xdcj@:\xdd\x17\x8e\n\xe7x?2\x8e\xd8\xb9\x0c\xcer@'
p15
tp16
bsS'MMNL-RE'
p17
g2
(g3
(I0
tp18
g5
tp19
Rp20
(I1
(I4
tp21
g12
I00
S'\x00\x00\x00\x00\x00\x00\xf0?\xf4\x89\xff\xd6GH\xed?\x1a\x7f\xc4\xfd[\x9a\xf7?\x94\xfc\xda\x86\xcbV\xee?'
p22
tp23
bsS'PL-RE'
p24
g2
(g3
(I0
tp25
g5
tp26
Rp27
(I1
(I3
tp28
g12
I00
S"\x9b\x8e\x1cH\xee\x8a\xd1?'w\xfcX\x0eH\xdc?>\xfa\xe6^\x03-\xd2?"
p29
tp30
bsS'N'
p31
I3
sS'Mallows-greedy'
p32
((lp33
I0
aI2
aI1
acnumpy.core.multiarray
scalar
p34
(g12
S'\xee\x00\x82 \xfe%\xeb?'
p35
tp36
Rp37
tp38
sS'MMNL'
p39
g2
(g3
(I0
tp40
g5
tp41
Rp42
(I1
(I4
tp43
g12
I00
S'\x00\x00\x00\x00\x00\x00\xf0?\xf5\xb6\xf5V\xc02\xf1?\x91\x04\x1b\xa6\t\xec\xe6?`\xf5\x89\x95\xcf\xce\xef?'
p44
tp45
bsS'test-lists'
p46
(lp47
(lp48
I0
aI2
aI1
aa(lp49
I2
aI0
aI1
aa(lp50
I0
aI1
aI2
aa(lp51
I1
aI0
aI2
aa(lp52
I1
aI0
aI2
aa(lp53
I0
aI1
aI2
aa(lp54
I0
aI1
aI2
aa(lp55
I2
aI0
aI1
aa(lp56
I2
aI0
aI1
aa(lp57
I2
aI0
aI1
aa(lp58
I2
aI0
aI1
aa(lp59
I0
aI1
aI2
aa(lp60
I2
aI0
aI1
aa(lp61
I0
aI2
aI1
aa(lp62
I0
aI2
aI1
aa(lp63
I0
aI1
aI2
aa(lp64
I1
aI0
aI2
aa(lp65
I0
aI1
aI2
aa(lp66
I1
aI0
aI2
aa(lp67
I0
aI1
aI2
aa(lp68
I2
aI0
aI1
aa(lp69
I0
aI2
aI1
aa(lp70
I2
aI0
aI1
aa(lp71
I2
aI1
aI0
aa(lp72
I0
aI1
aI2
aa(lp73
I1
aI0
aI2
aa(lp74
I0
aI2
aI1
aa(lp75
I2
aI1
aI0
aa(lp76
I1
aI0
aI2
aa(lp77
I0
aI1
aI2
aa(lp78
I0
aI1
aI2
aa(lp79
I0
aI2
aI1
aa(lp80
I0
aI2
aI1
aa(lp81
I2
aI0
aI1
aa(lp82
I2
aI1
aI0
aa(lp83
I1
aI0
aI2
aa(lp84
I2
aI1
aI0
aa(lp85
I0
aI2
aI1
aa(lp86
I0
aI1
aI2
aa(lp87
I2
aI0
aI1
aa(lp88
I0
aI1
aI2
aa(lp89
I2
aI0
aI1
aa(lp90
I2
aI0
aI1
aa(lp91
I0
aI1
aI2
aa(lp92
I0
aI1
aI2
aa(lp93
I1
aI0
aI2
aa(lp94
I0
aI1
aI2
aa(lp95
I0
aI1
aI2
aa(lp96
I2
aI0
aI1
aa(lp97
I0
aI1
aI2
aa(lp98
I1
aI0
aI2
aa(lp99
I0
aI1
aI2
aa(lp100
I0
aI2
aI1
aa(lp101
I1
aI0
aI2
aa(lp102
I1
aI2
aI0
aa(lp103
I0
aI2
aI1
aa(lp104
I0
aI1
aI2
aa(lp105
I0
aI1
aI2
aa(lp106
I1
aI0
aI2
aa(lp107
I0
aI1
aI2
aa(lp108
I0
aI1
aI2
aa(lp109
I2
aI0
aI1
aa(lp110
I0
aI1
aI2
aa(lp111
I0
aI1
aI2
aa(lp112
I1
aI0
aI2
aa(lp113
I2
aI0
aI1
aa(lp114
I2
aI1
aI0
aa(lp115
I0
aI1
aI2
aa(lp116
I2
aI0
aI1
aa(lp117
I2
aI0
aI1
aa(lp118
I0
aI1
aI2
aa(lp119
I2
aI0
aI1
aa(lp120
I0
aI1
aI2
aa(lp121
I1
aI0
aI2
aa(lp122
I0
aI2
aI1
aa(lp123
I1
aI2
aI0
aasS'PCMC'
p124
g2
(g3
(I0
tp125
g5
tp126
Rp127
(I1
(I6
tp128
g12
I00
S'0\x13M\xf7\\>B@\xd6\xb7,\xc8\xb6\n7@\xeaX4\xa2R\x0eP@\xfc\xa9\xf1\xd2MbP?wN\xe0\xdbB\n6@\xb8\x7f\xdb\xbf\x9a\xf8R?'
p129
tp130
bsS'PL'
p131
g2
(g3
(I0
tp132
g5
tp133
Rp134
(I1
(I3
tp135
g12
I00
S'\x13\x00\xee3\x11\xb3\xd8?}\xe2eo\xbau\xd0?p\x1d\xac\\4\xd7\xd6?'
p136
tp137
bsS'Mallows-greedy-RE'
p138
((lp139
I1
aI0
aI2
ag34
(g12
S'\xee\x00\x82 \xfe%\xeb?'
p140
tp141
Rp142
tp143
s.