(dp0
S'PCMC-RE'
p1
cnumpy.core.multiarray
_reconstruct
p2
(cnumpy
ndarray
p3
(I0
tp4
S'b'
p5
tp6
Rp7
(I1
(I12
tp8
cnumpy
dtype
p9
(S'f8'
p10
I0
I1
tp11
Rp12
(I3
S'<'
p13
NNNI-1
I-1
I0
tp14
bI00
S'\x06\x9dDC\xb3\xb2\xa7@p\x85\x16\xc9\xf9\xd7\xf3?\xcd\xb5X"O(@@^\x8c\x8ayU\xc2\xb2@\x1aK\xd3\x1c\x8c>a?t\xd3}\x14g\xb3\xb5@]\xa9\xcc\x10X\xad\xd7?g\x8f\xbe\x834\xc0P?\xf1\xbe\x82<?u\xba@Z\xe3\xa8\xbdFP8@\x89y\x15\xa8\x97\xbe\x84@\xec$@TIh\xaa@'
p15
tp16
bsS'MMNL-RE'
p17
g2
(g3
(I0
tp18
g5
tp19
Rp20
(I1
(I10
tp21
g12
I00
S'\xbc<t\xc3vm\xeb?\x12\r/\xf2$J\xc2?q\x83N\xbe\n\xe4E?xb\xa8\xb8\xbdM\x1a@~\xcc<\x0ce\x9b@?\xaemi\x94\xe0x\n@}\x1b\x05u;`p?\x87>\x0f\rW\xdd\xf9?Y\x87\xb7y=B\x80?\x95\xd6&\xe8\x0b.\x11>'
p22
tp23
bsS'PL-RE'
p24
g2
(g3
(I0
tp25
g5
tp26
Rp27
(I1
(I4
tp28
g12
I00
S'o\xf8\xbb\x86\xef)\xbb?\xdd\xb9\xa2\x15b\xf4\xb2?\xa4\xc0\xde\xe7\xf9\xcf\xd3?d\xc9\x84\xd88T\xe0?'
p29
tp30
bsS'N'
p31
I4
sS'Mallows-greedy'
p32
((lp33
I1
aI0
aI2
aI3
acnumpy.core.multiarray
scalar
p34
(g12
S'\xf7\xc3\x14\xffhM\xf6?'
p35
tp36
Rp37
tp38
sS'MMNL'
p39
g2
(g3
(I0
tp40
g5
tp41
Rp42
(I1
(I10
tp43
g12
I00
S'p\xd3W\xc9\xfb\xe2\xd6?I\x16T\x1b\x82\x8e\xe4?B\x8b\x80-\xa4y\xf2?\x9dZ\xe2\xf7\xad\x1c\xe9?\xf6h\xd7B\x08?\xf6?[i\x8cw\x18y\xf8?\xcb\x89\xac\xce\x1b\xe4\xf2>x\xac\xbd\x8b\x8c\x89\xe3?\xf2\xf1\xbdH\x92\xeb\xdf>\x05\x8a8F8\xc8\xd7?'
p44
tp45
bsS'test-lists'
p46
(lp47
(lp48
I1
aI0
aI2
aI3
aa(lp49
I0
aI1
aI3
aI2
aa(lp50
I1
aI0
aI2
aI3
aa(lp51
I1
aI2
aI0
aI3
aa(lp52
I1
aI0
aI3
aI2
aa(lp53
I1
aI0
aI3
aI2
aa(lp54
I0
aI2
aI1
aI3
aa(lp55
I0
aI2
aI3
aI1
aa(lp56
I0
aI2
aI1
aI3
aa(lp57
I0
aI1
aI2
aI3
aa(lp58
I1
aI0
aI2
aI3
aa(lp59
I1
aI0
aI2
aI3
aa(lp60
I1
aI2
aI0
aI3
aa(lp61
I1
aI0
aI2
aI3
aa(lp62
I1
aI0
aI2
aI3
aa(lp63
I1
aI3
aI2
aI0
aa(lp64
I1
aI0
aI2
aI3
aa(lp65
I1
aI2
aI0
aI3
aa(lp66
I1
aI3
aI0
aI2
aa(lp67
I1
aI3
aI0
aI2
aa(lp68
I2
aI3
aI0
aI1
aa(lp69
I1
aI2
aI0
aI3
aa(lp70
I1
aI2
aI0
aI3
aa(lp71
I0
aI1
aI2
aI3
aa(lp72
I2
aI0
aI3
aI1
aa(lp73
I1
aI2
aI0
aI3
aa(lp74
I0
aI1
aI2
aI3
aa(lp75
I3
aI1
aI2
aI0
aa(lp76
I1
aI0
aI3
aI2
aa(lp77
I1
aI0
aI3
aI2
aa(lp78
I1
aI0
aI2
aI3
aa(lp79
I2
aI1
aI0
aI3
aa(lp80
I3
aI1
aI0
aI2
aa(lp81
I0
aI1
aI2
aI3
aa(lp82
I1
aI2
aI0
aI3
aa(lp83
I1
aI0
aI3
aI2
aa(lp84
I1
aI0
aI2
aI3
aa(lp85
I0
aI1
aI3
aI2
aa(lp86
I1
aI2
aI3
aI0
aa(lp87
I1
aI0
aI2
aI3
aa(lp88
I3
aI2
aI0
aI1
aa(lp89
I1
aI2
aI3
aI0
aa(lp90
I0
aI1
aI2
aI3
aa(lp91
I1
aI2
aI0
aI3
aa(lp92
I1
aI0
aI3
aI2
aa(lp93
I1
aI0
aI3
aI2
aa(lp94
I1
aI2
aI0
aI3
aa(lp95
I1
aI2
aI0
aI3
aa(lp96
I0
aI1
aI2
aI3
aa(lp97
I0
aI1
aI2
aI3
aa(lp98
I0
aI1
aI2
aI3
aa(lp99
I0
aI2
aI1
aI3
aa(lp100
I0
aI3
aI2
aI1
aa(lp101
I1
aI0
aI2
aI3
aa(lp102
I2
aI0
aI3
aI1
aa(lp103
I3
aI1
aI0
aI2
aa(lp104
I0
aI1
aI2
aI3
aa(lp105
I2
aI1
aI0
aI3
aa(lp106
I0
aI1
aI2
aI3
aa(lp107
I0
aI1
aI2
aI3
aa(lp108
I3
aI1
aI2
aI0
aa(lp109
I1
aI3
aI2
aI0
aa(lp110
I1
aI0
aI3
aI2
aa(lp111
I1
aI0
aI2
aI3
aa(lp112
I1
aI0
aI2
aI3
aa(lp113
I1
aI0
aI2
aI3
aa(lp114
I1
aI0
aI2
aI3
aa(lp115
I1
aI0
aI3
aI2
aa(lp116
I1
aI0
aI3
aI2
aa(lp117
I1
aI2
aI0
aI3
aa(lp118
I0
aI1
aI3
aI2
aa(lp119
I1
aI0
aI2
aI3
aa(lp120
I1
aI3
aI0
aI2
aa(lp121
I0
aI1
aI2
aI3
aa(lp122
I1
aI0
aI2
aI3
aa(lp123
I1
aI3
aI0
aI2
aa(lp124
I0
aI3
aI2
aI1
aa(lp125
I2
aI1
aI0
aI3
aa(lp126
I3
aI2
aI1
aI0
aa(lp127
I0
aI1
aI3
aI2
aa(lp128
I0
aI1
aI2
aI3
aa(lp129
I0
aI1
aI3
aI2
aa(lp130
I1
aI0
aI3
aI2
aa(lp131
I0
aI1
aI3
aI2
aa(lp132
I2
aI0
aI1
aI3
aa(lp133
I2
aI1
aI0
aI3
aa(lp134
I0
aI3
aI1
aI2
aa(lp135
I2
aI1
aI0
aI3
aasS'PCMC'
p136
g2
(g3
(I0
tp137
g5
tp138
Rp139
(I1
(I12
tp140
g12
I00
S'\x03\xe8\x07\x9f\x8d\xac\xa5??\xdb~\t\x7fq\xf6?X\xa08\x19\x0c\xc3\xb3?]\xff!Mu\x83\x9e?\x8f\xf05PBMW?hv\x1d8nm\xaf?\xcbu\rw\xac\x97\x10@l\xf3\x1d\x13\x0f\xefi?\xac\xaf\xd1$\xad\xdf\xd5?\xcdDG\x0eg\xbd\xc9?\x92\xc0\x16\x92\xe6\x07\xde?K\x06\xe0\xb4}\xfb\xe5?'
p141
tp142
bsS'PL'
p143
g2
(g3
(I0
tp144
g5
tp145
Rp146
(I1
(I4
tp147
g12
I00
S'\xf0\xf7\xb27\xe6\xa3\xd4?O\x11[\xf3\xee\x88\xdf?\xdb\rO\x8f\x08&\xbe?\x1e\xcdx\xc4\xa2&\xb1?'
p148
tp149
bsS'Mallows-greedy-RE'
p150
((lp151
I3
aI2
aI0
aI1
ag34
(g12
S'\xf7\xc3\x14\xffhM\xf6?'
p152
tp153
Rp154
tp155
s.