(dp0
S'PCMC-RE'
p1
cnumpy.core.multiarray
_reconstruct
p2
(cnumpy
ndarray
p3
(I0
tp4
S'b'
p5
tp6
Rp7
(I1
(I6
tp8
cnumpy
dtype
p9
(S'f8'
p10
I0
I1
tp11
Rp12
(I3
S'<'
p13
NNNI-1
I-1
I0
tp14
bI00
S'\xb5\xa6\x1eA\xfdY]?\xbd\xebH!KU\xf4?]`\x80^ \xa3\x7f?\x85\xad\xca!\x15\x0e\xab?\xdbO\xec\xcaE\xb0\x02@\xfbF\xf4,e9\x89?'
p15
tp16
bsS'MMNL-RE'
p17
g2
(g3
(I0
tp18
g5
tp19
Rp20
(I1
(I4
tp21
g12
I00
S'\x00\x00\x00\x00\x00\x00\xf0?\x97\x07\xe7.{J\xef?\xcd\x83\xda\xdb\x11*\xc3?\xcf\xd9\xa3\xe7v\x14\xe2?'
p22
tp23
bsS'PL-RE'
p24
g2
(g3
(I0
tp25
g5
tp26
Rp27
(I1
(I3
tp28
g12
I00
S'\xefe\xbc\x96\xc1|\xe2?\xbdq\xc5U7\xa5\xb6?\xb3\xd7\x15\xfd.]\xd5?'
p29
tp30
bsS'N'
p31
I3
sS'Mallows-greedy'
p32
((lp33
I1
aI2
aI0
acnumpy.core.multiarray
scalar
p34
(g12
S'\xf7]\xb78\xbd{\xf7?'
p35
tp36
Rp37
tp38
sS'MMNL'
p39
g2
(g3
(I0
tp40
g5
tp41
Rp42
(I1
(I4
tp43
g12
I00
S'\x00\x00\x00\x00\x00\x00\xf0?\xa63\xe58,\xc5\xc6??\xb9\xc3\x87&v\xf2?\xa2\xb9F\x9d\x95\xef\xd3?'
p44
tp45
bsS'test-lists'
p46
(lp47
(lp48
I1
aI2
aI0
aa(lp49
I1
aI2
aI0
aa(lp50
I1
aI2
aI0
aa(lp51
I2
aI1
aI0
aa(lp52
I1
aI2
aI0
aa(lp53
I1
aI0
aI2
aa(lp54
I0
aI2
aI1
aa(lp55
I1
aI2
aI0
aa(lp56
I1
aI0
aI2
aa(lp57
I1
aI0
aI2
aa(lp58
I0
aI1
aI2
aa(lp59
I1
aI0
aI2
aa(lp60
I1
aI2
aI0
aa(lp61
I1
aI2
aI0
aa(lp62
I1
aI2
aI0
aa(lp63
I1
aI2
aI0
aa(lp64
I1
aI2
aI0
aa(lp65
I1
aI0
aI2
aa(lp66
I1
aI2
aI0
aa(lp67
I0
aI1
aI2
aa(lp68
I1
aI0
aI2
aa(lp69
I0
aI2
aI1
aa(lp70
I1
aI2
aI0
aa(lp71
I1
aI0
aI2
aa(lp72
I1
aI2
aI0
aa(lp73
I1
aI2
aI0
aa(lp74
I1
aI2
aI0
aa(lp75
I1
aI0
aI2
aa(lp76
I2
aI1
aI0
aa(lp77
I1
aI2
aI0
aa(lp78
I1
aI0
aI2
aa(lp79
I1
aI2
aI0
aa(lp80
I1
aI2
aI0
aa(lp81
I1
aI2
aI0
aa(lp82
I1
aI2
aI0
aa(lp83
I1
aI2
aI0
aa(lp84
I1
aI2
aI0
aa(lp85
I0
aI2
aI1
aa(lp86
I2
aI0
aI1
aa(lp87
I1
aI2
aI0
aa(lp88
I2
aI0
aI1
aa(lp89
I1
aI2
aI0
aa(lp90
I1
aI2
aI0
aa(lp91
I1
aI0
aI2
aa(lp92
I1
aI2
aI0
aa(lp93
I1
aI2
aI0
aa(lp94
I1
aI0
aI2
aa(lp95
I1
aI2
aI0
aa(lp96
I2
aI0
aI1
aa(lp97
I1
aI0
aI2
aa(lp98
I1
aI2
aI0
aa(lp99
I1
aI0
aI2
aa(lp100
I2
aI1
aI0
aa(lp101
I0
aI1
aI2
aa(lp102
I1
aI2
aI0
aa(lp103
I1
aI0
aI2
aa(lp104
I1
aI2
aI0
aa(lp105
I1
aI2
aI0
aa(lp106
I1
aI2
aI0
aa(lp107
I1
aI2
aI0
aa(lp108
I1
aI2
aI0
aa(lp109
I1
aI0
aI2
aa(lp110
I1
aI0
aI2
aa(lp111
I1
aI2
aI0
aa(lp112
I2
aI0
aI1
aa(lp113
I0
aI1
aI2
aa(lp114
I1
aI2
aI0
aa(lp115
I2
aI1
aI0
aa(lp116
I1
aI0
aI2
aa(lp117
I1
aI2
aI0
aa(lp118
I1
aI0
aI2
aa(lp119
I2
aI1
aI0
aa(lp120
I1
aI0
aI2
aa(lp121
I0
aI1
aI2
aa(lp122
I2
aI1
aI0
aa(lp123
I1
aI2
aI0
aa(lp124
I1
aI0
aI2
aa(lp125
I1
aI0
aI2
aa(lp126
I2
aI1
aI0
aa(lp127
I1
aI2
aI0
aa(lp128
I1
aI0
aI2
aa(lp129
I2
aI0
aI1
aa(lp130
I1
aI2
aI0
aa(lp131
I1
aI2
aI0
aa(lp132
I2
aI0
aI1
aa(lp133
I0
aI2
aI1
aa(lp134
I1
aI2
aI0
aa(lp135
I1
aI2
aI0
aa(lp136
I1
aI2
aI0
aa(lp137
I1
aI0
aI2
aa(lp138
I1
aI2
aI0
aa(lp139
I1
aI2
aI0
aa(lp140
I1
aI2
aI0
aa(lp141
I1
aI2
aI0
aa(lp142
I1
aI2
aI0
aa(lp143
I1
aI0
aI2
aa(lp144
I1
aI2
aI0
aa(lp145
I1
aI2
aI0
aa(lp146
I2
aI1
aI0
aa(lp147
I2
aI0
aI1
aa(lp148
I1
aI0
aI2
aa(lp149
I1
aI2
aI0
aa(lp150
I1
aI2
aI0
aa(lp151
I0
aI2
aI1
aa(lp152
I1
aI2
aI0
aa(lp153
I1
aI2
aI0
aa(lp154
I1
aI0
aI2
aa(lp155
I1
aI2
aI0
aa(lp156
I2
aI1
aI0
aa(lp157
I1
aI2
aI0
aa(lp158
I2
aI1
aI0
aa(lp159
I2
aI1
aI0
aa(lp160
I2
aI1
aI0
aa(lp161
I1
aI0
aI2
aa(lp162
I2
aI0
aI1
aa(lp163
I1
aI0
aI2
aa(lp164
I2
aI1
aI0
aa(lp165
I1
aI2
aI0
aa(lp166
I2
aI1
aI0
aa(lp167
I1
aI0
aI2
aa(lp168
I1
aI0
aI2
aa(lp169
I1
aI0
aI2
aa(lp170
I2
aI1
aI0
aa(lp171
I1
aI2
aI0
aa(lp172
I1
aI2
aI0
aa(lp173
I1
aI0
aI2
aa(lp174
I1
aI2
aI0
aa(lp175
I1
aI2
aI0
aa(lp176
I1
aI2
aI0
aa(lp177
I1
aI2
aI0
aa(lp178
I1
aI2
aI0
aa(lp179
I1
aI0
aI2
aa(lp180
I1
aI0
aI2
aa(lp181
I1
aI2
aI0
aa(lp182
I2
aI1
aI0
aa(lp183
I1
aI0
aI2
aa(lp184
I0
aI1
aI2
aa(lp185
I1
aI2
aI0
aa(lp186
I1
aI2
aI0
aa(lp187
I1
aI2
aI0
aa(lp188
I2
aI1
aI0
aa(lp189
I1
aI2
aI0
aa(lp190
I1
aI2
aI0
aa(lp191
I2
aI1
aI0
aa(lp192
I1
aI2
aI0
aa(lp193
I1
aI2
aI0
aa(lp194
I1
aI0
aI2
aa(lp195
I1
aI0
aI2
aa(lp196
I1
aI0
aI2
aa(lp197
I1
aI2
aI0
aa(lp198
I1
aI2
aI0
aa(lp199
I1
aI0
aI2
aa(lp200
I1
aI2
aI0
aa(lp201
I1
aI2
aI0
aa(lp202
I2
aI0
aI1
aa(lp203
I1
aI2
aI0
aa(lp204
I2
aI0
aI1
aa(lp205
I2
aI1
aI0
aa(lp206
I0
aI1
aI2
aa(lp207
I1
aI2
aI0
aa(lp208
I2
aI1
aI0
aa(lp209
I0
aI1
aI2
aa(lp210
I1
aI2
aI0
aa(lp211
I0
aI1
aI2
aa(lp212
I2
aI1
aI0
aa(lp213
I1
aI2
aI0
aa(lp214
I2
aI0
aI1
aa(lp215
I2
aI1
aI0
aa(lp216
I1
aI2
aI0
aa(lp217
I1
aI2
aI0
aa(lp218
I2
aI1
aI0
aa(lp219
I1
aI2
aI0
aa(lp220
I1
aI2
aI0
aa(lp221
I1
aI0
aI2
aa(lp222
I1
aI2
aI0
aa(lp223
I2
aI1
aI0
aa(lp224
I1
aI0
aI2
aa(lp225
I1
aI2
aI0
aa(lp226
I1
aI2
aI0
aa(lp227
I1
aI2
aI0
aa(lp228
I1
aI2
aI0
aa(lp229
I1
aI0
aI2
aa(lp230
I1
aI2
aI0
aa(lp231
I1
aI2
aI0
aa(lp232
I1
aI0
aI2
aa(lp233
I2
aI1
aI0
aa(lp234
I2
aI0
aI1
aa(lp235
I0
aI2
aI1
aa(lp236
I1
aI2
aI0
aa(lp237
I2
aI1
aI0
aa(lp238
I1
aI2
aI0
aa(lp239
I0
aI1
aI2
aa(lp240
I1
aI2
aI0
aa(lp241
I1
aI2
aI0
aa(lp242
I1
aI0
aI2
aa(lp243
I0
aI2
aI1
aa(lp244
I2
aI1
aI0
aa(lp245
I1
aI0
aI2
aa(lp246
I0
aI2
aI1
aa(lp247
I1
aI2
aI0
aa(lp248
I0
aI2
aI1
aa(lp249
I1
aI2
aI0
aa(lp250
I2
aI0
aI1
aa(lp251
I1
aI2
aI0
aa(lp252
I1
aI2
aI0
aa(lp253
I1
aI0
aI2
aa(lp254
I2
aI1
aI0
aa(lp255
I1
aI2
aI0
aa(lp256
I1
aI2
aI0
aa(lp257
I1
aI2
aI0
aa(lp258
I1
aI2
aI0
aa(lp259
I1
aI2
aI0
aa(lp260
I1
aI2
aI0
aa(lp261
I1
aI0
aI2
aa(lp262
I2
aI0
aI1
aa(lp263
I1
aI2
aI0
aa(lp264
I2
aI1
aI0
aa(lp265
I2
aI1
aI0
aa(lp266
I1
aI2
aI0
aa(lp267
I1
aI0
aI2
aa(lp268
I1
aI2
aI0
aa(lp269
I0
aI2
aI1
aa(lp270
I2
aI1
aI0
aa(lp271
I0
aI1
aI2
aa(lp272
I2
aI1
aI0
aa(lp273
I1
aI0
aI2
aa(lp274
I0
aI2
aI1
aa(lp275
I1
aI2
aI0
aa(lp276
I1
aI2
aI0
aa(lp277
I1
aI2
aI0
aa(lp278
I1
aI2
aI0
aa(lp279
I2
aI1
aI0
aa(lp280
I0
aI2
aI1
aa(lp281
I1
aI0
aI2
aa(lp282
I1
aI2
aI0
aa(lp283
I2
aI1
aI0
aa(lp284
I2
aI0
aI1
aa(lp285
I1
aI0
aI2
aa(lp286
I0
aI1
aI2
aa(lp287
I1
aI0
aI2
aa(lp288
I1
aI2
aI0
aa(lp289
I2
aI1
aI0
aa(lp290
I1
aI0
aI2
aasS'PCMC'
p291
g2
(g3
(I0
tp292
g5
tp293
Rp294
(I1
(I6
tp295
g12
I00
S"\x169iJ),c?\xd8\xf8%\xde)\xc7R@\xfc\xa9\xf1\xd2MbP?\xb3\xbd\x9f\xaeu'.@\x14eA\x99\x08\xdeC@N(\xa2\x987\xc7N@"
p296
tp297
bsS'PL'
p298
g2
(g3
(I0
tp299
g5
tp300
Rp301
(I1
(I3
tp302
g12
I00
S'\xbd}zt\xbf\xb6\xbb?}\xa1j\xe9?x\xe6?0;\x18\xa0\xa0C\xc8?'
p303
tp304
bsS'Mallows-greedy-RE'
p305
((lp306
I0
aI2
aI1
ag34
(g12
S'\xf7]\xb78\xbd{\xf7?'
p307
tp308
Rp309
tp310
s.