(dp0
S'PCMC-RE'
p1
cnumpy.core.multiarray
_reconstruct
p2
(cnumpy
ndarray
p3
(I0
tp4
S'b'
p5
tp6
Rp7
(I1
(I12
tp8
cnumpy
dtype
p9
(S'f8'
p10
I0
I1
tp11
Rp12
(I3
S'<'
p13
NNNI-1
I-1
I0
tp14
bI00
S'Xmhj\xdbR\x10@\x9a\xef\xff\xb50\xa7\x16@"6$S\xedN\x93@\xbc\x0eQ\x8b\xe5\x8c\x0b@Z[\x97y4*h@p\xa6\xd5J~\xb6H@\x81\xc0\x8e7u0\x03@@7\xdd6\x9d\xdcz@\x9bD\xb33h\xd6U?\x96o<\xb2\xb8w\x8d@\x10\xb1\xdb4\x86\x94x@\xfc\xa9\xf1\xd2MbP?'
p15
tp16
bsS'MMNL-RE'
p17
g2
(g3
(I0
tp18
g5
tp19
Rp20
(I1
(I10
tp21
g12
I00
S'\x8et/?\xe5\xd3\xd9?\xb9Eh`\r\x16\xe3?Y\xe0|\xe78\xcd\xd6?\x8f x\xf5\xb6b\xb1?F.\xf6#!J\xfb?\x9f%\xddmgE\xf8?\x95\xd6&\xe8\x0b.\x11>+\x86\xf2~\xc4v\xf5?\xb0\xb5\xda\xeb\xb5\x93\xd1?6\x8f@\xa8[\xda\xc5?'
p22
tp23
bsS'PL-RE'
p24
g2
(g3
(I0
tp25
g5
tp26
Rp27
(I1
(I4
tp28
g12
I00
S'%Z\x04a\xa8\xd8\xb5?\xb1e\x1e\x0c\xd0$\xe3?\xa4\xa6\xaa\xec0\xd0\xca?\x04+\xb3du`\xbb?'
p29
tp30
bsS'N'
p31
I4
sS'Mallows-greedy'
p32
((lp33
I0
aI3
aI2
aI1
acnumpy.core.multiarray
scalar
p34
(g12
S'\xb5\xae<\xbb"\xb3\xf5?'
p35
tp36
Rp37
tp38
sS'MMNL'
p39
g2
(g3
(I0
tp40
g5
tp41
Rp42
(I1
(I10
tp43
g12
I00
S'I\xa4\xc9\x84\xcaE\xe1?o\xb7l\xf6jt\xdd?\xe1\x88\r\x9a&N\xf3?\xf1\xc9)\x98\'L\xf7?\xe4\xb8\xbc4\x0e\x16\xd9?\x95\xd6&\xe8\x0b.\x11>\xf8\xa8x0D"\xf4?\x95\xd6&\xe8\x0b.\x11>\xb9,\x95\xb9\xcc\xe7\xf3?Gi\x15XC\xdb\xec?'
p44
tp45
bsS'test-lists'
p46
(lp47
(lp48
I0
aI2
aI3
aI1
aa(lp49
I3
aI0
aI1
aI2
aa(lp50
I3
aI2
aI0
aI1
aa(lp51
I0
aI3
aI1
aI2
aa(lp52
I0
aI3
aI1
aI2
aa(lp53
I0
aI2
aI3
aI1
aa(lp54
I3
aI0
aI2
aI1
aa(lp55
I0
aI3
aI2
aI1
aa(lp56
I0
aI2
aI3
aI1
aa(lp57
I3
aI0
aI2
aI1
aa(lp58
I0
aI3
aI1
aI2
aa(lp59
I3
aI0
aI2
aI1
aa(lp60
I1
aI0
aI3
aI2
aa(lp61
I0
aI3
aI1
aI2
aa(lp62
I1
aI3
aI2
aI0
aa(lp63
I3
aI0
aI1
aI2
aa(lp64
I0
aI3
aI2
aI1
aa(lp65
I2
aI0
aI3
aI1
aa(lp66
I0
aI2
aI1
aI3
aa(lp67
I0
aI3
aI2
aI1
aa(lp68
I0
aI3
aI2
aI1
aa(lp69
I0
aI3
aI2
aI1
aa(lp70
I2
aI3
aI0
aI1
aa(lp71
I3
aI2
aI1
aI0
aa(lp72
I0
aI3
aI2
aI1
aa(lp73
I0
aI3
aI2
aI1
aa(lp74
I3
aI0
aI2
aI1
aa(lp75
I0
aI3
aI2
aI1
aa(lp76
I0
aI3
aI1
aI2
aa(lp77
I2
aI3
aI1
aI0
aa(lp78
I0
aI3
aI2
aI1
aa(lp79
I3
aI2
aI1
aI0
aa(lp80
I0
aI1
aI3
aI2
aa(lp81
I0
aI3
aI2
aI1
aa(lp82
I0
aI3
aI2
aI1
aa(lp83
I0
aI3
aI2
aI1
aa(lp84
I2
aI1
aI3
aI0
aa(lp85
I3
aI0
aI1
aI2
aa(lp86
I2
aI0
aI1
aI3
aa(lp87
I2
aI3
aI1
aI0
aa(lp88
I0
aI2
aI3
aI1
aa(lp89
I0
aI3
aI2
aI1
aa(lp90
I1
aI0
aI3
aI2
aa(lp91
I0
aI2
aI3
aI1
aa(lp92
I3
aI2
aI0
aI1
aa(lp93
I3
aI2
aI0
aI1
aa(lp94
I0
aI2
aI3
aI1
aa(lp95
I1
aI0
aI3
aI2
aa(lp96
I3
aI0
aI2
aI1
aa(lp97
I0
aI3
aI2
aI1
aa(lp98
I3
aI0
aI2
aI1
aa(lp99
I0
aI3
aI2
aI1
aa(lp100
I2
aI1
aI0
aI3
aa(lp101
I0
aI3
aI2
aI1
aa(lp102
I0
aI2
aI3
aI1
aa(lp103
I0
aI3
aI2
aI1
aa(lp104
I3
aI2
aI1
aI0
aa(lp105
I0
aI3
aI2
aI1
aa(lp106
I1
aI3
aI0
aI2
aa(lp107
I3
aI2
aI0
aI1
aa(lp108
I0
aI3
aI2
aI1
aa(lp109
I0
aI3
aI2
aI1
aa(lp110
I2
aI0
aI3
aI1
aa(lp111
I0
aI3
aI1
aI2
aa(lp112
I0
aI3
aI1
aI2
aa(lp113
I0
aI3
aI2
aI1
aa(lp114
I2
aI3
aI0
aI1
aa(lp115
I2
aI0
aI1
aI3
aa(lp116
I3
aI0
aI1
aI2
aa(lp117
I3
aI0
aI1
aI2
aa(lp118
I0
aI3
aI2
aI1
aasS'PCMC'
p119
g2
(g3
(I0
tp120
g5
tp121
Rp122
(I1
(I12
tp123
g12
I00
S'\x02&g\xc4\x9d\x94G@}\xff^\x8e\xcc\xb7a@=\x07\xff\xf3\x99\x89@@\x12\x9er\xc9\x9b9t@\xaf&u/\x16B]?\x82=\xdf\xb1\xa3\xd5y@,\xec\x1d\xea\x86\xf2t@\xfc\xa9\xf1\xd2MbP?\xc2\xc2\x8cqEX\xe2?\x03H\xceW(\x87K@Bf\xf4i\xe2\x08H@;\xfcv\x91\x80<\xc3?'
p124
tp125
bsS'PL'
p126
g2
(g3
(I0
tp127
g5
tp128
Rp129
(I1
(I4
tp130
g12
I00
S'QF\xbd6<\x84\xdb?\xf7-\xfa\rN\x10\xaf?\xcc\xf5\xa2\rT\x05\xc2?\n\xf9\xb1\x00\x10\x97\xd7?'
p131
tp132
bsS'Mallows-greedy-RE'
p133
((lp134
I1
aI2
aI3
aI0
ag34
(g12
S'\xb5\xae<\xbb"\xb3\xf5?'
p135
tp136
Rp137
tp138
s.