(dp0
S'PCMC-RE'
p1
cnumpy.core.multiarray
_reconstruct
p2
(cnumpy
ndarray
p3
(I0
tp4
S'b'
p5
tp6
Rp7
(I1
(I12
tp8
cnumpy
dtype
p9
(S'f8'
p10
I0
I1
tp11
Rp12
(I3
S'<'
p13
NNNI-1
I-1
I0
tp14
bI00
S'\xe4\xbc\xd7\xb3\x900B@\x1e\xf7r\xc4\x97\xf41@\xb0S\x18\x83\x84\xfa\xf2?\x17\xc2P\xcd\xea\x18I@:\xc6kV\x0fo\x8a?C\x9c\xcev\x91\xa8\xe9?\x1a\xc6\xae^\xbd\xadB@\xfc\xa9\xf1\xd2MbP?x\x9f\xed\xff*\xe9\x0c@Q\xaa\x94\xfd\xd6\x9e\xf2?\xd7 ]N!\x14\xd3?\x82 \x13\xd8*\xfb\x15@'
p15
tp16
bsS'MMNL-RE'
p17
g2
(g3
(I0
tp18
g5
tp19
Rp20
(I1
(I10
tp21
g12
I00
S"\xaf\x88\xda2\xe0\xc0\xcd?\xd5]I\xf3\xc7\x8f\xe8?Q]\xdfD\xdb\xa2\x83>\x85q'\xd4\xd7\x88\t@\xef\xf3\xfa\x1c\x82\xaa\x15@\x95\xd6&\xe8\x0b.\x11>\xf8\x87\xb8\xc3\xd7\xd7\xba>\xca\x8e\xbb\xa3\x0b\x03\xf9?\xf3\xf1\xa6~%\x98\x95>\xcb6;\xb9\\\t\xfa?"
p22
tp23
bsS'PL-RE'
p24
g2
(g3
(I0
tp25
g5
tp26
Rp27
(I1
(I4
tp28
g12
I00
S'j\t\xcb\x1b\x91\xad\xd6?\xe7\xd17\xdb\x1a\x95\xc4?\xeb\x05z\x15W\xb6\xd0?j\x0f>\xc2\x14\xa3\xcc?'
p29
tp30
bsS'N'
p31
I4
sS'Mallows-greedy'
p32
((lp33
I1
aI3
aI2
aI0
acnumpy.core.multiarray
scalar
p34
(g12
S'.se\x07\x1ec\xec?'
p35
tp36
Rp37
tp38
sS'MMNL'
p39
g2
(g3
(I0
tp40
g5
tp41
Rp42
(I1
(I10
tp43
g12
I00
S"\\B<\x00\x9a\x85\xd6?\xd2\xde\xe1\xff2\xbd\xe4?K\x87\xc9\xf5w_'?\xebF\x9f\x12\x9e_\xe1?S\x95\xc0}\x18;\xf6?\x95\xd6&\xe8\x0b.\x11>\x01sLM%\xb3P?\xac\x88X\xab\x9b\xd0\xe9?\x1c\x11\x15\xfc)\x8f-?\xd8\x99R\xf1?\xd7\xf1?"
p44
tp45
bsS'test-lists'
p46
(lp47
(lp48
I1
aI2
aI3
aI0
aa(lp49
I0
aI2
aI3
aI1
aa(lp50
I0
aI3
aI2
aI1
aa(lp51
I1
aI3
aI2
aI0
aa(lp52
I0
aI2
aI1
aI3
aa(lp53
I2
aI3
aI0
aI1
aa(lp54
I1
aI2
aI0
aI3
aa(lp55
I3
aI1
aI2
aI0
aa(lp56
I2
aI3
aI0
aI1
aa(lp57
I1
aI0
aI3
aI2
aa(lp58
I1
aI2
aI3
aI0
aa(lp59
I2
aI1
aI3
aI0
aa(lp60
I1
aI3
aI2
aI0
aa(lp61
I1
aI2
aI3
aI0
aa(lp62
I3
aI2
aI1
aI0
aa(lp63
I1
aI0
aI2
aI3
aa(lp64
I1
aI3
aI2
aI0
aa(lp65
I0
aI1
aI2
aI3
aa(lp66
I1
aI2
aI3
aI0
aa(lp67
I1
aI3
aI0
aI2
aa(lp68
I2
aI0
aI3
aI1
aa(lp69
I1
aI3
aI2
aI0
aa(lp70
I1
aI3
aI2
aI0
aa(lp71
I2
aI3
aI0
aI1
aa(lp72
I1
aI2
aI3
aI0
aa(lp73
I2
aI0
aI3
aI1
aa(lp74
I0
aI1
aI2
aI3
aa(lp75
I3
aI2
aI0
aI1
aa(lp76
I1
aI2
aI3
aI0
aa(lp77
I2
aI1
aI0
aI3
aa(lp78
I3
aI0
aI2
aI1
aa(lp79
I1
aI3
aI0
aI2
aa(lp80
I1
aI0
aI2
aI3
aa(lp81
I3
aI0
aI2
aI1
aa(lp82
I1
aI3
aI2
aI0
aa(lp83
I1
aI0
aI2
aI3
aa(lp84
I1
aI3
aI2
aI0
aa(lp85
I1
aI3
aI2
aI0
aa(lp86
I0
aI2
aI3
aI1
aa(lp87
I2
aI3
aI0
aI1
aa(lp88
I1
aI3
aI2
aI0
aa(lp89
I3
aI0
aI1
aI2
aa(lp90
I3
aI2
aI0
aI1
aa(lp91
I1
aI2
aI0
aI3
aa(lp92
I1
aI3
aI0
aI2
aa(lp93
I3
aI0
aI1
aI2
aa(lp94
I1
aI3
aI2
aI0
aa(lp95
I3
aI0
aI2
aI1
aa(lp96
I1
aI0
aI2
aI3
aa(lp97
I1
aI2
aI0
aI3
aa(lp98
I1
aI2
aI3
aI0
aa(lp99
I1
aI2
aI3
aI0
aa(lp100
I3
aI2
aI0
aI1
aa(lp101
I3
aI2
aI1
aI0
aa(lp102
I3
aI1
aI2
aI0
aa(lp103
I3
aI2
aI1
aI0
aa(lp104
I1
aI3
aI2
aI0
aa(lp105
I3
aI0
aI2
aI1
aa(lp106
I1
aI0
aI2
aI3
aa(lp107
I1
aI2
aI0
aI3
aa(lp108
I0
aI3
aI2
aI1
aa(lp109
I1
aI2
aI3
aI0
aa(lp110
I2
aI3
aI0
aI1
aa(lp111
I2
aI0
aI3
aI1
aa(lp112
I2
aI3
aI0
aI1
aa(lp113
I0
aI2
aI3
aI1
aa(lp114
I3
aI2
aI0
aI1
aa(lp115
I0
aI3
aI2
aI1
aa(lp116
I0
aI3
aI2
aI1
aa(lp117
I1
aI3
aI2
aI0
aa(lp118
I2
aI0
aI3
aI1
aa(lp119
I3
aI1
aI2
aI0
aa(lp120
I3
aI0
aI2
aI1
aa(lp121
I3
aI2
aI1
aI0
aa(lp122
I0
aI2
aI1
aI3
aa(lp123
I1
aI0
aI2
aI3
aa(lp124
I1
aI2
aI3
aI0
aa(lp125
I1
aI0
aI3
aI2
aa(lp126
I2
aI1
aI3
aI0
aa(lp127
I1
aI2
aI0
aI3
aa(lp128
I3
aI2
aI0
aI1
aa(lp129
I1
aI0
aI3
aI2
aa(lp130
I0
aI3
aI2
aI1
aa(lp131
I3
aI1
aI0
aI2
aa(lp132
I2
aI0
aI3
aI1
aa(lp133
I2
aI0
aI3
aI1
aa(lp134
I3
aI0
aI2
aI1
aa(lp135
I3
aI2
aI1
aI0
aa(lp136
I3
aI1
aI0
aI2
aa(lp137
I1
aI2
aI3
aI0
aa(lp138
I1
aI2
aI0
aI3
aa(lp139
I3
aI2
aI1
aI0
aa(lp140
I3
aI2
aI0
aI1
aa(lp141
I0
aI2
aI3
aI1
aa(lp142
I1
aI2
aI3
aI0
aa(lp143
I1
aI3
aI2
aI0
aa(lp144
I3
aI0
aI2
aI1
aa(lp145
I1
aI0
aI2
aI3
aa(lp146
I1
aI3
aI2
aI0
aa(lp147
I3
aI0
aI1
aI2
aa(lp148
I3
aI2
aI0
aI1
aa(lp149
I0
aI1
aI3
aI2
aa(lp150
I2
aI1
aI0
aI3
aa(lp151
I0
aI3
aI2
aI1
aa(lp152
I3
aI0
aI2
aI1
aa(lp153
I3
aI1
aI2
aI0
aa(lp154
I1
aI3
aI2
aI0
aa(lp155
I0
aI2
aI3
aI1
aa(lp156
I1
aI2
aI3
aI0
aa(lp157
I1
aI0
aI3
aI2
aa(lp158
I1
aI2
aI3
aI0
aa(lp159
I1
aI0
aI3
aI2
aa(lp160
I3
aI2
aI1
aI0
aa(lp161
I1
aI3
aI0
aI2
aa(lp162
I1
aI2
aI3
aI0
aa(lp163
I3
aI2
aI0
aI1
aasS'PCMC'
p164
g2
(g3
(I0
tp165
g5
tp166
Rp167
(I1
(I12
tp168
g12
I00
S'\xfc\xa9\xf1\xd2MbP?&D\xf0k3]\x82?\xdam@\xd5e\xe0q?u/N\xfd$Rc?\xaa"W.\xach\xa7?p\xe7\xccq!;\x11@\xac&&>\xfc`e?/\xfd\x8b\x10\xda\xae\x85?\xbf\xd3KxXB\x1a@\xd8\x13\x8f\xcc\xb0\xfai?;\xc2&\xbf\xdf\xd4\x16@\xad\xcf\xae\x8c\xe6\x9a\x13@'
p169
tp170
bsS'PL'
p171
g2
(g3
(I0
tp172
g5
tp173
Rp174
(I1
(I4
tp175
g12
I00
S'.@\xab\xa3W/\xc6?\x10\xf6W-0}\xd0?\x8d\xff\x9c\xad\x82\x88\xd2?Nj5S\xa1\xe2\xd1?'
p176
tp177
bsS'Mallows-greedy-RE'
p178
((lp179
I0
aI2
aI3
aI1
ag34
(g12
S'.se\x07\x1ec\xec?'
p180
tp181
Rp182
tp183
s.