(dp0
S'PCMC-RE'
p1
cnumpy.core.multiarray
_reconstruct
p2
(cnumpy
ndarray
p3
(I0
tp4
S'b'
p5
tp6
Rp7
(I1
(I6
tp8
cnumpy
dtype
p9
(S'f8'
p10
I0
I1
tp11
Rp12
(I3
S'<'
p13
NNNI-1
I-1
I0
tp14
bI00
S'\x0eW\xd7rG\xb1b?\xa4\xa8~\x10K(\xd3?l\xfe\x19S]\xe0l?\xe6\xbb\xb33\xbe\xea\x94?m\x08\xc1~t\xbd\x01@\x08\x1c\xfd+\xd4\x8d\x97?'
p15
tp16
bsS'MMNL-RE'
p17
g2
(g3
(I0
tp18
g5
tp19
Rp20
(I1
(I4
tp21
g12
I00
S'\x00\x00\x00\x00\x00\x00\xf0?^|~\xffT\x15\xfc?\x01\x9f\x00/"}\xd8?T\x82\xff\x95w\xdd\xd2?'
p22
tp23
bsS'PL-RE'
p24
g2
(g3
(I0
tp25
g5
tp26
Rp27
(I1
(I3
tp28
g12
I00
S'\xdf}m\x91\xc3\x16\xe7?a\xad\xdb\x07U"\xc4?K\xb6\xdcd9\x05\xbf?'
p29
tp30
bsS'N'
p31
I3
sS'Mallows-greedy'
p32
((lp33
I2
aI1
aI0
acnumpy.core.multiarray
scalar
p34
(g12
S'\xd0\xe2\x04q\xab\x1c\xf6?'
p35
tp36
Rp37
tp38
sS'MMNL'
p39
g2
(g3
(I0
tp40
g5
tp41
Rp42
(I1
(I4
tp43
g12
I00
S'\x00\x00\x00\x00\x00\x00\xf0?\xb4\x9a0\xfcO\xc4\xc7?\x96-\x81#\xba1\xe9?\xaa\xb1!x\xfa\xa8\xf1?'
p44
tp45
bsS'test-lists'
p46
(lp47
(lp48
I1
aI2
aI0
aa(lp49
I1
aI2
aI0
aa(lp50
I2
aI1
aI0
aa(lp51
I2
aI1
aI0
aa(lp52
I2
aI1
aI0
aa(lp53
I2
aI0
aI1
aa(lp54
I1
aI2
aI0
aa(lp55
I1
aI0
aI2
aa(lp56
I0
aI2
aI1
aa(lp57
I2
aI1
aI0
aa(lp58
I2
aI0
aI1
aa(lp59
I2
aI1
aI0
aa(lp60
I2
aI0
aI1
aa(lp61
I1
aI2
aI0
aa(lp62
I0
aI1
aI2
aa(lp63
I1
aI2
aI0
aa(lp64
I1
aI2
aI0
aa(lp65
I1
aI0
aI2
aa(lp66
I0
aI2
aI1
aa(lp67
I2
aI1
aI0
aa(lp68
I2
aI1
aI0
aa(lp69
I2
aI0
aI1
aa(lp70
I2
aI0
aI1
aa(lp71
I2
aI0
aI1
aa(lp72
I2
aI1
aI0
aa(lp73
I1
aI0
aI2
aa(lp74
I2
aI1
aI0
aa(lp75
I1
aI2
aI0
aa(lp76
I2
aI0
aI1
aa(lp77
I2
aI0
aI1
aa(lp78
I1
aI2
aI0
aa(lp79
I2
aI1
aI0
aa(lp80
I1
aI2
aI0
aa(lp81
I2
aI1
aI0
aa(lp82
I1
aI2
aI0
aa(lp83
I2
aI0
aI1
aa(lp84
I2
aI0
aI1
aa(lp85
I2
aI1
aI0
aa(lp86
I2
aI0
aI1
aa(lp87
I1
aI2
aI0
aa(lp88
I2
aI1
aI0
aa(lp89
I2
aI1
aI0
aa(lp90
I2
aI1
aI0
aa(lp91
I1
aI2
aI0
aa(lp92
I1
aI0
aI2
aa(lp93
I2
aI1
aI0
aa(lp94
I2
aI0
aI1
aa(lp95
I2
aI1
aI0
aa(lp96
I2
aI1
aI0
aa(lp97
I2
aI0
aI1
aa(lp98
I1
aI2
aI0
aa(lp99
I1
aI2
aI0
aa(lp100
I2
aI0
aI1
aa(lp101
I1
aI0
aI2
aa(lp102
I2
aI0
aI1
aa(lp103
I1
aI2
aI0
aa(lp104
I2
aI0
aI1
aa(lp105
I2
aI1
aI0
aa(lp106
I2
aI1
aI0
aa(lp107
I1
aI2
aI0
aa(lp108
I1
aI2
aI0
aa(lp109
I2
aI0
aI1
aa(lp110
I2
aI1
aI0
aa(lp111
I2
aI1
aI0
aa(lp112
I2
aI1
aI0
aa(lp113
I2
aI0
aI1
aa(lp114
I1
aI2
aI0
aa(lp115
I2
aI1
aI0
aa(lp116
I2
aI1
aI0
aa(lp117
I2
aI1
aI0
aa(lp118
I2
aI1
aI0
aa(lp119
I2
aI1
aI0
aa(lp120
I2
aI0
aI1
aa(lp121
I2
aI0
aI1
aa(lp122
I1
aI0
aI2
aa(lp123
I2
aI1
aI0
aa(lp124
I2
aI0
aI1
aa(lp125
I1
aI2
aI0
aa(lp126
I1
aI2
aI0
aa(lp127
I2
aI1
aI0
aa(lp128
I1
aI2
aI0
aa(lp129
I1
aI0
aI2
aa(lp130
I1
aI2
aI0
aa(lp131
I1
aI0
aI2
aa(lp132
I1
aI0
aI2
aa(lp133
I1
aI2
aI0
aa(lp134
I2
aI1
aI0
aa(lp135
I2
aI1
aI0
aa(lp136
I2
aI0
aI1
aa(lp137
I2
aI0
aI1
aa(lp138
I2
aI1
aI0
aa(lp139
I0
aI2
aI1
aa(lp140
I2
aI1
aI0
aa(lp141
I2
aI1
aI0
aa(lp142
I1
aI2
aI0
aa(lp143
I2
aI1
aI0
aa(lp144
I2
aI1
aI0
aa(lp145
I2
aI1
aI0
aa(lp146
I2
aI1
aI0
aa(lp147
I1
aI2
aI0
aa(lp148
I2
aI0
aI1
aa(lp149
I2
aI0
aI1
aa(lp150
I1
aI2
aI0
aa(lp151
I1
aI2
aI0
aa(lp152
I1
aI2
aI0
aa(lp153
I2
aI1
aI0
aa(lp154
I2
aI0
aI1
aa(lp155
I2
aI1
aI0
aa(lp156
I2
aI1
aI0
aa(lp157
I1
aI2
aI0
aa(lp158
I1
aI2
aI0
aa(lp159
I1
aI2
aI0
aa(lp160
I2
aI1
aI0
aa(lp161
I2
aI1
aI0
aa(lp162
I2
aI0
aI1
aa(lp163
I0
aI1
aI2
aa(lp164
I2
aI1
aI0
aa(lp165
I1
aI2
aI0
aa(lp166
I1
aI2
aI0
aa(lp167
I0
aI1
aI2
aa(lp168
I2
aI0
aI1
aa(lp169
I2
aI0
aI1
aa(lp170
I1
aI2
aI0
aa(lp171
I2
aI1
aI0
aa(lp172
I2
aI1
aI0
aa(lp173
I2
aI1
aI0
aa(lp174
I1
aI2
aI0
aa(lp175
I0
aI2
aI1
aa(lp176
I2
aI1
aI0
aa(lp177
I2
aI1
aI0
aa(lp178
I2
aI1
aI0
aa(lp179
I1
aI2
aI0
aa(lp180
I1
aI2
aI0
aa(lp181
I2
aI1
aI0
aa(lp182
I1
aI2
aI0
aa(lp183
I0
aI1
aI2
aa(lp184
I1
aI2
aI0
aa(lp185
I2
aI0
aI1
aa(lp186
I2
aI0
aI1
aa(lp187
I2
aI1
aI0
aa(lp188
I2
aI1
aI0
aa(lp189
I1
aI2
aI0
aa(lp190
I2
aI1
aI0
aa(lp191
I2
aI0
aI1
aa(lp192
I2
aI1
aI0
aa(lp193
I2
aI1
aI0
aa(lp194
I2
aI1
aI0
aa(lp195
I1
aI2
aI0
aa(lp196
I2
aI1
aI0
aa(lp197
I2
aI0
aI1
aa(lp198
I2
aI1
aI0
aa(lp199
I2
aI1
aI0
aa(lp200
I2
aI1
aI0
aa(lp201
I2
aI1
aI0
aa(lp202
I1
aI2
aI0
aa(lp203
I1
aI2
aI0
aa(lp204
I1
aI2
aI0
aa(lp205
I1
aI2
aI0
aa(lp206
I2
aI1
aI0
aa(lp207
I1
aI2
aI0
aa(lp208
I2
aI0
aI1
aa(lp209
I1
aI2
aI0
aa(lp210
I2
aI1
aI0
aa(lp211
I1
aI2
aI0
aa(lp212
I2
aI1
aI0
aa(lp213
I2
aI0
aI1
aa(lp214
I1
aI2
aI0
aa(lp215
I2
aI1
aI0
aa(lp216
I0
aI1
aI2
aa(lp217
I0
aI2
aI1
aa(lp218
I2
aI1
aI0
aa(lp219
I1
aI2
aI0
aa(lp220
I2
aI0
aI1
aa(lp221
I2
aI1
aI0
aasS'PCMC'
p222
g2
(g3
(I0
tp223
g5
tp224
Rp225
(I1
(I6
tp226
g12
I00
S'Qq\x13\xdbFH\x9a?\x81\xb1\x86n\x07\xbc\xfe?\x19\x13H\xe7\x7f\x04\x81?\xca\x1b\xe1\xa2U\xe6\xd7?c\xc1\\\nB\x93\xd0?\xccIT\xb7\xd7\xbe\xd2?'
p227
tp228
bsS'PL'
p229
g2
(g3
(I0
tp230
g5
tp231
Rp232
(I1
(I3
tp233
g12
I00
S'\x00\xef\xf7[r\xe3\xb6?B?K*[C\xd8?\x7fb[\x1f\xe4\x01\xe1?'
p234
tp235
bsS'Mallows-greedy-RE'
p236
((lp237
I0
aI1
aI2
ag34
(g12
S'\xd0\xe2\x04q\xab\x1c\xf6?'
p238
tp239
Rp240
tp241
s.