(dp0
S'PCMC-RE'
p1
cnumpy.core.multiarray
_reconstruct
p2
(cnumpy
ndarray
p3
(I0
tp4
S'b'
p5
tp6
Rp7
(I1
(I6
tp8
cnumpy
dtype
p9
(S'f8'
p10
I0
I1
tp11
Rp12
(I3
S'<'
p13
NNNI-1
I-1
I0
tp14
bI00
S'\xa9\xdd\x19\x0b\xd2~\xdf?\x91n\x80\xe1v\x95\xf9?\xfcZ\xfc\xe5y\xbe\xbd?\xfc\xa9\xf1\xd2MbP?\xed\x89]\x93\xf7\xd9\xfb?\xd8\xb9\x15r|\xd8u?'
p15
tp16
bsS'MMNL-RE'
p17
g2
(g3
(I0
tp18
g5
tp19
Rp20
(I1
(I4
tp21
g12
I00
S'\x00\x00\x00\x00\x00\x00\xf0?s_\xcc\xc3\xef9\xe0?\xef\xe0\xfc\x15x\\\x01@p\x90T\xa2[\x9d\xdd?'
p22
tp23
bsS'PL-RE'
p24
g2
(g3
(I0
tp25
g5
tp26
Rp27
(I1
(I3
tp28
g12
I00
S"A'\xc5?\xb8\xab\xc4?\x00\xb5\rU\xd4\x1d\xe6?\xc0\x04\x04l\xf6\xdc\xc2?"
p29
tp30
bsS'N'
p31
I3
sS'Mallows-greedy'
p32
((lp33
I2
aI0
aI1
acnumpy.core.multiarray
scalar
p34
(g12
S'\x8d1\x04\xed\xffG\xf4?'
p35
tp36
Rp37
tp38
sS'MMNL'
p39
g2
(g3
(I0
tp40
g5
tp41
Rp42
(I1
(I4
tp43
g12
I00
S"\x00\x00\x00\x00\x00\x00\xf0?\x99\x08g'\xccr\xf0?\x9aY\xdaN}\xdc\xd1?'\x92\xfa9_\xdc\xf1?"
p44
tp45
bsS'test-lists'
p46
(lp47
(lp48
I2
aI0
aI1
aa(lp49
I2
aI0
aI1
aa(lp50
I2
aI0
aI1
aa(lp51
I2
aI0
aI1
aa(lp52
I0
aI1
aI2
aa(lp53
I0
aI2
aI1
aa(lp54
I2
aI0
aI1
aa(lp55
I2
aI1
aI0
aa(lp56
I2
aI1
aI0
aa(lp57
I2
aI0
aI1
aa(lp58
I0
aI2
aI1
aa(lp59
I0
aI2
aI1
aa(lp60
I2
aI0
aI1
aa(lp61
I2
aI0
aI1
aa(lp62
I0
aI2
aI1
aa(lp63
I0
aI2
aI1
aa(lp64
I0
aI2
aI1
aa(lp65
I0
aI2
aI1
aa(lp66
I2
aI0
aI1
aa(lp67
I0
aI2
aI1
aa(lp68
I0
aI1
aI2
aa(lp69
I2
aI0
aI1
aa(lp70
I2
aI1
aI0
aa(lp71
I2
aI0
aI1
aa(lp72
I0
aI2
aI1
aa(lp73
I0
aI1
aI2
aa(lp74
I2
aI0
aI1
aa(lp75
I0
aI1
aI2
aa(lp76
I2
aI0
aI1
aa(lp77
I0
aI1
aI2
aa(lp78
I0
aI2
aI1
aa(lp79
I0
aI2
aI1
aa(lp80
I2
aI0
aI1
aa(lp81
I2
aI0
aI1
aa(lp82
I0
aI2
aI1
aa(lp83
I0
aI2
aI1
aa(lp84
I0
aI2
aI1
aa(lp85
I1
aI2
aI0
aa(lp86
I0
aI1
aI2
aa(lp87
I0
aI1
aI2
aa(lp88
I1
aI0
aI2
aa(lp89
I2
aI0
aI1
aa(lp90
I2
aI1
aI0
aa(lp91
I0
aI2
aI1
aa(lp92
I2
aI1
aI0
aa(lp93
I2
aI1
aI0
aa(lp94
I0
aI2
aI1
aa(lp95
I0
aI2
aI1
aa(lp96
I2
aI0
aI1
aa(lp97
I0
aI2
aI1
aa(lp98
I2
aI0
aI1
aa(lp99
I0
aI2
aI1
aa(lp100
I0
aI1
aI2
aa(lp101
I2
aI0
aI1
aa(lp102
I0
aI2
aI1
aa(lp103
I2
aI1
aI0
aa(lp104
I0
aI1
aI2
aa(lp105
I0
aI2
aI1
aa(lp106
I2
aI1
aI0
aa(lp107
I0
aI2
aI1
aa(lp108
I0
aI1
aI2
aa(lp109
I2
aI1
aI0
aa(lp110
I0
aI2
aI1
aa(lp111
I2
aI0
aI1
aa(lp112
I0
aI2
aI1
aa(lp113
I2
aI0
aI1
aa(lp114
I2
aI0
aI1
aa(lp115
I2
aI1
aI0
aa(lp116
I0
aI2
aI1
aa(lp117
I1
aI2
aI0
aa(lp118
I2
aI0
aI1
aa(lp119
I0
aI2
aI1
aa(lp120
I2
aI0
aI1
aa(lp121
I2
aI1
aI0
aa(lp122
I2
aI0
aI1
aa(lp123
I2
aI0
aI1
aa(lp124
I0
aI2
aI1
aa(lp125
I2
aI0
aI1
aa(lp126
I2
aI0
aI1
aa(lp127
I0
aI2
aI1
aa(lp128
I2
aI0
aI1
aa(lp129
I2
aI0
aI1
aa(lp130
I0
aI2
aI1
aa(lp131
I2
aI0
aI1
aa(lp132
I0
aI1
aI2
aa(lp133
I2
aI0
aI1
aa(lp134
I0
aI1
aI2
aa(lp135
I0
aI2
aI1
aa(lp136
I2
aI0
aI1
aa(lp137
I2
aI0
aI1
aa(lp138
I0
aI2
aI1
aa(lp139
I0
aI1
aI2
aa(lp140
I0
aI2
aI1
aa(lp141
I0
aI2
aI1
aa(lp142
I0
aI2
aI1
aa(lp143
I2
aI0
aI1
aa(lp144
I2
aI0
aI1
aa(lp145
I0
aI2
aI1
aa(lp146
I1
aI2
aI0
aa(lp147
I2
aI1
aI0
aa(lp148
I0
aI2
aI1
aa(lp149
I0
aI2
aI1
aa(lp150
I0
aI2
aI1
aa(lp151
I2
aI0
aI1
aa(lp152
I2
aI0
aI1
aa(lp153
I2
aI0
aI1
aa(lp154
I0
aI2
aI1
aa(lp155
I2
aI0
aI1
aa(lp156
I0
aI2
aI1
aa(lp157
I2
aI0
aI1
aa(lp158
I2
aI1
aI0
aa(lp159
I2
aI0
aI1
aa(lp160
I0
aI1
aI2
aa(lp161
I2
aI0
aI1
aa(lp162
I0
aI1
aI2
aa(lp163
I2
aI0
aI1
aa(lp164
I0
aI2
aI1
aa(lp165
I0
aI2
aI1
aa(lp166
I2
aI1
aI0
aasS'PCMC'
p167
g2
(g3
(I0
tp168
g5
tp169
Rp170
(I1
(I6
tp171
g12
I00
S'\xcf$\xc0C\xfb\xbc"@\x9el\xb2a\x99\x0c\xfb?\xe6q\x17z\xb09D@f<\x81\x96\x03\tf?\n*"\xd4\xc5\xbb\xf6?\xfc\xa9\xf1\xd2MbP?'
p172
tp173
bsS'PL'
p174
g2
(g3
(I0
tp175
g5
tp176
Rp177
(I1
(I3
tp178
g12
I00
S'\x13\n\xe0J+&\xdb?\xa7\\\xb9D6{\xbd?\xc2\x9e\xf1#\x07{\xdd?'
p179
tp180
bsS'Mallows-greedy-RE'
p181
((lp182
I1
aI0
aI2
ag34
(g12
S'\x8d1\x04\xed\xffG\xf4?'
p183
tp184
Rp185
tp186
s.