(dp0
S'PCMC-RE'
p1
cnumpy.core.multiarray
_reconstruct
p2
(cnumpy
ndarray
p3
(I0
tp4
S'b'
p5
tp6
Rp7
(I1
(I12
tp8
cnumpy
dtype
p9
(S'f8'
p10
I0
I1
tp11
Rp12
(I3
S'<'
p13
NNNI-1
I-1
I0
tp14
bI00
S'H<\xb2)nQw?N\x07\x19\xf0\xa4j\xeb?\xfc\xa9\xf1\xd2MbP?\xd9\xee-\x97\xe7\xae\xaf?\t\x15nW\xca\x11\xe6?\x82.\xcd:"\x95\xef?"\xfdC\xc6ye\xe3?\x81\xcd=l`T\xc4?\xaf\xd8{\x9d\xa3\x14\xdd?\xce\x8c\xc7\xc4\xc5\x90P?\x08w\xbd\x02Ny\xca?Zu\xd6\xfew\r\xe8?'
p15
tp16
bsS'MMNL-RE'
p17
g2
(g3
(I0
tp18
g5
tp19
Rp20
(I1
(I10
tp21
g12
I00
S'\xfd\xb7\xef\xb8\x8a7\xe1?\x08\x90 \x8e\xea\x90\xdd?\n\xfc\xd36A\xa3\xf5?\xda\x0eP\xe0\xae}\xe9?\x86Qr\x99\xd9\x95\xdc?r#\xe0F\x95_w?\x06\xa1\xfan\x83\x93\xe1?j\x8aL\xc9An\x05@\x06|\xc3\xcf\xc3~\x00@%\r\x14\xc5\xa4\xf8\x9b?'
p22
tp23
bsS'PL-RE'
p24
g2
(g3
(I0
tp25
g5
tp26
Rp27
(I1
(I4
tp28
g12
I00
S'+Y~\x19B\xa2\xd4?>M\x0c?\x98\xdc\xac?\x8c@1\xc5*\xae\xd8?C\xb9\xdd2\x00(\xce?'
p29
tp30
bsS'N'
p31
I4
sS'Mallows-greedy'
p32
((lp33
I1
aI3
aI0
aI2
acnumpy.core.multiarray
scalar
p34
(g12
S'\x8f\x8f\x1b\xb1\xd0\x15\xf4?'
p35
tp36
Rp37
tp38
sS'MMNL'
p39
g2
(g3
(I0
tp40
g5
tp41
Rp42
(I1
(I10
tp43
g12
I00
S'\xd5F[\xfe\x8dG\xe0?UrI\x03\xe4p\xdf?\x81\xe6\xfd\xd6G\x18\xf5?\xcbm-g\xf3e\xe0>\xedyL^)H\xf0?y\r\x94\x90\xfav\xfd?\x15V\x9c\x8b\xd5\x80\xf2?#+\x04\x85\x96\x8e\xc9>\x05b*J\xe0\xd1\xed?\xca8\xf8\x91N\xdc\xf2>'
p44
tp45
bsS'test-lists'
p46
(lp47
(lp48
I1
aI3
aI2
aI0
aa(lp49
I3
aI1
aI0
aI2
aa(lp50
I2
aI1
aI3
aI0
aa(lp51
I1
aI3
aI0
aI2
aa(lp52
I1
aI2
aI0
aI3
aa(lp53
I1
aI3
aI0
aI2
aa(lp54
I1
aI3
aI2
aI0
aa(lp55
I3
aI2
aI0
aI1
aa(lp56
I1
aI3
aI0
aI2
aa(lp57
I1
aI3
aI0
aI2
aa(lp58
I2
aI3
aI1
aI0
aa(lp59
I0
aI3
aI2
aI1
aa(lp60
I1
aI3
aI2
aI0
aa(lp61
I1
aI0
aI3
aI2
aa(lp62
I1
aI0
aI3
aI2
aa(lp63
I1
aI2
aI3
aI0
aa(lp64
I1
aI0
aI2
aI3
aa(lp65
I1
aI0
aI2
aI3
aa(lp66
I3
aI2
aI1
aI0
aa(lp67
I1
aI2
aI3
aI0
aa(lp68
I1
aI3
aI0
aI2
aa(lp69
I1
aI3
aI0
aI2
aa(lp70
I1
aI3
aI0
aI2
aa(lp71
I1
aI0
aI2
aI3
aa(lp72
I1
aI2
aI0
aI3
aa(lp73
I1
aI0
aI2
aI3
aa(lp74
I1
aI2
aI0
aI3
aa(lp75
I1
aI3
aI2
aI0
aa(lp76
I1
aI0
aI2
aI3
aa(lp77
I0
aI3
aI1
aI2
aa(lp78
I0
aI2
aI1
aI3
aa(lp79
I1
aI3
aI2
aI0
aa(lp80
I3
aI2
aI0
aI1
aa(lp81
I3
aI0
aI1
aI2
aa(lp82
I1
aI3
aI2
aI0
aa(lp83
I1
aI3
aI0
aI2
aa(lp84
I2
aI0
aI3
aI1
aa(lp85
I1
aI3
aI2
aI0
aa(lp86
I2
aI1
aI0
aI3
aa(lp87
I1
aI3
aI2
aI0
aa(lp88
I1
aI3
aI0
aI2
aa(lp89
I1
aI3
aI0
aI2
aa(lp90
I1
aI2
aI3
aI0
aa(lp91
I1
aI0
aI2
aI3
aa(lp92
I1
aI3
aI2
aI0
aa(lp93
I1
aI3
aI0
aI2
aa(lp94
I1
aI3
aI2
aI0
aa(lp95
I1
aI3
aI2
aI0
aa(lp96
I1
aI2
aI0
aI3
aa(lp97
I1
aI0
aI3
aI2
aa(lp98
I1
aI2
aI0
aI3
aa(lp99
I1
aI3
aI2
aI0
aa(lp100
I1
aI0
aI2
aI3
aa(lp101
I3
aI2
aI0
aI1
aa(lp102
I1
aI3
aI0
aI2
aa(lp103
I0
aI1
aI3
aI2
aa(lp104
I1
aI3
aI2
aI0
aa(lp105
I1
aI3
aI0
aI2
aa(lp106
I1
aI2
aI0
aI3
aa(lp107
I0
aI2
aI1
aI3
aa(lp108
I2
aI0
aI1
aI3
aa(lp109
I1
aI3
aI0
aI2
aa(lp110
I2
aI1
aI3
aI0
aa(lp111
I1
aI3
aI0
aI2
aa(lp112
I1
aI3
aI0
aI2
aa(lp113
I2
aI3
aI1
aI0
aa(lp114
I2
aI0
aI1
aI3
aa(lp115
I1
aI2
aI3
aI0
aa(lp116
I1
aI3
aI2
aI0
aa(lp117
I1
aI3
aI2
aI0
aa(lp118
I1
aI0
aI2
aI3
aa(lp119
I1
aI0
aI3
aI2
aa(lp120
I1
aI0
aI3
aI2
aa(lp121
I1
aI0
aI3
aI2
aa(lp122
I1
aI0
aI3
aI2
aa(lp123
I1
aI2
aI0
aI3
aa(lp124
I1
aI3
aI0
aI2
aa(lp125
I1
aI0
aI3
aI2
aa(lp126
I1
aI2
aI0
aI3
aa(lp127
I1
aI3
aI0
aI2
aa(lp128
I1
aI3
aI0
aI2
aa(lp129
I1
aI3
aI0
aI2
aa(lp130
I1
aI3
aI0
aI2
aa(lp131
I1
aI2
aI0
aI3
aa(lp132
I1
aI2
aI3
aI0
aa(lp133
I1
aI0
aI3
aI2
aa(lp134
I1
aI3
aI0
aI2
aa(lp135
I1
aI3
aI0
aI2
aa(lp136
I2
aI1
aI3
aI0
aa(lp137
I0
aI1
aI3
aI2
aa(lp138
I1
aI2
aI3
aI0
aa(lp139
I3
aI0
aI1
aI2
aa(lp140
I0
aI1
aI3
aI2
aa(lp141
I2
aI1
aI0
aI3
aa(lp142
I2
aI1
aI3
aI0
aa(lp143
I1
aI3
aI2
aI0
aa(lp144
I1
aI2
aI3
aI0
aa(lp145
I1
aI3
aI0
aI2
aa(lp146
I1
aI3
aI2
aI0
aa(lp147
I0
aI2
aI1
aI3
aa(lp148
I1
aI0
aI2
aI3
aa(lp149
I1
aI0
aI3
aI2
aa(lp150
I0
aI1
aI3
aI2
aa(lp151
I1
aI0
aI3
aI2
aa(lp152
I1
aI0
aI2
aI3
aa(lp153
I2
aI3
aI0
aI1
aa(lp154
I1
aI3
aI0
aI2
aa(lp155
I3
aI2
aI1
aI0
aa(lp156
I2
aI1
aI0
aI3
aa(lp157
I1
aI3
aI0
aI2
aa(lp158
I1
aI3
aI0
aI2
aa(lp159
I3
aI1
aI2
aI0
aa(lp160
I1
aI2
aI3
aI0
aa(lp161
I1
aI2
aI0
aI3
aa(lp162
I3
aI0
aI2
aI1
aa(lp163
I1
aI2
aI0
aI3
aa(lp164
I1
aI0
aI3
aI2
aa(lp165
I1
aI3
aI2
aI0
aa(lp166
I3
aI1
aI2
aI0
aa(lp167
I2
aI0
aI1
aI3
aa(lp168
I0
aI3
aI1
aI2
aa(lp169
I1
aI0
aI2
aI3
aa(lp170
I3
aI1
aI0
aI2
aa(lp171
I1
aI2
aI3
aI0
aa(lp172
I3
aI1
aI0
aI2
aa(lp173
I1
aI3
aI2
aI0
aa(lp174
I1
aI3
aI0
aI2
aa(lp175
I1
aI3
aI0
aI2
aa(lp176
I1
aI3
aI0
aI2
aa(lp177
I1
aI0
aI3
aI2
aa(lp178
I1
aI3
aI0
aI2
aa(lp179
I3
aI1
aI0
aI2
aa(lp180
I1
aI3
aI0
aI2
aa(lp181
I1
aI3
aI0
aI2
aa(lp182
I1
aI3
aI0
aI2
aa(lp183
I3
aI1
aI0
aI2
aa(lp184
I1
aI0
aI2
aI3
aa(lp185
I1
aI3
aI2
aI0
aa(lp186
I1
aI3
aI0
aI2
aa(lp187
I1
aI3
aI0
aI2
aa(lp188
I3
aI1
aI0
aI2
aa(lp189
I1
aI2
aI0
aI3
aa(lp190
I1
aI0
aI2
aI3
aa(lp191
I0
aI1
aI3
aI2
aa(lp192
I1
aI3
aI0
aI2
aa(lp193
I1
aI3
aI0
aI2
aasS'PCMC'
p194
g2
(g3
(I0
tp195
g5
tp196
Rp197
(I1
(I12
tp198
g12
I00
S'\xdex\x98p4\xc4\x03@\xa4\x1dMn\x8c\x1f\x93?\x01\x81\xca\xfets\xf4?\x0c\xf4VmJW\xda?M\xf8\xf2\xa1\xb1\xfe`?w\xbe4oz1\xd9?au\xaa\x9bb\xd6\xa0?\xdc\x91\xe9s\x172a?D\xdc\xd0!\x17\xa9U?\x8e\xdf*=Z9\xf0?]\xe6\xc6\xf1\xafF\xf9?\xf50e\xdd\xbc\xc5Q?'
p199
tp200
bsS'PL'
p201
g2
(g3
(I0
tp202
g5
tp203
Rp204
(I1
(I4
tp205
g12
I00
S'z<\xf8d\xe9y\xc0?\x83U\xdc\xb4@\xc1\xe3?w\x07<\x08\xb43\xb8?\xbeix\xc39g\xc4?'
p206
tp207
bsS'Mallows-greedy-RE'
p208
((lp209
I2
aI0
aI3
aI1
ag34
(g12
S'\x8f\x8f\x1b\xb1\xd0\x15\xf4?'
p210
tp211
Rp212
tp213
s.