(dp0
S'PCMC-RE'
p1
cnumpy.core.multiarray
_reconstruct
p2
(cnumpy
ndarray
p3
(I0
tp4
S'b'
p5
tp6
Rp7
(I1
(I6
tp8
cnumpy
dtype
p9
(S'f8'
p10
I0
I1
tp11
Rp12
(I3
S'<'
p13
NNNI-1
I-1
I0
tp14
bI00
S'\xc22:-\x12o\x80@NLJ\x06\x19\xf8\xb6?\xd2>\xfa\x8c+Gz@\xbeX\xea\x9bf\xf4\xb2?\x04\x94\x17b\xd6\x1b\xb1?V\x83\xec\xcdS\x02\xb1?'
p15
tp16
bsS'MMNL-RE'
p17
g2
(g3
(I0
tp18
g5
tp19
Rp20
(I1
(I4
tp21
g12
I00
S'\x00\x00\x00\x00\x00\x00\xf0?2gl\x8ef\xbe\xe3?\xdc\xe4x6\xa8\x86\xe8?\xe5GX\x18\x98!\xeb?'
p22
tp23
bsS'PL-RE'
p24
g2
(g3
(I0
tp25
g5
tp26
Rp27
(I1
(I3
tp28
g12
I00
S'S\x98\xa4\xbc}\xb2\xd1?\\\xe5N9\xd9\xfb\xd5?Q\x82\x0c\n\xa9Q\xd8?'
p29
tp30
bsS'N'
p31
I3
sS'Mallows-greedy'
p32
((lp33
I0
aI1
aI2
acnumpy.core.multiarray
scalar
p34
(g12
S'\x1c\xbf\xa9\xeb\xb5\xe0\xe9?'
p35
tp36
Rp37
tp38
sS'MMNL'
p39
g2
(g3
(I0
tp40
g5
tp41
Rp42
(I1
(I4
tp43
g12
I00
S'\x00\x00\x00\x00\x00\x00\xf0?\xaf\xbb]r\xd2\xf7\xf3?[\xfb~\xadd\xd2\xef?D\xf8?\xcc\xd0E\xed?'
p44
tp45
bsS'test-lists'
p46
(lp47
(lp48
I0
aI2
aI1
aa(lp49
I2
aI0
aI1
aa(lp50
I1
aI0
aI2
aa(lp51
I1
aI0
aI2
aa(lp52
I1
aI2
aI0
aa(lp53
I0
aI1
aI2
aa(lp54
I1
aI0
aI2
aa(lp55
I2
aI0
aI1
aa(lp56
I2
aI0
aI1
aa(lp57
I2
aI1
aI0
aa(lp58
I0
aI2
aI1
aa(lp59
I1
aI2
aI0
aa(lp60
I1
aI0
aI2
aa(lp61
I2
aI0
aI1
aa(lp62
I0
aI1
aI2
aa(lp63
I1
aI2
aI0
aa(lp64
I0
aI2
aI1
aa(lp65
I0
aI1
aI2
aa(lp66
I2
aI0
aI1
aa(lp67
I2
aI0
aI1
aa(lp68
I1
aI2
aI0
aa(lp69
I2
aI1
aI0
aa(lp70
I1
aI0
aI2
aa(lp71
I1
aI0
aI2
aa(lp72
I0
aI2
aI1
aa(lp73
I0
aI2
aI1
aa(lp74
I0
aI2
aI1
aa(lp75
I2
aI0
aI1
aa(lp76
I0
aI2
aI1
aa(lp77
I2
aI0
aI1
aa(lp78
I0
aI1
aI2
aa(lp79
I1
aI2
aI0
aa(lp80
I1
aI0
aI2
aa(lp81
I0
aI2
aI1
aa(lp82
I2
aI1
aI0
aa(lp83
I2
aI0
aI1
aa(lp84
I2
aI1
aI0
aa(lp85
I0
aI1
aI2
aa(lp86
I2
aI1
aI0
aa(lp87
I0
aI2
aI1
aa(lp88
I0
aI2
aI1
aa(lp89
I0
aI2
aI1
aa(lp90
I0
aI2
aI1
aa(lp91
I0
aI2
aI1
aa(lp92
I2
aI1
aI0
aa(lp93
I2
aI0
aI1
aa(lp94
I2
aI1
aI0
aa(lp95
I2
aI1
aI0
aa(lp96
I0
aI2
aI1
aa(lp97
I0
aI2
aI1
aa(lp98
I0
aI1
aI2
aa(lp99
I2
aI0
aI1
aa(lp100
I0
aI2
aI1
aa(lp101
I1
aI0
aI2
aa(lp102
I1
aI0
aI2
aa(lp103
I0
aI2
aI1
aa(lp104
I0
aI1
aI2
aa(lp105
I0
aI2
aI1
aa(lp106
I2
aI1
aI0
aa(lp107
I0
aI1
aI2
aa(lp108
I1
aI2
aI0
aa(lp109
I0
aI2
aI1
aa(lp110
I2
aI1
aI0
aa(lp111
I2
aI0
aI1
aa(lp112
I1
aI0
aI2
aa(lp113
I2
aI0
aI1
aa(lp114
I1
aI0
aI2
aa(lp115
I0
aI1
aI2
aa(lp116
I0
aI2
aI1
aa(lp117
I2
aI1
aI0
aa(lp118
I1
aI2
aI0
aa(lp119
I1
aI0
aI2
aa(lp120
I1
aI2
aI0
aa(lp121
I0
aI2
aI1
aa(lp122
I1
aI0
aI2
aa(lp123
I1
aI2
aI0
aa(lp124
I0
aI2
aI1
aa(lp125
I0
aI2
aI1
aa(lp126
I0
aI2
aI1
aa(lp127
I2
aI1
aI0
aa(lp128
I1
aI2
aI0
aa(lp129
I1
aI2
aI0
aa(lp130
I1
aI0
aI2
aasS'PCMC'
p131
g2
(g3
(I0
tp132
g5
tp133
Rp134
(I1
(I6
tp135
g12
I00
S'\xf0\xa6\x98\xab\x8dz\xb1?\xfc\xa9\xf1\xd2MbP?\x1a\xb4\xfc\x05\xa6Y\xb6?r\x80\x0b\x90\xaf\x18sA\xaf\xd9x\xfc\x9e\xcdS?\xc5\xc72&%\x8euA'
p136
tp137
bsS'PL'
p138
g2
(g3
(I0
tp139
g5
tp140
Rp141
(I1
(I3
tp142
g12
I00
S'\x8eY:\x85aL\xd9?\x0f\xdaA%\x81(\xd4?b\xcc\x83U\x1d\x8b\xd2?'
p143
tp144
bsS'Mallows-greedy-RE'
p145
((lp146
I2
aI1
aI0
ag34
(g12
S'\x1c\xbf\xa9\xeb\xb5\xe0\xe9?'
p147
tp148
Rp149
tp150
s.