(dp0
S'PCMC-RE'
p1
cnumpy.core.multiarray
_reconstruct
p2
(cnumpy
ndarray
p3
(I0
tp4
S'b'
p5
tp6
Rp7
(I1
(I12
tp8
cnumpy
dtype
p9
(S'f8'
p10
I0
I1
tp11
Rp12
(I3
S'<'
p13
NNNI-1
I-1
I0
tp14
bI00
S'\xc7\xc6\x08\xe9La\xf0?\x8e\xc9\xc4\x00)\x03\xe1?>g\x86f\x07\x13v?\x88\x95\xff\xcb\x867\xea?\xbbu?)N\xb4\xed?\x99\xe5\xa8\xda{Gu?o\x9a\x9et\xb3c\xe8?\xe9\xe8\xdc\xe2_\xa1\xfa?d\n\xe6j\xa5G`?\xfe\xect\xa1\xefg\x8e?\xf0\xa6\xcf\xe5\xd4a{?\xd4D{]>\xee\x80?'
p15
tp16
bsS'MMNL-RE'
p17
g2
(g3
(I0
tp18
g5
tp19
Rp20
(I1
(I10
tp21
g12
I00
S'3]Z\xcc\xce\xbb\xdb?g\xd1\xd2\x99\x18"\xe2?\xf5\xac\x9c\xb1\xf6V)?s\x92\xfaEtQ\xf9?\xc1\xffm\x9b\xa5n\xfc?>\x12`\x14r\x8bc?2@\xc8\xf7\xd8\xf5&?\x05\xc0\x06\xb1\xe09\xf1?\x11\xe7\xb0\xab\x06\x0e\xe1>\x93\xdbw\xf7\x0f&\xe8?'
p22
tp23
bsS'PL-RE'
p24
g2
(g3
(I0
tp25
g5
tp26
Rp27
(I1
(I4
tp28
g12
I00
S'<M\xfc\xe1\x9c\x95\xd3?\x88\x83\x18\xfac\xf4\xd5?\xb2\xab\xd2\x1c\x8a\xf2\xcd?\x96e\x07V\xe8\xf2\xbd?'
p29
tp30
bsS'N'
p31
I4
sS'Mallows-greedy'
p32
((lp33
I3
aI2
aI0
aI1
acnumpy.core.multiarray
scalar
p34
(g12
S'\x89%d<\xcb\x10\xf1?'
p35
tp36
Rp37
tp38
sS'MMNL'
p39
g2
(g3
(I0
tp40
g5
tp41
Rp42
(I1
(I10
tp43
g12
I00
S'\xb5\xb70u\x83\xa2\xdf?&\xa4gE\xbe.\xe0?\xf8 r\x7f*\xa6)?\x1d1\xcfb;\xef\x00@\xf9\n\xa7\xd1\xbb\xf9\xe8>\x93\x15\x15\x11\xe2S\x03@N\xfen\x95\xa9\x06=?\x86\xfb\x18\x8ea\xb5\x05@;\xb8\x07e\xd4\xf2\xfd?\xef@:\x8d"=\x9a?'
p44
tp45
bsS'test-lists'
p46
(lp47
(lp48
I3
aI1
aI2
aI0
aa(lp49
I3
aI2
aI0
aI1
aa(lp50
I0
aI3
aI2
aI1
aa(lp51
I1
aI3
aI2
aI0
aa(lp52
I2
aI3
aI1
aI0
aa(lp53
I3
aI2
aI1
aI0
aa(lp54
I3
aI0
aI2
aI1
aa(lp55
I1
aI3
aI2
aI0
aa(lp56
I3
aI2
aI0
aI1
aa(lp57
I3
aI2
aI1
aI0
aa(lp58
I2
aI3
aI1
aI0
aa(lp59
I2
aI3
aI0
aI1
aa(lp60
I1
aI3
aI0
aI2
aa(lp61
I2
aI3
aI0
aI1
aa(lp62
I2
aI0
aI3
aI1
aa(lp63
I2
aI3
aI0
aI1
aa(lp64
I2
aI0
aI3
aI1
aa(lp65
I2
aI1
aI3
aI0
aa(lp66
I3
aI0
aI2
aI1
aa(lp67
I3
aI2
aI0
aI1
aa(lp68
I3
aI2
aI0
aI1
aa(lp69
I2
aI3
aI0
aI1
aa(lp70
I3
aI2
aI0
aI1
aa(lp71
I3
aI0
aI2
aI1
aa(lp72
I2
aI3
aI0
aI1
aa(lp73
I2
aI3
aI0
aI1
aa(lp74
I3
aI2
aI0
aI1
aa(lp75
I2
aI0
aI3
aI1
aa(lp76
I1
aI2
aI3
aI0
aa(lp77
I2
aI0
aI3
aI1
aa(lp78
I2
aI0
aI3
aI1
aa(lp79
I3
aI2
aI0
aI1
aa(lp80
I3
aI2
aI0
aI1
aa(lp81
I3
aI2
aI0
aI1
aa(lp82
I3
aI2
aI1
aI0
aa(lp83
I3
aI2
aI0
aI1
aa(lp84
I3
aI2
aI1
aI0
aa(lp85
I3
aI0
aI1
aI2
aa(lp86
I3
aI2
aI0
aI1
aa(lp87
I3
aI0
aI1
aI2
aa(lp88
I3
aI2
aI1
aI0
aa(lp89
I3
aI2
aI0
aI1
aa(lp90
I3
aI1
aI0
aI2
aa(lp91
I3
aI2
aI0
aI1
aa(lp92
I1
aI3
aI2
aI0
aa(lp93
I3
aI0
aI2
aI1
aa(lp94
I1
aI3
aI2
aI0
aa(lp95
I3
aI2
aI0
aI1
aa(lp96
I2
aI3
aI0
aI1
aa(lp97
I0
aI1
aI2
aI3
aa(lp98
I3
aI0
aI2
aI1
aa(lp99
I3
aI2
aI0
aI1
aa(lp100
I2
aI0
aI3
aI1
aa(lp101
I3
aI0
aI2
aI1
aa(lp102
I2
aI3
aI0
aI1
aa(lp103
I3
aI2
aI0
aI1
aa(lp104
I0
aI3
aI1
aI2
aa(lp105
I2
aI1
aI3
aI0
aa(lp106
I3
aI2
aI1
aI0
aa(lp107
I1
aI2
aI0
aI3
aa(lp108
I3
aI0
aI2
aI1
aa(lp109
I3
aI0
aI1
aI2
aa(lp110
I3
aI2
aI0
aI1
aa(lp111
I3
aI2
aI1
aI0
aa(lp112
I3
aI2
aI0
aI1
aa(lp113
I2
aI3
aI0
aI1
aa(lp114
I3
aI2
aI1
aI0
aa(lp115
I2
aI1
aI3
aI0
aa(lp116
I0
aI3
aI2
aI1
aa(lp117
I3
aI2
aI0
aI1
aa(lp118
I2
aI1
aI3
aI0
aa(lp119
I1
aI3
aI0
aI2
aa(lp120
I3
aI2
aI0
aI1
aa(lp121
I3
aI1
aI0
aI2
aa(lp122
I1
aI3
aI2
aI0
aa(lp123
I3
aI1
aI2
aI0
aa(lp124
I3
aI2
aI1
aI0
aa(lp125
I2
aI3
aI0
aI1
aa(lp126
I3
aI2
aI0
aI1
aa(lp127
I1
aI0
aI3
aI2
aa(lp128
I3
aI2
aI0
aI1
aa(lp129
I3
aI2
aI0
aI1
aa(lp130
I3
aI2
aI0
aI1
aa(lp131
I2
aI0
aI1
aI3
aa(lp132
I1
aI2
aI0
aI3
aa(lp133
I3
aI1
aI2
aI0
aa(lp134
I3
aI1
aI0
aI2
aa(lp135
I2
aI0
aI3
aI1
aa(lp136
I3
aI2
aI0
aI1
aa(lp137
I2
aI3
aI0
aI1
aa(lp138
I3
aI1
aI0
aI2
aa(lp139
I2
aI1
aI3
aI0
aa(lp140
I2
aI3
aI0
aI1
aa(lp141
I2
aI0
aI3
aI1
aa(lp142
I3
aI0
aI1
aI2
aa(lp143
I2
aI1
aI3
aI0
aa(lp144
I3
aI1
aI2
aI0
aa(lp145
I0
aI3
aI1
aI2
aa(lp146
I3
aI2
aI0
aI1
aa(lp147
I0
aI3
aI2
aI1
aa(lp148
I0
aI2
aI1
aI3
aa(lp149
I2
aI3
aI1
aI0
aa(lp150
I3
aI0
aI1
aI2
aasS'PCMC'
p151
g2
(g3
(I0
tp152
g5
tp153
Rp154
(I1
(I12
tp155
g12
I00
S'[\x19\xe1\xed\x9f\x8e\x92?\xde\xd8\xad\x0c\xb3s\xd8?<\xf9i\xe2\xda3\xe2?\xbd\x10\xff\x13\x113\xa1?\xdf-$\xf2n\x15t?\xf2eiO\xf9#\xe6?\x1a\xc3\xc7\xdc\x84\xd7\xcb?/\xee\xb6\x87X;Q?+\x85\xb9)\x18\x85\x0c@\xc1K\xfan\xee\xd8\xd1?\x7f\xd9t\xa8\xd6\xfc\xd4?/\xc4b\xeb7\xfb\xfa?'
p156
tp157
bsS'PL'
p158
g2
(g3
(I0
tp159
g5
tp160
Rp161
(I1
(I4
tp162
g12
I00
S'\xd7\xbaQ\xbe\xec\xa0\xc7?\xbb\xde\r\x8e\x8a\x97\xc0?>\xdbSF\x03\xd9\xd0?\xf8W|\x13\xc1\n\xdb?'
p163
tp164
bsS'Mallows-greedy-RE'
p165
((lp166
I1
aI0
aI2
aI3
ag34
(g12
S'\x89%d<\xcb\x10\xf1?'
p167
tp168
Rp169
tp170
s.