(dp0
S'PCMC-RE'
p1
cnumpy.core.multiarray
_reconstruct
p2
(cnumpy
ndarray
p3
(I0
tp4
S'b'
p5
tp6
Rp7
(I1
(I12
tp8
cnumpy
dtype
p9
(S'f8'
p10
I0
I1
tp11
Rp12
(I3
S'<'
p13
NNNI-1
I-1
I0
tp14
bI00
S'\xc0\xff0\xe5L\xea\x01@\xbb\xfe\xf4\x19\xf4\x88\xc3?=\xa28e\n\xd8\xf6?>\xc9\xe5z\x8e\xb5#@\xc0\xe7T\xc9I*\x9e?\x91\xf5\xf2]\x0e\xcf\x9b?\xceJ\xcaefz\xde?#\xe68\x8a\xb9w\xa6?\xfc\xa9\xf1\xd2MbP?\xe41(\xa6\x077\x04@z\x96u\x10\xe4\xb7\xac?\x1c\xcb\xa8~\xb9Fe?'
p15
tp16
bsS'MMNL-RE'
p17
g2
(g3
(I0
tp18
g5
tp19
Rp20
(I1
(I10
tp21
g12
I00
S"6u\x00!\xefU\xd1?e\xc5\x7fo\x08U\xe7?n\xaf\xde@\x0f\x80\x1e?er\x8bj\x16\xcb\x02@n\x0b\xc7\xd2d)\t?\xde\x9f\xdf'\x14}\xe4?F\x0c\x00\xa10\x80\x05?\xd0\xcd\xa1\xe4L\xac\xe2?\x1e-w\x11\xb9\xeb\x01@\x95\xd6&\xe8\x0b.\x11>"
p22
tp23
bsS'PL-RE'
p24
g2
(g3
(I0
tp25
g5
tp26
Rp27
(I1
(I4
tp28
g12
I00
S'\xf2\xd2\xf5`\rN\xdf?C\xc1\xf4\x1f\xae&\xc7?]\r\x85\xba5\x91\xc5?\x7f\x8b\x9ac\x01\xac\xc4?'
p29
tp30
bsS'N'
p31
I4
sS'Mallows-greedy'
p32
((lp33
I1
aI2
aI3
aI0
acnumpy.core.multiarray
scalar
p34
(g12
S')\xca\xf8\x07"\xd7\xee?'
p35
tp36
Rp37
tp38
sS'MMNL'
p39
g2
(g3
(I0
tp40
g5
tp41
Rp42
(I1
(I10
tp43
g12
I00
S']\xdd(e\xd2+\xe5?EE\xae5[\xa8\xd5?Up\xad\xdb\xd1\xec\xdb?f\x16k\xca\xad\xcf\x05?t\xd8\xa6\x97\xa5\xc3\xfa?\x1b\x83Bv\xb7\xe1 ?k\xe6\x87\x1e\xee\xe7\xfb?\x7fO5L\xb8\x9d\x0c?5u\x1e\x14s<{?~t$Gl\xe1\x06@'
p44
tp45
bsS'test-lists'
p46
(lp47
(lp48
I1
aI2
aI0
aI3
aa(lp49
I0
aI1
aI2
aI3
aa(lp50
I3
aI2
aI1
aI0
aa(lp51
I2
aI1
aI0
aI3
aa(lp52
I3
aI1
aI2
aI0
aa(lp53
I1
aI3
aI2
aI0
aa(lp54
I3
aI1
aI0
aI2
aa(lp55
I2
aI0
aI1
aI3
aa(lp56
I3
aI1
aI2
aI0
aa(lp57
I1
aI2
aI0
aI3
aa(lp58
I3
aI2
aI1
aI0
aa(lp59
I3
aI1
aI0
aI2
aa(lp60
I1
aI0
aI3
aI2
aa(lp61
I2
aI1
aI0
aI3
aa(lp62
I2
aI1
aI0
aI3
aa(lp63
I3
aI2
aI1
aI0
aa(lp64
I2
aI1
aI0
aI3
aa(lp65
I3
aI2
aI1
aI0
aa(lp66
I2
aI1
aI3
aI0
aa(lp67
I1
aI2
aI0
aI3
aa(lp68
I2
aI0
aI1
aI3
aa(lp69
I2
aI1
aI0
aI3
aa(lp70
I1
aI2
aI3
aI0
aa(lp71
I3
aI1
aI2
aI0
aa(lp72
I1
aI0
aI2
aI3
aa(lp73
I2
aI3
aI1
aI0
aa(lp74
I2
aI0
aI1
aI3
aa(lp75
I2
aI0
aI1
aI3
aa(lp76
I2
aI0
aI1
aI3
aa(lp77
I1
aI3
aI0
aI2
aa(lp78
I1
aI2
aI0
aI3
aa(lp79
I2
aI3
aI1
aI0
aa(lp80
I3
aI0
aI1
aI2
aa(lp81
I1
aI2
aI0
aI3
aa(lp82
I1
aI2
aI0
aI3
aa(lp83
I1
aI0
aI2
aI3
aa(lp84
I3
aI1
aI2
aI0
aa(lp85
I3
aI1
aI2
aI0
aa(lp86
I3
aI1
aI2
aI0
aa(lp87
I1
aI2
aI0
aI3
aa(lp88
I1
aI2
aI3
aI0
aa(lp89
I2
aI1
aI0
aI3
aa(lp90
I3
aI2
aI0
aI1
aa(lp91
I3
aI0
aI1
aI2
aa(lp92
I2
aI1
aI3
aI0
aa(lp93
I1
aI2
aI0
aI3
aa(lp94
I3
aI2
aI1
aI0
aa(lp95
I2
aI1
aI0
aI3
aa(lp96
I2
aI1
aI0
aI3
aa(lp97
I1
aI2
aI0
aI3
aa(lp98
I3
aI1
aI2
aI0
aa(lp99
I1
aI0
aI2
aI3
aa(lp100
I0
aI1
aI3
aI2
aa(lp101
I2
aI1
aI0
aI3
aa(lp102
I1
aI2
aI3
aI0
aa(lp103
I3
aI2
aI1
aI0
aa(lp104
I1
aI2
aI3
aI0
aa(lp105
I1
aI0
aI2
aI3
aa(lp106
I1
aI2
aI0
aI3
aa(lp107
I3
aI2
aI1
aI0
aa(lp108
I1
aI2
aI3
aI0
aa(lp109
I3
aI0
aI2
aI1
aa(lp110
I3
aI1
aI2
aI0
aa(lp111
I3
aI1
aI2
aI0
aa(lp112
I2
aI1
aI3
aI0
aa(lp113
I1
aI0
aI3
aI2
aa(lp114
I3
aI1
aI0
aI2
aa(lp115
I3
aI2
aI1
aI0
aa(lp116
I1
aI2
aI0
aI3
aa(lp117
I1
aI2
aI0
aI3
aa(lp118
I3
aI0
aI1
aI2
aa(lp119
I2
aI1
aI0
aI3
aa(lp120
I2
aI1
aI3
aI0
aa(lp121
I3
aI1
aI2
aI0
aa(lp122
I2
aI1
aI0
aI3
aa(lp123
I2
aI3
aI1
aI0
aa(lp124
I2
aI1
aI0
aI3
aa(lp125
I1
aI2
aI3
aI0
aa(lp126
I1
aI0
aI2
aI3
aa(lp127
I3
aI2
aI1
aI0
aa(lp128
I3
aI1
aI0
aI2
aa(lp129
I3
aI1
aI2
aI0
aa(lp130
I3
aI2
aI1
aI0
aa(lp131
I2
aI1
aI3
aI0
aa(lp132
I1
aI3
aI2
aI0
aa(lp133
I3
aI1
aI2
aI0
aa(lp134
I3
aI2
aI1
aI0
aa(lp135
I1
aI3
aI2
aI0
aa(lp136
I0
aI1
aI3
aI2
aa(lp137
I1
aI2
aI0
aI3
aa(lp138
I1
aI2
aI3
aI0
aa(lp139
I3
aI2
aI1
aI0
aa(lp140
I3
aI2
aI1
aI0
aa(lp141
I2
aI1
aI0
aI3
aa(lp142
I1
aI3
aI2
aI0
aa(lp143
I1
aI2
aI3
aI0
aa(lp144
I2
aI0
aI1
aI3
aa(lp145
I1
aI2
aI3
aI0
aa(lp146
I3
aI1
aI0
aI2
aa(lp147
I3
aI1
aI2
aI0
aa(lp148
I2
aI1
aI0
aI3
aa(lp149
I2
aI1
aI0
aI3
aa(lp150
I3
aI1
aI2
aI0
aa(lp151
I3
aI0
aI2
aI1
aa(lp152
I2
aI1
aI3
aI0
aa(lp153
I2
aI3
aI1
aI0
aasS'PCMC'
p154
g2
(g3
(I0
tp155
g5
tp156
Rp157
(I1
(I12
tp158
g12
I00
S'\x18\xd2\xa8 Ip(A6^\xb4\xcee\xc3\x9d?\x9aT\x17\x95\x9b\x1fa?\xee\x91\xb1\x0b\x1b\xca\x05A\xfc\xb5\xb51\xb6\xb1!A\xc6\xb5\xe6cuI\x16A\xfaw\xb0\xf7\x7fu\x8e?\xba\xce\xb8\xc9\x02\xb5\x1dA\xfc\xfc\xef\xea|\x08\x84?C\xaa(\xb3\x8c\x9fk?bB\xc6X@\xd4\x18AA\xfcF\xc3\xe8v\x9a?'
p159
tp160
bsS'PL'
p161
g2
(g3
(I0
tp162
g5
tp163
Rp164
(I1
(I4
tp165
g12
I00
S'\x9e\x06\x89G7@\xbf?\x98\xc4{\xa4i\x1a\xd5?\xb2\x12\x8aF\xac?\xd4?\x1b\xce/\x86\xb8\xab\xcd?'
p166
tp167
bsS'Mallows-greedy-RE'
p168
((lp169
I0
aI1
aI3
aI2
ag34
(g12
S'\x81\xdbEE\x9dM\xef?'
p170
tp171
Rp172
tp173
s.