(dp0
S'PCMC-RE'
p1
cnumpy.core.multiarray
_reconstruct
p2
(cnumpy
ndarray
p3
(I0
tp4
S'b'
p5
tp6
Rp7
(I1
(I12
tp8
cnumpy
dtype
p9
(S'f8'
p10
I0
I1
tp11
Rp12
(I3
S'<'
p13
NNNI-1
I-1
I0
tp14
bI00
S'\xc8}L)\xfb&\xc3?\xae\xe8<G\xc9\x96a?&\xf5\x87-e\xc2\xd2?8b>\xea\xb8I\xf5?K\xdf[\x11\xffC\xe2?yi\x18\x12\x81\xf7\xe9?M\x8c\xa6\xb3\xa0\x9ey?3\x0c\xa3v\xed\xd7\xfe?\xd8\x95\xfe\xed\xad\xe6e?\x02\xd3\xe0\x07\x1aC\xe9?\xa8\xd2\x9c\xbf\xbe\xbc\xd2?\xfc\xa9\xf1\xd2MbP?'
p15
tp16
bsS'MMNL-RE'
p17
g2
(g3
(I0
tp18
g5
tp19
Rp20
(I1
(I10
tp21
g12
I00
S'\xeb\xf2\x17\xe7u$\xc5?E\x03:\x86\xe2\xb6\xea?\x00\x00\x00\xe8\x0b.\x11>\x1e\x02\x87\xa3\xf7\x94\x03@\xa8&\x0b\xbc\x8a\xe4\x83?\x9a\xafX;\x97\xaa\xc9?\x0c#a\x0f\x9f\x85t?)\xcb\xde\xd6`\x84\xb0?.\x05\x88\xa2\xb4\xe0(@\x19\xaeI\x10+\x10\xd4?'
p22
tp23
bsS'PL-RE'
p24
g2
(g3
(I0
tp25
g5
tp26
Rp27
(I1
(I4
tp28
g12
I00
S'\xd4\xdcZL\xaf\xc5\xe4?\x07\x04}W\xc7!\xb7?\xea\t\x8f\x04\x11\xcb\xa0?/H\xb2\xe1\x9a%\xcd?'
p29
tp30
bsS'N'
p31
I4
sS'Mallows-greedy'
p32
((lp33
I2
aI1
aI3
aI0
acnumpy.core.multiarray
scalar
p34
(g12
S'e\xd9\xcc?s5\xfc?'
p35
tp36
Rp37
tp38
sS'MMNL'
p39
g2
(g3
(I0
tp40
g5
tp41
Rp42
(I1
(I10
tp43
g12
I00
S'\xe0\xd6\xaf\xed\xf3\r\xdd?\x91\x14(\t\x06y\xe1?O\n\xf7\xd1\x8d>\xf6>?k\x0fm\xa1\x84\xc6?\x93\xaa\x17\xdc=\xce\xe4?\xea\x9b\x84"\xa0{\xe1?\xfdJ\xf8\x0cUJ\xfe?q\xce\xd0\x9djJ\xff?\x04\xa7\x14\x84h\x88\x03?={\x88\xa52\xd0\xe1?'
p44
tp45
bsS'test-lists'
p46
(lp47
(lp48
I2
aI1
aI0
aI3
aa(lp49
I2
aI1
aI3
aI0
aa(lp50
I2
aI3
aI1
aI0
aa(lp51
I2
aI1
aI3
aI0
aa(lp52
I2
aI3
aI1
aI0
aa(lp53
I2
aI1
aI0
aI3
aa(lp54
I2
aI1
aI0
aI3
aa(lp55
I2
aI0
aI1
aI3
aa(lp56
I2
aI3
aI1
aI0
aa(lp57
I2
aI1
aI3
aI0
aa(lp58
I1
aI2
aI3
aI0
aa(lp59
I2
aI1
aI0
aI3
aa(lp60
I2
aI1
aI3
aI0
aa(lp61
I2
aI1
aI3
aI0
aa(lp62
I2
aI1
aI3
aI0
aa(lp63
I2
aI1
aI3
aI0
aa(lp64
I2
aI3
aI1
aI0
aa(lp65
I1
aI2
aI3
aI0
aa(lp66
I2
aI3
aI1
aI0
aa(lp67
I2
aI3
aI1
aI0
aa(lp68
I2
aI0
aI1
aI3
aa(lp69
I2
aI1
aI3
aI0
aa(lp70
I1
aI2
aI0
aI3
aa(lp71
I1
aI2
aI3
aI0
aa(lp72
I2
aI1
aI3
aI0
aa(lp73
I3
aI2
aI1
aI0
aa(lp74
I2
aI1
aI3
aI0
aa(lp75
I2
aI1
aI3
aI0
aa(lp76
I3
aI0
aI2
aI1
aa(lp77
I2
aI1
aI0
aI3
aa(lp78
I2
aI1
aI3
aI0
aa(lp79
I2
aI0
aI1
aI3
aa(lp80
I2
aI1
aI3
aI0
aa(lp81
I2
aI1
aI3
aI0
aa(lp82
I2
aI3
aI1
aI0
aa(lp83
I2
aI1
aI0
aI3
aa(lp84
I2
aI1
aI0
aI3
aa(lp85
I2
aI1
aI3
aI0
aa(lp86
I1
aI2
aI0
aI3
aa(lp87
I2
aI1
aI3
aI0
aa(lp88
I2
aI1
aI0
aI3
aa(lp89
I1
aI2
aI3
aI0
aa(lp90
I1
aI2
aI3
aI0
aa(lp91
I2
aI1
aI0
aI3
aa(lp92
I2
aI3
aI1
aI0
aa(lp93
I1
aI2
aI0
aI3
aa(lp94
I2
aI3
aI1
aI0
aa(lp95
I3
aI2
aI1
aI0
aa(lp96
I2
aI3
aI1
aI0
aa(lp97
I1
aI2
aI3
aI0
aa(lp98
I2
aI1
aI3
aI0
aa(lp99
I2
aI1
aI0
aI3
aa(lp100
I2
aI1
aI0
aI3
aa(lp101
I2
aI3
aI0
aI1
aa(lp102
I2
aI3
aI1
aI0
aa(lp103
I2
aI1
aI3
aI0
aa(lp104
I2
aI1
aI3
aI0
aa(lp105
I2
aI1
aI3
aI0
aa(lp106
I2
aI3
aI0
aI1
aa(lp107
I2
aI0
aI1
aI3
aa(lp108
I2
aI1
aI0
aI3
aa(lp109
I1
aI2
aI0
aI3
aa(lp110
I2
aI1
aI3
aI0
aa(lp111
I3
aI2
aI1
aI0
aa(lp112
I2
aI1
aI3
aI0
aa(lp113
I3
aI2
aI0
aI1
aa(lp114
I2
aI1
aI3
aI0
aa(lp115
I3
aI1
aI2
aI0
aa(lp116
I2
aI1
aI3
aI0
aa(lp117
I3
aI2
aI1
aI0
aa(lp118
I3
aI1
aI2
aI0
aa(lp119
I2
aI1
aI3
aI0
aa(lp120
I1
aI2
aI3
aI0
aa(lp121
I1
aI2
aI3
aI0
aa(lp122
I3
aI2
aI1
aI0
aa(lp123
I2
aI1
aI3
aI0
aa(lp124
I2
aI1
aI3
aI0
aa(lp125
I2
aI3
aI0
aI1
aa(lp126
I2
aI1
aI3
aI0
aa(lp127
I2
aI1
aI0
aI3
aa(lp128
I2
aI1
aI3
aI0
aa(lp129
I2
aI1
aI3
aI0
aa(lp130
I0
aI1
aI3
aI2
aa(lp131
I2
aI1
aI3
aI0
aa(lp132
I2
aI1
aI0
aI3
aa(lp133
I0
aI3
aI1
aI2
aa(lp134
I2
aI1
aI3
aI0
aa(lp135
I2
aI1
aI3
aI0
aa(lp136
I1
aI3
aI2
aI0
aa(lp137
I2
aI1
aI3
aI0
aa(lp138
I3
aI2
aI1
aI0
aa(lp139
I2
aI1
aI0
aI3
aa(lp140
I2
aI3
aI1
aI0
aa(lp141
I2
aI1
aI0
aI3
aa(lp142
I2
aI3
aI1
aI0
aa(lp143
I3
aI2
aI1
aI0
aa(lp144
I2
aI1
aI3
aI0
aa(lp145
I2
aI3
aI1
aI0
aa(lp146
I2
aI1
aI3
aI0
aa(lp147
I2
aI1
aI3
aI0
aa(lp148
I2
aI1
aI3
aI0
aa(lp149
I2
aI1
aI3
aI0
aa(lp150
I2
aI3
aI1
aI0
aa(lp151
I2
aI1
aI0
aI3
aa(lp152
I2
aI3
aI1
aI0
aa(lp153
I3
aI2
aI1
aI0
aa(lp154
I2
aI1
aI3
aI0
aa(lp155
I2
aI1
aI3
aI0
aa(lp156
I2
aI1
aI3
aI0
aa(lp157
I3
aI2
aI1
aI0
aa(lp158
I2
aI3
aI1
aI0
aa(lp159
I2
aI1
aI3
aI0
aa(lp160
I2
aI0
aI1
aI3
aa(lp161
I2
aI1
aI3
aI0
aa(lp162
I1
aI2
aI3
aI0
aa(lp163
I2
aI3
aI1
aI0
aa(lp164
I2
aI1
aI3
aI0
aa(lp165
I2
aI1
aI0
aI3
aa(lp166
I2
aI1
aI3
aI0
aa(lp167
I1
aI2
aI3
aI0
aa(lp168
I2
aI3
aI0
aI1
aa(lp169
I2
aI3
aI1
aI0
aa(lp170
I2
aI3
aI1
aI0
aa(lp171
I2
aI1
aI3
aI0
aa(lp172
I1
aI2
aI3
aI0
aa(lp173
I2
aI1
aI3
aI0
aa(lp174
I0
aI2
aI3
aI1
aa(lp175
I2
aI1
aI0
aI3
aasS'PCMC'
p176
g2
(g3
(I0
tp177
g5
tp178
Rp179
(I1
(I12
tp180
g12
I00
S"\xdf0?\xae\xc2\xf1\x19@\xcf\xb0VT\xb4\x82\xa0?v-\xbd\xd6\xf4\xb8\xd6?=!\x8a6BA\xe5?_9\x0e\x07:\x7f\xa4?\xe5\xc0\xfa\x88\xde\xc4\xb9?u5J\xf9%W\x8a?\xfc\xa9\xf1\xd2MbP?\xf8\xf6g\x13'4\xc5?\xf9\xe2\xd0\x94O\xfe\xc2?$}\xba\xba\xf0\xab\xcd?\xa6,w\xe7\xe9\x9f\xf6?"
p181
tp182
bsS'PL'
p183
g2
(g3
(I0
tp184
g5
tp185
Rp186
(I1
(I4
tp187
g12
I00
S'=\xfcX\xd2\xbe\xf7\x9e?\xf3:!f2u\xcc?\xa2pG\xfb\x19h\xe5?\xf0\xc5\xeb\xa4\xdb\x16\xb4?'
p188
tp189
bsS'Mallows-greedy-RE'
p190
((lp191
I0
aI3
aI1
aI2
ag34
(g12
S'e\xd9\xcc?s5\xfc?'
p192
tp193
Rp194
tp195
s.