(dp0
S'PCMC-RE'
p1
cnumpy.core.multiarray
_reconstruct
p2
(cnumpy
ndarray
p3
(I0
tp4
S'b'
p5
tp6
Rp7
(I1
(I12
tp8
cnumpy
dtype
p9
(S'f8'
p10
I0
I1
tp11
Rp12
(I3
S'<'
p13
NNNI-1
I-1
I0
tp14
bI00
S'\x05\x880\xab"a$@\xd9\xf0s\xa8\x17<\xfe?Mw*\xb2\xec\xa0\x11@X/\xb9\x80Fp\x1a@\xbb\xf2\x9e\x98\xceb\x90@\x81@\xee\xffpA\xdd@\x80\xde\'\x1f`k\x08@\xa4\xd5e \xa8=\x95@\xe2Y\xcc\xaf\x0e\x98\xe3@;4S\xa3\xf2\xc7\t@i,\xec0\xe4\xc7\xc3@\xdeg\xdf T\xa2\xd0@'
p15
tp16
bsS'MMNL-RE'
p17
g2
(g3
(I0
tp18
g5
tp19
Rp20
(I1
(I10
tp21
g12
I00
S'p\x02\xd4\t\xd9\xaf\xd7?\xc8\xfe\x15{\x13(\xe4?\x95\xd6&\xe8\x0b.\x11>\x81\x84]+u\x16\xee?\x03\x01\xd6\x02L\xe7&>\'N\x93[m\x9d\xec?\x81\xf0\xe5\xf1\x9c\xb3\xeb?\x95\xd6&\xe8\x0b.\x11>-:"\xd5\x9a\x99\xeb?\xacv\xa4lv\xa4\xf2?'
p22
tp23
bsS'PL-RE'
p24
g2
(g3
(I0
tp25
g5
tp26
Rp27
(I1
(I4
tp28
g12
I00
S'\x81\xd0\x98\xc9\xbcm\xc7?*9\xb8\xc4\\#\xc8?\xde\xd7&N7X\xc5?;\x0f\xc4\x91W\x8b\xdd?'
p29
tp30
bsS'N'
p31
I4
sS'Mallows-greedy'
p32
((lp33
I1
aI2
aI0
aI3
acnumpy.core.multiarray
scalar
p34
(g12
S'BK\xaf\x83\x19\xff\xed?'
p35
tp36
Rp37
tp38
sS'MMNL'
p39
g2
(g3
(I0
tp40
g5
tp41
Rp42
(I1
(I10
tp43
g12
I00
S"\xa4'\xf00;\x1e\xe5?\xb7\xb0\x1f\x9e\x89\xc3\xd5?\xbd,Q\x07\xacg\xf1?\x99<\x91\xac?\xae&?\xfc\n\x90\x81T\xfd\xf2?\xc0W2$\x8d_+?e7\xc0\x8fym\xac?\xd5\x1b\x7f9gd\x00@\x04l\x80\x92\xb2\xe4\xcf?\xf2&*\xe4awD?"
p44
tp45
bsS'test-lists'
p46
(lp47
(lp48
I1
aI0
aI3
aI2
aa(lp49
I2
aI1
aI3
aI0
aa(lp50
I2
aI3
aI0
aI1
aa(lp51
I1
aI2
aI3
aI0
aa(lp52
I2
aI3
aI1
aI0
aa(lp53
I2
aI0
aI1
aI3
aa(lp54
I0
aI2
aI1
aI3
aa(lp55
I1
aI0
aI3
aI2
aa(lp56
I0
aI1
aI3
aI2
aa(lp57
I0
aI1
aI2
aI3
aa(lp58
I2
aI1
aI3
aI0
aa(lp59
I0
aI1
aI3
aI2
aa(lp60
I2
aI0
aI1
aI3
aa(lp61
I1
aI0
aI2
aI3
aa(lp62
I1
aI3
aI0
aI2
aa(lp63
I2
aI0
aI1
aI3
aa(lp64
I1
aI3
aI0
aI2
aa(lp65
I1
aI2
aI0
aI3
aa(lp66
I2
aI1
aI3
aI0
aa(lp67
I1
aI3
aI0
aI2
aa(lp68
I1
aI0
aI2
aI3
aa(lp69
I2
aI3
aI0
aI1
aa(lp70
I2
aI1
aI0
aI3
aa(lp71
I2
aI1
aI3
aI0
aa(lp72
I1
aI0
aI2
aI3
aa(lp73
I1
aI0
aI3
aI2
aa(lp74
I2
aI3
aI1
aI0
aa(lp75
I2
aI0
aI3
aI1
aa(lp76
I2
aI0
aI1
aI3
aa(lp77
I2
aI0
aI1
aI3
aa(lp78
I2
aI1
aI3
aI0
aa(lp79
I2
aI0
aI1
aI3
aa(lp80
I1
aI2
aI0
aI3
aa(lp81
I1
aI0
aI3
aI2
aa(lp82
I0
aI1
aI2
aI3
aa(lp83
I1
aI0
aI3
aI2
aa(lp84
I2
aI1
aI0
aI3
aa(lp85
I2
aI0
aI3
aI1
aa(lp86
I1
aI2
aI0
aI3
aa(lp87
I2
aI3
aI1
aI0
aa(lp88
I2
aI0
aI1
aI3
aa(lp89
I2
aI1
aI0
aI3
aa(lp90
I1
aI0
aI2
aI3
aa(lp91
I2
aI0
aI3
aI1
aa(lp92
I1
aI2
aI0
aI3
aa(lp93
I0
aI1
aI2
aI3
aa(lp94
I0
aI2
aI1
aI3
aa(lp95
I0
aI1
aI2
aI3
aa(lp96
I0
aI1
aI3
aI2
aa(lp97
I0
aI2
aI1
aI3
aa(lp98
I0
aI1
aI2
aI3
aa(lp99
I1
aI0
aI3
aI2
aa(lp100
I1
aI2
aI0
aI3
aa(lp101
I1
aI0
aI2
aI3
aa(lp102
I2
aI1
aI3
aI0
aa(lp103
I1
aI0
aI3
aI2
aa(lp104
I2
aI1
aI3
aI0
aa(lp105
I2
aI0
aI1
aI3
aa(lp106
I1
aI2
aI3
aI0
aa(lp107
I2
aI3
aI0
aI1
aa(lp108
I2
aI3
aI1
aI0
aa(lp109
I2
aI0
aI1
aI3
aa(lp110
I2
aI1
aI0
aI3
aa(lp111
I1
aI0
aI2
aI3
aa(lp112
I1
aI2
aI0
aI3
aa(lp113
I0
aI2
aI1
aI3
aa(lp114
I0
aI2
aI1
aI3
aa(lp115
I2
aI3
aI1
aI0
aa(lp116
I0
aI3
aI2
aI1
aa(lp117
I3
aI0
aI1
aI2
aa(lp118
I2
aI0
aI3
aI1
aa(lp119
I1
aI0
aI3
aI2
aa(lp120
I2
aI3
aI1
aI0
aa(lp121
I1
aI0
aI3
aI2
aa(lp122
I2
aI3
aI0
aI1
aa(lp123
I0
aI2
aI1
aI3
aa(lp124
I1
aI0
aI2
aI3
aa(lp125
I0
aI1
aI2
aI3
aa(lp126
I1
aI0
aI3
aI2
aa(lp127
I1
aI2
aI3
aI0
aa(lp128
I2
aI0
aI3
aI1
aa(lp129
I1
aI0
aI2
aI3
aa(lp130
I2
aI1
aI3
aI0
aa(lp131
I2
aI0
aI1
aI3
aa(lp132
I1
aI0
aI3
aI2
aa(lp133
I2
aI1
aI0
aI3
aa(lp134
I2
aI0
aI1
aI3
aa(lp135
I3
aI1
aI0
aI2
aa(lp136
I2
aI1
aI0
aI3
aa(lp137
I0
aI1
aI2
aI3
aa(lp138
I2
aI3
aI1
aI0
aa(lp139
I2
aI1
aI0
aI3
aa(lp140
I2
aI0
aI1
aI3
aa(lp141
I2
aI0
aI1
aI3
aa(lp142
I1
aI0
aI2
aI3
aa(lp143
I1
aI0
aI2
aI3
aa(lp144
I2
aI1
aI3
aI0
aa(lp145
I1
aI0
aI3
aI2
aa(lp146
I1
aI0
aI2
aI3
aa(lp147
I1
aI0
aI3
aI2
aa(lp148
I3
aI1
aI2
aI0
aa(lp149
I3
aI2
aI1
aI0
aa(lp150
I1
aI3
aI0
aI2
aa(lp151
I1
aI0
aI3
aI2
aa(lp152
I0
aI2
aI3
aI1
aa(lp153
I2
aI1
aI3
aI0
aa(lp154
I2
aI0
aI1
aI3
aa(lp155
I2
aI0
aI1
aI3
aa(lp156
I0
aI1
aI2
aI3
aa(lp157
I0
aI1
aI2
aI3
aa(lp158
I0
aI1
aI2
aI3
aa(lp159
I0
aI1
aI2
aI3
aa(lp160
I1
aI3
aI2
aI0
aa(lp161
I1
aI2
aI3
aI0
aa(lp162
I2
aI0
aI1
aI3
aasS'PCMC'
p163
g2
(g3
(I0
tp164
g5
tp165
Rp166
(I1
(I12
tp167
g12
I00
S'\x0b\xdf\xe1\xe0Q1D@}\x90\xb5\xf6n\xdb8@:A\x93\x1b\xe0\x07\xdd?;k\nT\xd9\xacH@\xfai\x03F#\xe4\xc7?Q\x90\xd5\r2\r\x15@\t\xd97A*\x006@\xa4Z\x8e\xb6\x18\x0e\xd6?\xe3\xf5\xe0N5\x91R?\x9c\xa4\x93F\xc4\xf3\xe2?\x11\xd6\x1fWQ\xca/@\xfc\xa9\xf1\xd2MbP?'
p168
tp169
bsS'PL'
p170
g2
(g3
(I0
tp171
g5
tp172
Rp173
(I1
(I4
tp174
g12
I00
S'BP0\xa4\xb2\n\xd2?\xca\x9djW\xd2\x97\xd3?&\xf1\xc6\x13\xab]\xd1?\xa3A<\xe1\x9f\xff\xc1?'
p175
tp176
bsS'Mallows-greedy-RE'
p177
((lp178
I3
aI1
aI0
aI2
ag34
(g12
S'-\xd3\xc3^\xf4Y\xee?'
p179
tp180
Rp181
tp182
s.