(dp0
S'PCMC-RE'
p1
cnumpy.core.multiarray
_reconstruct
p2
(cnumpy
ndarray
p3
(I0
tp4
S'b'
p5
tp6
Rp7
(I1
(I12
tp8
cnumpy
dtype
p9
(S'f8'
p10
I0
I1
tp11
Rp12
(I3
S'<'
p13
NNNI-1
I-1
I0
tp14
bI00
S'\xa6z?\xb6\xeb\xb9\x86?\xb7\x06C\xcd-\xec\xd3?X\x86W\x95\xeb\x92\xe2?\xb0`\xf7\xa7\xde\r\x87?\xfc\xa9\xf1\xd2MbP?\x90\xa0\xfa\xcc\x14f\xe8?^\xbcr\x00_\xea\xec?vL5\xde\x80q\\?\xa6<"\xdcWs\xe2?\xe5\xaa\xb7f|\xb0\xde?i\x81]\x00\xd6\xdc\xf6?9\xc3Vy\xb2\x7f\xcc?'
p15
tp16
bsS'MMNL-RE'
p17
g2
(g3
(I0
tp18
g5
tp19
Rp20
(I1
(I10
tp21
g12
I00
S'K(\x0b\xa7[=\xdd?\xdakz,Ra\xe1?\x01T\x10E\x94\x94F?\\H\x03%\x14\x07\xf1?odZ7j\xcc\x07@\x00\x0c\xcbx\xdb\xe3\xb6?\xf0`\x1f\x083\\4?\xdc\xe7\xed\x15m\xc3\xd6?>\xecVS\xc6\x9eU?,<\xb4\xbd\x8d\x07\xec?'
p22
tp23
bsS'PL-RE'
p24
g2
(g3
(I0
tp25
g5
tp26
Rp27
(I1
(I4
tp28
g12
I00
S'6\xae\xf3\xaa\xbe,\xcf?\xf13\xf5\xb8\xbe\x05\xda?\x8c\xa4\xa8\x9b\xf1\x16\xb9?\xd3\xcb\xa6\x8a%\x1e\xd0?'
p29
tp30
bsS'N'
p31
I4
sS'Mallows-greedy'
p32
((lp33
I2
aI0
aI3
aI1
acnumpy.core.multiarray
scalar
p34
(g12
S'V\\0Y\xfca\xf2?'
p35
tp36
Rp37
tp38
sS'MMNL'
p39
g2
(g3
(I0
tp40
g5
tp41
Rp42
(I1
(I10
tp43
g12
I00
S'\x9cP\xa4\x14\xadP\xce?\xd9\xeb\xd6\xba\xd4k\xe8?k\x16\x90\xcbZ4\xcb?\xeb\xb9\xa8\x9f\xf1z\xe0?\x17/\x07+\xc3\xc3\xec?\xbe\r\xe1\xa8m\x0b\xb5?\xb0\x96L\xa6z\x00\xa9?\xdf\x01\xe3\xd3b\xba\xfd?J;YX\xe9d\xed?g\xb8K\x94\x072\xd3?'
p44
tp45
bsS'test-lists'
p46
(lp47
(lp48
I1
aI2
aI3
aI0
aa(lp49
I0
aI1
aI3
aI2
aa(lp50
I1
aI2
aI0
aI3
aa(lp51
I2
aI0
aI1
aI3
aa(lp52
I2
aI0
aI3
aI1
aa(lp53
I2
aI0
aI3
aI1
aa(lp54
I0
aI2
aI1
aI3
aa(lp55
I2
aI3
aI0
aI1
aa(lp56
I1
aI3
aI2
aI0
aa(lp57
I2
aI0
aI3
aI1
aa(lp58
I3
aI2
aI0
aI1
aa(lp59
I2
aI3
aI0
aI1
aa(lp60
I2
aI0
aI3
aI1
aa(lp61
I0
aI2
aI3
aI1
aa(lp62
I1
aI3
aI2
aI0
aa(lp63
I0
aI2
aI1
aI3
aa(lp64
I0
aI2
aI1
aI3
aa(lp65
I3
aI2
aI0
aI1
aa(lp66
I0
aI1
aI2
aI3
aa(lp67
I2
aI1
aI3
aI0
aa(lp68
I3
aI2
aI0
aI1
aa(lp69
I2
aI0
aI1
aI3
aa(lp70
I2
aI1
aI3
aI0
aa(lp71
I1
aI2
aI3
aI0
aa(lp72
I2
aI0
aI3
aI1
aa(lp73
I2
aI0
aI1
aI3
aa(lp74
I2
aI1
aI3
aI0
aa(lp75
I3
aI0
aI1
aI2
aa(lp76
I2
aI0
aI3
aI1
aa(lp77
I0
aI2
aI3
aI1
aa(lp78
I2
aI0
aI3
aI1
aa(lp79
I2
aI3
aI0
aI1
aa(lp80
I2
aI0
aI3
aI1
aa(lp81
I2
aI0
aI1
aI3
aa(lp82
I2
aI1
aI3
aI0
aa(lp83
I2
aI0
aI1
aI3
aa(lp84
I2
aI3
aI0
aI1
aa(lp85
I3
aI0
aI2
aI1
aa(lp86
I3
aI2
aI0
aI1
aa(lp87
I2
aI0
aI3
aI1
aa(lp88
I2
aI0
aI3
aI1
aa(lp89
I2
aI3
aI0
aI1
aa(lp90
I0
aI2
aI3
aI1
aa(lp91
I1
aI0
aI3
aI2
aa(lp92
I2
aI0
aI3
aI1
aa(lp93
I2
aI3
aI0
aI1
aa(lp94
I2
aI3
aI1
aI0
aa(lp95
I3
aI2
aI0
aI1
aa(lp96
I1
aI2
aI0
aI3
aa(lp97
I2
aI0
aI1
aI3
aa(lp98
I2
aI0
aI3
aI1
aa(lp99
I3
aI2
aI0
aI1
aa(lp100
I0
aI2
aI3
aI1
aa(lp101
I2
aI0
aI3
aI1
aa(lp102
I2
aI0
aI3
aI1
aa(lp103
I1
aI3
aI2
aI0
aa(lp104
I2
aI0
aI1
aI3
aa(lp105
I2
aI0
aI1
aI3
aa(lp106
I3
aI2
aI0
aI1
aa(lp107
I0
aI3
aI2
aI1
aa(lp108
I0
aI2
aI3
aI1
aa(lp109
I3
aI2
aI0
aI1
aa(lp110
I0
aI2
aI3
aI1
aa(lp111
I2
aI3
aI0
aI1
aa(lp112
I0
aI2
aI1
aI3
aa(lp113
I2
aI0
aI1
aI3
aa(lp114
I0
aI3
aI2
aI1
aa(lp115
I2
aI0
aI1
aI3
aa(lp116
I1
aI3
aI0
aI2
aa(lp117
I2
aI0
aI3
aI1
aa(lp118
I2
aI1
aI3
aI0
aa(lp119
I2
aI0
aI1
aI3
aa(lp120
I2
aI0
aI3
aI1
aa(lp121
I2
aI3
aI0
aI1
aa(lp122
I3
aI2
aI0
aI1
aa(lp123
I2
aI0
aI3
aI1
aa(lp124
I0
aI2
aI1
aI3
aa(lp125
I3
aI2
aI1
aI0
aa(lp126
I0
aI1
aI2
aI3
aa(lp127
I0
aI2
aI3
aI1
aa(lp128
I0
aI2
aI1
aI3
aa(lp129
I2
aI3
aI1
aI0
aa(lp130
I2
aI1
aI0
aI3
aa(lp131
I3
aI0
aI1
aI2
aa(lp132
I2
aI0
aI3
aI1
aa(lp133
I2
aI0
aI3
aI1
aa(lp134
I1
aI2
aI3
aI0
aa(lp135
I0
aI2
aI3
aI1
aa(lp136
I0
aI2
aI1
aI3
aa(lp137
I2
aI3
aI1
aI0
aa(lp138
I2
aI0
aI1
aI3
aa(lp139
I2
aI1
aI0
aI3
aa(lp140
I2
aI1
aI0
aI3
aa(lp141
I2
aI1
aI0
aI3
aa(lp142
I1
aI2
aI3
aI0
aa(lp143
I1
aI3
aI2
aI0
aa(lp144
I2
aI1
aI0
aI3
aa(lp145
I2
aI3
aI0
aI1
aa(lp146
I2
aI1
aI3
aI0
aa(lp147
I0
aI2
aI3
aI1
aa(lp148
I2
aI0
aI1
aI3
aa(lp149
I2
aI1
aI3
aI0
aa(lp150
I2
aI0
aI1
aI3
aa(lp151
I0
aI2
aI3
aI1
aa(lp152
I1
aI2
aI0
aI3
aa(lp153
I3
aI2
aI1
aI0
aa(lp154
I1
aI0
aI3
aI2
aasS'PCMC'
p155
g2
(g3
(I0
tp156
g5
tp157
Rp158
(I1
(I12
tp159
g12
I00
S'\x7f\x9c\x93\x80W\x9eZ?l6\xd1\xe0\xea\x87\xe7?\x8d\xe9\xb0:gI\xf3?y\x02k\xa2\xfb\xbcj?G\xa2\xd4y\xba{\xea?\xd4p\xd6\xd7\x99\x88\xe7?\x8dogW\xda\xee\xd3?\xf5\x98uH\x8c\xfb\xd1?\xb7\xd4\x18\x0f+<\xd9?\xa7F\xab\xe3P\x82\xf4?\x95r\x04X\xc6|\xd3?\x02\xc8\xe0\x8c\xa2\xeb\xf7?'
p160
tp161
bsS'PL'
p162
g2
(g3
(I0
tp163
g5
tp164
Rp165
(I1
(I4
tp166
g12
I00
S"\xdb\xbe\x15\xb8\xdbt\xc9?'\x08\xc8\xa3\x82C\xba?\x94\xf6\xcc\x0f\xba)\xe0?\xc3b\xd2\xb6z\xc2\xc8?"
p167
tp168
bsS'Mallows-greedy-RE'
p169
((lp170
I1
aI3
aI0
aI2
ag34
(g12
S'V\\0Y\xfca\xf2?'
p171
tp172
Rp173
tp174
s.