(dp0
S'PCMC-RE'
p1
cnumpy.core.multiarray
_reconstruct
p2
(cnumpy
ndarray
p3
(I0
tp4
S'b'
p5
tp6
Rp7
(I1
(I12
tp8
cnumpy
dtype
p9
(S'f8'
p10
I0
I1
tp11
Rp12
(I3
S'<'
p13
NNNI-1
I-1
I0
tp14
bI00
S"I\x05Z&j\xfd\x10@\xbb\x8c\xe0\\b\x96\x8b?mY\x1c\xad\x8f\xb2\x7f?\xa2\xaa\\\xd5i\x01\xf2?\xf2\xf0\x8a\xa2\x1bG\xdc?\xa9N<F\xcf\xfc\xf7?\x93\xa3R\n\xc8\xabp?W\x82'?\xde\\\xf1?\xb6\x13>l\xf4\x14\x02@\xcfz\xf1\xc9\x17\xcfP?\x9fY[\xa5[\xae\xf9?8\xb7\xd7\x15c#\xf7?"
p15
tp16
bsS'MMNL-RE'
p17
g2
(g3
(I0
tp18
g5
tp19
Rp20
(I1
(I10
tp21
g12
I00
S'E\n\x9a\x95\xbbU\xc3?o}\x99\x1a\x91*\xeb?7\x05*\xf6\xf4\x16\x05@>\xb9\xefPr\xe7\xa7?v@\x1d\xff?\xae@?y\xacB\xed\\\xa7\xf3?\x89\xd8\xaf3J- ?\x0b\xa6\xff\xa7J\x8b\xe3?\xfaL\xdc5%\x93\xfd?\xa1\xb6FS\xe1\xff\xea?'
p22
tp23
bsS'PL-RE'
p24
g2
(g3
(I0
tp25
g5
tp26
Rp27
(I1
(I4
tp28
g12
I00
S'z\xe0B\x0e\xc4\xd9\xb3?E\x83\xdd~)f\xd8?\x18\xd9\xba\xc5\x8b\xcc\xc9?\x0eX\xb4\x9a\x1f\xbd\xd5?'
p29
tp30
bsS'N'
p31
I4
sS'Mallows-greedy'
p32
((lp33
I0
aI2
aI3
aI1
acnumpy.core.multiarray
scalar
p34
(g12
S'\xaf\xb0\xe2pa\xb0\xf2?'
p35
tp36
Rp37
tp38
sS'MMNL'
p39
g2
(g3
(I0
tp40
g5
tp41
Rp42
(I1
(I10
tp43
g12
I00
S'\xba\xec\xddj\x85i\xe1?\x8e&D*\xf5,\xdd?\xc8\x12\xe3\xc0\x1cJ\xff?\x95\xd6&\xe8\x0b.\x11>\xf6\xa8\x9b\xd3\x8f\x9b\x0e?rO\x87x+\x9e\xf3?r\xa0\xd1\xa5\xda\x83\x18?\xb5:\xd6\xbb\xdd\xfd\x03@\xdd\n0:s]\x1f?9\xe3J\xab\x16l\xf0?'
p44
tp45
bsS'test-lists'
p46
(lp47
(lp48
I0
aI2
aI3
aI1
aa(lp49
I0
aI2
aI1
aI3
aa(lp50
I3
aI2
aI0
aI1
aa(lp51
I2
aI1
aI3
aI0
aa(lp52
I0
aI1
aI2
aI3
aa(lp53
I0
aI1
aI3
aI2
aa(lp54
I0
aI2
aI3
aI1
aa(lp55
I0
aI2
aI3
aI1
aa(lp56
I0
aI3
aI1
aI2
aa(lp57
I3
aI1
aI0
aI2
aa(lp58
I0
aI3
aI2
aI1
aa(lp59
I0
aI2
aI1
aI3
aa(lp60
I0
aI3
aI1
aI2
aa(lp61
I0
aI3
aI1
aI2
aa(lp62
I0
aI1
aI3
aI2
aa(lp63
I0
aI2
aI3
aI1
aa(lp64
I0
aI3
aI2
aI1
aa(lp65
I0
aI3
aI1
aI2
aa(lp66
I0
aI2
aI3
aI1
aa(lp67
I0
aI2
aI1
aI3
aa(lp68
I0
aI3
aI1
aI2
aa(lp69
I0
aI2
aI1
aI3
aa(lp70
I0
aI1
aI3
aI2
aa(lp71
I0
aI2
aI3
aI1
aa(lp72
I0
aI3
aI1
aI2
aa(lp73
I0
aI2
aI3
aI1
aa(lp74
I0
aI2
aI3
aI1
aa(lp75
I0
aI3
aI1
aI2
aa(lp76
I2
aI1
aI0
aI3
aa(lp77
I0
aI3
aI1
aI2
aa(lp78
I0
aI1
aI3
aI2
aa(lp79
I0
aI3
aI2
aI1
aa(lp80
I0
aI3
aI2
aI1
aa(lp81
I0
aI2
aI1
aI3
aa(lp82
I0
aI3
aI2
aI1
aa(lp83
I0
aI2
aI3
aI1
aa(lp84
I0
aI3
aI2
aI1
aa(lp85
I0
aI3
aI2
aI1
aa(lp86
I2
aI1
aI3
aI0
aa(lp87
I2
aI0
aI3
aI1
aa(lp88
I0
aI2
aI1
aI3
aa(lp89
I0
aI2
aI1
aI3
aa(lp90
I2
aI0
aI1
aI3
aa(lp91
I0
aI2
aI1
aI3
aa(lp92
I2
aI0
aI1
aI3
aa(lp93
I0
aI1
aI3
aI2
aa(lp94
I0
aI3
aI2
aI1
aa(lp95
I0
aI1
aI2
aI3
aa(lp96
I1
aI2
aI3
aI0
aa(lp97
I0
aI1
aI3
aI2
aa(lp98
I0
aI2
aI3
aI1
aa(lp99
I0
aI2
aI1
aI3
aa(lp100
I3
aI0
aI1
aI2
aa(lp101
I2
aI0
aI1
aI3
aa(lp102
I0
aI3
aI1
aI2
aa(lp103
I1
aI0
aI2
aI3
aa(lp104
I1
aI2
aI3
aI0
aa(lp105
I1
aI2
aI3
aI0
aa(lp106
I2
aI0
aI3
aI1
aa(lp107
I2
aI0
aI1
aI3
aa(lp108
I2
aI0
aI1
aI3
aa(lp109
I0
aI2
aI1
aI3
aa(lp110
I0
aI2
aI3
aI1
aa(lp111
I1
aI2
aI0
aI3
aa(lp112
I0
aI1
aI2
aI3
aa(lp113
I0
aI3
aI2
aI1
aa(lp114
I0
aI3
aI1
aI2
aa(lp115
I3
aI1
aI0
aI2
aa(lp116
I0
aI2
aI1
aI3
aa(lp117
I2
aI1
aI0
aI3
aa(lp118
I0
aI2
aI1
aI3
aa(lp119
I0
aI2
aI3
aI1
aa(lp120
I2
aI0
aI1
aI3
aa(lp121
I1
aI0
aI3
aI2
aa(lp122
I0
aI3
aI2
aI1
aa(lp123
I0
aI2
aI3
aI1
aa(lp124
I0
aI2
aI1
aI3
aa(lp125
I0
aI3
aI2
aI1
aasS'PCMC'
p126
g2
(g3
(I0
tp127
g5
tp128
Rp129
(I1
(I12
tp130
g12
I00
S'.,\xa5\xa8\x84S\xb0?\x8c\xc5\x8d\xbd\xaeH"@J\xe2\x90vY\xe7)@^\x9a\x18\x96\x82~\xb3?\x1cU\x1fL5\xf8S@w\xf69]\xfb\x97\x9b?\xb8c_J\x19\x949@\x88P\x87\xaeF\x15E@U\xd1\xc2\xd0\xfe]X?\xb0\x9b\x0b\xb45\x86H@<{\x17\xb3\xfd\xae\x95?\xfc\xa9\xf1\xd2MbP?'
p131
tp132
bsS'PL'
p133
g2
(g3
(I0
tp134
g5
tp135
Rp136
(I1
(I4
tp137
g12
I00
S'\xdeab\x0f\x1f\xef\xdf?_7\xc3IN\xef\xbf?IL1\x01\x9f\x82\xcc?MT(\xbb{\xa7\xc3?'
p138
tp139
bsS'Mallows-greedy-RE'
p140
((lp141
I1
aI3
aI2
aI0
ag34
(g12
S'\xaf\xb0\xe2pa\xb0\xf2?'
p142
tp143
Rp144
tp145
s.