(dp0
S'PCMC-RE'
p1
cnumpy.core.multiarray
_reconstruct
p2
(cnumpy
ndarray
p3
(I0
tp4
S'b'
p5
tp6
Rp7
(I1
(I6
tp8
cnumpy
dtype
p9
(S'f8'
p10
I0
I1
tp11
Rp12
(I3
S'<'
p13
NNNI-1
I-1
I0
tp14
bI00
S"\xb4\x10'\xf9\xdd\x87\x80?8\x97`\x99\x85\xb4\xeb?\x10\xd6\x14U\x1a\x15\x9a?\xca\xdey\x17\x97e\xa0?\x11#\xcf\xc2\x01%\xfc?\xf3\xa8\x12G2\x0b\x8c?"
p15
tp16
bsS'MMNL-RE'
p17
g2
(g3
(I0
tp18
g5
tp19
Rp20
(I1
(I4
tp21
g12
I00
S'\x00\x00\x00\x00\x00\x00\xf0?\xce\xf8\xe1&\x9e\x97\xf6?\x99W\x86\xcc6\xde\xd6?\xbe!\xee\xf2\\\xad\xe7?'
p22
tp23
bsS'PL-RE'
p24
g2
(g3
(I0
tp25
g5
tp26
Rp27
(I1
(I3
tp28
g12
I00
S'\xec\xb6\xda\x80\xda\x01\xe2?\x03\xectl\x1f:\xc2?&\x1c\x10H;\xdf\xd2?'
p29
tp30
bsS'N'
p31
I3
sS'Mallows-greedy'
p32
((lp33
I1
aI2
aI0
acnumpy.core.multiarray
scalar
p34
(g12
S'rC\xb2\xb19\xe9\xf3?'
p35
tp36
Rp37
tp38
sS'MMNL'
p39
g2
(g3
(I0
tp40
g5
tp41
Rp42
(I1
(I4
tp43
g12
I00
S'\x00\x00\x00\x00\x00\x00\xf0?mr\xc7j\x7f\x88\xd9?\xab\xe7\xb8!\xfb\xcb\xf7? \x89\xbcW~"\xe8?'
p44
tp45
bsS'test-lists'
p46
(lp47
(lp48
I1
aI0
aI2
aa(lp49
I2
aI1
aI0
aa(lp50
I1
aI2
aI0
aa(lp51
I2
aI1
aI0
aa(lp52
I1
aI0
aI2
aa(lp53
I0
aI1
aI2
aa(lp54
I1
aI2
aI0
aa(lp55
I2
aI0
aI1
aa(lp56
I1
aI2
aI0
aa(lp57
I2
aI1
aI0
aa(lp58
I2
aI1
aI0
aa(lp59
I2
aI1
aI0
aa(lp60
I1
aI2
aI0
aa(lp61
I1
aI2
aI0
aa(lp62
I1
aI2
aI0
aa(lp63
I2
aI1
aI0
aa(lp64
I1
aI2
aI0
aa(lp65
I1
aI2
aI0
aa(lp66
I0
aI1
aI2
aa(lp67
I1
aI2
aI0
aa(lp68
I0
aI2
aI1
aa(lp69
I1
aI2
aI0
aa(lp70
I1
aI2
aI0
aa(lp71
I1
aI0
aI2
aa(lp72
I1
aI2
aI0
aa(lp73
I1
aI0
aI2
aa(lp74
I1
aI2
aI0
aa(lp75
I2
aI1
aI0
aa(lp76
I2
aI0
aI1
aa(lp77
I1
aI0
aI2
aa(lp78
I1
aI2
aI0
aa(lp79
I2
aI0
aI1
aa(lp80
I2
aI1
aI0
aa(lp81
I0
aI1
aI2
aa(lp82
I2
aI1
aI0
aa(lp83
I1
aI0
aI2
aa(lp84
I1
aI2
aI0
aa(lp85
I2
aI1
aI0
aa(lp86
I1
aI0
aI2
aa(lp87
I0
aI2
aI1
aa(lp88
I1
aI0
aI2
aa(lp89
I2
aI1
aI0
aa(lp90
I0
aI2
aI1
aa(lp91
I1
aI0
aI2
aa(lp92
I2
aI1
aI0
aa(lp93
I1
aI0
aI2
aa(lp94
I0
aI2
aI1
aa(lp95
I1
aI2
aI0
aa(lp96
I2
aI1
aI0
aa(lp97
I1
aI2
aI0
aa(lp98
I1
aI2
aI0
aa(lp99
I2
aI1
aI0
aa(lp100
I1
aI2
aI0
aa(lp101
I1
aI0
aI2
aa(lp102
I2
aI0
aI1
aa(lp103
I2
aI0
aI1
aa(lp104
I2
aI1
aI0
aa(lp105
I1
aI2
aI0
aa(lp106
I1
aI2
aI0
aa(lp107
I2
aI0
aI1
aa(lp108
I1
aI0
aI2
aa(lp109
I1
aI2
aI0
aa(lp110
I2
aI0
aI1
aa(lp111
I1
aI2
aI0
aa(lp112
I1
aI0
aI2
aa(lp113
I2
aI1
aI0
aa(lp114
I1
aI0
aI2
aa(lp115
I1
aI2
aI0
aa(lp116
I1
aI0
aI2
aa(lp117
I1
aI2
aI0
aa(lp118
I2
aI1
aI0
aa(lp119
I1
aI2
aI0
aa(lp120
I1
aI2
aI0
aa(lp121
I1
aI2
aI0
aa(lp122
I0
aI1
aI2
aa(lp123
I1
aI2
aI0
aa(lp124
I1
aI2
aI0
aa(lp125
I1
aI0
aI2
aa(lp126
I0
aI2
aI1
aa(lp127
I1
aI2
aI0
aa(lp128
I1
aI0
aI2
aa(lp129
I1
aI0
aI2
aa(lp130
I1
aI2
aI0
aa(lp131
I1
aI2
aI0
aasS'PCMC'
p132
g2
(g3
(I0
tp133
g5
tp134
Rp135
(I1
(I6
tp136
g12
I00
S"\x9e\x89m\xf0_\xddu?\x97\xac\xbd\xc0\x11&\x86@R\x8c\xee\xb1*=f?\x1f\xbd\x9f\xc0'\xa6}@\xf8\x7fP\xdf\xe3>u@\x15\xbf\x14M\xf2\x18\x90@"
p137
tp138
bsS'PL'
p139
g2
(g3
(I0
tp140
g5
tp141
Rp142
(I1
(I3
tp143
g12
I00
S"2\x98\x10\xad\x03W\xc3?\x05'\x84qR\x06\xe2?\xdfeoF\xd9G\xd2?"
p144
tp145
bsS'Mallows-greedy-RE'
p146
((lp147
I0
aI2
aI1
ag34
(g12
S'rC\xb2\xb19\xe9\xf3?'
p148
tp149
Rp150
tp151
s.