(dp0
S'PCMC-RE'
p1
cnumpy.core.multiarray
_reconstruct
p2
(cnumpy
ndarray
p3
(I0
tp4
S'b'
p5
tp6
Rp7
(I1
(I6
tp8
cnumpy
dtype
p9
(S'f8'
p10
I0
I1
tp11
Rp12
(I3
S'<'
p13
NNNI-1
I-1
I0
tp14
bI00
S'\xbf\x14w\x99\xe1\x06\x0e@\xc4\xb6$\x8a\x91\x16j?\x8d\xa9\xc9}\r\xeb\x1c@\x8e\x0c\xb1\xf2\xa5<u?\xf9G\xa6\xbb\xaf\xa4y?\x8e\x13<\xea;0l?'
p15
tp16
bsS'MMNL-RE'
p17
g2
(g3
(I0
tp18
g5
tp19
Rp20
(I1
(I4
tp21
g12
I00
S'\x00\x00\x00\x00\x00\x00\xf0?A\x8d\x8ej\xc5F\xf9?QD\x1a\xaa\xfaq\xe8?\x88(\x9c\x12\x05\x13\xef?'
p22
tp23
bsS'PL-RE'
p24
g2
(g3
(I0
tp25
g5
tp26
Rp27
(I1
(I3
tp28
g12
I00
S'u1,xp\x80\xde?\x15\x8f\x07\xd9\xa4\x7f\xcd?\x02\x07P\x1b\xbd\xbf\xd2?'
p29
tp30
bsS'N'
p31
I3
sS'Mallows-greedy'
p32
((lp33
I1
aI2
aI0
acnumpy.core.multiarray
scalar
p34
(g12
S'\xde\x8a\xe9\x00"\x8c\xee?'
p35
tp36
Rp37
tp38
sS'MMNL'
p39
g2
(g3
(I0
tp40
g5
tp41
Rp42
(I1
(I4
tp43
g12
I00
S'\x00\x00\x00\x00\x00\x00\xf0?\xa0\xf5}\xb8\xab\x89\xe0?a\xda\x13\x0b,7\xee?G@R\x80c*\xe9?'
p44
tp45
bsS'test-lists'
p46
(lp47
(lp48
I1
aI0
aI2
aa(lp49
I0
aI1
aI2
aa(lp50
I1
aI0
aI2
aa(lp51
I1
aI2
aI0
aa(lp52
I2
aI1
aI0
aa(lp53
I2
aI1
aI0
aa(lp54
I2
aI1
aI0
aa(lp55
I0
aI2
aI1
aa(lp56
I1
aI0
aI2
aa(lp57
I0
aI1
aI2
aa(lp58
I2
aI0
aI1
aa(lp59
I1
aI0
aI2
aa(lp60
I1
aI2
aI0
aa(lp61
I0
aI1
aI2
aa(lp62
I1
aI0
aI2
aa(lp63
I2
aI1
aI0
aa(lp64
I1
aI0
aI2
aa(lp65
I2
aI0
aI1
aa(lp66
I2
aI1
aI0
aa(lp67
I1
aI0
aI2
aa(lp68
I2
aI1
aI0
aa(lp69
I0
aI2
aI1
aa(lp70
I0
aI2
aI1
aa(lp71
I2
aI0
aI1
aa(lp72
I1
aI2
aI0
aa(lp73
I1
aI2
aI0
aa(lp74
I2
aI1
aI0
aa(lp75
I1
aI2
aI0
aa(lp76
I1
aI2
aI0
aa(lp77
I2
aI0
aI1
aa(lp78
I1
aI0
aI2
aa(lp79
I2
aI1
aI0
aa(lp80
I0
aI1
aI2
aa(lp81
I1
aI2
aI0
aa(lp82
I1
aI2
aI0
aa(lp83
I2
aI0
aI1
aa(lp84
I1
aI0
aI2
aa(lp85
I2
aI1
aI0
aa(lp86
I0
aI1
aI2
aa(lp87
I1
aI0
aI2
aa(lp88
I1
aI0
aI2
aa(lp89
I1
aI0
aI2
aa(lp90
I1
aI0
aI2
aa(lp91
I2
aI1
aI0
aa(lp92
I2
aI1
aI0
aa(lp93
I0
aI1
aI2
aa(lp94
I1
aI2
aI0
aa(lp95
I2
aI1
aI0
aa(lp96
I0
aI2
aI1
aa(lp97
I1
aI0
aI2
aa(lp98
I2
aI1
aI0
aa(lp99
I0
aI2
aI1
aa(lp100
I1
aI2
aI0
aa(lp101
I0
aI1
aI2
aa(lp102
I1
aI0
aI2
aa(lp103
I1
aI0
aI2
aa(lp104
I2
aI1
aI0
aa(lp105
I1
aI0
aI2
aa(lp106
I2
aI0
aI1
aa(lp107
I1
aI2
aI0
aa(lp108
I2
aI1
aI0
aa(lp109
I1
aI2
aI0
aa(lp110
I0
aI2
aI1
aa(lp111
I2
aI1
aI0
aa(lp112
I1
aI2
aI0
aa(lp113
I2
aI0
aI1
aa(lp114
I0
aI2
aI1
aa(lp115
I2
aI1
aI0
aa(lp116
I1
aI2
aI0
aa(lp117
I2
aI0
aI1
aa(lp118
I1
aI2
aI0
aa(lp119
I1
aI2
aI0
aa(lp120
I2
aI1
aI0
aa(lp121
I2
aI0
aI1
aa(lp122
I2
aI0
aI1
aa(lp123
I2
aI0
aI1
aa(lp124
I0
aI1
aI2
aa(lp125
I0
aI1
aI2
aa(lp126
I2
aI1
aI0
aa(lp127
I1
aI2
aI0
aa(lp128
I2
aI0
aI1
aa(lp129
I2
aI0
aI1
aa(lp130
I1
aI2
aI0
aa(lp131
I1
aI0
aI2
aa(lp132
I1
aI2
aI0
aa(lp133
I0
aI2
aI1
aa(lp134
I0
aI1
aI2
aa(lp135
I2
aI0
aI1
aa(lp136
I1
aI2
aI0
aa(lp137
I1
aI0
aI2
aa(lp138
I1
aI0
aI2
aa(lp139
I2
aI1
aI0
aasS'PCMC'
p140
g2
(g3
(I0
tp141
g5
tp142
Rp143
(I1
(I6
tp144
g12
I00
S'\xee\x11\xfab\xc9lQ?\xc1\xb6\xdc\x943\xbdD@\xfc\xa9\xf1\xd2MbP??\xddf\x9f}jB@w;\x82\x81\xfa\x048@L\xecplF\xf4H@'
p145
tp146
bsS'PL'
p147
g2
(g3
(I0
tp148
g5
tp149
Rp150
(I1
(I3
tp151
g12
I00
S'l\xa4\x97\x10\x00o\xcd?C&]\xdaw\xe3\xda?\x88\x07W\x1d\x08e\xd6?'
p152
tp153
bsS'Mallows-greedy-RE'
p154
((lp155
I0
aI2
aI1
ag34
(g12
S'\xde\x8a\xe9\x00"\x8c\xee?'
p156
tp157
Rp158
tp159
s.