(dp0
S'PCMC-RE'
p1
cnumpy.core.multiarray
_reconstruct
p2
(cnumpy
ndarray
p3
(I0
tp4
S'b'
p5
tp6
Rp7
(I1
(I12
tp8
cnumpy
dtype
p9
(S'f8'
p10
I0
I1
tp11
Rp12
(I3
S'<'
p13
NNNI-1
I-1
I0
tp14
bI00
S'DT\xfa\x966\x17I@\rx^B6\xcb9@\xb4O\xae\x08\xbb\x02\xaf?\xa3t\x97\xacg\xdc0@nhm\xff\x9e\x12\x12@7\xd3\xa9\xe4\x04:\xb9?\xf4\xcd,\xdcD\x84\x1a@O^W\xb2$#\x02@\xfc\xa9\xf1\xd2MbP?\xa4h\xc5\xc0~\xba\xd3?\x07\xc5\x82\xa5\x85\x17\xd3?\xbd\xf4\x9e\xb8\x99\xc0w?'
p15
tp16
bsS'MMNL-RE'
p17
g2
(g3
(I0
tp18
g5
tp19
Rp20
(I1
(I10
tp21
g12
I00
S'P\x02\xae\xea\r\xc3\xe8?\xc4\xf6GU\xc8\xf3\xcc?\x8e\xde\xcf\xfbbV\xcd?lyE\xa5O\xca\xea?Y\x80\xff\x9e\x802\xf4?\x95\xd6&\xe8\x0b.\x11>\xc6\xbd\x9c\xbd\x0c\xc1\xf7?\xef\xcb\xea)hV\xfa?3\xb4diG\xcb\x8a?\xc8\x03\xfe\xb0\xe7-\xf0?'
p22
tp23
bsS'PL-RE'
p24
g2
(g3
(I0
tp25
g5
tp26
Rp27
(I1
(I4
tp28
g12
I00
S'\x85\xc5uw"d\xc1?<zw\x8b\x9e\xfc\xd3?v\x82\xde\xc8\x8e/\xe0?\xad\xf0\x848\x95\x91\xa7?'
p29
tp30
bsS'N'
p31
I4
sS'Mallows-greedy'
p32
((lp33
I3
aI0
aI1
aI2
acnumpy.core.multiarray
scalar
p34
(g12
S'\xeb\x94\x92c\x16\xc3\xf7?'
p35
tp36
Rp37
tp38
sS'MMNL'
p39
g2
(g3
(I0
tp40
g5
tp41
Rp42
(I1
(I10
tp43
g12
I00
S'@z\x91\n-P\xe0?\x7f\x0b\xdd\xea\xa5_\xdf?\xc2\x13C\x94\xb7j\xf6?\x9a\x1aM\x85\x84\xf5\xc7?\xbe\xcc:\x03\xe0\xb0\xf3?\x95\xd6&\xe8\x0b.\x11>.\x8f\x148Fi\xe8?\x95\xd6&\xe8\x0b.\x11>C/<\xcai\xc3\xf6?)\xc8\x94\x8f\xbc\xe0\x06@'
p44
tp45
bsS'test-lists'
p46
(lp47
(lp48
I3
aI1
aI0
aI2
aa(lp49
I3
aI0
aI1
aI2
aa(lp50
I3
aI2
aI0
aI1
aa(lp51
I1
aI0
aI3
aI2
aa(lp52
I3
aI0
aI2
aI1
aa(lp53
I3
aI0
aI2
aI1
aa(lp54
I1
aI3
aI0
aI2
aa(lp55
I3
aI0
aI1
aI2
aa(lp56
I0
aI1
aI3
aI2
aa(lp57
I3
aI0
aI1
aI2
aa(lp58
I3
aI0
aI2
aI1
aa(lp59
I3
aI1
aI0
aI2
aa(lp60
I0
aI3
aI2
aI1
aa(lp61
I3
aI2
aI0
aI1
aa(lp62
I3
aI0
aI2
aI1
aa(lp63
I3
aI0
aI1
aI2
aa(lp64
I3
aI0
aI1
aI2
aa(lp65
I3
aI2
aI0
aI1
aa(lp66
I3
aI2
aI0
aI1
aa(lp67
I3
aI0
aI2
aI1
aa(lp68
I3
aI0
aI2
aI1
aa(lp69
I0
aI2
aI1
aI3
aa(lp70
I3
aI0
aI2
aI1
aa(lp71
I3
aI0
aI1
aI2
aa(lp72
I3
aI0
aI1
aI2
aa(lp73
I3
aI0
aI1
aI2
aa(lp74
I3
aI2
aI0
aI1
aa(lp75
I3
aI0
aI2
aI1
aa(lp76
I3
aI2
aI0
aI1
aa(lp77
I0
aI1
aI2
aI3
aa(lp78
I3
aI1
aI0
aI2
aa(lp79
I3
aI0
aI1
aI2
aa(lp80
I0
aI3
aI2
aI1
aa(lp81
I3
aI0
aI2
aI1
aa(lp82
I3
aI1
aI2
aI0
aa(lp83
I3
aI0
aI1
aI2
aa(lp84
I3
aI0
aI1
aI2
aa(lp85
I3
aI1
aI0
aI2
aa(lp86
I3
aI0
aI2
aI1
aa(lp87
I3
aI0
aI2
aI1
aa(lp88
I3
aI0
aI1
aI2
aa(lp89
I1
aI3
aI0
aI2
aa(lp90
I2
aI0
aI3
aI1
aa(lp91
I3
aI0
aI1
aI2
aa(lp92
I3
aI0
aI1
aI2
aa(lp93
I1
aI0
aI2
aI3
aa(lp94
I1
aI3
aI0
aI2
aa(lp95
I0
aI2
aI3
aI1
aa(lp96
I3
aI0
aI1
aI2
aa(lp97
I3
aI2
aI0
aI1
aa(lp98
I3
aI1
aI0
aI2
aa(lp99
I1
aI0
aI3
aI2
aa(lp100
I0
aI3
aI1
aI2
aa(lp101
I0
aI3
aI2
aI1
aa(lp102
I3
aI1
aI2
aI0
aa(lp103
I3
aI1
aI2
aI0
aa(lp104
I3
aI2
aI1
aI0
aa(lp105
I3
aI0
aI1
aI2
aa(lp106
I0
aI3
aI2
aI1
aa(lp107
I3
aI1
aI2
aI0
aa(lp108
I3
aI0
aI1
aI2
aa(lp109
I1
aI3
aI0
aI2
aa(lp110
I1
aI0
aI2
aI3
aa(lp111
I3
aI1
aI2
aI0
aa(lp112
I3
aI0
aI2
aI1
aa(lp113
I3
aI0
aI2
aI1
aa(lp114
I0
aI3
aI1
aI2
aa(lp115
I3
aI0
aI1
aI2
aa(lp116
I0
aI3
aI2
aI1
aa(lp117
I3
aI1
aI2
aI0
aa(lp118
I0
aI3
aI2
aI1
aa(lp119
I3
aI0
aI2
aI1
aa(lp120
I3
aI0
aI1
aI2
aa(lp121
I3
aI0
aI2
aI1
aa(lp122
I2
aI0
aI1
aI3
aa(lp123
I0
aI1
aI2
aI3
aa(lp124
I3
aI0
aI1
aI2
aa(lp125
I1
aI3
aI2
aI0
aa(lp126
I3
aI0
aI2
aI1
aa(lp127
I3
aI0
aI1
aI2
aa(lp128
I3
aI0
aI1
aI2
aa(lp129
I0
aI1
aI3
aI2
aa(lp130
I3
aI0
aI1
aI2
aa(lp131
I3
aI0
aI1
aI2
aa(lp132
I1
aI3
aI0
aI2
aa(lp133
I3
aI2
aI0
aI1
aa(lp134
I1
aI3
aI0
aI2
aa(lp135
I3
aI1
aI0
aI2
aa(lp136
I0
aI1
aI2
aI3
aa(lp137
I0
aI1
aI3
aI2
aa(lp138
I0
aI3
aI1
aI2
aa(lp139
I0
aI1
aI3
aI2
aa(lp140
I0
aI3
aI2
aI1
aa(lp141
I3
aI0
aI2
aI1
aasS'PCMC'
p142
g2
(g3
(I0
tp143
g5
tp144
Rp145
(I1
(I12
tp146
g12
I00
S'*`\x13\xf1xoS?C*\x0bV\xe5D\xf8?\xb05C\xd0Lrl@\xc7\x95\x1d8;\xf4k?U\x06\xc5w\xf5!\xa0?\x9b\x19\x9f\xe7$GX?\xab\xbb\x9d\x00\xfa2\x1c@~J\xed[\xefy\xa3?Nj\xb1\xa4TQ\xf0?\xe1Ev\xef\xfc\x9eP@G\xb4C\xd5\x0f!c?\xe4\\\xb3*p~\xd4?'
p147
tp148
bsS'PL'
p149
g2
(g3
(I0
tp150
g5
tp151
Rp152
(I1
(I4
tp153
g12
I00
S'\x01\x0f\xfc\xe6%\x96\xcf?$\xbf\xc9x\x9c\x17\xb8?\xf6\xc8{x\xa4\xf0\xb1?<K\x18hn\xd9\xe2?'
p154
tp155
bsS'Mallows-greedy-RE'
p156
((lp157
I2
aI1
aI0
aI3
ag34
(g12
S'\xeb\x94\x92c\x16\xc3\xf7?'
p158
tp159
Rp160
tp161
s.