(dp0
S'PCMC-RE'
p1
cnumpy.core.multiarray
_reconstruct
p2
(cnumpy
ndarray
p3
(I0
tp4
S'b'
p5
tp6
Rp7
(I1
(I6
tp8
cnumpy
dtype
p9
(S'f8'
p10
I0
I1
tp11
Rp12
(I3
S'<'
p13
NNNI-1
I-1
I0
tp14
bI00
S'X\x1b\xe6\xb5\x7fiP?\xdbY\xb9z\x98\xb3\xf2?\n\x04\xd4\xe1\x05,i?\x1b\x83\xf0\x1e\x95\x1d\xd7?\xec-\x04F\xd9\xbe\xeb?iEx\xbc\xd2\xbd\xc6?'
p15
tp16
bsS'MMNL-RE'
p17
g2
(g3
(I0
tp18
g5
tp19
Rp20
(I1
(I4
tp21
g12
I00
S'\x00\x00\x00\x00\x00\x00\xf0?3At\x01I\xd8\xe8?@y\xce\xdb&\xfa\xd8?w\x0f3mz\xd8\xed?'
p22
tp23
bsS'PL-RE'
p24
g2
(g3
(I0
tp25
g5
tp26
Rp27
(I1
(I3
tp28
g12
I00
S'\xe6u%\xa3L\xab\xd7?\x82\xcf\xd6B\x91\xcb\xc7?Z"o\xbb\xean\xdc?'
p29
tp30
bsS'N'
p31
I3
sS'Mallows-greedy'
p32
((lp33
I1
aI0
aI2
acnumpy.core.multiarray
scalar
p34
(g12
S'\x9b\x11\xc1{\x87:\xf0?'
p35
tp36
Rp37
tp38
sS'MMNL'
p39
g2
(g3
(I0
tp40
g5
tp41
Rp42
(I1
(I4
tp43
g12
I00
S'\x00\x00\x00\x00\x00\x00\xf0?M\x9b\xcdN\xaa$\xe3?\x07\xc6\xe0(r\x82\xef?\xb8\xe9gp\xd8j\xdb?'
p44
tp45
bsS'test-lists'
p46
(lp47
(lp48
I1
aI2
aI0
aa(lp49
I2
aI0
aI1
aa(lp50
I1
aI0
aI2
aa(lp51
I1
aI2
aI0
aa(lp52
I1
aI2
aI0
aa(lp53
I1
aI2
aI0
aa(lp54
I2
aI0
aI1
aa(lp55
I2
aI0
aI1
aa(lp56
I1
aI2
aI0
aa(lp57
I1
aI0
aI2
aa(lp58
I1
aI2
aI0
aa(lp59
I0
aI1
aI2
aa(lp60
I1
aI2
aI0
aa(lp61
I0
aI1
aI2
aa(lp62
I1
aI0
aI2
aa(lp63
I2
aI0
aI1
aa(lp64
I0
aI1
aI2
aa(lp65
I1
aI0
aI2
aa(lp66
I1
aI2
aI0
aa(lp67
I2
aI1
aI0
aa(lp68
I1
aI0
aI2
aa(lp69
I2
aI0
aI1
aa(lp70
I2
aI1
aI0
aa(lp71
I1
aI0
aI2
aa(lp72
I2
aI0
aI1
aa(lp73
I1
aI0
aI2
aa(lp74
I2
aI0
aI1
aa(lp75
I1
aI0
aI2
aa(lp76
I0
aI1
aI2
aa(lp77
I2
aI0
aI1
aa(lp78
I1
aI0
aI2
aa(lp79
I1
aI0
aI2
aa(lp80
I0
aI1
aI2
aa(lp81
I1
aI2
aI0
aa(lp82
I1
aI2
aI0
aa(lp83
I1
aI0
aI2
aa(lp84
I0
aI1
aI2
aa(lp85
I2
aI1
aI0
aa(lp86
I2
aI0
aI1
aa(lp87
I1
aI0
aI2
aa(lp88
I1
aI0
aI2
aa(lp89
I0
aI2
aI1
aa(lp90
I2
aI1
aI0
aa(lp91
I2
aI0
aI1
aa(lp92
I1
aI0
aI2
aa(lp93
I2
aI1
aI0
aa(lp94
I1
aI0
aI2
aa(lp95
I0
aI1
aI2
aa(lp96
I2
aI0
aI1
aa(lp97
I1
aI0
aI2
aa(lp98
I1
aI0
aI2
aa(lp99
I0
aI1
aI2
aa(lp100
I2
aI0
aI1
aa(lp101
I1
aI0
aI2
aa(lp102
I1
aI2
aI0
aa(lp103
I0
aI2
aI1
aa(lp104
I1
aI2
aI0
aa(lp105
I1
aI2
aI0
aa(lp106
I0
aI2
aI1
aa(lp107
I0
aI1
aI2
aa(lp108
I1
aI0
aI2
aa(lp109
I2
aI0
aI1
aa(lp110
I1
aI2
aI0
aa(lp111
I0
aI2
aI1
aa(lp112
I1
aI0
aI2
aa(lp113
I1
aI0
aI2
aa(lp114
I1
aI0
aI2
aa(lp115
I0
aI1
aI2
aa(lp116
I1
aI2
aI0
aa(lp117
I1
aI2
aI0
aa(lp118
I1
aI2
aI0
aa(lp119
I2
aI0
aI1
aa(lp120
I0
aI2
aI1
aa(lp121
I2
aI1
aI0
aa(lp122
I0
aI1
aI2
aa(lp123
I1
aI2
aI0
aa(lp124
I1
aI0
aI2
aa(lp125
I1
aI2
aI0
aa(lp126
I2
aI0
aI1
aa(lp127
I0
aI1
aI2
aa(lp128
I1
aI2
aI0
aa(lp129
I1
aI0
aI2
aa(lp130
I2
aI1
aI0
aa(lp131
I1
aI0
aI2
aa(lp132
I1
aI0
aI2
aa(lp133
I1
aI2
aI0
aa(lp134
I0
aI2
aI1
aa(lp135
I2
aI0
aI1
aa(lp136
I1
aI0
aI2
aa(lp137
I1
aI2
aI0
aa(lp138
I0
aI2
aI1
aa(lp139
I2
aI0
aI1
aa(lp140
I1
aI0
aI2
aa(lp141
I1
aI2
aI0
aa(lp142
I1
aI2
aI0
aa(lp143
I0
aI2
aI1
aa(lp144
I2
aI1
aI0
aa(lp145
I0
aI1
aI2
aa(lp146
I1
aI0
aI2
aa(lp147
I0
aI1
aI2
aa(lp148
I1
aI0
aI2
aa(lp149
I0
aI1
aI2
aa(lp150
I1
aI0
aI2
aa(lp151
I1
aI0
aI2
aa(lp152
I1
aI0
aI2
aa(lp153
I1
aI2
aI0
aa(lp154
I2
aI1
aI0
aa(lp155
I1
aI2
aI0
aa(lp156
I2
aI1
aI0
aa(lp157
I1
aI0
aI2
aa(lp158
I1
aI0
aI2
aa(lp159
I1
aI0
aI2
aa(lp160
I2
aI1
aI0
aa(lp161
I1
aI2
aI0
aa(lp162
I1
aI0
aI2
aa(lp163
I2
aI1
aI0
aa(lp164
I1
aI2
aI0
aa(lp165
I0
aI1
aI2
aa(lp166
I1
aI2
aI0
aa(lp167
I2
aI0
aI1
aa(lp168
I1
aI2
aI0
aa(lp169
I1
aI2
aI0
aa(lp170
I1
aI2
aI0
aa(lp171
I1
aI0
aI2
aa(lp172
I1
aI2
aI0
aa(lp173
I1
aI2
aI0
aa(lp174
I2
aI0
aI1
aa(lp175
I1
aI0
aI2
aa(lp176
I2
aI1
aI0
aa(lp177
I0
aI2
aI1
aa(lp178
I0
aI2
aI1
aa(lp179
I1
aI0
aI2
aa(lp180
I2
aI0
aI1
aa(lp181
I1
aI0
aI2
aa(lp182
I0
aI2
aI1
aa(lp183
I1
aI0
aI2
aa(lp184
I1
aI0
aI2
aa(lp185
I0
aI1
aI2
aa(lp186
I1
aI2
aI0
aa(lp187
I1
aI0
aI2
aa(lp188
I2
aI0
aI1
aa(lp189
I1
aI0
aI2
aa(lp190
I1
aI2
aI0
aa(lp191
I0
aI1
aI2
aa(lp192
I1
aI2
aI0
aa(lp193
I1
aI2
aI0
aa(lp194
I1
aI0
aI2
aa(lp195
I2
aI1
aI0
aa(lp196
I0
aI2
aI1
aa(lp197
I2
aI1
aI0
aa(lp198
I1
aI0
aI2
aa(lp199
I2
aI1
aI0
aa(lp200
I1
aI2
aI0
aa(lp201
I2
aI0
aI1
aa(lp202
I1
aI0
aI2
aa(lp203
I1
aI2
aI0
aa(lp204
I1
aI0
aI2
aa(lp205
I2
aI0
aI1
aa(lp206
I1
aI0
aI2
aa(lp207
I1
aI2
aI0
aa(lp208
I0
aI2
aI1
aa(lp209
I2
aI1
aI0
aa(lp210
I0
aI1
aI2
aa(lp211
I0
aI2
aI1
aa(lp212
I2
aI0
aI1
aa(lp213
I1
aI2
aI0
aa(lp214
I1
aI0
aI2
aa(lp215
I1
aI2
aI0
aa(lp216
I0
aI2
aI1
aa(lp217
I0
aI1
aI2
aa(lp218
I2
aI1
aI0
aa(lp219
I1
aI0
aI2
aa(lp220
I1
aI0
aI2
aa(lp221
I0
aI1
aI2
aa(lp222
I0
aI1
aI2
aa(lp223
I2
aI1
aI0
aa(lp224
I1
aI2
aI0
aa(lp225
I1
aI2
aI0
aa(lp226
I1
aI0
aI2
aa(lp227
I0
aI1
aI2
aa(lp228
I0
aI2
aI1
aa(lp229
I0
aI2
aI1
aa(lp230
I2
aI1
aI0
aa(lp231
I1
aI2
aI0
aa(lp232
I1
aI0
aI2
aa(lp233
I1
aI2
aI0
aa(lp234
I0
aI2
aI1
aa(lp235
I2
aI0
aI1
aa(lp236
I1
aI2
aI0
aa(lp237
I1
aI2
aI0
aa(lp238
I2
aI1
aI0
aa(lp239
I1
aI2
aI0
aa(lp240
I0
aI2
aI1
aa(lp241
I2
aI1
aI0
aa(lp242
I0
aI1
aI2
aa(lp243
I1
aI2
aI0
aa(lp244
I0
aI1
aI2
aa(lp245
I1
aI0
aI2
aa(lp246
I0
aI2
aI1
aa(lp247
I2
aI0
aI1
aa(lp248
I1
aI0
aI2
aasS'PCMC'
p249
g2
(g3
(I0
tp250
g5
tp251
Rp252
(I1
(I6
tp253
g12
I00
S'\xf2\x7fH]\x82P\x07@\xbc^_\xfd\xae\x85U?\x92\xbbka\xc9A\xf9?\x9d\xd9N\xf4\x9b\xd0\xe6?y +\x1dr)d?\x05|\xef\xb3;\xd9\xf6?'
p254
tp255
bsS'PL'
p256
g2
(g3
(I0
tp257
g5
tp258
Rp259
(I1
(I3
tp260
g12
I00
S'\xddguH$\t\xd3?\x88\xd6\x8b"%U\xdf?:\x83\xfd)mC\xcb?'
p261
tp262
bsS'Mallows-greedy-RE'
p263
((lp264
I2
aI0
aI1
ag34
(g12
S'\x9b\x11\xc1{\x87:\xf0?'
p265
tp266
Rp267
tp268
s.