(dp0
S'PCMC-RE'
p1
cnumpy.core.multiarray
_reconstruct
p2
(cnumpy
ndarray
p3
(I0
tp4
S'b'
p5
tp6
Rp7
(I1
(I12
tp8
cnumpy
dtype
p9
(S'f8'
p10
I0
I1
tp11
Rp12
(I3
S'<'
p13
NNNI-1
I-1
I0
tp14
bI00
S'\x8b-\xd2\xf5\xd7m\x00@m\xda\x11\x85\xcf\x1dS@\x0fT\x18\xdc\xdd\xf7\xa7?\x0b\xa7\xe7 \xef\xec\x17@\x1a$\x86\n\xa1\rI@\xd6\x98\xe9j\xca\xb6-@\xfb\xd9=\xb4\xa7\xb4>@M\x81\xbcc4F.@\xa2i \x1bv\x03\x04@x\r\x87\x9f<\x16\xc6?z\x8a\xea\x9a0\x9c&@a\x08\xb0\xfa\xfe-\x1f@'
p15
tp16
bsS'MMNL-RE'
p17
g2
(g3
(I0
tp18
g5
tp19
Rp20
(I1
(I10
tp21
g12
I00
S"\xc1'){w\x98\xe6?\x7f\xb0\xad\t\x11\xcf\xd2?\x89Fq\x0c\xa6\xb4\xee?\xc7\xd5\xf2\xf1J\xd3\x95?d\x18\x98\xee\xbc\xa8\xe4?\xe6\x08\xe8\x0b\xc6\x95\xb0>hT\x8dq\xeep\xf0?G\xe9-\x03u\n\xf7?8\x86\xba\xa7\xc6\xff\xe7?\xe0.\xcf\x0f\xfb\x04\xc2>"
p22
tp23
bsS'PL-RE'
p24
g2
(g3
(I0
tp25
g5
tp26
Rp27
(I1
(I4
tp28
g12
I00
S'H\x85\xd1\x90\x10k\xd0?1w\xe7\x8b\x05e\xbe?|l\x80\\\xc7\xba\xde?\xde`h_\xcd\x81\xc2?'
p29
tp30
bsS'N'
p31
I4
sS'Mallows-greedy'
p32
((lp33
I1
aI3
aI0
aI2
acnumpy.core.multiarray
scalar
p34
(g12
S'w>\x98\x00P)\xf2?'
p35
tp36
Rp37
tp38
sS'MMNL'
p39
g2
(g3
(I0
tp40
g5
tp41
Rp42
(I1
(I10
tp43
g12
I00
S"\xf7\x91v\xff\xff\xff\xef?\\\x1d%\x15\xc1-\x11>\xdfy\xbd\xf5\xae \xd9?L\xc5(\xc8\x12\x96\xe2?\x00\x0b;x\xd2\x88\xe4?\x18.\xd3\x8b^@\xef?U\xa2\xbd\x1eZ\xc6\xca?\ng\xd1\xae\x1a\xeb\xeb?\xfc:x'_8\xe1?\xd1|\xd2\xa4\xdb\xb5\xe4?"
p44
tp45
bsS'test-lists'
p46
(lp47
(lp48
I3
aI1
aI0
aI2
aa(lp49
I3
aI2
aI0
aI1
aa(lp50
I3
aI0
aI2
aI1
aa(lp51
I0
aI3
aI1
aI2
aa(lp52
I1
aI2
aI3
aI0
aa(lp53
I2
aI3
aI0
aI1
aa(lp54
I3
aI0
aI2
aI1
aa(lp55
I1
aI3
aI0
aI2
aa(lp56
I3
aI1
aI0
aI2
aa(lp57
I3
aI1
aI0
aI2
aa(lp58
I1
aI3
aI0
aI2
aa(lp59
I2
aI3
aI0
aI1
aa(lp60
I3
aI1
aI2
aI0
aa(lp61
I3
aI0
aI2
aI1
aa(lp62
I3
aI0
aI2
aI1
aa(lp63
I3
aI1
aI2
aI0
aa(lp64
I1
aI2
aI3
aI0
aa(lp65
I1
aI3
aI0
aI2
aa(lp66
I1
aI2
aI0
aI3
aa(lp67
I0
aI1
aI3
aI2
aa(lp68
I1
aI3
aI0
aI2
aa(lp69
I1
aI0
aI2
aI3
aa(lp70
I3
aI1
aI0
aI2
aa(lp71
I0
aI3
aI1
aI2
aa(lp72
I2
aI1
aI3
aI0
aa(lp73
I0
aI1
aI3
aI2
aa(lp74
I3
aI0
aI1
aI2
aa(lp75
I3
aI1
aI0
aI2
aa(lp76
I3
aI0
aI2
aI1
aa(lp77
I3
aI0
aI1
aI2
aa(lp78
I1
aI3
aI0
aI2
aa(lp79
I1
aI3
aI0
aI2
aa(lp80
I1
aI0
aI3
aI2
aa(lp81
I3
aI0
aI1
aI2
aa(lp82
I1
aI0
aI2
aI3
aa(lp83
I3
aI0
aI1
aI2
aa(lp84
I1
aI3
aI2
aI0
aa(lp85
I3
aI2
aI1
aI0
aa(lp86
I3
aI0
aI2
aI1
aa(lp87
I3
aI0
aI1
aI2
aa(lp88
I0
aI3
aI1
aI2
aa(lp89
I1
aI0
aI2
aI3
aa(lp90
I3
aI0
aI2
aI1
aa(lp91
I0
aI1
aI2
aI3
aa(lp92
I1
aI0
aI3
aI2
aa(lp93
I3
aI1
aI0
aI2
aa(lp94
I2
aI0
aI1
aI3
aa(lp95
I3
aI0
aI1
aI2
aa(lp96
I1
aI3
aI0
aI2
aa(lp97
I1
aI3
aI2
aI0
aa(lp98
I0
aI1
aI3
aI2
aa(lp99
I1
aI0
aI3
aI2
aa(lp100
I1
aI0
aI3
aI2
aa(lp101
I1
aI3
aI0
aI2
aa(lp102
I1
aI3
aI0
aI2
aa(lp103
I3
aI0
aI2
aI1
aa(lp104
I3
aI1
aI0
aI2
aa(lp105
I1
aI3
aI0
aI2
aa(lp106
I2
aI1
aI3
aI0
aa(lp107
I3
aI1
aI2
aI0
aa(lp108
I3
aI0
aI1
aI2
aa(lp109
I3
aI0
aI1
aI2
aa(lp110
I3
aI0
aI2
aI1
aa(lp111
I3
aI1
aI2
aI0
aa(lp112
I1
aI2
aI0
aI3
aa(lp113
I3
aI1
aI0
aI2
aa(lp114
I0
aI3
aI1
aI2
aa(lp115
I0
aI2
aI3
aI1
aa(lp116
I2
aI3
aI0
aI1
aa(lp117
I1
aI2
aI0
aI3
aa(lp118
I1
aI3
aI0
aI2
aa(lp119
I1
aI3
aI0
aI2
aa(lp120
I3
aI1
aI2
aI0
aa(lp121
I1
aI0
aI3
aI2
aa(lp122
I3
aI0
aI2
aI1
aa(lp123
I1
aI3
aI0
aI2
aa(lp124
I1
aI0
aI3
aI2
aa(lp125
I1
aI3
aI0
aI2
aa(lp126
I0
aI3
aI2
aI1
aa(lp127
I1
aI3
aI2
aI0
aa(lp128
I0
aI3
aI1
aI2
aa(lp129
I1
aI3
aI2
aI0
aa(lp130
I1
aI3
aI0
aI2
aa(lp131
I3
aI1
aI0
aI2
aa(lp132
I0
aI3
aI2
aI1
aa(lp133
I1
aI0
aI2
aI3
aa(lp134
I3
aI1
aI0
aI2
aasS'PCMC'
p135
g2
(g3
(I0
tp136
g5
tp137
Rp138
(I1
(I12
tp139
g12
I00
S'w\rl\xda\xfbp\xe0?\xc0r\xf4\x12\'\x80\xda?\x1a\x11\x98\x0446\xf7?\t3\xe1\t\xe8\x9d\xd5?\xfc\xa9\xf1\xd2MbP?D\xb7\x1f\xb5"\xda\xdd?\xef~/"L5\xf1?\x97\x9f\xea\xc7\x17\xf3P?5h\x1c\x02\xa6!s?\xc8\xb3\x8e&fz\xed?5B\xd8E-\x8f\xe6?\x93\x04WP\xd5Fn?'
p140
tp141
bsS'PL'
p142
g2
(g3
(I0
tp143
g5
tp144
Rp145
(I1
(I4
tp146
g12
I00
S'\xd8"Ef\x1d5\xcc?\xe8\xc7\xd9\x15#\r\xd7?\xac\x08\x15\xfbv\x0e\xbe?\x84d>x\xb0T\xd3?'
p147
tp148
bsS'Mallows-greedy-RE'
p149
((lp150
I2
aI0
aI3
aI1
ag34
(g12
S'w>\x98\x00P)\xf2?'
p151
tp152
Rp153
tp154
s.