(dp0
S'PCMC-RE'
p1
cnumpy.core.multiarray
_reconstruct
p2
(cnumpy
ndarray
p3
(I0
tp4
S'b'
p5
tp6
Rp7
(I1
(I12
tp8
cnumpy
dtype
p9
(S'f8'
p10
I0
I1
tp11
Rp12
(I3
S'<'
p13
NNNI-1
I-1
I0
tp14
bI00
S'\x15\x88\x07\xc7\x87\xba\xea?01JS\xeb\xdc\xaa?\xcb\x0cf\xb5-O\xf6?2\xba\x9e\x8c\xb8\x19\xcd?\xeb\xf4 \x1e\x17\xf3\x8d?\x06\xa3c\x19\xba\x84\xf2?\x14\x812\x9e4q\xaf?\xdbQ\xf2s\xa0f\xa3?C\xca\xf6\xbc\x9d\xe8\xda?\xef\xca|kV\xab\xc9?X$\xde\x9a\x9f&\xd8?g\xec\xcau\xecM\xbd?'
p15
tp16
bsS'MMNL-RE'
p17
g2
(g3
(I0
tp18
g5
tp19
Rp20
(I1
(I10
tp21
g12
I00
S"*\x01\xfa\xe5O\xd7\xe1?\xac\xfd\x0b4`Q\xdc?\xb3\xa6\xcb\x1d'\xda\x14?\xe1\x1e\xce\xf0\xb0\xfe\xdd?\xd0\xe2\xd9\x15\xc0I\xde?\xc7\x17l\r\x03\xb4\xd6?6\xc4\x8e\x9e\xa5\xda\x01?:(c\xf9n\x85\xe6?H\xda:i\xa5\x13\xf9?\xe9\xbf\x14\xc7U\x04\xeb?"
p22
tp23
bsS'PL-RE'
p24
g2
(g3
(I0
tp25
g5
tp26
Rp27
(I1
(I4
tp28
g12
I00
S'\xb1|\n\xa0\xe4\xd8\xb5?\xa0\x9cQ\xd3zd\xce?b~\xd0\xc5rY\xb7?v9p^\x96\xc0\xe2?'
p29
tp30
bsS'N'
p31
I4
sS'Mallows-greedy'
p32
((lp33
I0
aI2
aI1
aI3
acnumpy.core.multiarray
scalar
p34
(g12
S'\xd0D\xc0\x9d\xb5A\xf5?'
p35
tp36
Rp37
tp38
sS'MMNL'
p39
g2
(g3
(I0
tp40
g5
tp41
Rp42
(I1
(I10
tp43
g12
I00
S'\xe9[\x84\xa15f\xda?\x0b\xd2=/\xe5\xcc\xe2?I\x1d\xd5\xc4\x91\xd6\xfb?kt*_\xcd\xb5\xe2?\x9f\xa0\xa8\x03\x891\xe8?,\x14V\x9b\xb4\x8b\xc0?\x95\xd6&\xe8\x0b.\x11>b\x11\xe7K\xa3\xe6\xfa?\xed\x88\x84\xbc\xb2\t\xd1?\xeeJA\xb9D\xca\xab?'
p44
tp45
bsS'test-lists'
p46
(lp47
(lp48
I2
aI3
aI1
aI0
aa(lp49
I0
aI2
aI3
aI1
aa(lp50
I0
aI1
aI3
aI2
aa(lp51
I1
aI0
aI2
aI3
aa(lp52
I2
aI3
aI1
aI0
aa(lp53
I2
aI0
aI1
aI3
aa(lp54
I3
aI1
aI0
aI2
aa(lp55
I0
aI1
aI3
aI2
aa(lp56
I1
aI0
aI2
aI3
aa(lp57
I0
aI3
aI1
aI2
aa(lp58
I0
aI2
aI1
aI3
aa(lp59
I2
aI0
aI1
aI3
aa(lp60
I0
aI1
aI2
aI3
aa(lp61
I2
aI1
aI0
aI3
aa(lp62
I0
aI1
aI2
aI3
aa(lp63
I2
aI1
aI3
aI0
aa(lp64
I2
aI0
aI1
aI3
aa(lp65
I2
aI0
aI1
aI3
aa(lp66
I1
aI3
aI0
aI2
aa(lp67
I0
aI2
aI3
aI1
aa(lp68
I2
aI0
aI1
aI3
aa(lp69
I2
aI0
aI1
aI3
aa(lp70
I2
aI0
aI1
aI3
aa(lp71
I0
aI3
aI1
aI2
aa(lp72
I2
aI0
aI3
aI1
aa(lp73
I0
aI3
aI1
aI2
aa(lp74
I1
aI2
aI0
aI3
aa(lp75
I0
aI2
aI3
aI1
aa(lp76
I1
aI0
aI3
aI2
aa(lp77
I0
aI3
aI2
aI1
aa(lp78
I2
aI1
aI3
aI0
aa(lp79
I1
aI0
aI2
aI3
aa(lp80
I3
aI2
aI0
aI1
aa(lp81
I2
aI0
aI1
aI3
aa(lp82
I0
aI2
aI3
aI1
aa(lp83
I2
aI1
aI0
aI3
aa(lp84
I2
aI0
aI1
aI3
aa(lp85
I2
aI0
aI1
aI3
aa(lp86
I0
aI2
aI3
aI1
aa(lp87
I0
aI2
aI3
aI1
aa(lp88
I1
aI0
aI2
aI3
aa(lp89
I2
aI0
aI1
aI3
aa(lp90
I2
aI0
aI1
aI3
aa(lp91
I2
aI0
aI3
aI1
aa(lp92
I3
aI2
aI0
aI1
aa(lp93
I0
aI2
aI1
aI3
aa(lp94
I3
aI0
aI1
aI2
aa(lp95
I0
aI2
aI1
aI3
aa(lp96
I0
aI2
aI3
aI1
aa(lp97
I0
aI2
aI1
aI3
aa(lp98
I2
aI0
aI3
aI1
aa(lp99
I1
aI2
aI0
aI3
aa(lp100
I0
aI2
aI1
aI3
aa(lp101
I3
aI1
aI0
aI2
aa(lp102
I2
aI0
aI3
aI1
aa(lp103
I2
aI3
aI0
aI1
aa(lp104
I2
aI1
aI0
aI3
aa(lp105
I0
aI1
aI3
aI2
aa(lp106
I2
aI0
aI3
aI1
aa(lp107
I0
aI1
aI3
aI2
aa(lp108
I2
aI0
aI1
aI3
aa(lp109
I0
aI3
aI1
aI2
aa(lp110
I0
aI2
aI1
aI3
aa(lp111
I0
aI2
aI1
aI3
aa(lp112
I0
aI1
aI2
aI3
aa(lp113
I1
aI0
aI2
aI3
aa(lp114
I0
aI2
aI1
aI3
aa(lp115
I0
aI3
aI1
aI2
aa(lp116
I0
aI2
aI3
aI1
aa(lp117
I1
aI2
aI0
aI3
aa(lp118
I2
aI0
aI1
aI3
aa(lp119
I2
aI0
aI1
aI3
aa(lp120
I2
aI0
aI1
aI3
aa(lp121
I2
aI0
aI1
aI3
aa(lp122
I2
aI0
aI1
aI3
aa(lp123
I1
aI0
aI2
aI3
aa(lp124
I2
aI0
aI1
aI3
aa(lp125
I2
aI0
aI1
aI3
aa(lp126
I1
aI0
aI3
aI2
aa(lp127
I0
aI2
aI1
aI3
aa(lp128
I2
aI0
aI1
aI3
aa(lp129
I0
aI2
aI1
aI3
aa(lp130
I2
aI0
aI1
aI3
aa(lp131
I2
aI1
aI3
aI0
aa(lp132
I0
aI1
aI2
aI3
aa(lp133
I1
aI0
aI2
aI3
aa(lp134
I2
aI0
aI1
aI3
aa(lp135
I0
aI1
aI2
aI3
aa(lp136
I2
aI0
aI1
aI3
aa(lp137
I0
aI2
aI1
aI3
aa(lp138
I0
aI1
aI3
aI2
aa(lp139
I1
aI3
aI2
aI0
aa(lp140
I2
aI0
aI1
aI3
aa(lp141
I2
aI0
aI1
aI3
aa(lp142
I0
aI1
aI3
aI2
aa(lp143
I2
aI1
aI0
aI3
aa(lp144
I0
aI2
aI1
aI3
aa(lp145
I2
aI0
aI1
aI3
aa(lp146
I2
aI1
aI0
aI3
aa(lp147
I0
aI1
aI2
aI3
aa(lp148
I1
aI0
aI2
aI3
aa(lp149
I2
aI1
aI0
aI3
aa(lp150
I2
aI0
aI3
aI1
aa(lp151
I2
aI0
aI3
aI1
aa(lp152
I2
aI0
aI1
aI3
aa(lp153
I0
aI2
aI1
aI3
aa(lp154
I0
aI1
aI3
aI2
aa(lp155
I2
aI0
aI1
aI3
aa(lp156
I0
aI3
aI1
aI2
aa(lp157
I0
aI2
aI1
aI3
aa(lp158
I2
aI0
aI1
aI3
aa(lp159
I1
aI0
aI2
aI3
aa(lp160
I0
aI2
aI1
aI3
aa(lp161
I2
aI1
aI0
aI3
aa(lp162
I0
aI2
aI1
aI3
aa(lp163
I0
aI1
aI2
aI3
aa(lp164
I2
aI1
aI3
aI0
aa(lp165
I1
aI2
aI0
aI3
aa(lp166
I2
aI0
aI1
aI3
aa(lp167
I2
aI0
aI1
aI3
aa(lp168
I0
aI2
aI1
aI3
aa(lp169
I1
aI2
aI0
aI3
aa(lp170
I1
aI0
aI3
aI2
aa(lp171
I0
aI3
aI1
aI2
aasS'PCMC'
p172
g2
(g3
(I0
tp173
g5
tp174
Rp175
(I1
(I12
tp176
g12
I00
S"wx\x84F\x13\x17BA\x92\xaex\xf2\xe4\xa7\\AOE-\xd2+\x9fP?vC!@\xaf']A@\x85\xce\x90\x16\xba\xf6?\xa4E\x15=\xc8dSAcL_\xd6\x15\x07]AU\xdd\x1e;P\xbc\xef?\x1f\x8bEc\xb1\xe2\x9c?\xf0d\xa9\xfb\x08\xfaf?(-i~\x14SnA\xae^;Q\xe7\x0e\xa3?"
p177
tp178
bsS'PL'
p179
g2
(g3
(I0
tp180
g5
tp181
Rp182
(I1
(I4
tp183
g12
I00
S'\x0e{u\x88I\xa7\xdb?\x82\xb0\x7f}\x89C\xc5?\xfe\xe7NQr%\xd5?\xcd\x12\xef\x9d\xfdE\xb2?'
p184
tp185
bsS'Mallows-greedy-RE'
p186
((lp187
I3
aI1
aI2
aI0
ag34
(g12
S'\xd0D\xc0\x9d\xb5A\xf5?'
p188
tp189
Rp190
tp191
s.