(dp0
S'PCMC-RE'
p1
cnumpy.core.multiarray
_reconstruct
p2
(cnumpy
ndarray
p3
(I0
tp4
S'b'
p5
tp6
Rp7
(I1
(I12
tp8
cnumpy
dtype
p9
(S'f8'
p10
I0
I1
tp11
Rp12
(I3
S'<'
p13
NNNI-1
I-1
I0
tp14
bI00
S'XhQ\x08Un\xb4?D\xda\x87\xedc2\xb3?\x02\xe1\xb6S\xaa\x00`?|\x89cjRy\xc0?\r\xf9\x9cel\xdeR?\xb6n\x04o\xcb\x92(@\xf3>\xfb\xd2\xa4\xc8\xae?\xfc\xa9\xf1\xd2MbP?\xf5 x\x12\x9c\xf83@\xfc\xa9\xf1\xd2MbP?C\xde\x9b\xf8\xd6\xa6\t@P\xcf\x12\xe8\xe7C3@'
p15
tp16
bsS'MMNL-RE'
p17
g2
(g3
(I0
tp18
g5
tp19
Rp20
(I1
(I10
tp21
g12
I00
S'\x00U6\x07\xed\xbb\xe0?\x00V\x93\xf1%\x88\xde?\xe9*\xb2y\x87\xb1\xb3?\x9284\xde\x91\x90\xf1?E\x8b5\x89\xe0\xd6\xc1?\xb7\xfe\xfa\x13\xa8\xcc\xd3?\xd8w\xb5\xa3q0\xf6?\n\x8b\x1d\x03H\x93\xa6?\xd1A\xcc\x0f\th\xe1?+:)\xd77w\xf2?'
p22
tp23
bsS'PL-RE'
p24
g2
(g3
(I0
tp25
g5
tp26
Rp27
(I1
(I4
tp28
g12
I00
S"'C/\n'<\xca?\x0b\xd3B\x14\xeem\xbf?\tN\x18SI\xd7\xd2?\xa2[\xbf\xa2'/\xd8?"
p29
tp30
bsS'N'
p31
I4
sS'Mallows-greedy'
p32
((lp33
I1
aI0
aI2
aI3
acnumpy.core.multiarray
scalar
p34
(g12
S'i\x10\xcb\x18e$\xf1?'
p35
tp36
Rp37
tp38
sS'MMNL'
p39
g2
(g3
(I0
tp40
g5
tp41
Rp42
(I1
(I10
tp43
g12
I00
S'\x8e\xb5\xfd\x17\xec\x91\xdb?9%\x01\xf4\t7\xe2?\x86\xaa\xc9v\xbe\xa2\xc0?v\xab\x89\xac|?\xf2?\xa4\xdb\x16\xb4Z1\xed?\xda=\xbem\x14\x19\xf8?\x8d\x9a;\t\xb8\xf1\xed?8Qp\x9f\xca1\xb0?\xc1}\xc3\x9fLE\xd8?%5\x01\x9d\x87\xaf\xd1?'
p44
tp45
bsS'test-lists'
p46
(lp47
(lp48
I0
aI1
aI2
aI3
aa(lp49
I2
aI0
aI1
aI3
aa(lp50
I0
aI1
aI2
aI3
aa(lp51
I3
aI1
aI2
aI0
aa(lp52
I1
aI0
aI3
aI2
aa(lp53
I0
aI3
aI2
aI1
aa(lp54
I1
aI0
aI3
aI2
aa(lp55
I2
aI1
aI3
aI0
aa(lp56
I2
aI1
aI3
aI0
aa(lp57
I0
aI1
aI3
aI2
aa(lp58
I2
aI3
aI1
aI0
aa(lp59
I0
aI3
aI1
aI2
aa(lp60
I0
aI2
aI3
aI1
aa(lp61
I1
aI3
aI0
aI2
aa(lp62
I1
aI2
aI3
aI0
aa(lp63
I3
aI1
aI2
aI0
aa(lp64
I1
aI3
aI0
aI2
aa(lp65
I3
aI2
aI0
aI1
aa(lp66
I0
aI1
aI2
aI3
aa(lp67
I1
aI0
aI3
aI2
aa(lp68
I3
aI2
aI1
aI0
aa(lp69
I2
aI0
aI1
aI3
aa(lp70
I1
aI3
aI2
aI0
aa(lp71
I2
aI3
aI1
aI0
aa(lp72
I2
aI3
aI1
aI0
aa(lp73
I0
aI1
aI2
aI3
aa(lp74
I2
aI1
aI0
aI3
aa(lp75
I1
aI3
aI0
aI2
aa(lp76
I1
aI3
aI0
aI2
aa(lp77
I2
aI0
aI1
aI3
aa(lp78
I1
aI0
aI2
aI3
aa(lp79
I2
aI0
aI1
aI3
aa(lp80
I1
aI0
aI2
aI3
aa(lp81
I0
aI1
aI2
aI3
aa(lp82
I1
aI3
aI2
aI0
aa(lp83
I2
aI3
aI1
aI0
aa(lp84
I0
aI3
aI1
aI2
aa(lp85
I2
aI1
aI3
aI0
aa(lp86
I3
aI1
aI0
aI2
aa(lp87
I0
aI2
aI1
aI3
aa(lp88
I1
aI3
aI0
aI2
aa(lp89
I3
aI2
aI0
aI1
aa(lp90
I1
aI3
aI0
aI2
aa(lp91
I1
aI0
aI3
aI2
aa(lp92
I2
aI1
aI3
aI0
aa(lp93
I2
aI0
aI1
aI3
aa(lp94
I0
aI1
aI3
aI2
aa(lp95
I1
aI0
aI3
aI2
aa(lp96
I2
aI3
aI0
aI1
aa(lp97
I3
aI0
aI2
aI1
aa(lp98
I2
aI1
aI3
aI0
aa(lp99
I3
aI1
aI2
aI0
aa(lp100
I2
aI0
aI1
aI3
aa(lp101
I0
aI1
aI3
aI2
aa(lp102
I1
aI3
aI2
aI0
aa(lp103
I0
aI2
aI1
aI3
aa(lp104
I3
aI0
aI1
aI2
aa(lp105
I0
aI2
aI1
aI3
aa(lp106
I1
aI3
aI2
aI0
aa(lp107
I1
aI2
aI0
aI3
aa(lp108
I2
aI0
aI1
aI3
aa(lp109
I1
aI2
aI3
aI0
aa(lp110
I0
aI1
aI3
aI2
aa(lp111
I2
aI3
aI1
aI0
aa(lp112
I1
aI0
aI2
aI3
aa(lp113
I0
aI2
aI3
aI1
aa(lp114
I2
aI1
aI3
aI0
aa(lp115
I1
aI0
aI3
aI2
aa(lp116
I1
aI3
aI2
aI0
aa(lp117
I1
aI2
aI0
aI3
aa(lp118
I1
aI0
aI3
aI2
aa(lp119
I1
aI0
aI2
aI3
aa(lp120
I1
aI0
aI2
aI3
aa(lp121
I2
aI1
aI0
aI3
aa(lp122
I1
aI0
aI2
aI3
aa(lp123
I0
aI1
aI3
aI2
aa(lp124
I3
aI2
aI1
aI0
aa(lp125
I2
aI0
aI1
aI3
aa(lp126
I1
aI3
aI2
aI0
aa(lp127
I1
aI2
aI3
aI0
aa(lp128
I3
aI1
aI2
aI0
aa(lp129
I0
aI1
aI2
aI3
aa(lp130
I1
aI3
aI0
aI2
aa(lp131
I1
aI0
aI2
aI3
aa(lp132
I1
aI2
aI3
aI0
aa(lp133
I1
aI2
aI0
aI3
aa(lp134
I3
aI2
aI1
aI0
aa(lp135
I1
aI0
aI2
aI3
aa(lp136
I0
aI1
aI3
aI2
aa(lp137
I1
aI0
aI2
aI3
aa(lp138
I2
aI1
aI0
aI3
aa(lp139
I1
aI2
aI0
aI3
aa(lp140
I2
aI1
aI3
aI0
aa(lp141
I2
aI0
aI3
aI1
aa(lp142
I0
aI1
aI3
aI2
aa(lp143
I3
aI1
aI2
aI0
aa(lp144
I2
aI3
aI0
aI1
aa(lp145
I2
aI1
aI3
aI0
aa(lp146
I1
aI2
aI3
aI0
aa(lp147
I1
aI3
aI2
aI0
aa(lp148
I2
aI1
aI3
aI0
aa(lp149
I2
aI3
aI0
aI1
aa(lp150
I2
aI1
aI3
aI0
aa(lp151
I0
aI3
aI2
aI1
aa(lp152
I0
aI1
aI2
aI3
aa(lp153
I1
aI0
aI2
aI3
aa(lp154
I1
aI2
aI3
aI0
aa(lp155
I0
aI2
aI1
aI3
aa(lp156
I0
aI1
aI2
aI3
aa(lp157
I0
aI2
aI1
aI3
aa(lp158
I2
aI3
aI1
aI0
aa(lp159
I2
aI1
aI0
aI3
aa(lp160
I1
aI2
aI3
aI0
aa(lp161
I0
aI1
aI3
aI2
aa(lp162
I1
aI3
aI0
aI2
aa(lp163
I1
aI0
aI3
aI2
aa(lp164
I0
aI1
aI2
aI3
aasS'PCMC'
p165
g2
(g3
(I0
tp166
g5
tp167
Rp168
(I1
(I12
tp169
g12
I00
S'\xaf6\xad\x13\xf8\xbd\xda?\x1f\x95DI{\x8a\xd0?\x12\x92\xbdwX\xd0\xe1?\xa8\x0cl\xf5i\xfa\xcd?{)\xb2\xcd\x02\x9e\xd6?\xf8\x19\xdd\x00\xd9\xb7\xd5?\xe3\xec\x86\x8c\xee\x0c\xd8?)M\xdf\xa1\xea(\xed?\x99\x1b\xc6V\xfeUe?\xdd\xf8c\xe0}\xc7\xee?O\xee\xe2\xcb1E\xf5?\x1djtH\xd9\x1b^?'
p170
tp171
bsS'PL'
p172
g2
(g3
(I0
tp173
g5
tp174
Rp175
(I1
(I4
tp176
g12
I00
S'x\xf1Ye\x04#\xce?w\x13v|\x9f\xe0\xdd?\x85ru\x92T\xbf\xc3?\x16uD\x0fh\\\xc2?'
p177
tp178
bsS'Mallows-greedy-RE'
p179
((lp180
I3
aI2
aI0
aI1
ag34
(g12
S'i\x10\xcb\x18e$\xf1?'
p181
tp182
Rp183
tp184
s.