(dp0
S'PCMC-RE'
p1
cnumpy.core.multiarray
_reconstruct
p2
(cnumpy
ndarray
p3
(I0
tp4
S'b'
p5
tp6
Rp7
(I1
(I12
tp8
cnumpy
dtype
p9
(S'f8'
p10
I0
I1
tp11
Rp12
(I3
S'<'
p13
NNNI-1
I-1
I0
tp14
bI00
S'\x81\x01\xa7\xba=\x12\xd1?\xaa\x1d\x1e\xd1\xf1\x98\x01@\xa64G\xc5nkP?}+;\x05o\x06\xe1?=\xe4\xd8\x0f\x98\x8bp?WXh\xc7HR\xf1?\xe9\xb8\x1ab\xaa\xbc\xe5?&\xa8I\xa8\xc8\xa4Q?\x81\x87|1\x03m\xe3?\xfc\xa9\xf1\xd2MbP?A[uB\xcfs\xd9?MC\xd6\x14\x060\xe2?'
p15
tp16
bsS'MMNL-RE'
p17
g2
(g3
(I0
tp18
g5
tp19
Rp20
(I1
(I10
tp21
g12
I00
S'\xc8\xbe\x01\x04\xd1\xc3\xdb?\x9c \xff}\x17\x1e\xe2?h\xfc\xfe\xb6j \xf0?\xb8\x96|\xf0\x94\xec\xb8?\x16\xe9\x06\xa8U\xf1\xe4?\x93J\xafM\xe4\x8c\xa3?q\xb7S\xb6\xe7\xf3\xf5?\xcf\xcc\xc3\x14\xdb*\xeb?\x1d\xbb~;\xf3m\xc1?cs\xc4\xbf\x15\x95\xf8?'
p22
tp23
bsS'PL-RE'
p24
g2
(g3
(I0
tp25
g5
tp26
Rp27
(I1
(I4
tp28
g12
I00
S'\xdf\x98a$\x9a9\xc5?UY\xdd d\xc5\xb8?u\x89\x08IZB\xda?\xc5S\x8f\x9c\x7f\xef\xd4?'
p29
tp30
bsS'N'
p31
I4
sS'Mallows-greedy'
p32
((lp33
I1
aI0
aI3
aI2
acnumpy.core.multiarray
scalar
p34
(g12
S'\x19\xaa7\xe5\xa9\xce\xf2?'
p35
tp36
Rp37
tp38
sS'MMNL'
p39
g2
(g3
(I0
tp40
g5
tp41
Rp42
(I1
(I10
tp43
g12
I00
S'f\x16*\rPc\xde?\xce\xf4j\xf9W\xce\xe0?\xc1"\xa1)\xdb\x1e\xfb?\x8f\x1e\xbb~\x07\np?\x95\xd6&\xe8\x0b.\x11>\xa9rJ\x05Jt\xf3?m\x9d\x84\xde\xa3\xd4\xe3?n\x83\xb8\xca\xf4\xf1W?P\xefwL\x07\x84\xed?\x8d\\\x8ba&FL?'
p44
tp45
bsS'test-lists'
p46
(lp47
(lp48
I0
aI1
aI3
aI2
aa(lp49
I1
aI2
aI0
aI3
aa(lp50
I0
aI1
aI3
aI2
aa(lp51
I1
aI0
aI2
aI3
aa(lp52
I1
aI0
aI3
aI2
aa(lp53
I0
aI2
aI1
aI3
aa(lp54
I0
aI1
aI2
aI3
aa(lp55
I1
aI0
aI2
aI3
aa(lp56
I1
aI2
aI3
aI0
aa(lp57
I0
aI1
aI2
aI3
aa(lp58
I0
aI1
aI2
aI3
aa(lp59
I0
aI1
aI3
aI2
aa(lp60
I1
aI0
aI2
aI3
aa(lp61
I0
aI1
aI2
aI3
aa(lp62
I1
aI0
aI2
aI3
aa(lp63
I1
aI3
aI0
aI2
aa(lp64
I1
aI3
aI0
aI2
aa(lp65
I1
aI3
aI0
aI2
aa(lp66
I1
aI0
aI2
aI3
aa(lp67
I1
aI2
aI3
aI0
aa(lp68
I0
aI1
aI2
aI3
aa(lp69
I1
aI3
aI0
aI2
aa(lp70
I1
aI0
aI3
aI2
aa(lp71
I1
aI3
aI0
aI2
aa(lp72
I2
aI1
aI0
aI3
aa(lp73
I1
aI0
aI2
aI3
aa(lp74
I1
aI0
aI2
aI3
aa(lp75
I0
aI2
aI3
aI1
aa(lp76
I1
aI3
aI2
aI0
aa(lp77
I0
aI2
aI1
aI3
aa(lp78
I3
aI1
aI2
aI0
aa(lp79
I1
aI0
aI3
aI2
aa(lp80
I3
aI1
aI0
aI2
aa(lp81
I1
aI2
aI0
aI3
aa(lp82
I0
aI1
aI2
aI3
aa(lp83
I0
aI1
aI2
aI3
aa(lp84
I1
aI0
aI2
aI3
aa(lp85
I1
aI0
aI2
aI3
aa(lp86
I3
aI2
aI1
aI0
aa(lp87
I3
aI1
aI2
aI0
aa(lp88
I1
aI0
aI2
aI3
aa(lp89
I1
aI0
aI2
aI3
aa(lp90
I1
aI2
aI0
aI3
aa(lp91
I3
aI0
aI1
aI2
aa(lp92
I2
aI0
aI3
aI1
aa(lp93
I1
aI0
aI2
aI3
aa(lp94
I1
aI0
aI2
aI3
aa(lp95
I1
aI0
aI2
aI3
aa(lp96
I1
aI2
aI0
aI3
aa(lp97
I0
aI2
aI1
aI3
aa(lp98
I3
aI2
aI0
aI1
aa(lp99
I1
aI0
aI3
aI2
aa(lp100
I1
aI0
aI3
aI2
aa(lp101
I3
aI0
aI2
aI1
aa(lp102
I2
aI1
aI0
aI3
aa(lp103
I1
aI0
aI2
aI3
aa(lp104
I1
aI0
aI3
aI2
aa(lp105
I0
aI1
aI3
aI2
aa(lp106
I1
aI0
aI2
aI3
aa(lp107
I3
aI1
aI0
aI2
aa(lp108
I0
aI1
aI2
aI3
aa(lp109
I1
aI0
aI2
aI3
aa(lp110
I2
aI0
aI3
aI1
aa(lp111
I0
aI3
aI2
aI1
aa(lp112
I0
aI1
aI2
aI3
aa(lp113
I2
aI1
aI0
aI3
aa(lp114
I0
aI1
aI3
aI2
aa(lp115
I1
aI3
aI0
aI2
aa(lp116
I2
aI1
aI0
aI3
aa(lp117
I1
aI3
aI0
aI2
aa(lp118
I1
aI2
aI3
aI0
aa(lp119
I1
aI3
aI0
aI2
aa(lp120
I3
aI0
aI2
aI1
aa(lp121
I1
aI0
aI3
aI2
aa(lp122
I1
aI3
aI2
aI0
aa(lp123
I0
aI1
aI3
aI2
aa(lp124
I1
aI3
aI0
aI2
aa(lp125
I0
aI2
aI1
aI3
aa(lp126
I1
aI2
aI3
aI0
aa(lp127
I0
aI1
aI3
aI2
aa(lp128
I3
aI2
aI1
aI0
aa(lp129
I1
aI0
aI2
aI3
aa(lp130
I0
aI3
aI1
aI2
aa(lp131
I0
aI1
aI2
aI3
aasS'PCMC'
p132
g2
(g3
(I0
tp133
g5
tp134
Rp135
(I1
(I12
tp136
g12
I00
S'\xeb\xce\xdf\xf1lZ\xfc?\xf8\xf9\xff\x00\xbe\x06\xe9?\xc9\x96>\xe4\xb1\xd0\xd2?\xe2m(\xd8\xac&\xed?6\x97\x07\xe5\x18tT?\xc9 l\xed\xb8\xf4\xbe?8\xd6Q\xfe\x80\x86\x03@\xfc\xa9\xf1\xd2MbP?\xc7\xfb\x97\xf2\xbf\x13\xaf?q\xf1\x02;\xde!\xe5?{\x03\xc0\xc4\xc6"\xd2?\x15\xeaA\xef\xec\x8d\xb1?'
p137
tp138
bsS'PL'
p139
g2
(g3
(I0
tp140
g5
tp141
Rp142
(I1
(I4
tp143
g12
I00
S'!5\xa9\xb5\x12\xaf\xd2?KL&\xe8\xec\xb4\xdc?i`g\xafN\xfb\xbf?\xf5L\xadlY:\xc1?'
p144
tp145
bsS'Mallows-greedy-RE'
p146
((lp147
I2
aI3
aI0
aI1
ag34
(g12
S'\x19\xaa7\xe5\xa9\xce\xf2?'
p148
tp149
Rp150
tp151
s.