(dp0
S'PCMC-RE'
p1
cnumpy.core.multiarray
_reconstruct
p2
(cnumpy
ndarray
p3
(I0
tp4
S'b'
p5
tp6
Rp7
(I1
(I6
tp8
cnumpy
dtype
p9
(S'f8'
p10
I0
I1
tp11
Rp12
(I3
S'<'
p13
NNNI-1
I-1
I0
tp14
bI00
S'\xfa\xccz2\xf2\xd1\x9a?\x8bg\x80]\xd0\xbc\x01@o\xa3f\x9c\x15#\x95?\x00F\xe6\xcc|\xe6h?t\xacj\xd2\xdf\xfd\xdb?\x05\xe8\xa1\xda\x0ePc?'
p15
tp16
bsS'MMNL-RE'
p17
g2
(g3
(I0
tp18
g5
tp19
Rp20
(I1
(I4
tp21
g12
I00
S'\x00\x00\x00\x00\x00\x00\xf0?\x93E\xfab\xc6$\xde?f\xd35d\xb6<\xe5?g Q\xe7\xd5\x95\x00@'
p22
tp23
bsS'PL-RE'
p24
g2
(g3
(I0
tp25
g5
tp26
Rp27
(I1
(I3
tp28
g12
I00
S'\x91\x97\xa0M;\xcb\xc2?h@\xd5WT{\xca?\x02\x8a\xa2\x16\\\xae\xe4?'
p29
tp30
bsS'N'
p31
I3
sS'Mallows-greedy'
p32
((lp33
I0
aI1
aI2
acnumpy.core.multiarray
scalar
p34
(g12
S'\xf2\xbd\x16.\x84\xbb\xf4?'
p35
tp36
Rp37
tp38
sS'MMNL'
p39
g2
(g3
(I0
tp40
g5
tp41
Rp42
(I1
(I4
tp43
g12
I00
S'\x00\x00\x00\x00\x00\x00\xf0?\x92\xbaF\xce\x86\x8c\xed?y\xcd\x9d\xb2\\T\xe3?U\xa91F\xaa\xfd\xc8?'
p44
tp45
bsS'test-lists'
p46
(lp47
(lp48
I1
aI2
aI0
aa(lp49
I1
aI0
aI2
aa(lp50
I0
aI1
aI2
aa(lp51
I0
aI2
aI1
aa(lp52
I0
aI2
aI1
aa(lp53
I1
aI0
aI2
aa(lp54
I0
aI2
aI1
aa(lp55
I1
aI2
aI0
aa(lp56
I1
aI0
aI2
aa(lp57
I1
aI0
aI2
aa(lp58
I1
aI0
aI2
aa(lp59
I2
aI0
aI1
aa(lp60
I0
aI1
aI2
aa(lp61
I0
aI1
aI2
aa(lp62
I0
aI2
aI1
aa(lp63
I1
aI0
aI2
aa(lp64
I1
aI0
aI2
aa(lp65
I0
aI2
aI1
aa(lp66
I1
aI0
aI2
aa(lp67
I0
aI1
aI2
aa(lp68
I2
aI1
aI0
aa(lp69
I0
aI2
aI1
aa(lp70
I1
aI0
aI2
aa(lp71
I1
aI0
aI2
aa(lp72
I2
aI1
aI0
aa(lp73
I0
aI1
aI2
aa(lp74
I1
aI2
aI0
aa(lp75
I1
aI0
aI2
aa(lp76
I0
aI1
aI2
aa(lp77
I0
aI1
aI2
aa(lp78
I0
aI1
aI2
aa(lp79
I0
aI1
aI2
aa(lp80
I0
aI1
aI2
aa(lp81
I2
aI0
aI1
aa(lp82
I1
aI0
aI2
aa(lp83
I1
aI0
aI2
aa(lp84
I1
aI0
aI2
aa(lp85
I0
aI1
aI2
aa(lp86
I0
aI1
aI2
aa(lp87
I0
aI1
aI2
aa(lp88
I1
aI2
aI0
aa(lp89
I1
aI0
aI2
aa(lp90
I1
aI2
aI0
aa(lp91
I0
aI1
aI2
aa(lp92
I1
aI0
aI2
aa(lp93
I2
aI1
aI0
aa(lp94
I1
aI2
aI0
aa(lp95
I0
aI2
aI1
aa(lp96
I0
aI1
aI2
aa(lp97
I0
aI1
aI2
aa(lp98
I0
aI1
aI2
aa(lp99
I1
aI0
aI2
aa(lp100
I0
aI2
aI1
aa(lp101
I0
aI2
aI1
aa(lp102
I1
aI0
aI2
aa(lp103
I1
aI0
aI2
aa(lp104
I0
aI1
aI2
aa(lp105
I1
aI0
aI2
aa(lp106
I0
aI1
aI2
aa(lp107
I0
aI1
aI2
aa(lp108
I0
aI2
aI1
aa(lp109
I1
aI0
aI2
aa(lp110
I2
aI0
aI1
aa(lp111
I1
aI0
aI2
aa(lp112
I1
aI0
aI2
aa(lp113
I0
aI2
aI1
aa(lp114
I0
aI2
aI1
aa(lp115
I1
aI0
aI2
aa(lp116
I1
aI0
aI2
aa(lp117
I0
aI1
aI2
aa(lp118
I1
aI0
aI2
aa(lp119
I1
aI0
aI2
aa(lp120
I0
aI1
aI2
aa(lp121
I2
aI1
aI0
aa(lp122
I0
aI2
aI1
aa(lp123
I1
aI0
aI2
aa(lp124
I2
aI0
aI1
aa(lp125
I0
aI1
aI2
aa(lp126
I0
aI1
aI2
aa(lp127
I1
aI0
aI2
aa(lp128
I0
aI1
aI2
aa(lp129
I1
aI0
aI2
aa(lp130
I0
aI1
aI2
aa(lp131
I0
aI1
aI2
aa(lp132
I0
aI1
aI2
aa(lp133
I0
aI1
aI2
aa(lp134
I0
aI2
aI1
aa(lp135
I0
aI1
aI2
aa(lp136
I1
aI0
aI2
aa(lp137
I2
aI1
aI0
aa(lp138
I1
aI0
aI2
aa(lp139
I2
aI1
aI0
aa(lp140
I0
aI1
aI2
aa(lp141
I0
aI1
aI2
aasS'PCMC'
p142
g2
(g3
(I0
tp143
g5
tp144
Rp145
(I1
(I6
tp146
g12
I00
S'\x0e\x92\xd7\xc2\xdf\xb3\xf7?\x82J2i\xb0\xd3\x8b?/\xa0\xady7b\x01@\xf4\xed8\x89P\x94\x96?\xcem`\xc7@^\xb3?\xa9BM\x1c\xceP\xaf?'
p147
tp148
bsS'PL'
p149
g2
(g3
(I0
tp150
g5
tp151
Rp152
(I1
(I3
tp153
g12
I00
S"\x85\x98\xf7\xbd\x1a'\xe1?A\x12\xa3\x9d\xe9p\xd6?\xca\xf2\xb6\x99\x83\x03\xbd?"
p154
tp155
bsS'Mallows-greedy-RE'
p156
((lp157
I2
aI1
aI0
ag34
(g12
S'\xf2\xbd\x16.\x84\xbb\xf4?'
p158
tp159
Rp160
tp161
s.