(dp0
S'PCMC-RE'
p1
cnumpy.core.multiarray
_reconstruct
p2
(cnumpy
ndarray
p3
(I0
tp4
S'b'
p5
tp6
Rp7
(I1
(I6
tp8
cnumpy
dtype
p9
(S'f8'
p10
I0
I1
tp11
Rp12
(I3
S'<'
p13
NNNI-1
I-1
I0
tp14
bI00
S'\xfc\xa9\xf1\xd2MbP?\xe8\x95\xc0{\xe5\xc9\xe9?:E\xb7@\x1as\x82?u\x10\xa2?y\x88\xfd?\xe1\x8f\xb7\xcd\xf58\xe6?\x03&\xf4\x95\xd0\t\xe5?'
p15
tp16
bsS'MMNL-RE'
p17
g2
(g3
(I0
tp18
g5
tp19
Rp20
(I1
(I4
tp21
g12
I00
S'\x00\x00\x00\x00\x00\x00\xf0?\xfds\x98\xabY\x19\xec?\x9di\xb9\xcfZ\xc6\xcb?I\x02\xf5N\x89V\xed?'
p22
tp23
bsS'PL-RE'
p24
g2
(g3
(I0
tp25
g5
tp26
Rp27
(I1
(I3
tp28
g12
I00
S'\xa03]\xb1\xcb\xee\xdb?\xc9\x98\x9b\xb4O\x9c\xbb?.\xe6{a *\xdd?'
p29
tp30
bsS'N'
p31
I3
sS'Mallows-greedy'
p32
((lp33
I1
aI0
aI2
acnumpy.core.multiarray
scalar
p34
(g12
S'\xcb\xd2\xdb\xef\x17\xac\xf2?'
p35
tp36
Rp37
tp38
sS'MMNL'
p39
g2
(g3
(I0
tp40
g5
tp41
Rp42
(I1
(I4
tp43
g12
I00
S"\x00\x00\x00\x00\x00\x00\xf0?p\xe4\x1d\xa1\x19\x1a\xe5?'G\x8d\xdd\xaa\xa5\x00@VB*\xe6=\xa4\xe4?"
p44
tp45
bsS'test-lists'
p46
(lp47
(lp48
I1
aI2
aI0
aa(lp49
I1
aI0
aI2
aa(lp50
I1
aI2
aI0
aa(lp51
I1
aI0
aI2
aa(lp52
I1
aI0
aI2
aa(lp53
I1
aI2
aI0
aa(lp54
I1
aI0
aI2
aa(lp55
I1
aI0
aI2
aa(lp56
I1
aI2
aI0
aa(lp57
I1
aI0
aI2
aa(lp58
I1
aI0
aI2
aa(lp59
I1
aI0
aI2
aa(lp60
I1
aI2
aI0
aa(lp61
I0
aI2
aI1
aa(lp62
I1
aI0
aI2
aa(lp63
I1
aI2
aI0
aa(lp64
I0
aI1
aI2
aa(lp65
I0
aI2
aI1
aa(lp66
I0
aI1
aI2
aa(lp67
I1
aI0
aI2
aa(lp68
I1
aI2
aI0
aa(lp69
I0
aI2
aI1
aa(lp70
I1
aI0
aI2
aa(lp71
I0
aI1
aI2
aa(lp72
I2
aI0
aI1
aa(lp73
I1
aI0
aI2
aa(lp74
I1
aI0
aI2
aa(lp75
I1
aI2
aI0
aa(lp76
I2
aI0
aI1
aa(lp77
I0
aI1
aI2
aa(lp78
I1
aI2
aI0
aa(lp79
I1
aI2
aI0
aa(lp80
I1
aI2
aI0
aa(lp81
I1
aI2
aI0
aa(lp82
I0
aI1
aI2
aa(lp83
I1
aI2
aI0
aa(lp84
I0
aI2
aI1
aa(lp85
I1
aI0
aI2
aa(lp86
I1
aI2
aI0
aa(lp87
I1
aI0
aI2
aa(lp88
I1
aI2
aI0
aa(lp89
I1
aI2
aI0
aa(lp90
I0
aI1
aI2
aa(lp91
I1
aI2
aI0
aa(lp92
I1
aI0
aI2
aa(lp93
I1
aI0
aI2
aa(lp94
I1
aI2
aI0
aa(lp95
I1
aI0
aI2
aa(lp96
I1
aI0
aI2
aa(lp97
I2
aI1
aI0
aa(lp98
I1
aI2
aI0
aa(lp99
I2
aI0
aI1
aa(lp100
I0
aI1
aI2
aa(lp101
I1
aI0
aI2
aa(lp102
I1
aI0
aI2
aa(lp103
I1
aI0
aI2
aa(lp104
I1
aI0
aI2
aa(lp105
I1
aI0
aI2
aa(lp106
I1
aI2
aI0
aa(lp107
I0
aI2
aI1
aa(lp108
I1
aI2
aI0
aa(lp109
I1
aI2
aI0
aa(lp110
I1
aI0
aI2
aa(lp111
I1
aI0
aI2
aa(lp112
I1
aI0
aI2
aa(lp113
I1
aI2
aI0
aa(lp114
I1
aI0
aI2
aa(lp115
I1
aI0
aI2
aa(lp116
I1
aI2
aI0
aa(lp117
I0
aI2
aI1
aa(lp118
I2
aI1
aI0
aa(lp119
I1
aI2
aI0
aa(lp120
I1
aI0
aI2
aa(lp121
I2
aI1
aI0
aa(lp122
I1
aI2
aI0
aa(lp123
I1
aI0
aI2
aa(lp124
I1
aI0
aI2
aa(lp125
I2
aI1
aI0
aa(lp126
I1
aI0
aI2
aa(lp127
I2
aI1
aI0
aa(lp128
I1
aI2
aI0
aa(lp129
I1
aI2
aI0
aa(lp130
I1
aI2
aI0
aa(lp131
I2
aI1
aI0
aa(lp132
I1
aI0
aI2
aa(lp133
I1
aI2
aI0
aa(lp134
I1
aI0
aI2
aa(lp135
I1
aI2
aI0
aa(lp136
I1
aI0
aI2
aa(lp137
I1
aI0
aI2
aasS'PCMC'
p138
g2
(g3
(I0
tp139
g5
tp140
Rp141
(I1
(I6
tp142
g12
I00
S'X\xc9\xc5q\x19\r\xa9@-\x08\x13k\xc2Hb@\x82?v\xba\xc9\x1f\x8a@\xe07\xd6 y\xe9f?t\x8d\xf6\xa77\xabe@\xc6\xab\xe9B\x0f\x99R?'
p143
tp144
bsS'PL'
p145
g2
(g3
(I0
tp146
g5
tp147
Rp148
(I1
(I3
tp149
g12
I00
S'\x0f5\x95\x92\xdc\xee\xc8?\xeb\xcb\x8e[a\xab\xe3?F\x9b/\xff\x9dc\xc8?'
p150
tp151
bsS'Mallows-greedy-RE'
p152
((lp153
I2
aI0
aI1
ag34
(g12
S'\xcb\xd2\xdb\xef\x17\xac\xf2?'
p154
tp155
Rp156
tp157
s.