(dp0
S'PCMC-RE'
p1
cnumpy.core.multiarray
_reconstruct
p2
(cnumpy
ndarray
p3
(I0
tp4
S'b'
p5
tp6
Rp7
(I1
(I12
tp8
cnumpy
dtype
p9
(S'f8'
p10
I0
I1
tp11
Rp12
(I3
S'<'
p13
NNNI-1
I-1
I0
tp14
bI00
S'\xb4\x9aA6\x95z\x99?\xe3?g\x85\xd7TX@N\xe8\xd9du\xa86@\x80\x8d\xf6\x13#\x0b\xc5?\x0f\xee\x9f\xbb\xd5\x96y?\xc8\x07P|\xd0\x0f0@\xe3\xc8)\x8d\xc5\xfeB@\xdd\x9c\xd3\x92u\xddd?~\xbdR\x01\xcc\xb8c@\xf7\xda\xd5dD4\x1a@\x13\xe0\x1a\xe3c~\xf6?H@W\x97_\x94R@'
p15
tp16
bsS'MMNL-RE'
p17
g2
(g3
(I0
tp18
g5
tp19
Rp20
(I1
(I10
tp21
g12
I00
S'\x8d\xbe\x0e]i\xec\xce?]P\xbc\xa8\xe5D\xe8? ]w\xf0\xca^\xe4?\x83\xb8\xcb!\xfa\xac\xc8?c\x83\xa9-\x94;\xd4?\x85\xfa\xc5\xe9\xfaR\x8d?\x95\xd6&\xe8\x0b.\x11>\x9fo^\xe3dV\xef?b\xcb$\x91\x94\x10\xf4?\x07v9)\xf1\x99\xf5?'
p22
tp23
bsS'PL-RE'
p24
g2
(g3
(I0
tp25
g5
tp26
Rp27
(I1
(I4
tp28
g12
I00
S'\x9a\x8aq\x9c\xd4\xfd\xc1?\x8c\xdd\xd5\xbc\x85/\xa2?\xa0Hz>\x1a\x99\xd1?0\x1b\xd9]\x05\x91\xe1?'
p29
tp30
bsS'N'
p31
I4
sS'Mallows-greedy'
p32
((lp33
I1
aI0
aI2
aI3
acnumpy.core.multiarray
scalar
p34
(g12
S'Z\x15\xe0e\x06\xe8\xf9?'
p35
tp36
Rp37
tp38
sS'MMNL'
p39
g2
(g3
(I0
tp40
g5
tp41
Rp42
(I1
(I10
tp43
g12
I00
S'P`\xd5\x08\xb9\xa4\xe0?_?U\xee\x8d\xb6\xde?+p\x81\x9c\xd9\xff\xd6?\x93\x06\xceY\x1c\xc6\xe1?P\x8a\xb0?\x9bR\xfe?)\x13\xd6\xdb\x0f\xfb\xf7?\x95\xd6&\xe8\x0b.\x11>\x06\xbe&\xbb\xf2q\xe9?\x95\xd6&\xe8\x0b.\x11>\xc5\xd60\xedw\xac\xd6?'
p44
tp45
bsS'test-lists'
p46
(lp47
(lp48
I1
aI0
aI3
aI2
aa(lp49
I1
aI3
aI2
aI0
aa(lp50
I1
aI0
aI2
aI3
aa(lp51
I1
aI0
aI2
aI3
aa(lp52
I1
aI0
aI3
aI2
aa(lp53
I1
aI3
aI0
aI2
aa(lp54
I1
aI2
aI0
aI3
aa(lp55
I1
aI3
aI0
aI2
aa(lp56
I1
aI3
aI2
aI0
aa(lp57
I1
aI0
aI2
aI3
aa(lp58
I2
aI0
aI3
aI1
aa(lp59
I3
aI1
aI0
aI2
aa(lp60
I0
aI2
aI1
aI3
aa(lp61
I1
aI0
aI2
aI3
aa(lp62
I1
aI0
aI2
aI3
aa(lp63
I1
aI0
aI2
aI3
aa(lp64
I1
aI2
aI3
aI0
aa(lp65
I3
aI0
aI1
aI2
aa(lp66
I3
aI0
aI1
aI2
aa(lp67
I0
aI1
aI3
aI2
aa(lp68
I2
aI3
aI0
aI1
aa(lp69
I1
aI0
aI2
aI3
aa(lp70
I1
aI3
aI0
aI2
aa(lp71
I1
aI0
aI2
aI3
aa(lp72
I1
aI2
aI3
aI0
aa(lp73
I1
aI0
aI3
aI2
aa(lp74
I1
aI0
aI2
aI3
aa(lp75
I1
aI2
aI0
aI3
aa(lp76
I1
aI0
aI2
aI3
aa(lp77
I1
aI0
aI3
aI2
aa(lp78
I1
aI0
aI3
aI2
aa(lp79
I1
aI0
aI2
aI3
aa(lp80
I1
aI0
aI2
aI3
aa(lp81
I0
aI1
aI3
aI2
aa(lp82
I1
aI0
aI3
aI2
aa(lp83
I1
aI2
aI0
aI3
aa(lp84
I1
aI0
aI2
aI3
aa(lp85
I1
aI0
aI3
aI2
aa(lp86
I1
aI2
aI0
aI3
aa(lp87
I1
aI0
aI3
aI2
aa(lp88
I1
aI2
aI3
aI0
aa(lp89
I1
aI0
aI2
aI3
aa(lp90
I0
aI1
aI3
aI2
aa(lp91
I1
aI2
aI3
aI0
aa(lp92
I1
aI0
aI2
aI3
aa(lp93
I1
aI0
aI3
aI2
aa(lp94
I1
aI0
aI2
aI3
aa(lp95
I1
aI0
aI3
aI2
aa(lp96
I1
aI2
aI0
aI3
aa(lp97
I1
aI0
aI2
aI3
aa(lp98
I1
aI2
aI0
aI3
aa(lp99
I1
aI3
aI0
aI2
aa(lp100
I3
aI2
aI0
aI1
aa(lp101
I1
aI3
aI2
aI0
aa(lp102
I1
aI2
aI0
aI3
aa(lp103
I1
aI0
aI2
aI3
aa(lp104
I1
aI0
aI2
aI3
aa(lp105
I1
aI0
aI2
aI3
aa(lp106
I1
aI0
aI3
aI2
aa(lp107
I1
aI0
aI3
aI2
aa(lp108
I1
aI3
aI2
aI0
aa(lp109
I1
aI3
aI0
aI2
aa(lp110
I3
aI1
aI0
aI2
aa(lp111
I1
aI0
aI2
aI3
aa(lp112
I0
aI1
aI2
aI3
aa(lp113
I1
aI0
aI3
aI2
aa(lp114
I3
aI0
aI1
aI2
aa(lp115
I1
aI0
aI3
aI2
aa(lp116
I1
aI0
aI3
aI2
aa(lp117
I1
aI0
aI3
aI2
aa(lp118
I1
aI0
aI2
aI3
aa(lp119
I0
aI1
aI2
aI3
aa(lp120
I1
aI0
aI2
aI3
aa(lp121
I1
aI0
aI2
aI3
aa(lp122
I1
aI0
aI3
aI2
aa(lp123
I0
aI3
aI1
aI2
aa(lp124
I3
aI2
aI1
aI0
aa(lp125
I2
aI0
aI1
aI3
aa(lp126
I1
aI0
aI2
aI3
aa(lp127
I1
aI0
aI2
aI3
aa(lp128
I0
aI1
aI3
aI2
aa(lp129
I1
aI0
aI2
aI3
aa(lp130
I1
aI0
aI2
aI3
aa(lp131
I1
aI0
aI3
aI2
aa(lp132
I0
aI1
aI2
aI3
aa(lp133
I1
aI0
aI2
aI3
aasS'PCMC'
p134
g2
(g3
(I0
tp135
g5
tp136
Rp137
(I1
(I12
tp138
g12
I00
S'5`\xc4\xc9\xee\x1eh@Vs\xa9y\xc5\x05 @\xfb\xc2}\xd9\x02\xc3e?\x08\n1\xbe\x9e\x86C@\xd5V\xc9\\[\x8c\x01@\xfc\xa9\xf1\xd2MbP?\x10zbh* 9@8\x0eaSt\xfb\x12@\xb8C\xff\xcf\x89\xf72@\x93\xf0$\xa2\xa1\x02\x88?\xa295Vl\xb7W??\x1e\x1d \x92\xd3B@'
p139
tp140
bsS'PL'
p141
g2
(g3
(I0
tp142
g5
tp143
Rp144
(I1
(I4
tp145
g12
I00
S'\x8fY\xc4TR\xf6\xc9?\xc6u+\xb2\x82U\xe5?\xec\xd7#\xc2\xbb\xb5\xb5?\x94\x8d\xef\x05\x14c\xa7?'
p146
tp147
bsS'Mallows-greedy-RE'
p148
((lp149
I3
aI2
aI0
aI1
ag34
(g12
S'Z\x15\xe0e\x06\xe8\xf9?'
p150
tp151
Rp152
tp153
s.