(dp0
S'PCMC-RE'
p1
cnumpy.core.multiarray
_reconstruct
p2
(cnumpy
ndarray
p3
(I0
tp4
S'b'
p5
tp6
Rp7
(I1
(I6
tp8
cnumpy
dtype
p9
(S'f8'
p10
I0
I1
tp11
Rp12
(I3
S'<'
p13
NNNI-1
I-1
I0
tp14
bI00
S'\xe9\xaa\x9eo\x193\xe7?\t\xf9!\r[\x1b\\?\xd6\xee\x94\\\x8e/\t@\x96\xf8\xb3\x92\xc7\xdc\xfd?H\x999-\xfc\xb0\x83?\xe2c\xe5\xd0\xdfx\x1b@'
p15
tp16
bsS'MMNL-RE'
p17
g2
(g3
(I0
tp18
g5
tp19
Rp20
(I1
(I4
tp21
g12
I00
S'\x00\x00\x00\x00\x00\x00\xf0?\xb5\xea\x8d\xee/s\x01@T\x16\xe0\x9b\x9b\xa8\xe0?>\xa9}\x83\x1e\xc4\xc3?'
p22
tp23
bsS'PL-RE'
p24
g2
(g3
(I0
tp25
g5
tp26
Rp27
(I1
(I3
tp28
g12
I00
S'w\x97%t\x05p\xe8?wYM\xf3QT\xc7?\xbb"q\xf0`\xae\xab?'
p29
tp30
bsS'N'
p31
I3
sS'Mallows-greedy'
p32
((lp33
I2
aI1
aI0
acnumpy.core.multiarray
scalar
p34
(g12
S'\x00\xb7Z\x8f\x9cy\xfd?'
p35
tp36
Rp37
tp38
sS'MMNL'
p39
g2
(g3
(I0
tp40
g5
tp41
Rp42
(I1
(I4
tp43
g12
I00
S'\x00\x00\x00\x00\x00\x00\xf0?\xcdL\xd6\xad\xfa\xdf\xb8?lh0\xb4\xc5\xc2\xd9?5.-2nn\xf6?'
p44
tp45
bsS'test-lists'
p46
(lp47
(lp48
I1
aI2
aI0
aa(lp49
I2
aI0
aI1
aa(lp50
I1
aI0
aI2
aa(lp51
I2
aI1
aI0
aa(lp52
I2
aI1
aI0
aa(lp53
I2
aI1
aI0
aa(lp54
I2
aI0
aI1
aa(lp55
I2
aI0
aI1
aa(lp56
I2
aI0
aI1
aa(lp57
I1
aI2
aI0
aa(lp58
I2
aI1
aI0
aa(lp59
I2
aI1
aI0
aa(lp60
I2
aI1
aI0
aa(lp61
I2
aI1
aI0
aa(lp62
I2
aI0
aI1
aa(lp63
I2
aI0
aI1
aa(lp64
I1
aI2
aI0
aa(lp65
I0
aI2
aI1
aa(lp66
I2
aI0
aI1
aa(lp67
I1
aI2
aI0
aa(lp68
I2
aI1
aI0
aa(lp69
I2
aI1
aI0
aa(lp70
I1
aI2
aI0
aa(lp71
I2
aI0
aI1
aa(lp72
I2
aI0
aI1
aa(lp73
I2
aI1
aI0
aa(lp74
I2
aI0
aI1
aa(lp75
I2
aI1
aI0
aa(lp76
I2
aI1
aI0
aa(lp77
I2
aI0
aI1
aa(lp78
I2
aI1
aI0
aa(lp79
I2
aI1
aI0
aa(lp80
I2
aI1
aI0
aa(lp81
I2
aI1
aI0
aa(lp82
I0
aI2
aI1
aa(lp83
I2
aI1
aI0
aa(lp84
I2
aI1
aI0
aa(lp85
I1
aI0
aI2
aa(lp86
I2
aI1
aI0
aa(lp87
I0
aI1
aI2
aa(lp88
I2
aI1
aI0
aa(lp89
I2
aI1
aI0
aa(lp90
I2
aI0
aI1
aa(lp91
I2
aI0
aI1
aa(lp92
I2
aI0
aI1
aa(lp93
I1
aI0
aI2
aa(lp94
I2
aI1
aI0
aa(lp95
I2
aI1
aI0
aa(lp96
I2
aI1
aI0
aa(lp97
I2
aI1
aI0
aa(lp98
I2
aI1
aI0
aa(lp99
I2
aI1
aI0
aa(lp100
I1
aI2
aI0
aa(lp101
I2
aI1
aI0
aa(lp102
I2
aI0
aI1
aa(lp103
I1
aI2
aI0
aa(lp104
I2
aI1
aI0
aa(lp105
I2
aI0
aI1
aa(lp106
I1
aI2
aI0
aa(lp107
I2
aI0
aI1
aa(lp108
I2
aI1
aI0
aa(lp109
I1
aI0
aI2
aa(lp110
I2
aI1
aI0
aa(lp111
I2
aI0
aI1
aa(lp112
I2
aI0
aI1
aa(lp113
I2
aI1
aI0
aa(lp114
I1
aI2
aI0
aa(lp115
I2
aI0
aI1
aa(lp116
I2
aI1
aI0
aa(lp117
I2
aI1
aI0
aa(lp118
I2
aI0
aI1
aa(lp119
I2
aI1
aI0
aa(lp120
I2
aI1
aI0
aa(lp121
I2
aI1
aI0
aa(lp122
I2
aI1
aI0
aa(lp123
I2
aI1
aI0
aa(lp124
I1
aI2
aI0
aa(lp125
I2
aI1
aI0
aa(lp126
I1
aI2
aI0
aa(lp127
I2
aI1
aI0
aa(lp128
I2
aI0
aI1
aa(lp129
I2
aI1
aI0
aa(lp130
I2
aI1
aI0
aa(lp131
I2
aI1
aI0
aa(lp132
I2
aI1
aI0
aa(lp133
I2
aI1
aI0
aa(lp134
I0
aI2
aI1
aa(lp135
I1
aI2
aI0
aa(lp136
I2
aI0
aI1
aa(lp137
I1
aI2
aI0
aa(lp138
I2
aI1
aI0
aa(lp139
I2
aI1
aI0
aa(lp140
I1
aI2
aI0
aa(lp141
I2
aI1
aI0
aa(lp142
I1
aI0
aI2
aa(lp143
I2
aI0
aI1
aa(lp144
I1
aI0
aI2
aa(lp145
I0
aI2
aI1
aa(lp146
I2
aI0
aI1
aa(lp147
I2
aI1
aI0
aa(lp148
I0
aI2
aI1
aa(lp149
I2
aI1
aI0
aa(lp150
I2
aI1
aI0
aa(lp151
I2
aI1
aI0
aa(lp152
I2
aI1
aI0
aa(lp153
I2
aI1
aI0
aasS'PCMC'
p154
g2
(g3
(I0
tp155
g5
tp156
Rp157
(I1
(I6
tp158
g12
I00
S"\x88o$q\x07\xba\x8c@j5' \xc6\xd5\x85?\x82\xbd\xf2'\xe0\x9aj@>|0`\x85F\x82@\xae~*P\x12kT?\x8d.\xcd\xb9.^d@"
p159
tp160
bsS'PL'
p161
g2
(g3
(I0
tp162
g5
tp163
Rp164
(I1
(I3
tp165
g12
I00
S'|\x0e\x10\x0cZ)\xaa?\xd8b\x90\xb1\xdf\x17\xcb?b\xe6\xdarr\x97\xe7?'
p166
tp167
bsS'Mallows-greedy-RE'
p168
((lp169
I0
aI1
aI2
ag34
(g12
S'\x00\xb7Z\x8f\x9cy\xfd?'
p170
tp171
Rp172
tp173
s.