(dp0
S'PCMC-RE'
p1
cnumpy.core.multiarray
_reconstruct
p2
(cnumpy
ndarray
p3
(I0
tp4
S'b'
p5
tp6
Rp7
(I1
(I12
tp8
cnumpy
dtype
p9
(S'f8'
p10
I0
I1
tp11
Rp12
(I3
S'<'
p13
NNNI-1
I-1
I0
tp14
bI00
S'\xd4\xf7Md\x12q\xdf?\xa4\xae\xc3C\t\xac\xdf?\r\x181\xef\x86=\xdf?\x8c\xeb\xae<\x988\xe2?Z\xbe\xef\x7fEBp?\xbf\xb81e&\xf4s?\x07\t\xf2!\xcdw\xd8?\xceq\xf8\x8b\xccZV?\x91\xcd \x8f7L\xc3?\xa8c\xbc s2\xe9?8\xd4\x12>mCa?\xf4v\x12\xff\xe2(\xbb?'
p15
tp16
bsS'MMNL-RE'
p17
g2
(g3
(I0
tp18
g5
tp19
Rp20
(I1
(I10
tp21
g12
I00
S'\x8b\x91\xb4\x1dR$\xda?;\xb7%\xf1\xd6\xed\xe2?+\xef\xb2\xc2)\x7f\xa1?LC\x93/C\xfc\xea?\xcb\x08i%\xd2\x08\xf1?\x95\xd6&\xe8\x0b.\x11><\xdc\x1cn\x05\x93\xe7?\xbf[_I\xa9\x8a\xd2?:\xeeO\t\x0bC\xb4?\xb38@\xa0O\xe5\xe1?'
p22
tp23
bsS'PL-RE'
p24
g2
(g3
(I0
tp25
g5
tp26
Rp27
(I1
(I4
tp28
g12
I00
S'\x88\xda\xfe\x01\x8eu\xd1?\x1d\x01hJ-\x99\xc8?\xae\x9a\xf1\xf19\xf9\xd2?x\x14\xb7\xcdB\x89\xce?'
p29
tp30
bsS'N'
p31
I4
sS'Mallows-greedy'
p32
((lp33
I1
aI3
aI0
aI2
acnumpy.core.multiarray
scalar
p34
(g12
S'\xe4a?3\xf9\xbc\xe9?'
p35
tp36
Rp37
tp38
sS'MMNL'
p39
g2
(g3
(I0
tp40
g5
tp41
Rp42
(I1
(I10
tp43
g12
I00
S'\xbfP\xab\x0b\xb7\x9e\xb6?\xe8\x95\x8a\x1e),\xed?1\x8f\x99\x86\xc0\xde\xbb?g\xea<YW\x01\xdf?\x95\xd6&\xe8\x0b.\x11>C\xfda7\xabZ\xe4?N9\x86\x05}\x82\xcf>\x83\xe1\t\xb4\x9f\x84\xdf?\x19F\xd6\xf5\xff\\\xe6?\xf4$\x7f\xc9\x8e3\xe1?'
p44
tp45
bsS'test-lists'
p46
(lp47
(lp48
I2
aI3
aI0
aI1
aa(lp49
I0
aI3
aI2
aI1
aa(lp50
I1
aI2
aI3
aI0
aa(lp51
I3
aI2
aI0
aI1
aa(lp52
I1
aI2
aI3
aI0
aa(lp53
I1
aI2
aI3
aI0
aa(lp54
I3
aI0
aI2
aI1
aa(lp55
I1
aI2
aI0
aI3
aa(lp56
I0
aI3
aI2
aI1
aa(lp57
I0
aI3
aI1
aI2
aa(lp58
I1
aI0
aI2
aI3
aa(lp59
I3
aI1
aI0
aI2
aa(lp60
I3
aI1
aI0
aI2
aa(lp61
I1
aI2
aI3
aI0
aa(lp62
I3
aI0
aI1
aI2
aa(lp63
I2
aI1
aI3
aI0
aa(lp64
I0
aI1
aI3
aI2
aa(lp65
I0
aI3
aI1
aI2
aa(lp66
I1
aI2
aI3
aI0
aa(lp67
I1
aI3
aI2
aI0
aa(lp68
I0
aI3
aI1
aI2
aa(lp69
I1
aI0
aI2
aI3
aa(lp70
I0
aI2
aI3
aI1
aa(lp71
I2
aI3
aI1
aI0
aa(lp72
I3
aI2
aI0
aI1
aa(lp73
I0
aI1
aI3
aI2
aa(lp74
I0
aI3
aI2
aI1
aa(lp75
I2
aI1
aI3
aI0
aa(lp76
I2
aI3
aI1
aI0
aa(lp77
I0
aI2
aI1
aI3
aa(lp78
I2
aI3
aI0
aI1
aa(lp79
I2
aI3
aI0
aI1
aa(lp80
I1
aI3
aI0
aI2
aa(lp81
I3
aI2
aI1
aI0
aa(lp82
I0
aI2
aI3
aI1
aa(lp83
I0
aI1
aI2
aI3
aa(lp84
I1
aI0
aI3
aI2
aa(lp85
I1
aI2
aI3
aI0
aa(lp86
I0
aI3
aI2
aI1
aa(lp87
I2
aI3
aI0
aI1
aa(lp88
I0
aI1
aI2
aI3
aa(lp89
I0
aI3
aI2
aI1
aa(lp90
I3
aI1
aI0
aI2
aa(lp91
I1
aI3
aI0
aI2
aa(lp92
I1
aI2
aI3
aI0
aa(lp93
I0
aI1
aI3
aI2
aa(lp94
I2
aI3
aI0
aI1
aa(lp95
I2
aI3
aI0
aI1
aa(lp96
I3
aI0
aI2
aI1
aa(lp97
I1
aI0
aI2
aI3
aa(lp98
I3
aI1
aI2
aI0
aa(lp99
I1
aI3
aI2
aI0
aa(lp100
I1
aI0
aI3
aI2
aa(lp101
I3
aI2
aI0
aI1
aa(lp102
I1
aI3
aI0
aI2
aa(lp103
I1
aI0
aI3
aI2
aa(lp104
I3
aI1
aI0
aI2
aa(lp105
I1
aI3
aI2
aI0
aa(lp106
I0
aI3
aI2
aI1
aa(lp107
I1
aI2
aI0
aI3
aa(lp108
I3
aI0
aI1
aI2
aa(lp109
I3
aI1
aI0
aI2
aa(lp110
I2
aI0
aI3
aI1
aa(lp111
I0
aI3
aI2
aI1
aa(lp112
I3
aI0
aI1
aI2
aa(lp113
I1
aI2
aI0
aI3
aa(lp114
I1
aI2
aI0
aI3
aa(lp115
I1
aI2
aI3
aI0
aa(lp116
I1
aI2
aI3
aI0
aa(lp117
I1
aI2
aI0
aI3
aa(lp118
I3
aI0
aI2
aI1
aa(lp119
I1
aI3
aI2
aI0
aa(lp120
I2
aI0
aI3
aI1
aa(lp121
I2
aI3
aI0
aI1
aa(lp122
I3
aI0
aI2
aI1
aa(lp123
I1
aI0
aI2
aI3
aa(lp124
I0
aI3
aI1
aI2
aa(lp125
I3
aI1
aI2
aI0
aa(lp126
I1
aI2
aI3
aI0
aa(lp127
I2
aI1
aI0
aI3
aa(lp128
I1
aI3
aI0
aI2
aa(lp129
I0
aI2
aI3
aI1
aa(lp130
I0
aI2
aI1
aI3
aa(lp131
I3
aI2
aI1
aI0
aa(lp132
I2
aI1
aI3
aI0
aa(lp133
I1
aI0
aI3
aI2
aa(lp134
I1
aI2
aI3
aI0
aa(lp135
I0
aI2
aI3
aI1
aa(lp136
I3
aI1
aI0
aI2
aasS'PCMC'
p137
g2
(g3
(I0
tp138
g5
tp139
Rp140
(I1
(I12
tp141
g12
I00
S'K0\xb4\xd8P\xb9\xb4?\xfc\xa9\xf1\xd2MbP?\'\xf4\xf1\xaf\xee6\xcc?Bb\x9a<\xbbL\xc0?\xe8\xd5y\x8e\xb3\x19V@P\x07b\xa2\xa9Xi@\x0bq\xa5d\xe2\xf0P?\x99\x9a\xd7"Zm^@\x15\r\x91&t\xe7_@\xec\xa5Rv\x85\x0b\xbc?,\xc7\xfae]~j@\xc5\x9b\x98\xefq0[@'
p142
tp143
bsS'PL'
p144
g2
(g3
(I0
tp145
g5
tp146
Rp147
(I1
(I4
tp148
g12
I00
S'\x9c\xf1\xf1\xbe\xccO\xcc? \xad\x1c[\xe0\x80\xd1?\x03\xa4\xd8\xba\x16\xaf\xcb?\x12\x08\xfe\xe7\xad\x7f\xd2?'
p149
tp150
bsS'Mallows-greedy-RE'
p151
((lp152
I2
aI0
aI3
aI1
ag34
(g12
S'\xe4a?3\xf9\xbc\xe9?'
p153
tp154
Rp155
tp156
s.