(dp0
S'PCMC-RE'
p1
cnumpy.core.multiarray
_reconstruct
p2
(cnumpy
ndarray
p3
(I0
tp4
S'b'
p5
tp6
Rp7
(I1
(I6
tp8
cnumpy
dtype
p9
(S'f8'
p10
I0
I1
tp11
Rp12
(I3
S'<'
p13
NNNI-1
I-1
I0
tp14
bI00
S'\xff+\xcc\x89\xc1l\x8d?nh\x9e\xd5\r\xce\x01@\xdb\xf4\xdaW\x10K\xae?\x04\xf8;\x8f\x18^\xa9?\xc9\xbe\x8f\r\x03\xc2\xf7?\x994\xcb%\xb8\xea\x99?'
p15
tp16
bsS'MMNL-RE'
p17
g2
(g3
(I0
tp18
g5
tp19
Rp20
(I1
(I4
tp21
g12
I00
S'\x00\x00\x00\x00\x00\x00\xf0?\xde[\x10z\x13\xaa\xed?\x9b\x0f\x9a\xba\x8f\xa2\xd7?\x94:\xc7\x0e)\xd6\xf2?'
p22
tp23
bsS'PL-RE'
p24
g2
(g3
(I0
tp25
g5
tp26
Rp27
(I1
(I3
tp28
g12
I00
S'\xac\xb29\x01"\xfc\xd7?\x99\xf8\xf0\xfb"\x1c\xc3?\x06\xd1\xcd\x80\xccu\xde?'
p29
tp30
bsS'N'
p31
I3
sS'Mallows-greedy'
p32
((lp33
I1
aI0
aI2
acnumpy.core.multiarray
scalar
p34
(g12
S'$\x93d\xf4Z\xa9\xf2?'
p35
tp36
Rp37
tp38
sS'MMNL'
p39
g2
(g3
(I0
tp40
g5
tp41
Rp42
(I1
(I4
tp43
g12
I00
S'\x00\x00\x00\x00\x00\x00\xf0?5a5\x1csf\xe1?{/\\?\xdf\xd5\xf3?\x893\xa8\x1e\x80\x97\xd9?'
p44
tp45
bsS'test-lists'
p46
(lp47
(lp48
I2
aI0
aI1
aa(lp49
I1
aI2
aI0
aa(lp50
I2
aI1
aI0
aa(lp51
I1
aI0
aI2
aa(lp52
I1
aI0
aI2
aa(lp53
I1
aI0
aI2
aa(lp54
I0
aI1
aI2
aa(lp55
I1
aI0
aI2
aa(lp56
I2
aI1
aI0
aa(lp57
I1
aI2
aI0
aa(lp58
I0
aI1
aI2
aa(lp59
I0
aI2
aI1
aa(lp60
I0
aI2
aI1
aa(lp61
I1
aI0
aI2
aa(lp62
I1
aI0
aI2
aa(lp63
I1
aI2
aI0
aa(lp64
I1
aI0
aI2
aa(lp65
I0
aI1
aI2
aa(lp66
I0
aI2
aI1
aa(lp67
I0
aI2
aI1
aa(lp68
I1
aI0
aI2
aa(lp69
I1
aI2
aI0
aa(lp70
I0
aI1
aI2
aa(lp71
I1
aI0
aI2
aa(lp72
I2
aI1
aI0
aa(lp73
I1
aI0
aI2
aa(lp74
I1
aI0
aI2
aa(lp75
I1
aI2
aI0
aa(lp76
I0
aI1
aI2
aa(lp77
I1
aI0
aI2
aa(lp78
I1
aI2
aI0
aa(lp79
I1
aI2
aI0
aa(lp80
I1
aI0
aI2
aa(lp81
I1
aI0
aI2
aa(lp82
I1
aI2
aI0
aa(lp83
I1
aI0
aI2
aa(lp84
I1
aI0
aI2
aa(lp85
I1
aI0
aI2
aa(lp86
I1
aI2
aI0
aa(lp87
I1
aI2
aI0
aa(lp88
I1
aI0
aI2
aa(lp89
I1
aI2
aI0
aa(lp90
I1
aI2
aI0
aa(lp91
I1
aI0
aI2
aa(lp92
I1
aI2
aI0
aa(lp93
I1
aI0
aI2
aa(lp94
I1
aI0
aI2
aa(lp95
I1
aI0
aI2
aa(lp96
I0
aI2
aI1
aa(lp97
I0
aI1
aI2
aa(lp98
I1
aI0
aI2
aa(lp99
I1
aI2
aI0
aa(lp100
I1
aI0
aI2
aa(lp101
I1
aI2
aI0
aa(lp102
I1
aI0
aI2
aa(lp103
I1
aI2
aI0
aa(lp104
I1
aI2
aI0
aa(lp105
I0
aI2
aI1
aa(lp106
I2
aI0
aI1
aa(lp107
I1
aI0
aI2
aa(lp108
I1
aI0
aI2
aa(lp109
I1
aI2
aI0
aa(lp110
I1
aI2
aI0
aa(lp111
I1
aI0
aI2
aa(lp112
I1
aI2
aI0
aa(lp113
I2
aI0
aI1
aa(lp114
I1
aI0
aI2
aa(lp115
I0
aI1
aI2
aa(lp116
I2
aI1
aI0
aa(lp117
I1
aI0
aI2
aa(lp118
I2
aI1
aI0
aa(lp119
I0
aI1
aI2
aa(lp120
I1
aI0
aI2
aa(lp121
I1
aI2
aI0
aa(lp122
I1
aI2
aI0
aa(lp123
I2
aI1
aI0
aa(lp124
I2
aI1
aI0
aa(lp125
I0
aI1
aI2
aa(lp126
I1
aI2
aI0
aa(lp127
I1
aI0
aI2
aa(lp128
I0
aI2
aI1
aa(lp129
I1
aI0
aI2
aa(lp130
I2
aI0
aI1
aa(lp131
I1
aI2
aI0
aa(lp132
I1
aI2
aI0
aa(lp133
I0
aI2
aI1
aa(lp134
I1
aI2
aI0
aa(lp135
I1
aI0
aI2
aa(lp136
I1
aI2
aI0
aa(lp137
I1
aI2
aI0
aa(lp138
I1
aI2
aI0
aa(lp139
I1
aI2
aI0
aa(lp140
I2
aI1
aI0
aa(lp141
I0
aI1
aI2
aa(lp142
I2
aI0
aI1
aa(lp143
I0
aI1
aI2
aa(lp144
I1
aI2
aI0
aa(lp145
I1
aI2
aI0
aa(lp146
I2
aI0
aI1
aasS'PCMC'
p147
g2
(g3
(I0
tp148
g5
tp149
Rp150
(I1
(I6
tp151
g12
I00
S'\xfcj\xab\xf9\xaeL\x14@\xbe\xe4\x910\xe6\x91x?*%o\xb1Se\xfc?A\x9d)\x88y\xa4Z?\x99\xf3U\x0c\xb0\x86\x86?k\x97\xd4w;2[?'
p152
tp153
bsS'PL'
p154
g2
(g3
(I0
tp155
g5
tp156
Rp157
(I1
(I3
tp158
g12
I00
S'\xce\xdc]\x0f\xc9\xe0\xcf?9t\xd0\xe4w+\xe2?MR`]Wq\xc7?'
p159
tp160
bsS'Mallows-greedy-RE'
p161
((lp162
I2
aI0
aI1
ag34
(g12
S'$\x93d\xf4Z\xa9\xf2?'
p163
tp164
Rp165
tp166
s.