(dp0
S'PCMC-RE'
p1
cnumpy.core.multiarray
_reconstruct
p2
(cnumpy
ndarray
p3
(I0
tp4
S'b'
p5
tp6
Rp7
(I1
(I6
tp8
cnumpy
dtype
p9
(S'f8'
p10
I0
I1
tp11
Rp12
(I3
S'<'
p13
NNNI-1
I-1
I0
tp14
bI00
S'\x1e;\n\x9b\x16\x92X?\x93\x00\x8bO\x01}\x00@\xfc\xa9\xf1\xd2MbP?\xcbCm\x16\x14\xec\xf3?\xba\xad;\x82\xd7\xc5\x01@G)\xda\xcf\xa0\x1c\xf8?'
p15
tp16
bsS'MMNL-RE'
p17
g2
(g3
(I0
tp18
g5
tp19
Rp20
(I1
(I4
tp21
g12
I00
S'\x00\x00\x00\x00\x00\x00\xf0?\xa2%\xe4Re\xf3\xd1?\x94|\xe9oy\xb6\xd5?$vBYrI\xd1?'
p22
tp23
bsS'PL-RE'
p24
g2
(g3
(I0
tp25
g5
tp26
Rp27
(I1
(I3
tp28
g12
I00
S'\xe45*f8,\xd4?\x03\x9c\xf8\xfa\x88f\xd8?\x18.\xdd\x9e>m\xd3?'
p29
tp30
bsS'N'
p31
I3
sS'Mallows-greedy'
p32
((lp33
I2
aI0
aI1
acnumpy.core.multiarray
scalar
p34
(g12
S'9\xac\xe5)\x8f\xaa\xe8?'
p35
tp36
Rp37
tp38
sS'MMNL'
p39
g2
(g3
(I0
tp40
g5
tp41
Rp42
(I1
(I4
tp43
g12
I00
S'\x00\x00\x00\x00\x00\x00\xf0?{)\xeb*Z\x8b\xed?Z_\xa2\x189\n\xea?\xee\xe4\xdd,Vr\xef?'
p44
tp45
bsS'test-lists'
p46
(lp47
(lp48
I0
aI2
aI1
aa(lp49
I2
aI0
aI1
aa(lp50
I2
aI0
aI1
aa(lp51
I1
aI2
aI0
aa(lp52
I0
aI1
aI2
aa(lp53
I1
aI0
aI2
aa(lp54
I0
aI2
aI1
aa(lp55
I1
aI0
aI2
aa(lp56
I2
aI0
aI1
aa(lp57
I0
aI2
aI1
aa(lp58
I2
aI1
aI0
aa(lp59
I2
aI0
aI1
aa(lp60
I2
aI0
aI1
aa(lp61
I1
aI2
aI0
aa(lp62
I0
aI1
aI2
aa(lp63
I2
aI1
aI0
aa(lp64
I0
aI2
aI1
aa(lp65
I2
aI1
aI0
aa(lp66
I1
aI0
aI2
aa(lp67
I2
aI1
aI0
aa(lp68
I2
aI1
aI0
aa(lp69
I1
aI2
aI0
aa(lp70
I2
aI1
aI0
aa(lp71
I2
aI1
aI0
aa(lp72
I2
aI1
aI0
aa(lp73
I2
aI0
aI1
aa(lp74
I1
aI2
aI0
aa(lp75
I2
aI1
aI0
aa(lp76
I1
aI2
aI0
aa(lp77
I2
aI0
aI1
aa(lp78
I0
aI1
aI2
aa(lp79
I0
aI1
aI2
aa(lp80
I1
aI0
aI2
aa(lp81
I2
aI1
aI0
aa(lp82
I0
aI1
aI2
aa(lp83
I0
aI2
aI1
aa(lp84
I2
aI0
aI1
aa(lp85
I2
aI1
aI0
aa(lp86
I0
aI2
aI1
aa(lp87
I1
aI0
aI2
aa(lp88
I0
aI1
aI2
aa(lp89
I0
aI2
aI1
aa(lp90
I2
aI1
aI0
aa(lp91
I2
aI1
aI0
aa(lp92
I1
aI2
aI0
aa(lp93
I2
aI0
aI1
aa(lp94
I1
aI0
aI2
aa(lp95
I2
aI0
aI1
aa(lp96
I2
aI1
aI0
aa(lp97
I1
aI0
aI2
aa(lp98
I1
aI0
aI2
aa(lp99
I0
aI2
aI1
aa(lp100
I2
aI0
aI1
aa(lp101
I1
aI0
aI2
aa(lp102
I1
aI2
aI0
aa(lp103
I2
aI1
aI0
aa(lp104
I0
aI2
aI1
aa(lp105
I1
aI2
aI0
aa(lp106
I2
aI0
aI1
aa(lp107
I2
aI0
aI1
aa(lp108
I1
aI0
aI2
aa(lp109
I2
aI0
aI1
aa(lp110
I2
aI0
aI1
aa(lp111
I0
aI1
aI2
aa(lp112
I1
aI0
aI2
aa(lp113
I2
aI0
aI1
aa(lp114
I0
aI2
aI1
aa(lp115
I0
aI1
aI2
aa(lp116
I0
aI2
aI1
aa(lp117
I1
aI0
aI2
aasS'PCMC'
p118
g2
(g3
(I0
tp119
g5
tp120
Rp121
(I1
(I6
tp122
g12
I00
S'\xa1\xcaSwk\xa2\xf9?9\xf2\x14F\x08\xfab?\x0fv\xdf\x10\xd0\xa7\xfe?:\xd1\xf1p\x8fdP?\x00\xfa\xc2%\xfa|_?\x9f\x14t\x1d`dP?'
p123
tp124
bsS'PL'
p125
g2
(g3
(I0
tp126
g5
tp127
Rp128
(I1
(I3
tp129
g12
I00
S'=_\x9c\xef\xde\xb9\xd5?\x98\xb6t8%&\xd3?,\xea\xee\xd7\xfb\x1f\xd7?'
p130
tp131
bsS'Mallows-greedy-RE'
p132
((lp133
I1
aI0
aI2
ag34
(g12
S'9\xac\xe5)\x8f\xaa\xe8?'
p134
tp135
Rp136
tp137
s.