(dp0
S'PCMC-RE'
p1
cnumpy.core.multiarray
_reconstruct
p2
(cnumpy
ndarray
p3
(I0
tp4
S'b'
p5
tp6
Rp7
(I1
(I12
tp8
cnumpy
dtype
p9
(S'f8'
p10
I0
I1
tp11
Rp12
(I3
S'<'
p13
NNNI-1
I-1
I0
tp14
bI00
S"\xae\xed\xcf\xa2\xf1\xbeh@\x06\xcd\xe9.\x10Z\\@\xb9K5\x82\xc7\xd2L@\x10\xa1\x8f\xf3\xde'\x9e@\xb2\x7f\x86!P@\x87?z+\n\xab\xbb\xa1B@\x82\x19\x1c\x8c\x17\x12k@\xcd\xcd\x89\x03\xee\x93^?\x93\xd7=\xdf\xcfUo@\xd2\xa1\xc7UKRH@\xa7F\xa6\x8f\x02\x95!@\xe9\xbf\xa1\xff\xd4la@"
p15
tp16
bsS'MMNL-RE'
p17
g2
(g3
(I0
tp18
g5
tp19
Rp20
(I1
(I10
tp21
g12
I00
S'\xaf\xb3\xcc\xbc\xa2\xf7\xde?)\xa6\x99\xa1.\x84\xe0?o\xf3\xef\x8eS\x9b\x05@\xb77T\xe6\xd5\xb9\xc6? \x96\x92d1\x8f\xba?H\xf1\xcdx)\x9a\xb1?W2\x01\xc3\xee\x06\xd1?\xf8\x98a\xdcH\x05\xe7?\xbe\x10\xde\x90\xdf\x10\xc7?\x81\x825(\xce%\x02@'
p22
tp23
bsS'PL-RE'
p24
g2
(g3
(I0
tp25
g5
tp26
Rp27
(I1
(I4
tp28
g12
I00
S"\xe2\xcf\x9bR\xb7\x94\xd8?!\xa7c'\xdd\x80\xa8?\x95\x98\xb7\xdd\xd9r\xca?\xef\xee\x9b\x19\xc0!\xd7?"
p29
tp30
bsS'N'
p31
I4
sS'Mallows-greedy'
p32
((lp33
I1
aI2
aI3
aI0
acnumpy.core.multiarray
scalar
p34
(g12
S'\xa1\xa8\xb6\x07\xae\xaa\xf5?'
p35
tp36
Rp37
tp38
sS'MMNL'
p39
g2
(g3
(I0
tp40
g5
tp41
Rp42
(I1
(I10
tp43
g12
I00
S'(\xb2\xac\x0f:\x1a\xdc?\xec\xa6)\xf8\xe2\xf2\xe1?\xfa\xbe5\x8fs\xea\xdc?\xe3\xafN\xc7\xe0\x06"?\x90rj\xec\xdf\xa4\xed?~\x83z\x12\xfd\x15\xf9?+WQKK\xef\xf1?\xd7`\x1b\xbe\xab\r.?\x9fX\xc0\xfeT^\xe7?\xab\xae\x82\x8d\xa4\x15\x17?'
p44
tp45
bsS'test-lists'
p46
(lp47
(lp48
I1
aI2
aI0
aI3
aa(lp49
I1
aI0
aI2
aI3
aa(lp50
I1
aI3
aI0
aI2
aa(lp51
I1
aI0
aI2
aI3
aa(lp52
I1
aI0
aI3
aI2
aa(lp53
I1
aI2
aI3
aI0
aa(lp54
I1
aI0
aI3
aI2
aa(lp55
I1
aI2
aI3
aI0
aa(lp56
I1
aI2
aI0
aI3
aa(lp57
I1
aI0
aI3
aI2
aa(lp58
I1
aI0
aI3
aI2
aa(lp59
I1
aI2
aI3
aI0
aa(lp60
I1
aI3
aI2
aI0
aa(lp61
I1
aI3
aI0
aI2
aa(lp62
I1
aI2
aI0
aI3
aa(lp63
I1
aI2
aI3
aI0
aa(lp64
I1
aI2
aI0
aI3
aa(lp65
I1
aI3
aI2
aI0
aa(lp66
I1
aI0
aI2
aI3
aa(lp67
I1
aI2
aI0
aI3
aa(lp68
I3
aI2
aI0
aI1
aa(lp69
I2
aI3
aI1
aI0
aa(lp70
I0
aI2
aI1
aI3
aa(lp71
I1
aI2
aI0
aI3
aa(lp72
I2
aI1
aI0
aI3
aa(lp73
I1
aI3
aI2
aI0
aa(lp74
I1
aI2
aI0
aI3
aa(lp75
I2
aI1
aI3
aI0
aa(lp76
I1
aI2
aI0
aI3
aa(lp77
I3
aI2
aI1
aI0
aa(lp78
I1
aI2
aI3
aI0
aa(lp79
I2
aI1
aI3
aI0
aa(lp80
I3
aI2
aI0
aI1
aa(lp81
I1
aI2
aI3
aI0
aa(lp82
I1
aI2
aI0
aI3
aa(lp83
I1
aI0
aI3
aI2
aa(lp84
I1
aI0
aI3
aI2
aa(lp85
I1
aI0
aI3
aI2
aa(lp86
I1
aI0
aI2
aI3
aa(lp87
I1
aI0
aI2
aI3
aa(lp88
I1
aI2
aI0
aI3
aa(lp89
I1
aI2
aI3
aI0
aa(lp90
I1
aI3
aI0
aI2
aa(lp91
I1
aI0
aI3
aI2
aa(lp92
I1
aI2
aI0
aI3
aa(lp93
I1
aI2
aI0
aI3
aa(lp94
I1
aI3
aI0
aI2
aa(lp95
I1
aI2
aI0
aI3
aa(lp96
I1
aI0
aI3
aI2
aa(lp97
I1
aI2
aI3
aI0
aa(lp98
I1
aI2
aI0
aI3
aa(lp99
I1
aI2
aI3
aI0
aa(lp100
I0
aI3
aI1
aI2
aa(lp101
I1
aI0
aI3
aI2
aa(lp102
I1
aI3
aI2
aI0
aa(lp103
I1
aI3
aI2
aI0
aa(lp104
I1
aI2
aI0
aI3
aa(lp105
I1
aI0
aI2
aI3
aa(lp106
I1
aI3
aI2
aI0
aa(lp107
I1
aI0
aI3
aI2
aa(lp108
I1
aI3
aI2
aI0
aa(lp109
I2
aI1
aI3
aI0
aa(lp110
I1
aI2
aI0
aI3
aa(lp111
I1
aI3
aI0
aI2
aa(lp112
I3
aI2
aI1
aI0
aa(lp113
I1
aI2
aI3
aI0
aa(lp114
I1
aI3
aI2
aI0
aa(lp115
I1
aI2
aI3
aI0
aa(lp116
I1
aI0
aI2
aI3
aa(lp117
I3
aI1
aI2
aI0
aa(lp118
I1
aI2
aI3
aI0
aa(lp119
I1
aI0
aI3
aI2
aa(lp120
I1
aI0
aI2
aI3
aa(lp121
I2
aI1
aI3
aI0
aa(lp122
I2
aI1
aI3
aI0
aa(lp123
I1
aI2
aI0
aI3
aa(lp124
I1
aI2
aI3
aI0
aa(lp125
I1
aI3
aI2
aI0
aa(lp126
I2
aI0
aI3
aI1
aa(lp127
I1
aI2
aI3
aI0
aa(lp128
I1
aI2
aI3
aI0
aa(lp129
I1
aI3
aI0
aI2
aa(lp130
I1
aI3
aI2
aI0
aa(lp131
I2
aI3
aI0
aI1
aa(lp132
I1
aI2
aI3
aI0
aa(lp133
I1
aI3
aI2
aI0
aa(lp134
I1
aI2
aI3
aI0
aa(lp135
I1
aI3
aI2
aI0
aa(lp136
I1
aI0
aI3
aI2
aa(lp137
I2
aI1
aI3
aI0
aa(lp138
I2
aI1
aI0
aI3
aa(lp139
I1
aI3
aI0
aI2
aa(lp140
I1
aI3
aI0
aI2
aa(lp141
I2
aI1
aI3
aI0
aa(lp142
I2
aI1
aI3
aI0
aa(lp143
I1
aI2
aI0
aI3
aa(lp144
I1
aI3
aI2
aI0
aasS'PCMC'
p145
g2
(g3
(I0
tp146
g5
tp147
Rp148
(I1
(I12
tp149
g12
I00
S'>\xa3a`\xd8ok?h\xde\x168fM\x08@i\xb3M\x8e\x13K\xd2?\xfc\xa9\xf1\xd2MbP?\xc2ZZ\x93\x13\xdb\xe7?\x159\xa83O\x05t?\xf9)\xb2\xb8*c\xf7?\tk\xacqI\xfb\r@\x1e\xe2\xe3\xbe\xe5\xcd\xf1?<\xee\x0f.Zd\xd0?\xe19J\xa4\xe4\x1e\x82?\x05\xac\x81\tg\xb0\x02@'
p150
tp151
bsS'PL'
p152
g2
(g3
(I0
tp153
g5
tp154
Rp155
(I1
(I4
tp156
g12
I00
S'2^vN3\xcf\xb4?|\xc4k\xc4 \x84\xe5?6\xeeu\x81\x99\x9c\xc4?\x80\xa1?\x8b\x93\xd6\xb5?'
p157
tp158
bsS'Mallows-greedy-RE'
p159
((lp160
I0
aI3
aI2
aI1
ag34
(g12
S'\xa1\xa8\xb6\x07\xae\xaa\xf5?'
p161
tp162
Rp163
tp164
s.