(dp0
S'PCMC-RE'
p1
cnumpy.core.multiarray
_reconstruct
p2
(cnumpy
ndarray
p3
(I0
tp4
S'b'
p5
tp6
Rp7
(I1
(I12
tp8
cnumpy
dtype
p9
(S'f8'
p10
I0
I1
tp11
Rp12
(I3
S'<'
p13
NNNI-1
I-1
I0
tp14
bI00
S"88\xff\x8c\x16\xbbl?\xfe\xfa\x13\xe2~V\xf0?\x1a\x16\xe4\x19\xa7\x0f\x0f@\x90\xad\xde\x13R\x98P?)<\xc8L\x18-\xc4?\xd4\x05\xb8\x9a\x9d\xb2\xb8??\x87qY\xc8p\xdf?!\x14\xea\xd5Q \xe6?g`r\x93\xef\x1d\xdf?\x81s\x8d\nzS\xd0?\n\x8e\x81t\xb5q\xb0?\xa8'\x93\x1e\x81?\xc8?"
p15
tp16
bsS'MMNL-RE'
p17
g2
(g3
(I0
tp18
g5
tp19
Rp20
(I1
(I10
tp21
g12
I00
S'\x05Y\xb0\x99\x0b)\x11>\xa3\xb7v\xff\xff\xff\xef?\xfc\xe1\x0e(\x94\x08\xd9?\x02\xfa\x89\xa1\xceV\xc2?\x07_m\xdd,\xc9\xee?\x1b\x03(3\x80]\xf3?\xee{q\x1c\x8c\x00\xde?JJ\xc9\xb3\xea\x87\xd4?}MW<&{\xeb?\x03Gs\xde\xa6\xe1\xf5?'
p22
tp23
bsS'PL-RE'
p24
g2
(g3
(I0
tp25
g5
tp26
Rp27
(I1
(I4
tp28
g12
I00
S"\x10;\xa9'X\x1d\xa8?O\x01\x01\xdd\xc2v\xd9?\xcc\xb0\xf8\x0f)\xff\xba?\x1c\xab\x0b\xda\xc7\xc5\xdc?"
p29
tp30
bsS'N'
p31
I4
sS'Mallows-greedy'
p32
((lp33
I0
aI2
aI1
aI3
acnumpy.core.multiarray
scalar
p34
(g12
S'p\x17\xf4~g\xaf\xf7?'
p35
tp36
Rp37
tp38
sS'MMNL'
p39
g2
(g3
(I0
tp40
g5
tp41
Rp42
(I1
(I10
tp43
g12
I00
S'\x00\xc4F\xc6\x81\xe8\xe7?\x01xrs\xfc.\xd0?"2\x08y\x01U\xeb?\x95\xd6&\xe8\x0b.\x11>\xef\xf0n\xcb\x10\x94\x95?\xd7\xea\xe9\xc4\x99\xe63@xM\x0bj\x1b\xa8\xb0?\xe18\x92M\nfQ@\xa4C\x8e\x97/\x1e\x9b?#s{\xcc\xb3\xa0\x1f@'
p44
tp45
bsS'test-lists'
p46
(lp47
(lp48
I2
aI0
aI1
aI3
aa(lp49
I0
aI1
aI2
aI3
aa(lp50
I0
aI2
aI3
aI1
aa(lp51
I0
aI2
aI3
aI1
aa(lp52
I0
aI2
aI1
aI3
aa(lp53
I0
aI2
aI3
aI1
aa(lp54
I0
aI2
aI3
aI1
aa(lp55
I0
aI2
aI3
aI1
aa(lp56
I2
aI0
aI3
aI1
aa(lp57
I0
aI2
aI3
aI1
aa(lp58
I0
aI1
aI3
aI2
aa(lp59
I0
aI1
aI3
aI2
aa(lp60
I0
aI2
aI1
aI3
aa(lp61
I0
aI2
aI3
aI1
aa(lp62
I0
aI2
aI1
aI3
aa(lp63
I0
aI3
aI1
aI2
aa(lp64
I0
aI2
aI1
aI3
aa(lp65
I2
aI0
aI1
aI3
aa(lp66
I2
aI0
aI3
aI1
aa(lp67
I0
aI1
aI3
aI2
aa(lp68
I1
aI2
aI0
aI3
aa(lp69
I0
aI2
aI1
aI3
aa(lp70
I0
aI2
aI3
aI1
aa(lp71
I0
aI1
aI2
aI3
aa(lp72
I0
aI2
aI3
aI1
aa(lp73
I0
aI1
aI2
aI3
aa(lp74
I0
aI2
aI3
aI1
aa(lp75
I2
aI0
aI1
aI3
aa(lp76
I0
aI2
aI1
aI3
aa(lp77
I0
aI2
aI3
aI1
aa(lp78
I0
aI1
aI2
aI3
aa(lp79
I0
aI2
aI3
aI1
aa(lp80
I0
aI1
aI2
aI3
aa(lp81
I0
aI2
aI3
aI1
aa(lp82
I0
aI3
aI2
aI1
aa(lp83
I0
aI2
aI1
aI3
aa(lp84
I0
aI2
aI3
aI1
aa(lp85
I2
aI0
aI1
aI3
aa(lp86
I0
aI1
aI2
aI3
aa(lp87
I2
aI0
aI1
aI3
aa(lp88
I2
aI0
aI3
aI1
aa(lp89
I2
aI0
aI1
aI3
aa(lp90
I1
aI2
aI0
aI3
aa(lp91
I0
aI1
aI2
aI3
aa(lp92
I0
aI1
aI2
aI3
aa(lp93
I0
aI2
aI3
aI1
aa(lp94
I0
aI2
aI3
aI1
aa(lp95
I0
aI1
aI3
aI2
aa(lp96
I0
aI2
aI3
aI1
aa(lp97
I0
aI2
aI3
aI1
aa(lp98
I0
aI2
aI3
aI1
aa(lp99
I0
aI3
aI1
aI2
aa(lp100
I0
aI1
aI3
aI2
aa(lp101
I0
aI2
aI1
aI3
aa(lp102
I0
aI2
aI3
aI1
aa(lp103
I2
aI0
aI3
aI1
aa(lp104
I0
aI1
aI2
aI3
aa(lp105
I0
aI1
aI3
aI2
aa(lp106
I2
aI0
aI3
aI1
aa(lp107
I0
aI2
aI1
aI3
aa(lp108
I2
aI0
aI1
aI3
aa(lp109
I0
aI2
aI1
aI3
aa(lp110
I0
aI2
aI1
aI3
aa(lp111
I0
aI2
aI3
aI1
aa(lp112
I0
aI2
aI1
aI3
aa(lp113
I0
aI1
aI2
aI3
aa(lp114
I2
aI0
aI3
aI1
aa(lp115
I2
aI0
aI3
aI1
aa(lp116
I2
aI0
aI3
aI1
aa(lp117
I0
aI1
aI2
aI3
aa(lp118
I0
aI2
aI3
aI1
aa(lp119
I2
aI0
aI3
aI1
aa(lp120
I0
aI2
aI3
aI1
aa(lp121
I0
aI2
aI1
aI3
aa(lp122
I0
aI2
aI3
aI1
aa(lp123
I2
aI0
aI3
aI1
aa(lp124
I0
aI1
aI2
aI3
aa(lp125
I0
aI2
aI1
aI3
aa(lp126
I0
aI2
aI3
aI1
aa(lp127
I2
aI3
aI1
aI0
aa(lp128
I0
aI2
aI3
aI1
aa(lp129
I0
aI2
aI1
aI3
aa(lp130
I2
aI0
aI3
aI1
aa(lp131
I0
aI1
aI2
aI3
aa(lp132
I0
aI2
aI1
aI3
aa(lp133
I0
aI2
aI3
aI1
aa(lp134
I0
aI2
aI3
aI1
aa(lp135
I2
aI0
aI3
aI1
aa(lp136
I0
aI2
aI3
aI1
aa(lp137
I0
aI1
aI3
aI2
aasS'PCMC'
p138
g2
(g3
(I0
tp139
g5
tp140
Rp141
(I1
(I12
tp142
g12
I00
S'\xe8\x1d\x1cU\xfd.\xa4?\x0c\xe9\'\xee\xbf\xc8\xeb?\xf4\x9a\xceT[\xe2\xf2?,?qPS\xf8\x9a?\xe5\xb4G#\xfb\xf6"@\x8a\x16a\xff@\x88\x16@\x8d\xe2\xd8\xca\x1c\r\xfd?\x99\x04\xaa3\xcf\xa1\x05@\xfc\xa9\xf1\xd2MbP?\x1b6\x0c\x8b\x8f<1@I>\xb8x \xf7\x17@\x08\x87>d#6W?'
p143
tp144
bsS'PL'
p145
g2
(g3
(I0
tp146
g5
tp147
Rp148
(I1
(I4
tp149
g12
I00
S'^\x07\xd4\xc0\x16\xe1\xe3?\x8e\\\xf4\xba\x94E\xb2?w\x13\x90\xb5\x8f\xcd\xce?\x96AK\xd3\x95\x16\xb1?'
p150
tp151
bsS'Mallows-greedy-RE'
p152
((lp153
I3
aI1
aI2
aI0
ag34
(g12
S'p\x17\xf4~g\xaf\xf7?'
p154
tp155
Rp156
tp157
s.