(dp0
S'PCMC-RE'
p1
cnumpy.core.multiarray
_reconstruct
p2
(cnumpy
ndarray
p3
(I0
tp4
S'b'
p5
tp6
Rp7
(I1
(I6
tp8
cnumpy
dtype
p9
(S'f8'
p10
I0
I1
tp11
Rp12
(I3
S'<'
p13
NNNI-1
I-1
I0
tp14
bI00
S'\x82\xc6\xdf\xe3\xbc^\xd4?L\x88&\x18cy\xc7?\x99\x89!1\xd1\x8c\xcf?\x12\xef\x82;\x0e\xbeU?\xccX\x06u\xcb\x98\xe8?\tq\xdeg\x82hP?'
p15
tp16
bsS'MMNL-RE'
p17
g2
(g3
(I0
tp18
g5
tp19
Rp20
(I1
(I4
tp21
g12
I00
S'\x00\x00\x00\x00\x00\x00\xf0?\xb2\x00\xb0\x92\xd2k\xef?w\xeaF\xaa^\x14\xe7?\xd3\xe3t\x9a\xe6\xfb\xd5?'
p22
tp23
bsS'PL-RE'
p24
g2
(g3
(I0
tp25
g5
tp26
Rp27
(I1
(I3
tp28
g12
I00
S'\xe5F&\x92\x83\xb4\xde?\x00d\xcf\x93\xb4\x8d\xd6?<\xaa\x14\xb4\x8f{\xc5?'
p29
tp30
bsS'N'
p31
I3
sS'Mallows-greedy'
p32
((lp33
I2
aI1
aI0
acnumpy.core.multiarray
scalar
p34
(g12
S'\x8d\xe2/\xb2\xdc\x82\xf1?'
p35
tp36
Rp37
tp38
sS'MMNL'
p39
g2
(g3
(I0
tp40
g5
tp41
Rp42
(I1
(I4
tp43
g12
I00
S'\x00\x00\x00\x00\x00\x00\xf0?\xc0\x98Ui\xee\xeb\xe1?^\x806\x1b:\xab\xe2?b\xdc\xdf\x9c\xeeJ\xfb?'
p44
tp45
bsS'test-lists'
p46
(lp47
(lp48
I1
aI2
aI0
aa(lp49
I2
aI1
aI0
aa(lp50
I0
aI2
aI1
aa(lp51
I2
aI0
aI1
aa(lp52
I2
aI1
aI0
aa(lp53
I0
aI2
aI1
aa(lp54
I1
aI2
aI0
aa(lp55
I1
aI2
aI0
aa(lp56
I1
aI0
aI2
aa(lp57
I2
aI1
aI0
aa(lp58
I2
aI0
aI1
aa(lp59
I2
aI0
aI1
aa(lp60
I2
aI0
aI1
aa(lp61
I2
aI0
aI1
aa(lp62
I2
aI1
aI0
aa(lp63
I1
aI2
aI0
aa(lp64
I2
aI0
aI1
aa(lp65
I0
aI2
aI1
aa(lp66
I2
aI1
aI0
aa(lp67
I2
aI1
aI0
aa(lp68
I2
aI0
aI1
aa(lp69
I2
aI0
aI1
aa(lp70
I1
aI0
aI2
aa(lp71
I2
aI1
aI0
aa(lp72
I2
aI0
aI1
aa(lp73
I2
aI0
aI1
aa(lp74
I0
aI2
aI1
aa(lp75
I2
aI0
aI1
aa(lp76
I2
aI0
aI1
aa(lp77
I2
aI0
aI1
aa(lp78
I1
aI2
aI0
aa(lp79
I2
aI1
aI0
aa(lp80
I2
aI0
aI1
aa(lp81
I2
aI0
aI1
aa(lp82
I2
aI1
aI0
aa(lp83
I2
aI1
aI0
aa(lp84
I2
aI0
aI1
aa(lp85
I1
aI2
aI0
aa(lp86
I1
aI2
aI0
aa(lp87
I1
aI2
aI0
aa(lp88
I1
aI2
aI0
aa(lp89
I2
aI1
aI0
aa(lp90
I1
aI2
aI0
aa(lp91
I2
aI0
aI1
aa(lp92
I2
aI0
aI1
aa(lp93
I1
aI2
aI0
aa(lp94
I1
aI2
aI0
aa(lp95
I2
aI0
aI1
aa(lp96
I2
aI1
aI0
aa(lp97
I2
aI0
aI1
aa(lp98
I2
aI0
aI1
aa(lp99
I1
aI2
aI0
aa(lp100
I1
aI2
aI0
aa(lp101
I2
aI1
aI0
aa(lp102
I2
aI1
aI0
aa(lp103
I1
aI2
aI0
aa(lp104
I2
aI0
aI1
aa(lp105
I2
aI1
aI0
aa(lp106
I2
aI0
aI1
aa(lp107
I1
aI2
aI0
aa(lp108
I1
aI2
aI0
aa(lp109
I2
aI0
aI1
aa(lp110
I2
aI0
aI1
aa(lp111
I1
aI2
aI0
aa(lp112
I1
aI2
aI0
aa(lp113
I2
aI1
aI0
aa(lp114
I2
aI0
aI1
aa(lp115
I1
aI2
aI0
aa(lp116
I2
aI0
aI1
aa(lp117
I0
aI2
aI1
aa(lp118
I0
aI2
aI1
aa(lp119
I1
aI2
aI0
aa(lp120
I0
aI2
aI1
aa(lp121
I2
aI0
aI1
aa(lp122
I2
aI0
aI1
aa(lp123
I1
aI2
aI0
aa(lp124
I1
aI2
aI0
aa(lp125
I2
aI1
aI0
aa(lp126
I2
aI1
aI0
aa(lp127
I1
aI2
aI0
aa(lp128
I2
aI1
aI0
aa(lp129
I1
aI0
aI2
aa(lp130
I2
aI0
aI1
aa(lp131
I2
aI1
aI0
aa(lp132
I1
aI2
aI0
aa(lp133
I2
aI1
aI0
aa(lp134
I2
aI1
aI0
aa(lp135
I1
aI2
aI0
aa(lp136
I2
aI1
aI0
aa(lp137
I2
aI1
aI0
aa(lp138
I2
aI1
aI0
aa(lp139
I2
aI1
aI0
aa(lp140
I2
aI1
aI0
aa(lp141
I2
aI0
aI1
aa(lp142
I2
aI1
aI0
aa(lp143
I1
aI2
aI0
aa(lp144
I1
aI2
aI0
aa(lp145
I2
aI0
aI1
aa(lp146
I2
aI0
aI1
aa(lp147
I2
aI1
aI0
aa(lp148
I2
aI0
aI1
aa(lp149
I2
aI0
aI1
aa(lp150
I2
aI0
aI1
aa(lp151
I2
aI0
aI1
aa(lp152
I1
aI2
aI0
aa(lp153
I0
aI1
aI2
aa(lp154
I2
aI0
aI1
aa(lp155
I2
aI0
aI1
aa(lp156
I2
aI1
aI0
aa(lp157
I2
aI0
aI1
aa(lp158
I1
aI2
aI0
aa(lp159
I2
aI0
aI1
aa(lp160
I0
aI2
aI1
aa(lp161
I2
aI0
aI1
aa(lp162
I2
aI0
aI1
aa(lp163
I2
aI0
aI1
aa(lp164
I2
aI0
aI1
aa(lp165
I2
aI1
aI0
aa(lp166
I2
aI0
aI1
aa(lp167
I0
aI1
aI2
aa(lp168
I2
aI0
aI1
aa(lp169
I2
aI1
aI0
aa(lp170
I2
aI1
aI0
aa(lp171
I2
aI0
aI1
aa(lp172
I2
aI0
aI1
aa(lp173
I1
aI2
aI0
aa(lp174
I2
aI0
aI1
aa(lp175
I0
aI2
aI1
aa(lp176
I2
aI0
aI1
aa(lp177
I2
aI1
aI0
aa(lp178
I1
aI2
aI0
aa(lp179
I2
aI0
aI1
aa(lp180
I1
aI2
aI0
aa(lp181
I1
aI2
aI0
aa(lp182
I0
aI2
aI1
aa(lp183
I2
aI1
aI0
aa(lp184
I0
aI2
aI1
aa(lp185
I2
aI0
aI1
aa(lp186
I2
aI0
aI1
aa(lp187
I1
aI0
aI2
aa(lp188
I2
aI0
aI1
aa(lp189
I2
aI0
aI1
aa(lp190
I2
aI0
aI1
aa(lp191
I2
aI1
aI0
aa(lp192
I2
aI0
aI1
aa(lp193
I2
aI1
aI0
aa(lp194
I2
aI0
aI1
aa(lp195
I2
aI1
aI0
aa(lp196
I2
aI1
aI0
aa(lp197
I0
aI2
aI1
aa(lp198
I2
aI1
aI0
aa(lp199
I2
aI0
aI1
aa(lp200
I2
aI0
aI1
aa(lp201
I2
aI0
aI1
aa(lp202
I2
aI0
aI1
aa(lp203
I2
aI0
aI1
aa(lp204
I1
aI2
aI0
aa(lp205
I2
aI0
aI1
aa(lp206
I2
aI0
aI1
aa(lp207
I2
aI1
aI0
aa(lp208
I2
aI0
aI1
aa(lp209
I2
aI0
aI1
aa(lp210
I2
aI0
aI1
aa(lp211
I2
aI0
aI1
aa(lp212
I1
aI2
aI0
aa(lp213
I1
aI2
aI0
aa(lp214
I1
aI2
aI0
aa(lp215
I1
aI2
aI0
aa(lp216
I2
aI1
aI0
aa(lp217
I2
aI0
aI1
aa(lp218
I2
aI0
aI1
aa(lp219
I2
aI0
aI1
aa(lp220
I1
aI0
aI2
aa(lp221
I0
aI2
aI1
aa(lp222
I2
aI0
aI1
aa(lp223
I1
aI2
aI0
aa(lp224
I1
aI2
aI0
aa(lp225
I2
aI0
aI1
aa(lp226
I2
aI0
aI1
aa(lp227
I1
aI2
aI0
aa(lp228
I2
aI0
aI1
aa(lp229
I2
aI0
aI1
aa(lp230
I0
aI2
aI1
aa(lp231
I2
aI0
aI1
aa(lp232
I2
aI0
aI1
aa(lp233
I2
aI1
aI0
aa(lp234
I1
aI0
aI2
aa(lp235
I2
aI1
aI0
aa(lp236
I2
aI0
aI1
aa(lp237
I1
aI2
aI0
aa(lp238
I2
aI0
aI1
aa(lp239
I2
aI0
aI1
aa(lp240
I2
aI0
aI1
aa(lp241
I2
aI0
aI1
aa(lp242
I2
aI0
aI1
aa(lp243
I2
aI0
aI1
aa(lp244
I2
aI0
aI1
aa(lp245
I2
aI0
aI1
aa(lp246
I2
aI1
aI0
aa(lp247
I2
aI0
aI1
aa(lp248
I1
aI2
aI0
aa(lp249
I2
aI0
aI1
aa(lp250
I2
aI0
aI1
aa(lp251
I2
aI1
aI0
aa(lp252
I1
aI2
aI0
aa(lp253
I2
aI0
aI1
aa(lp254
I2
aI0
aI1
aa(lp255
I2
aI0
aI1
aa(lp256
I2
aI1
aI0
aa(lp257
I1
aI0
aI2
aa(lp258
I1
aI0
aI2
aa(lp259
I2
aI1
aI0
aa(lp260
I2
aI1
aI0
aa(lp261
I2
aI0
aI1
aa(lp262
I2
aI0
aI1
aa(lp263
I1
aI2
aI0
aa(lp264
I2
aI0
aI1
aa(lp265
I1
aI2
aI0
aa(lp266
I2
aI0
aI1
aa(lp267
I1
aI2
aI0
aa(lp268
I0
aI2
aI1
aa(lp269
I1
aI2
aI0
aa(lp270
I2
aI1
aI0
aa(lp271
I2
aI1
aI0
aa(lp272
I1
aI2
aI0
aa(lp273
I2
aI1
aI0
aa(lp274
I2
aI0
aI1
aa(lp275
I0
aI2
aI1
aa(lp276
I2
aI1
aI0
aa(lp277
I2
aI0
aI1
aa(lp278
I1
aI2
aI0
aa(lp279
I2
aI0
aI1
aa(lp280
I2
aI0
aI1
aa(lp281
I0
aI2
aI1
aa(lp282
I2
aI0
aI1
aa(lp283
I2
aI1
aI0
aa(lp284
I2
aI1
aI0
aa(lp285
I2
aI0
aI1
aa(lp286
I2
aI0
aI1
aa(lp287
I1
aI0
aI2
aa(lp288
I1
aI2
aI0
aa(lp289
I2
aI0
aI1
aa(lp290
I2
aI0
aI1
aa(lp291
I0
aI2
aI1
aa(lp292
I2
aI0
aI1
aa(lp293
I2
aI0
aI1
aa(lp294
I2
aI0
aI1
aa(lp295
I1
aI2
aI0
aa(lp296
I2
aI0
aI1
aa(lp297
I1
aI0
aI2
aa(lp298
I2
aI0
aI1
aa(lp299
I2
aI0
aI1
aa(lp300
I2
aI0
aI1
aa(lp301
I2
aI1
aI0
aa(lp302
I2
aI0
aI1
aa(lp303
I2
aI1
aI0
aa(lp304
I2
aI1
aI0
aa(lp305
I1
aI0
aI2
aa(lp306
I2
aI1
aI0
aa(lp307
I2
aI0
aI1
aa(lp308
I2
aI0
aI1
aa(lp309
I1
aI2
aI0
aa(lp310
I2
aI0
aI1
aa(lp311
I1
aI2
aI0
aa(lp312
I2
aI0
aI1
aa(lp313
I1
aI2
aI0
aa(lp314
I2
aI0
aI1
aa(lp315
I2
aI0
aI1
aa(lp316
I2
aI0
aI1
aa(lp317
I2
aI0
aI1
aa(lp318
I1
aI2
aI0
aa(lp319
I0
aI2
aI1
aa(lp320
I2
aI0
aI1
aa(lp321
I2
aI0
aI1
aa(lp322
I2
aI0
aI1
aa(lp323
I0
aI1
aI2
aa(lp324
I2
aI0
aI1
aa(lp325
I2
aI0
aI1
aa(lp326
I0
aI2
aI1
aa(lp327
I1
aI2
aI0
aa(lp328
I1
aI2
aI0
aa(lp329
I1
aI2
aI0
aa(lp330
I2
aI0
aI1
aa(lp331
I2
aI1
aI0
aa(lp332
I0
aI2
aI1
aa(lp333
I2
aI0
aI1
aa(lp334
I0
aI2
aI1
aa(lp335
I0
aI2
aI1
aa(lp336
I1
aI2
aI0
aa(lp337
I2
aI0
aI1
aa(lp338
I0
aI2
aI1
aa(lp339
I2
aI0
aI1
aa(lp340
I0
aI1
aI2
aa(lp341
I0
aI2
aI1
aa(lp342
I1
aI0
aI2
aa(lp343
I0
aI2
aI1
aa(lp344
I2
aI1
aI0
aa(lp345
I2
aI0
aI1
aa(lp346
I1
aI2
aI0
aa(lp347
I2
aI1
aI0
aa(lp348
I1
aI2
aI0
aa(lp349
I2
aI0
aI1
aa(lp350
I2
aI1
aI0
aa(lp351
I1
aI2
aI0
aa(lp352
I2
aI1
aI0
aa(lp353
I2
aI0
aI1
aa(lp354
I2
aI0
aI1
aa(lp355
I2
aI0
aI1
aa(lp356
I2
aI0
aI1
aa(lp357
I2
aI0
aI1
aa(lp358
I2
aI1
aI0
aa(lp359
I2
aI0
aI1
aa(lp360
I1
aI2
aI0
aa(lp361
I2
aI1
aI0
aa(lp362
I2
aI0
aI1
aa(lp363
I2
aI1
aI0
aa(lp364
I2
aI0
aI1
aa(lp365
I2
aI1
aI0
aa(lp366
I2
aI1
aI0
aa(lp367
I2
aI0
aI1
aa(lp368
I2
aI0
aI1
aa(lp369
I2
aI1
aI0
aa(lp370
I2
aI1
aI0
aa(lp371
I2
aI0
aI1
aa(lp372
I2
aI1
aI0
aa(lp373
I1
aI2
aI0
aa(lp374
I2
aI0
aI1
aa(lp375
I1
aI2
aI0
aa(lp376
I2
aI0
aI1
aa(lp377
I2
aI1
aI0
aa(lp378
I1
aI2
aI0
aa(lp379
I1
aI2
aI0
aa(lp380
I0
aI1
aI2
aa(lp381
I2
aI1
aI0
aa(lp382
I2
aI1
aI0
aa(lp383
I2
aI0
aI1
aa(lp384
I1
aI0
aI2
aa(lp385
I2
aI0
aI1
aa(lp386
I2
aI1
aI0
aa(lp387
I1
aI2
aI0
aa(lp388
I1
aI2
aI0
aa(lp389
I1
aI2
aI0
aa(lp390
I2
aI0
aI1
aa(lp391
I1
aI2
aI0
aa(lp392
I2
aI0
aI1
aa(lp393
I2
aI0
aI1
aa(lp394
I0
aI2
aI1
aa(lp395
I1
aI2
aI0
aa(lp396
I2
aI1
aI0
aa(lp397
I2
aI1
aI0
aa(lp398
I2
aI0
aI1
aa(lp399
I1
aI2
aI0
aa(lp400
I2
aI1
aI0
aa(lp401
I2
aI0
aI1
aa(lp402
I1
aI0
aI2
aa(lp403
I1
aI2
aI0
aa(lp404
I2
aI0
aI1
aa(lp405
I1
aI2
aI0
aa(lp406
I2
aI0
aI1
aa(lp407
I1
aI0
aI2
aa(lp408
I2
aI0
aI1
aa(lp409
I1
aI2
aI0
aa(lp410
I2
aI0
aI1
aa(lp411
I1
aI0
aI2
aa(lp412
I2
aI1
aI0
aa(lp413
I2
aI1
aI0
aa(lp414
I2
aI0
aI1
aa(lp415
I2
aI0
aI1
aa(lp416
I0
aI2
aI1
aa(lp417
I1
aI2
aI0
aa(lp418
I2
aI1
aI0
aa(lp419
I2
aI0
aI1
aa(lp420
I1
aI2
aI0
aa(lp421
I2
aI1
aI0
aa(lp422
I1
aI2
aI0
aa(lp423
I2
aI0
aI1
aa(lp424
I1
aI2
aI0
aa(lp425
I2
aI1
aI0
aa(lp426
I2
aI0
aI1
aa(lp427
I2
aI0
aI1
aa(lp428
I0
aI1
aI2
aa(lp429
I0
aI2
aI1
aa(lp430
I2
aI1
aI0
aa(lp431
I0
aI2
aI1
aa(lp432
I1
aI2
aI0
aa(lp433
I2
aI1
aI0
aa(lp434
I2
aI1
aI0
aa(lp435
I1
aI0
aI2
aa(lp436
I1
aI2
aI0
aa(lp437
I2
aI0
aI1
aa(lp438
I0
aI2
aI1
aa(lp439
I2
aI1
aI0
aa(lp440
I2
aI1
aI0
aa(lp441
I2
aI0
aI1
aa(lp442
I2
aI0
aI1
aa(lp443
I1
aI2
aI0
aa(lp444
I2
aI1
aI0
aa(lp445
I2
aI1
aI0
aa(lp446
I2
aI0
aI1
aa(lp447
I1
aI2
aI0
aa(lp448
I2
aI1
aI0
aa(lp449
I2
aI0
aI1
aa(lp450
I2
aI0
aI1
aa(lp451
I2
aI1
aI0
aa(lp452
I0
aI2
aI1
aa(lp453
I2
aI0
aI1
aa(lp454
I2
aI0
aI1
aa(lp455
I2
aI0
aI1
aa(lp456
I2
aI0
aI1
aa(lp457
I1
aI2
aI0
aa(lp458
I1
aI2
aI0
aa(lp459
I1
aI2
aI0
aa(lp460
I0
aI2
aI1
aa(lp461
I1
aI0
aI2
aa(lp462
I1
aI0
aI2
aa(lp463
I2
aI0
aI1
aa(lp464
I1
aI2
aI0
aa(lp465
I1
aI2
aI0
aa(lp466
I2
aI1
aI0
aa(lp467
I2
aI0
aI1
aa(lp468
I2
aI0
aI1
aa(lp469
I2
aI0
aI1
aa(lp470
I0
aI2
aI1
aa(lp471
I1
aI2
aI0
aa(lp472
I2
aI0
aI1
aa(lp473
I2
aI1
aI0
aa(lp474
I1
aI2
aI0
aa(lp475
I1
aI2
aI0
aa(lp476
I1
aI2
aI0
aa(lp477
I2
aI0
aI1
aa(lp478
I2
aI1
aI0
aa(lp479
I0
aI2
aI1
aa(lp480
I1
aI2
aI0
aa(lp481
I2
aI0
aI1
aa(lp482
I2
aI1
aI0
aa(lp483
I2
aI0
aI1
aa(lp484
I0
aI2
aI1
aa(lp485
I2
aI0
aI1
aa(lp486
I0
aI2
aI1
aa(lp487
I2
aI0
aI1
aa(lp488
I1
aI2
aI0
aa(lp489
I1
aI2
aI0
aa(lp490
I2
aI1
aI0
aa(lp491
I1
aI0
aI2
aa(lp492
I1
aI2
aI0
aa(lp493
I0
aI2
aI1
aa(lp494
I2
aI1
aI0
aa(lp495
I2
aI0
aI1
aa(lp496
I2
aI0
aI1
aa(lp497
I2
aI1
aI0
aa(lp498
I2
aI0
aI1
aa(lp499
I2
aI0
aI1
aa(lp500
I2
aI0
aI1
aa(lp501
I1
aI2
aI0
aa(lp502
I1
aI2
aI0
aa(lp503
I0
aI2
aI1
aa(lp504
I1
aI2
aI0
aa(lp505
I2
aI1
aI0
aa(lp506
I0
aI2
aI1
aa(lp507
I2
aI1
aI0
aa(lp508
I1
aI2
aI0
aa(lp509
I2
aI1
aI0
aa(lp510
I2
aI0
aI1
aa(lp511
I2
aI0
aI1
aa(lp512
I2
aI0
aI1
aa(lp513
I2
aI0
aI1
aa(lp514
I2
aI1
aI0
aa(lp515
I2
aI0
aI1
aa(lp516
I1
aI2
aI0
aa(lp517
I1
aI2
aI0
aa(lp518
I2
aI1
aI0
aa(lp519
I2
aI1
aI0
aa(lp520
I2
aI0
aI1
aa(lp521
I1
aI2
aI0
aa(lp522
I0
aI2
aI1
aa(lp523
I1
aI2
aI0
aa(lp524
I2
aI0
aI1
aa(lp525
I0
aI2
aI1
aa(lp526
I1
aI2
aI0
aa(lp527
I2
aI1
aI0
aa(lp528
I2
aI0
aI1
aa(lp529
I1
aI2
aI0
aa(lp530
I2
aI0
aI1
aa(lp531
I2
aI0
aI1
aa(lp532
I2
aI0
aI1
aa(lp533
I2
aI1
aI0
aa(lp534
I2
aI0
aI1
aa(lp535
I2
aI0
aI1
aa(lp536
I2
aI0
aI1
aa(lp537
I2
aI1
aI0
aa(lp538
I2
aI1
aI0
aa(lp539
I2
aI0
aI1
aa(lp540
I1
aI2
aI0
aa(lp541
I2
aI0
aI1
aa(lp542
I2
aI1
aI0
aa(lp543
I1
aI2
aI0
aa(lp544
I2
aI0
aI1
aa(lp545
I2
aI0
aI1
aa(lp546
I2
aI0
aI1
aa(lp547
I2
aI1
aI0
aa(lp548
I1
aI2
aI0
aa(lp549
I1
aI2
aI0
aa(lp550
I1
aI2
aI0
aa(lp551
I2
aI1
aI0
aa(lp552
I2
aI1
aI0
aa(lp553
I2
aI0
aI1
aa(lp554
I2
aI1
aI0
aa(lp555
I2
aI1
aI0
aa(lp556
I1
aI2
aI0
aa(lp557
I1
aI0
aI2
aa(lp558
I2
aI0
aI1
aa(lp559
I2
aI1
aI0
aa(lp560
I2
aI1
aI0
aa(lp561
I1
aI2
aI0
aa(lp562
I2
aI0
aI1
aa(lp563
I2
aI0
aI1
aa(lp564
I2
aI0
aI1
aa(lp565
I2
aI0
aI1
aa(lp566
I2
aI0
aI1
aa(lp567
I2
aI0
aI1
aa(lp568
I1
aI2
aI0
aa(lp569
I2
aI0
aI1
aa(lp570
I1
aI0
aI2
aa(lp571
I1
aI2
aI0
aa(lp572
I0
aI2
aI1
aa(lp573
I2
aI0
aI1
aa(lp574
I2
aI1
aI0
aa(lp575
I2
aI0
aI1
aa(lp576
I0
aI2
aI1
aa(lp577
I1
aI0
aI2
aa(lp578
I2
aI0
aI1
aa(lp579
I2
aI1
aI0
aa(lp580
I2
aI1
aI0
aa(lp581
I2
aI0
aI1
aa(lp582
I1
aI0
aI2
aa(lp583
I1
aI0
aI2
aa(lp584
I1
aI0
aI2
aa(lp585
I0
aI2
aI1
aa(lp586
I1
aI2
aI0
aa(lp587
I0
aI2
aI1
aa(lp588
I1
aI2
aI0
aa(lp589
I1
aI2
aI0
aa(lp590
I1
aI0
aI2
aa(lp591
I2
aI0
aI1
aa(lp592
I2
aI0
aI1
aa(lp593
I2
aI0
aI1
aa(lp594
I2
aI1
aI0
aa(lp595
I2
aI0
aI1
aa(lp596
I2
aI0
aI1
aa(lp597
I1
aI2
aI0
aa(lp598
I1
aI2
aI0
aa(lp599
I2
aI0
aI1
aa(lp600
I1
aI0
aI2
aa(lp601
I1
aI0
aI2
aa(lp602
I1
aI2
aI0
aa(lp603
I2
aI0
aI1
aa(lp604
I1
aI2
aI0
aa(lp605
I1
aI2
aI0
aa(lp606
I2
aI1
aI0
aa(lp607
I1
aI2
aI0
aa(lp608
I2
aI0
aI1
aa(lp609
I2
aI0
aI1
aa(lp610
I1
aI2
aI0
aa(lp611
I2
aI1
aI0
aa(lp612
I0
aI2
aI1
aa(lp613
I2
aI0
aI1
aa(lp614
I1
aI2
aI0
aa(lp615
I2
aI0
aI1
aa(lp616
I2
aI1
aI0
aa(lp617
I1
aI2
aI0
aa(lp618
I0
aI1
aI2
aa(lp619
I2
aI0
aI1
aa(lp620
I1
aI2
aI0
aa(lp621
I1
aI0
aI2
aa(lp622
I1
aI2
aI0
aa(lp623
I0
aI1
aI2
aa(lp624
I2
aI0
aI1
aa(lp625
I2
aI0
aI1
aa(lp626
I2
aI1
aI0
aa(lp627
I1
aI2
aI0
aa(lp628
I0
aI2
aI1
aa(lp629
I1
aI2
aI0
aa(lp630
I2
aI0
aI1
aa(lp631
I2
aI0
aI1
aa(lp632
I1
aI0
aI2
aa(lp633
I1
aI2
aI0
aa(lp634
I1
aI2
aI0
aa(lp635
I2
aI0
aI1
aa(lp636
I2
aI1
aI0
aa(lp637
I0
aI2
aI1
aa(lp638
I2
aI1
aI0
aa(lp639
I1
aI2
aI0
aa(lp640
I1
aI0
aI2
aa(lp641
I2
aI0
aI1
aa(lp642
I1
aI2
aI0
aa(lp643
I1
aI0
aI2
aa(lp644
I1
aI2
aI0
aa(lp645
I1
aI2
aI0
aa(lp646
I2
aI1
aI0
aa(lp647
I1
aI2
aI0
aa(lp648
I2
aI0
aI1
aa(lp649
I2
aI0
aI1
aa(lp650
I1
aI2
aI0
aa(lp651
I0
aI2
aI1
aa(lp652
I2
aI0
aI1
aa(lp653
I0
aI2
aI1
aa(lp654
I1
aI2
aI0
aa(lp655
I2
aI0
aI1
aa(lp656
I1
aI2
aI0
aa(lp657
I1
aI2
aI0
aa(lp658
I1
aI2
aI0
aa(lp659
I2
aI1
aI0
aa(lp660
I2
aI1
aI0
aa(lp661
I2
aI0
aI1
aa(lp662
I2
aI1
aI0
aa(lp663
I2
aI0
aI1
aa(lp664
I2
aI1
aI0
aa(lp665
I1
aI2
aI0
aa(lp666
I2
aI0
aI1
aa(lp667
I1
aI0
aI2
aa(lp668
I1
aI2
aI0
aa(lp669
I1
aI0
aI2
aa(lp670
I1
aI2
aI0
aa(lp671
I2
aI0
aI1
aa(lp672
I1
aI2
aI0
aa(lp673
I2
aI1
aI0
aa(lp674
I2
aI0
aI1
aa(lp675
I2
aI0
aI1
aa(lp676
I1
aI2
aI0
aa(lp677
I2
aI1
aI0
aa(lp678
I2
aI0
aI1
aa(lp679
I1
aI2
aI0
aa(lp680
I2
aI0
aI1
aa(lp681
I0
aI2
aI1
aa(lp682
I2
aI0
aI1
aa(lp683
I2
aI1
aI0
aa(lp684
I2
aI0
aI1
aa(lp685
I1
aI2
aI0
aa(lp686
I0
aI2
aI1
aa(lp687
I0
aI1
aI2
aa(lp688
I0
aI2
aI1
aa(lp689
I0
aI2
aI1
aa(lp690
I2
aI0
aI1
aa(lp691
I2
aI0
aI1
aa(lp692
I2
aI0
aI1
aa(lp693
I2
aI1
aI0
aa(lp694
I2
aI0
aI1
aa(lp695
I2
aI0
aI1
aa(lp696
I2
aI1
aI0
aa(lp697
I2
aI1
aI0
aa(lp698
I1
aI2
aI0
aa(lp699
I1
aI2
aI0
aa(lp700
I1
aI2
aI0
aa(lp701
I1
aI2
aI0
aa(lp702
I2
aI0
aI1
aa(lp703
I2
aI0
aI1
aa(lp704
I1
aI2
aI0
aa(lp705
I2
aI0
aI1
aa(lp706
I2
aI0
aI1
aa(lp707
I1
aI2
aI0
aa(lp708
I2
aI0
aI1
aa(lp709
I1
aI2
aI0
aa(lp710
I1
aI2
aI0
aa(lp711
I0
aI2
aI1
aa(lp712
I2
aI1
aI0
aa(lp713
I1
aI2
aI0
aa(lp714
I1
aI2
aI0
aa(lp715
I2
aI0
aI1
aa(lp716
I2
aI0
aI1
aa(lp717
I0
aI2
aI1
aa(lp718
I2
aI0
aI1
aa(lp719
I2
aI0
aI1
aa(lp720
I2
aI0
aI1
aa(lp721
I0
aI2
aI1
aa(lp722
I0
aI1
aI2
aa(lp723
I2
aI1
aI0
aa(lp724
I1
aI2
aI0
aa(lp725
I2
aI0
aI1
aa(lp726
I0
aI2
aI1
aa(lp727
I2
aI0
aI1
aa(lp728
I2
aI0
aI1
aa(lp729
I2
aI0
aI1
aa(lp730
I2
aI0
aI1
aa(lp731
I2
aI1
aI0
aa(lp732
I2
aI0
aI1
aa(lp733
I2
aI0
aI1
aa(lp734
I0
aI2
aI1
aa(lp735
I0
aI2
aI1
aa(lp736
I2
aI0
aI1
aa(lp737
I2
aI0
aI1
aa(lp738
I2
aI0
aI1
aa(lp739
I2
aI1
aI0
aa(lp740
I2
aI0
aI1
aa(lp741
I2
aI0
aI1
aa(lp742
I2
aI1
aI0
aa(lp743
I1
aI2
aI0
aa(lp744
I1
aI0
aI2
aa(lp745
I2
aI0
aI1
aa(lp746
I2
aI0
aI1
aa(lp747
I2
aI1
aI0
aa(lp748
I2
aI1
aI0
aa(lp749
I1
aI2
aI0
aa(lp750
I2
aI0
aI1
aa(lp751
I2
aI0
aI1
aa(lp752
I1
aI2
aI0
aa(lp753
I2
aI0
aI1
aa(lp754
I0
aI2
aI1
aa(lp755
I1
aI2
aI0
aa(lp756
I2
aI0
aI1
aa(lp757
I0
aI2
aI1
aa(lp758
I1
aI2
aI0
aa(lp759
I1
aI0
aI2
aa(lp760
I2
aI0
aI1
aa(lp761
I2
aI0
aI1
aa(lp762
I1
aI2
aI0
aa(lp763
I0
aI2
aI1
aa(lp764
I2
aI0
aI1
aa(lp765
I0
aI1
aI2
aa(lp766
I1
aI2
aI0
aa(lp767
I2
aI1
aI0
aa(lp768
I2
aI0
aI1
aa(lp769
I1
aI2
aI0
aa(lp770
I2
aI0
aI1
aa(lp771
I0
aI2
aI1
aa(lp772
I2
aI0
aI1
aa(lp773
I1
aI2
aI0
aa(lp774
I2
aI0
aI1
aa(lp775
I2
aI0
aI1
aa(lp776
I0
aI2
aI1
aa(lp777
I1
aI2
aI0
aa(lp778
I2
aI0
aI1
aa(lp779
I0
aI2
aI1
aa(lp780
I2
aI1
aI0
aa(lp781
I2
aI0
aI1
aa(lp782
I2
aI1
aI0
aa(lp783
I2
aI1
aI0
aa(lp784
I2
aI1
aI0
aa(lp785
I2
aI0
aI1
aa(lp786
I2
aI0
aI1
aa(lp787
I2
aI0
aI1
aa(lp788
I2
aI1
aI0
aa(lp789
I2
aI1
aI0
aa(lp790
I2
aI0
aI1
aa(lp791
I2
aI0
aI1
aa(lp792
I2
aI0
aI1
aa(lp793
I0
aI2
aI1
aa(lp794
I2
aI0
aI1
aa(lp795
I1
aI2
aI0
aa(lp796
I2
aI1
aI0
aa(lp797
I0
aI2
aI1
aa(lp798
I1
aI2
aI0
aa(lp799
I1
aI2
aI0
aa(lp800
I2
aI0
aI1
aa(lp801
I2
aI1
aI0
aa(lp802
I0
aI2
aI1
aa(lp803
I0
aI2
aI1
aa(lp804
I2
aI0
aI1
aa(lp805
I1
aI2
aI0
aa(lp806
I1
aI2
aI0
aa(lp807
I1
aI2
aI0
aa(lp808
I2
aI0
aI1
aa(lp809
I2
aI1
aI0
aa(lp810
I1
aI2
aI0
aa(lp811
I2
aI1
aI0
aa(lp812
I1
aI2
aI0
aa(lp813
I1
aI2
aI0
aa(lp814
I1
aI2
aI0
aa(lp815
I2
aI0
aI1
aa(lp816
I1
aI0
aI2
aa(lp817
I2
aI0
aI1
aa(lp818
I2
aI0
aI1
aa(lp819
I2
aI1
aI0
aa(lp820
I2
aI0
aI1
aa(lp821
I2
aI0
aI1
aa(lp822
I2
aI0
aI1
aa(lp823
I2
aI1
aI0
aa(lp824
I2
aI0
aI1
aa(lp825
I2
aI1
aI0
aa(lp826
I2
aI0
aI1
aa(lp827
I1
aI2
aI0
aa(lp828
I2
aI1
aI0
aa(lp829
I1
aI2
aI0
aa(lp830
I1
aI2
aI0
aa(lp831
I2
aI1
aI0
aa(lp832
I1
aI2
aI0
aa(lp833
I2
aI1
aI0
aa(lp834
I2
aI0
aI1
aa(lp835
I2
aI0
aI1
aa(lp836
I2
aI0
aI1
aa(lp837
I2
aI1
aI0
aa(lp838
I0
aI2
aI1
aa(lp839
I0
aI2
aI1
aa(lp840
I2
aI0
aI1
aa(lp841
I1
aI2
aI0
aa(lp842
I2
aI1
aI0
aa(lp843
I2
aI0
aI1
aa(lp844
I2
aI1
aI0
aa(lp845
I1
aI2
aI0
aa(lp846
I0
aI2
aI1
aa(lp847
I1
aI2
aI0
aa(lp848
I2
aI0
aI1
aa(lp849
I2
aI1
aI0
aa(lp850
I1
aI2
aI0
aa(lp851
I1
aI2
aI0
aa(lp852
I1
aI2
aI0
aa(lp853
I0
aI2
aI1
aa(lp854
I2
aI0
aI1
aa(lp855
I2
aI1
aI0
aa(lp856
I0
aI2
aI1
aa(lp857
I2
aI1
aI0
aa(lp858
I2
aI0
aI1
aa(lp859
I2
aI0
aI1
aa(lp860
I2
aI1
aI0
aa(lp861
I2
aI0
aI1
aa(lp862
I1
aI2
aI0
aa(lp863
I0
aI2
aI1
aa(lp864
I1
aI2
aI0
aa(lp865
I1
aI2
aI0
aa(lp866
I2
aI1
aI0
aa(lp867
I2
aI1
aI0
aa(lp868
I2
aI0
aI1
aa(lp869
I0
aI2
aI1
aa(lp870
I2
aI1
aI0
aa(lp871
I2
aI1
aI0
aa(lp872
I1
aI2
aI0
aa(lp873
I2
aI0
aI1
aa(lp874
I1
aI2
aI0
aa(lp875
I2
aI0
aI1
aa(lp876
I2
aI0
aI1
aa(lp877
I1
aI0
aI2
aa(lp878
I1
aI2
aI0
aa(lp879
I1
aI2
aI0
aa(lp880
I0
aI1
aI2
aa(lp881
I2
aI0
aI1
aa(lp882
I2
aI0
aI1
aa(lp883
I2
aI1
aI0
aa(lp884
I2
aI1
aI0
aa(lp885
I2
aI0
aI1
aa(lp886
I1
aI2
aI0
aa(lp887
I2
aI1
aI0
aa(lp888
I1
aI0
aI2
aa(lp889
I1
aI0
aI2
aa(lp890
I0
aI2
aI1
aa(lp891
I2
aI1
aI0
aa(lp892
I2
aI1
aI0
aa(lp893
I1
aI2
aI0
aa(lp894
I2
aI0
aI1
aa(lp895
I1
aI2
aI0
aa(lp896
I1
aI0
aI2
aa(lp897
I1
aI0
aI2
aa(lp898
I1
aI2
aI0
aa(lp899
I0
aI2
aI1
aa(lp900
I2
aI1
aI0
aa(lp901
I2
aI0
aI1
aa(lp902
I2
aI0
aI1
aa(lp903
I2
aI0
aI1
aa(lp904
I0
aI2
aI1
aa(lp905
I2
aI1
aI0
aa(lp906
I2
aI0
aI1
aa(lp907
I2
aI1
aI0
aa(lp908
I2
aI0
aI1
aa(lp909
I2
aI0
aI1
aa(lp910
I2
aI1
aI0
aa(lp911
I2
aI0
aI1
aa(lp912
I0
aI2
aI1
aa(lp913
I2
aI0
aI1
aa(lp914
I0
aI2
aI1
aa(lp915
I1
aI2
aI0
aa(lp916
I1
aI2
aI0
aa(lp917
I1
aI0
aI2
aa(lp918
I2
aI0
aI1
aa(lp919
I1
aI2
aI0
aa(lp920
I0
aI2
aI1
aa(lp921
I2
aI0
aI1
aa(lp922
I0
aI1
aI2
aa(lp923
I1
aI2
aI0
aa(lp924
I2
aI0
aI1
aa(lp925
I2
aI1
aI0
aa(lp926
I1
aI2
aI0
aa(lp927
I1
aI2
aI0
aa(lp928
I2
aI1
aI0
aa(lp929
I1
aI2
aI0
aa(lp930
I2
aI0
aI1
aa(lp931
I2
aI1
aI0
aa(lp932
I2
aI0
aI1
aa(lp933
I2
aI0
aI1
aa(lp934
I2
aI0
aI1
aa(lp935
I2
aI1
aI0
aa(lp936
I2
aI1
aI0
aa(lp937
I2
aI0
aI1
aa(lp938
I1
aI2
aI0
aa(lp939
I2
aI0
aI1
aa(lp940
I2
aI0
aI1
aa(lp941
I2
aI0
aI1
aa(lp942
I1
aI2
aI0
aa(lp943
I0
aI2
aI1
aa(lp944
I0
aI2
aI1
aa(lp945
I2
aI0
aI1
aa(lp946
I1
aI0
aI2
aa(lp947
I0
aI1
aI2
aa(lp948
I1
aI2
aI0
aa(lp949
I2
aI0
aI1
aa(lp950
I2
aI0
aI1
aa(lp951
I2
aI0
aI1
aa(lp952
I2
aI0
aI1
aa(lp953
I2
aI1
aI0
aa(lp954
I2
aI0
aI1
aa(lp955
I2
aI0
aI1
aa(lp956
I2
aI0
aI1
aa(lp957
I1
aI2
aI0
aa(lp958
I1
aI0
aI2
aa(lp959
I2
aI0
aI1
aa(lp960
I2
aI0
aI1
aa(lp961
I2
aI0
aI1
aa(lp962
I2
aI1
aI0
aa(lp963
I0
aI2
aI1
aa(lp964
I2
aI0
aI1
aa(lp965
I2
aI1
aI0
aa(lp966
I1
aI2
aI0
aa(lp967
I1
aI2
aI0
aa(lp968
I2
aI0
aI1
aa(lp969
I2
aI1
aI0
aa(lp970
I2
aI0
aI1
aa(lp971
I0
aI2
aI1
aa(lp972
I2
aI0
aI1
aa(lp973
I1
aI2
aI0
aa(lp974
I1
aI0
aI2
aa(lp975
I2
aI1
aI0
aa(lp976
I1
aI2
aI0
aa(lp977
I1
aI0
aI2
aa(lp978
I1
aI0
aI2
aa(lp979
I2
aI0
aI1
aa(lp980
I2
aI0
aI1
aa(lp981
I1
aI2
aI0
aa(lp982
I2
aI1
aI0
aa(lp983
I2
aI0
aI1
aa(lp984
I2
aI1
aI0
aa(lp985
I2
aI1
aI0
aa(lp986
I1
aI2
aI0
aa(lp987
I2
aI0
aI1
aa(lp988
I0
aI2
aI1
aa(lp989
I1
aI0
aI2
aa(lp990
I2
aI1
aI0
aa(lp991
I2
aI0
aI1
aa(lp992
I2
aI0
aI1
aa(lp993
I1
aI0
aI2
aa(lp994
I2
aI1
aI0
aa(lp995
I2
aI1
aI0
aa(lp996
I1
aI2
aI0
aa(lp997
I2
aI0
aI1
aa(lp998
I1
aI0
aI2
aa(lp999
I1
aI2
aI0
aa(lp1000
I2
aI0
aI1
aa(lp1001
I0
aI2
aI1
aa(lp1002
I2
aI1
aI0
aa(lp1003
I2
aI1
aI0
aa(lp1004
I2
aI1
aI0
aa(lp1005
I2
aI0
aI1
aa(lp1006
I2
aI0
aI1
aa(lp1007
I2
aI1
aI0
aa(lp1008
I2
aI0
aI1
aa(lp1009
I2
aI0
aI1
aa(lp1010
I2
aI1
aI0
aa(lp1011
I2
aI0
aI1
aa(lp1012
I1
aI0
aI2
aa(lp1013
I2
aI1
aI0
aa(lp1014
I1
aI0
aI2
aa(lp1015
I0
aI2
aI1
aa(lp1016
I1
aI0
aI2
aa(lp1017
I1
aI2
aI0
aa(lp1018
I1
aI2
aI0
aa(lp1019
I1
aI2
aI0
aa(lp1020
I2
aI0
aI1
aa(lp1021
I0
aI1
aI2
aa(lp1022
I0
aI2
aI1
aa(lp1023
I2
aI0
aI1
aa(lp1024
I2
aI1
aI0
aa(lp1025
I1
aI2
aI0
aa(lp1026
I1
aI0
aI2
aa(lp1027
I2
aI0
aI1
aa(lp1028
I2
aI0
aI1
aa(lp1029
I2
aI0
aI1
aa(lp1030
I2
aI1
aI0
aa(lp1031
I1
aI2
aI0
aa(lp1032
I2
aI1
aI0
aa(lp1033
I0
aI2
aI1
aa(lp1034
I1
aI2
aI0
aa(lp1035
I2
aI0
aI1
aa(lp1036
I2
aI0
aI1
aa(lp1037
I1
aI2
aI0
aa(lp1038
I2
aI0
aI1
aa(lp1039
I1
aI2
aI0
aa(lp1040
I2
aI1
aI0
aa(lp1041
I2
aI1
aI0
aa(lp1042
I0
aI2
aI1
aa(lp1043
I0
aI2
aI1
aa(lp1044
I1
aI2
aI0
aa(lp1045
I1
aI2
aI0
aa(lp1046
I1
aI2
aI0
aa(lp1047
I2
aI0
aI1
aa(lp1048
I2
aI0
aI1
aa(lp1049
I2
aI0
aI1
aa(lp1050
I2
aI0
aI1
aa(lp1051
I2
aI1
aI0
aa(lp1052
I0
aI2
aI1
aa(lp1053
I2
aI0
aI1
aa(lp1054
I2
aI0
aI1
aa(lp1055
I2
aI0
aI1
aa(lp1056
I2
aI0
aI1
aa(lp1057
I1
aI2
aI0
aa(lp1058
I2
aI0
aI1
aa(lp1059
I2
aI1
aI0
aa(lp1060
I0
aI2
aI1
aa(lp1061
I2
aI0
aI1
aa(lp1062
I2
aI1
aI0
aa(lp1063
I2
aI0
aI1
aa(lp1064
I1
aI2
aI0
aa(lp1065
I2
aI0
aI1
aa(lp1066
I2
aI1
aI0
aa(lp1067
I2
aI1
aI0
aa(lp1068
I2
aI0
aI1
aa(lp1069
I2
aI1
aI0
aa(lp1070
I2
aI0
aI1
aa(lp1071
I2
aI0
aI1
aa(lp1072
I2
aI1
aI0
aa(lp1073
I2
aI0
aI1
aa(lp1074
I0
aI2
aI1
aa(lp1075
I1
aI2
aI0
aa(lp1076
I2
aI0
aI1
aa(lp1077
I2
aI0
aI1
aa(lp1078
I1
aI2
aI0
aa(lp1079
I1
aI2
aI0
aa(lp1080
I0
aI2
aI1
aa(lp1081
I2
aI0
aI1
aa(lp1082
I2
aI0
aI1
aa(lp1083
I1
aI0
aI2
aa(lp1084
I1
aI2
aI0
aa(lp1085
I2
aI1
aI0
aa(lp1086
I2
aI1
aI0
aa(lp1087
I1
aI2
aI0
aa(lp1088
I1
aI0
aI2
aa(lp1089
I2
aI0
aI1
aa(lp1090
I0
aI2
aI1
aa(lp1091
I2
aI1
aI0
aa(lp1092
I1
aI2
aI0
aa(lp1093
I2
aI1
aI0
aa(lp1094
I1
aI2
aI0
aa(lp1095
I2
aI0
aI1
aa(lp1096
I1
aI2
aI0
aa(lp1097
I2
aI1
aI0
aa(lp1098
I1
aI2
aI0
aa(lp1099
I1
aI2
aI0
aa(lp1100
I1
aI2
aI0
aa(lp1101
I2
aI1
aI0
aa(lp1102
I1
aI2
aI0
aa(lp1103
I1
aI2
aI0
aa(lp1104
I1
aI0
aI2
aa(lp1105
I2
aI1
aI0
aa(lp1106
I2
aI1
aI0
aa(lp1107
I2
aI1
aI0
aa(lp1108
I1
aI2
aI0
aa(lp1109
I1
aI2
aI0
aa(lp1110
I2
aI1
aI0
aa(lp1111
I1
aI2
aI0
aa(lp1112
I2
aI1
aI0
aa(lp1113
I2
aI1
aI0
aa(lp1114
I2
aI1
aI0
aa(lp1115
I1
aI2
aI0
aa(lp1116
I0
aI2
aI1
aa(lp1117
I1
aI2
aI0
aa(lp1118
I2
aI0
aI1
aa(lp1119
I0
aI2
aI1
aa(lp1120
I2
aI0
aI1
aa(lp1121
I2
aI0
aI1
aa(lp1122
I1
aI2
aI0
aa(lp1123
I2
aI1
aI0
aa(lp1124
I2
aI0
aI1
aa(lp1125
I2
aI1
aI0
aa(lp1126
I0
aI2
aI1
aa(lp1127
I1
aI2
aI0
aa(lp1128
I0
aI2
aI1
aa(lp1129
I2
aI0
aI1
aa(lp1130
I1
aI2
aI0
aa(lp1131
I1
aI0
aI2
aa(lp1132
I1
aI2
aI0
aa(lp1133
I2
aI0
aI1
aa(lp1134
I1
aI2
aI0
aa(lp1135
I2
aI0
aI1
aa(lp1136
I1
aI2
aI0
aa(lp1137
I0
aI2
aI1
aa(lp1138
I1
aI2
aI0
aa(lp1139
I2
aI0
aI1
aa(lp1140
I0
aI2
aI1
aa(lp1141
I2
aI0
aI1
aa(lp1142
I2
aI1
aI0
aa(lp1143
I1
aI2
aI0
aa(lp1144
I2
aI0
aI1
aa(lp1145
I2
aI1
aI0
aa(lp1146
I1
aI0
aI2
aa(lp1147
I2
aI1
aI0
aa(lp1148
I1
aI0
aI2
aa(lp1149
I0
aI2
aI1
aa(lp1150
I2
aI0
aI1
aa(lp1151
I1
aI2
aI0
aa(lp1152
I2
aI1
aI0
aa(lp1153
I2
aI0
aI1
aa(lp1154
I2
aI0
aI1
aa(lp1155
I0
aI2
aI1
aa(lp1156
I2
aI0
aI1
aa(lp1157
I2
aI0
aI1
aa(lp1158
I2
aI0
aI1
aa(lp1159
I0
aI1
aI2
aa(lp1160
I0
aI1
aI2
aa(lp1161
I2
aI0
aI1
aa(lp1162
I2
aI0
aI1
aa(lp1163
I0
aI2
aI1
aa(lp1164
I1
aI2
aI0
aa(lp1165
I2
aI1
aI0
aa(lp1166
I1
aI0
aI2
aa(lp1167
I2
aI0
aI1
aa(lp1168
I2
aI1
aI0
aa(lp1169
I1
aI2
aI0
aa(lp1170
I2
aI0
aI1
aa(lp1171
I2
aI1
aI0
aa(lp1172
I2
aI0
aI1
aa(lp1173
I0
aI2
aI1
aa(lp1174
I2
aI1
aI0
aa(lp1175
I1
aI0
aI2
aa(lp1176
I2
aI1
aI0
aa(lp1177
I2
aI1
aI0
aa(lp1178
I1
aI2
aI0
aa(lp1179
I0
aI2
aI1
aa(lp1180
I1
aI2
aI0
aa(lp1181
I2
aI0
aI1
aa(lp1182
I2
aI1
aI0
aa(lp1183
I2
aI0
aI1
aa(lp1184
I2
aI0
aI1
aa(lp1185
I2
aI0
aI1
aa(lp1186
I0
aI2
aI1
aa(lp1187
I1
aI2
aI0
aa(lp1188
I1
aI2
aI0
aa(lp1189
I0
aI2
aI1
aa(lp1190
I1
aI2
aI0
aa(lp1191
I2
aI1
aI0
aa(lp1192
I1
aI2
aI0
aa(lp1193
I2
aI0
aI1
aa(lp1194
I2
aI0
aI1
aa(lp1195
I2
aI0
aI1
aa(lp1196
I2
aI0
aI1
aa(lp1197
I2
aI0
aI1
aa(lp1198
I1
aI2
aI0
aa(lp1199
I1
aI2
aI0
aa(lp1200
I2
aI1
aI0
aa(lp1201
I0
aI2
aI1
aa(lp1202
I1
aI2
aI0
aa(lp1203
I2
aI0
aI1
aa(lp1204
I1
aI0
aI2
aa(lp1205
I2
aI0
aI1
aa(lp1206
I2
aI0
aI1
aa(lp1207
I2
aI0
aI1
aa(lp1208
I2
aI0
aI1
aa(lp1209
I1
aI2
aI0
aa(lp1210
I2
aI0
aI1
aa(lp1211
I1
aI2
aI0
aa(lp1212
I2
aI0
aI1
aa(lp1213
I1
aI2
aI0
aa(lp1214
I2
aI0
aI1
aa(lp1215
I2
aI0
aI1
aa(lp1216
I2
aI1
aI0
aa(lp1217
I0
aI2
aI1
aa(lp1218
I1
aI2
aI0
aa(lp1219
I2
aI1
aI0
aa(lp1220
I2
aI1
aI0
aa(lp1221
I2
aI0
aI1
aa(lp1222
I2
aI0
aI1
aa(lp1223
I2
aI0
aI1
aa(lp1224
I2
aI1
aI0
aa(lp1225
I1
aI2
aI0
aa(lp1226
I2
aI0
aI1
aa(lp1227
I2
aI0
aI1
aa(lp1228
I2
aI1
aI0
aa(lp1229
I2
aI0
aI1
aa(lp1230
I2
aI0
aI1
aa(lp1231
I1
aI2
aI0
aa(lp1232
I2
aI0
aI1
aa(lp1233
I1
aI0
aI2
aa(lp1234
I2
aI0
aI1
aa(lp1235
I0
aI2
aI1
aa(lp1236
I2
aI0
aI1
aa(lp1237
I1
aI2
aI0
aa(lp1238
I1
aI2
aI0
aa(lp1239
I0
aI2
aI1
aa(lp1240
I1
aI2
aI0
aa(lp1241
I2
aI0
aI1
aa(lp1242
I2
aI0
aI1
aa(lp1243
I1
aI2
aI0
aa(lp1244
I2
aI0
aI1
aa(lp1245
I2
aI0
aI1
aa(lp1246
I1
aI0
aI2
aa(lp1247
I1
aI2
aI0
aa(lp1248
I2
aI0
aI1
aa(lp1249
I1
aI2
aI0
aa(lp1250
I2
aI0
aI1
aa(lp1251
I0
aI2
aI1
aa(lp1252
I2
aI1
aI0
aa(lp1253
I0
aI2
aI1
aa(lp1254
I1
aI2
aI0
aa(lp1255
I2
aI1
aI0
aa(lp1256
I1
aI2
aI0
aa(lp1257
I1
aI2
aI0
aa(lp1258
I1
aI2
aI0
aa(lp1259
I1
aI2
aI0
aa(lp1260
I2
aI0
aI1
aa(lp1261
I2
aI0
aI1
aa(lp1262
I2
aI1
aI0
aa(lp1263
I2
aI0
aI1
aa(lp1264
I1
aI2
aI0
aa(lp1265
I2
aI0
aI1
aa(lp1266
I1
aI2
aI0
aa(lp1267
I2
aI0
aI1
aa(lp1268
I1
aI2
aI0
aa(lp1269
I2
aI0
aI1
aa(lp1270
I1
aI0
aI2
aa(lp1271
I2
aI0
aI1
aa(lp1272
I1
aI2
aI0
aa(lp1273
I2
aI1
aI0
aa(lp1274
I2
aI0
aI1
aa(lp1275
I2
aI0
aI1
aa(lp1276
I2
aI1
aI0
aa(lp1277
I2
aI0
aI1
aa(lp1278
I1
aI0
aI2
aa(lp1279
I0
aI2
aI1
aa(lp1280
I2
aI0
aI1
aa(lp1281
I1
aI2
aI0
aa(lp1282
I2
aI0
aI1
aa(lp1283
I1
aI0
aI2
aa(lp1284
I2
aI0
aI1
aa(lp1285
I2
aI0
aI1
aa(lp1286
I2
aI1
aI0
aa(lp1287
I2
aI0
aI1
aa(lp1288
I2
aI0
aI1
aa(lp1289
I2
aI1
aI0
aa(lp1290
I2
aI0
aI1
aa(lp1291
I2
aI0
aI1
aa(lp1292
I1
aI2
aI0
aa(lp1293
I1
aI2
aI0
aa(lp1294
I2
aI1
aI0
aa(lp1295
I1
aI2
aI0
aa(lp1296
I2
aI0
aI1
aa(lp1297
I2
aI1
aI0
aa(lp1298
I2
aI0
aI1
aa(lp1299
I2
aI0
aI1
aa(lp1300
I0
aI2
aI1
aa(lp1301
I1
aI2
aI0
aa(lp1302
I0
aI2
aI1
aa(lp1303
I2
aI1
aI0
aa(lp1304
I1
aI0
aI2
aa(lp1305
I2
aI0
aI1
aa(lp1306
I1
aI2
aI0
aa(lp1307
I2
aI0
aI1
aa(lp1308
I2
aI0
aI1
aa(lp1309
I1
aI2
aI0
aa(lp1310
I0
aI2
aI1
aa(lp1311
I2
aI1
aI0
aa(lp1312
I2
aI0
aI1
aa(lp1313
I2
aI1
aI0
aa(lp1314
I1
aI2
aI0
aa(lp1315
I1
aI2
aI0
aa(lp1316
I2
aI1
aI0
aa(lp1317
I2
aI0
aI1
aa(lp1318
I2
aI1
aI0
aa(lp1319
I1
aI2
aI0
aa(lp1320
I2
aI0
aI1
aa(lp1321
I2
aI1
aI0
aa(lp1322
I2
aI0
aI1
aa(lp1323
I1
aI2
aI0
aa(lp1324
I2
aI1
aI0
aa(lp1325
I2
aI0
aI1
aa(lp1326
I2
aI0
aI1
aa(lp1327
I1
aI2
aI0
aa(lp1328
I2
aI0
aI1
aa(lp1329
I1
aI0
aI2
aa(lp1330
I1
aI2
aI0
aa(lp1331
I2
aI1
aI0
aa(lp1332
I1
aI2
aI0
aa(lp1333
I2
aI1
aI0
aa(lp1334
I2
aI0
aI1
aa(lp1335
I1
aI2
aI0
aa(lp1336
I0
aI2
aI1
aa(lp1337
I2
aI0
aI1
aa(lp1338
I2
aI0
aI1
aa(lp1339
I2
aI0
aI1
aa(lp1340
I2
aI0
aI1
aa(lp1341
I1
aI2
aI0
aa(lp1342
I0
aI2
aI1
aa(lp1343
I2
aI1
aI0
aa(lp1344
I2
aI0
aI1
aa(lp1345
I0
aI2
aI1
aa(lp1346
I2
aI0
aI1
aa(lp1347
I1
aI2
aI0
aa(lp1348
I2
aI1
aI0
aa(lp1349
I1
aI2
aI0
aa(lp1350
I2
aI0
aI1
aa(lp1351
I1
aI2
aI0
aa(lp1352
I1
aI2
aI0
aa(lp1353
I1
aI2
aI0
aa(lp1354
I1
aI0
aI2
aa(lp1355
I2
aI1
aI0
aa(lp1356
I1
aI2
aI0
aa(lp1357
I0
aI2
aI1
aa(lp1358
I0
aI1
aI2
aa(lp1359
I2
aI1
aI0
aa(lp1360
I0
aI2
aI1
aa(lp1361
I2
aI0
aI1
aa(lp1362
I2
aI0
aI1
aa(lp1363
I2
aI0
aI1
aa(lp1364
I1
aI2
aI0
aa(lp1365
I2
aI0
aI1
aa(lp1366
I0
aI2
aI1
aa(lp1367
I2
aI0
aI1
aa(lp1368
I2
aI0
aI1
aa(lp1369
I1
aI2
aI0
aa(lp1370
I2
aI1
aI0
aa(lp1371
I1
aI0
aI2
aa(lp1372
I2
aI0
aI1
aa(lp1373
I1
aI2
aI0
aa(lp1374
I2
aI0
aI1
aa(lp1375
I2
aI0
aI1
aa(lp1376
I1
aI0
aI2
aa(lp1377
I2
aI0
aI1
aa(lp1378
I2
aI0
aI1
aa(lp1379
I2
aI1
aI0
aa(lp1380
I2
aI0
aI1
aa(lp1381
I2
aI0
aI1
aa(lp1382
I2
aI1
aI0
aa(lp1383
I1
aI2
aI0
aa(lp1384
I2
aI1
aI0
aa(lp1385
I2
aI0
aI1
aa(lp1386
I1
aI0
aI2
aa(lp1387
I2
aI0
aI1
aa(lp1388
I1
aI2
aI0
aa(lp1389
I2
aI1
aI0
aa(lp1390
I2
aI0
aI1
aa(lp1391
I1
aI2
aI0
aa(lp1392
I2
aI0
aI1
aa(lp1393
I2
aI0
aI1
aa(lp1394
I2
aI0
aI1
aa(lp1395
I2
aI0
aI1
aa(lp1396
I2
aI0
aI1
aa(lp1397
I2
aI1
aI0
aa(lp1398
I1
aI0
aI2
aa(lp1399
I2
aI1
aI0
aa(lp1400
I1
aI0
aI2
aa(lp1401
I2
aI0
aI1
aa(lp1402
I2
aI1
aI0
aa(lp1403
I2
aI0
aI1
aa(lp1404
I2
aI0
aI1
aa(lp1405
I0
aI2
aI1
aa(lp1406
I1
aI2
aI0
aa(lp1407
I2
aI1
aI0
aa(lp1408
I2
aI1
aI0
aa(lp1409
I1
aI2
aI0
aa(lp1410
I2
aI0
aI1
aa(lp1411
I1
aI2
aI0
aa(lp1412
I2
aI1
aI0
aa(lp1413
I2
aI0
aI1
aa(lp1414
I2
aI0
aI1
aa(lp1415
I2
aI0
aI1
aa(lp1416
I2
aI1
aI0
aa(lp1417
I2
aI0
aI1
aa(lp1418
I2
aI1
aI0
aa(lp1419
I2
aI0
aI1
aa(lp1420
I2
aI0
aI1
aa(lp1421
I2
aI0
aI1
aa(lp1422
I1
aI2
aI0
aa(lp1423
I2
aI0
aI1
aa(lp1424
I2
aI0
aI1
aa(lp1425
I1
aI2
aI0
aa(lp1426
I2
aI0
aI1
aa(lp1427
I1
aI0
aI2
aa(lp1428
I1
aI2
aI0
aa(lp1429
I2
aI0
aI1
aa(lp1430
I2
aI0
aI1
aa(lp1431
I2
aI0
aI1
aa(lp1432
I1
aI2
aI0
aa(lp1433
I1
aI0
aI2
aa(lp1434
I2
aI0
aI1
aa(lp1435
I1
aI2
aI0
aa(lp1436
I1
aI2
aI0
aa(lp1437
I2
aI0
aI1
aa(lp1438
I0
aI2
aI1
aa(lp1439
I2
aI0
aI1
aa(lp1440
I2
aI0
aI1
aa(lp1441
I2
aI0
aI1
aa(lp1442
I2
aI0
aI1
aa(lp1443
I2
aI1
aI0
aa(lp1444
I0
aI2
aI1
aa(lp1445
I0
aI2
aI1
aa(lp1446
I1
aI2
aI0
aa(lp1447
I1
aI2
aI0
aa(lp1448
I0
aI2
aI1
aa(lp1449
I1
aI2
aI0
aa(lp1450
I0
aI2
aI1
aa(lp1451
I1
aI2
aI0
aa(lp1452
I1
aI2
aI0
aa(lp1453
I1
aI0
aI2
aa(lp1454
I2
aI0
aI1
aa(lp1455
I2
aI1
aI0
aa(lp1456
I2
aI0
aI1
aa(lp1457
I1
aI2
aI0
aa(lp1458
I1
aI2
aI0
aa(lp1459
I2
aI1
aI0
aa(lp1460
I2
aI0
aI1
aa(lp1461
I1
aI2
aI0
aa(lp1462
I2
aI1
aI0
aa(lp1463
I2
aI0
aI1
aa(lp1464
I2
aI1
aI0
aa(lp1465
I2
aI0
aI1
aa(lp1466
I2
aI0
aI1
aa(lp1467
I0
aI1
aI2
aa(lp1468
I2
aI0
aI1
aa(lp1469
I2
aI1
aI0
aa(lp1470
I2
aI0
aI1
aa(lp1471
I2
aI0
aI1
aa(lp1472
I1
aI2
aI0
aa(lp1473
I2
aI0
aI1
aa(lp1474
I2
aI0
aI1
aa(lp1475
I2
aI0
aI1
aa(lp1476
I1
aI2
aI0
aa(lp1477
I2
aI0
aI1
aa(lp1478
I1
aI2
aI0
aa(lp1479
I1
aI0
aI2
aa(lp1480
I1
aI0
aI2
aa(lp1481
I0
aI2
aI1
aa(lp1482
I0
aI2
aI1
aa(lp1483
I2
aI1
aI0
aa(lp1484
I1
aI0
aI2
aa(lp1485
I2
aI0
aI1
aa(lp1486
I2
aI0
aI1
aa(lp1487
I0
aI2
aI1
aa(lp1488
I1
aI2
aI0
aa(lp1489
I2
aI0
aI1
aa(lp1490
I2
aI0
aI1
aa(lp1491
I2
aI0
aI1
aa(lp1492
I0
aI2
aI1
aa(lp1493
I1
aI2
aI0
aa(lp1494
I2
aI1
aI0
aa(lp1495
I1
aI2
aI0
aa(lp1496
I2
aI1
aI0
aa(lp1497
I0
aI2
aI1
aa(lp1498
I2
aI1
aI0
aa(lp1499
I1
aI2
aI0
aa(lp1500
I2
aI0
aI1
aa(lp1501
I2
aI0
aI1
aa(lp1502
I2
aI0
aI1
aa(lp1503
I2
aI0
aI1
aa(lp1504
I2
aI0
aI1
aa(lp1505
I1
aI2
aI0
aa(lp1506
I2
aI1
aI0
aa(lp1507
I1
aI0
aI2
aa(lp1508
I2
aI0
aI1
aa(lp1509
I0
aI2
aI1
aa(lp1510
I2
aI0
aI1
aa(lp1511
I2
aI1
aI0
aa(lp1512
I1
aI2
aI0
aa(lp1513
I2
aI0
aI1
aa(lp1514
I2
aI1
aI0
aa(lp1515
I1
aI0
aI2
aa(lp1516
I0
aI2
aI1
aa(lp1517
I2
aI1
aI0
aa(lp1518
I1
aI2
aI0
aa(lp1519
I2
aI1
aI0
aa(lp1520
I2
aI0
aI1
aa(lp1521
I2
aI0
aI1
aa(lp1522
I2
aI0
aI1
aa(lp1523
I1
aI2
aI0
aa(lp1524
I1
aI2
aI0
aa(lp1525
I1
aI2
aI0
aa(lp1526
I2
aI0
aI1
aa(lp1527
I2
aI1
aI0
aa(lp1528
I2
aI0
aI1
aa(lp1529
I1
aI2
aI0
aa(lp1530
I1
aI2
aI0
aa(lp1531
I0
aI2
aI1
aa(lp1532
I2
aI1
aI0
aa(lp1533
I0
aI1
aI2
aa(lp1534
I1
aI2
aI0
aa(lp1535
I2
aI1
aI0
aa(lp1536
I2
aI0
aI1
aa(lp1537
I0
aI2
aI1
aa(lp1538
I2
aI1
aI0
aa(lp1539
I2
aI0
aI1
aa(lp1540
I1
aI2
aI0
aa(lp1541
I0
aI2
aI1
aa(lp1542
I2
aI1
aI0
aa(lp1543
I2
aI1
aI0
aa(lp1544
I2
aI0
aI1
aa(lp1545
I2
aI0
aI1
aa(lp1546
I2
aI0
aI1
aa(lp1547
I1
aI2
aI0
aa(lp1548
I2
aI0
aI1
aa(lp1549
I1
aI2
aI0
aa(lp1550
I1
aI0
aI2
aa(lp1551
I2
aI0
aI1
aa(lp1552
I2
aI1
aI0
aa(lp1553
I1
aI0
aI2
aa(lp1554
I2
aI0
aI1
aa(lp1555
I0
aI2
aI1
aa(lp1556
I0
aI2
aI1
aa(lp1557
I2
aI1
aI0
aa(lp1558
I2
aI1
aI0
aa(lp1559
I2
aI1
aI0
aa(lp1560
I1
aI2
aI0
aa(lp1561
I2
aI1
aI0
aa(lp1562
I2
aI0
aI1
aa(lp1563
I1
aI2
aI0
aa(lp1564
I2
aI0
aI1
aa(lp1565
I1
aI0
aI2
aa(lp1566
I1
aI0
aI2
aa(lp1567
I2
aI1
aI0
aa(lp1568
I2
aI0
aI1
aa(lp1569
I2
aI1
aI0
aa(lp1570
I1
aI2
aI0
aa(lp1571
I2
aI0
aI1
aa(lp1572
I1
aI0
aI2
aa(lp1573
I2
aI0
aI1
aa(lp1574
I1
aI2
aI0
aa(lp1575
I2
aI1
aI0
aa(lp1576
I2
aI0
aI1
aa(lp1577
I2
aI0
aI1
aa(lp1578
I2
aI1
aI0
aa(lp1579
I2
aI0
aI1
aa(lp1580
I2
aI0
aI1
aa(lp1581
I1
aI0
aI2
aa(lp1582
I2
aI1
aI0
aa(lp1583
I2
aI1
aI0
aa(lp1584
I2
aI0
aI1
aa(lp1585
I2
aI1
aI0
aa(lp1586
I0
aI2
aI1
aa(lp1587
I2
aI1
aI0
aa(lp1588
I2
aI0
aI1
aa(lp1589
I2
aI0
aI1
aa(lp1590
I2
aI0
aI1
aa(lp1591
I1
aI2
aI0
aa(lp1592
I2
aI1
aI0
aa(lp1593
I0
aI2
aI1
aa(lp1594
I1
aI2
aI0
aa(lp1595
I1
aI0
aI2
aa(lp1596
I2
aI0
aI1
aa(lp1597
I2
aI0
aI1
aa(lp1598
I2
aI0
aI1
aa(lp1599
I1
aI2
aI0
aa(lp1600
I1
aI2
aI0
aa(lp1601
I0
aI2
aI1
aa(lp1602
I1
aI0
aI2
aa(lp1603
I2
aI1
aI0
aa(lp1604
I2
aI0
aI1
aa(lp1605
I2
aI0
aI1
aa(lp1606
I2
aI0
aI1
aa(lp1607
I2
aI0
aI1
aa(lp1608
I0
aI2
aI1
aa(lp1609
I2
aI0
aI1
aa(lp1610
I2
aI0
aI1
aa(lp1611
I2
aI0
aI1
aa(lp1612
I0
aI2
aI1
aa(lp1613
I1
aI2
aI0
aa(lp1614
I2
aI0
aI1
aa(lp1615
I2
aI0
aI1
aa(lp1616
I2
aI0
aI1
aa(lp1617
I2
aI1
aI0
aa(lp1618
I1
aI2
aI0
aa(lp1619
I2
aI0
aI1
aa(lp1620
I0
aI2
aI1
aa(lp1621
I0
aI2
aI1
aa(lp1622
I2
aI0
aI1
aa(lp1623
I2
aI0
aI1
aa(lp1624
I1
aI2
aI0
aa(lp1625
I2
aI0
aI1
aa(lp1626
I0
aI2
aI1
aa(lp1627
I2
aI0
aI1
aa(lp1628
I1
aI2
aI0
aa(lp1629
I1
aI0
aI2
aa(lp1630
I2
aI1
aI0
aa(lp1631
I2
aI0
aI1
aa(lp1632
I1
aI2
aI0
aa(lp1633
I1
aI2
aI0
aa(lp1634
I2
aI1
aI0
aa(lp1635
I1
aI2
aI0
aa(lp1636
I2
aI1
aI0
aa(lp1637
I1
aI2
aI0
aa(lp1638
I2
aI0
aI1
aa(lp1639
I2
aI0
aI1
aa(lp1640
I0
aI2
aI1
aa(lp1641
I2
aI0
aI1
aa(lp1642
I2
aI0
aI1
aa(lp1643
I1
aI2
aI0
aa(lp1644
I1
aI2
aI0
aa(lp1645
I1
aI2
aI0
aa(lp1646
I1
aI0
aI2
aa(lp1647
I2
aI1
aI0
aa(lp1648
I1
aI2
aI0
aa(lp1649
I1
aI0
aI2
aa(lp1650
I2
aI0
aI1
aa(lp1651
I1
aI2
aI0
aa(lp1652
I2
aI0
aI1
aa(lp1653
I1
aI2
aI0
aa(lp1654
I0
aI2
aI1
aa(lp1655
I2
aI1
aI0
aa(lp1656
I2
aI0
aI1
aa(lp1657
I2
aI0
aI1
aa(lp1658
I2
aI0
aI1
aa(lp1659
I2
aI1
aI0
aa(lp1660
I1
aI2
aI0
aa(lp1661
I2
aI0
aI1
aa(lp1662
I2
aI0
aI1
aa(lp1663
I2
aI0
aI1
aa(lp1664
I1
aI2
aI0
aa(lp1665
I2
aI1
aI0
aa(lp1666
I0
aI2
aI1
aa(lp1667
I2
aI0
aI1
aa(lp1668
I2
aI0
aI1
aa(lp1669
I2
aI0
aI1
aa(lp1670
I2
aI0
aI1
aa(lp1671
I2
aI1
aI0
aa(lp1672
I2
aI0
aI1
aa(lp1673
I1
aI2
aI0
aa(lp1674
I1
aI2
aI0
aa(lp1675
I1
aI2
aI0
aa(lp1676
I1
aI2
aI0
aa(lp1677
I1
aI2
aI0
aa(lp1678
I2
aI0
aI1
aa(lp1679
I1
aI2
aI0
aa(lp1680
I2
aI1
aI0
aa(lp1681
I1
aI2
aI0
aa(lp1682
I0
aI2
aI1
aa(lp1683
I2
aI1
aI0
aa(lp1684
I2
aI1
aI0
aa(lp1685
I2
aI0
aI1
aa(lp1686
I0
aI2
aI1
aa(lp1687
I2
aI0
aI1
aa(lp1688
I2
aI1
aI0
aa(lp1689
I2
aI0
aI1
aa(lp1690
I0
aI1
aI2
aa(lp1691
I1
aI2
aI0
aa(lp1692
I1
aI2
aI0
aa(lp1693
I0
aI2
aI1
aa(lp1694
I0
aI2
aI1
aa(lp1695
I1
aI0
aI2
aa(lp1696
I0
aI2
aI1
aa(lp1697
I2
aI1
aI0
aa(lp1698
I0
aI2
aI1
aa(lp1699
I2
aI1
aI0
aa(lp1700
I1
aI2
aI0
aa(lp1701
I2
aI1
aI0
aa(lp1702
I0
aI2
aI1
aa(lp1703
I1
aI2
aI0
aa(lp1704
I0
aI2
aI1
aa(lp1705
I2
aI1
aI0
aa(lp1706
I2
aI0
aI1
aa(lp1707
I2
aI0
aI1
aa(lp1708
I2
aI1
aI0
aa(lp1709
I0
aI2
aI1
aa(lp1710
I1
aI2
aI0
aa(lp1711
I2
aI1
aI0
aa(lp1712
I2
aI0
aI1
aa(lp1713
I2
aI0
aI1
aa(lp1714
I1
aI2
aI0
aa(lp1715
I2
aI1
aI0
aa(lp1716
I1
aI0
aI2
aa(lp1717
I2
aI0
aI1
aa(lp1718
I2
aI0
aI1
aa(lp1719
I2
aI0
aI1
aa(lp1720
I2
aI0
aI1
aa(lp1721
I2
aI0
aI1
aa(lp1722
I1
aI0
aI2
aa(lp1723
I2
aI0
aI1
aa(lp1724
I2
aI0
aI1
aa(lp1725
I2
aI0
aI1
aa(lp1726
I1
aI2
aI0
aa(lp1727
I0
aI2
aI1
aa(lp1728
I1
aI2
aI0
aa(lp1729
I2
aI0
aI1
aa(lp1730
I2
aI0
aI1
aa(lp1731
I1
aI2
aI0
aa(lp1732
I2
aI0
aI1
aa(lp1733
I2
aI1
aI0
aa(lp1734
I1
aI2
aI0
aa(lp1735
I2
aI0
aI1
aa(lp1736
I2
aI0
aI1
aa(lp1737
I1
aI2
aI0
aa(lp1738
I1
aI2
aI0
aa(lp1739
I2
aI1
aI0
aa(lp1740
I2
aI0
aI1
aa(lp1741
I2
aI0
aI1
aa(lp1742
I1
aI2
aI0
aa(lp1743
I2
aI1
aI0
aa(lp1744
I2
aI1
aI0
aa(lp1745
I2
aI0
aI1
aa(lp1746
I2
aI0
aI1
aa(lp1747
I2
aI0
aI1
aa(lp1748
I1
aI2
aI0
aa(lp1749
I2
aI1
aI0
aa(lp1750
I2
aI0
aI1
aa(lp1751
I2
aI1
aI0
aa(lp1752
I1
aI2
aI0
aa(lp1753
I2
aI1
aI0
aa(lp1754
I1
aI2
aI0
aa(lp1755
I2
aI0
aI1
aa(lp1756
I1
aI2
aI0
aa(lp1757
I0
aI2
aI1
aa(lp1758
I2
aI1
aI0
aa(lp1759
I0
aI2
aI1
aa(lp1760
I2
aI0
aI1
aa(lp1761
I2
aI1
aI0
aa(lp1762
I0
aI2
aI1
aa(lp1763
I2
aI0
aI1
aa(lp1764
I1
aI0
aI2
aa(lp1765
I0
aI2
aI1
aa(lp1766
I2
aI1
aI0
aa(lp1767
I0
aI2
aI1
aa(lp1768
I1
aI2
aI0
aa(lp1769
I2
aI1
aI0
aa(lp1770
I0
aI2
aI1
aa(lp1771
I2
aI0
aI1
aa(lp1772
I1
aI2
aI0
aa(lp1773
I1
aI2
aI0
aa(lp1774
I2
aI1
aI0
aa(lp1775
I2
aI0
aI1
aa(lp1776
I2
aI1
aI0
aa(lp1777
I2
aI1
aI0
aa(lp1778
I2
aI1
aI0
aa(lp1779
I2
aI1
aI0
aa(lp1780
I1
aI2
aI0
aa(lp1781
I2
aI1
aI0
aa(lp1782
I1
aI0
aI2
aa(lp1783
I1
aI2
aI0
aa(lp1784
I2
aI0
aI1
aa(lp1785
I1
aI2
aI0
aa(lp1786
I1
aI2
aI0
aa(lp1787
I2
aI1
aI0
aa(lp1788
I2
aI0
aI1
aa(lp1789
I1
aI2
aI0
aa(lp1790
I2
aI0
aI1
aa(lp1791
I2
aI0
aI1
aa(lp1792
I1
aI2
aI0
aa(lp1793
I1
aI2
aI0
aa(lp1794
I1
aI2
aI0
aa(lp1795
I2
aI0
aI1
aa(lp1796
I2
aI0
aI1
aa(lp1797
I2
aI0
aI1
aa(lp1798
I0
aI2
aI1
aa(lp1799
I2
aI0
aI1
aa(lp1800
I1
aI2
aI0
aa(lp1801
I1
aI2
aI0
aa(lp1802
I1
aI2
aI0
aa(lp1803
I2
aI1
aI0
aa(lp1804
I2
aI0
aI1
aa(lp1805
I2
aI1
aI0
aa(lp1806
I0
aI2
aI1
aa(lp1807
I1
aI2
aI0
aa(lp1808
I2
aI0
aI1
aa(lp1809
I2
aI0
aI1
aa(lp1810
I0
aI2
aI1
aa(lp1811
I2
aI0
aI1
aa(lp1812
I1
aI2
aI0
aa(lp1813
I2
aI0
aI1
aa(lp1814
I2
aI0
aI1
aa(lp1815
I0
aI1
aI2
aa(lp1816
I1
aI0
aI2
aa(lp1817
I1
aI2
aI0
aa(lp1818
I2
aI0
aI1
aa(lp1819
I2
aI1
aI0
aa(lp1820
I1
aI2
aI0
aa(lp1821
I2
aI1
aI0
aa(lp1822
I2
aI0
aI1
aa(lp1823
I1
aI2
aI0
aa(lp1824
I0
aI2
aI1
aa(lp1825
I2
aI1
aI0
aa(lp1826
I2
aI0
aI1
aa(lp1827
I2
aI1
aI0
aa(lp1828
I2
aI0
aI1
aa(lp1829
I2
aI1
aI0
aa(lp1830
I2
aI0
aI1
aa(lp1831
I1
aI0
aI2
aa(lp1832
I2
aI0
aI1
aa(lp1833
I0
aI2
aI1
aa(lp1834
I1
aI2
aI0
aa(lp1835
I2
aI1
aI0
aa(lp1836
I0
aI2
aI1
aa(lp1837
I2
aI1
aI0
aa(lp1838
I1
aI2
aI0
aa(lp1839
I2
aI0
aI1
aa(lp1840
I2
aI1
aI0
aa(lp1841
I2
aI1
aI0
aa(lp1842
I1
aI2
aI0
aa(lp1843
I2
aI0
aI1
aa(lp1844
I1
aI2
aI0
aa(lp1845
I2
aI0
aI1
aa(lp1846
I2
aI0
aI1
aa(lp1847
I2
aI0
aI1
aa(lp1848
I1
aI0
aI2
aa(lp1849
I2
aI0
aI1
aa(lp1850
I1
aI0
aI2
aa(lp1851
I2
aI0
aI1
aa(lp1852
I2
aI1
aI0
aa(lp1853
I1
aI2
aI0
aa(lp1854
I2
aI1
aI0
aa(lp1855
I1
aI2
aI0
aa(lp1856
I2
aI1
aI0
aa(lp1857
I2
aI0
aI1
aa(lp1858
I2
aI1
aI0
aa(lp1859
I2
aI1
aI0
aa(lp1860
I1
aI2
aI0
aa(lp1861
I1
aI2
aI0
aa(lp1862
I1
aI2
aI0
aa(lp1863
I2
aI0
aI1
aa(lp1864
I0
aI2
aI1
aa(lp1865
I2
aI0
aI1
aa(lp1866
I1
aI2
aI0
aa(lp1867
I2
aI0
aI1
aa(lp1868
I2
aI0
aI1
aa(lp1869
I1
aI2
aI0
aa(lp1870
I1
aI2
aI0
aa(lp1871
I1
aI2
aI0
aa(lp1872
I2
aI0
aI1
aa(lp1873
I1
aI2
aI0
aa(lp1874
I2
aI0
aI1
aa(lp1875
I1
aI2
aI0
aa(lp1876
I0
aI2
aI1
aa(lp1877
I1
aI2
aI0
aa(lp1878
I2
aI0
aI1
aa(lp1879
I2
aI0
aI1
aa(lp1880
I1
aI2
aI0
aa(lp1881
I1
aI2
aI0
aa(lp1882
I2
aI0
aI1
aa(lp1883
I2
aI1
aI0
aa(lp1884
I1
aI0
aI2
aa(lp1885
I2
aI1
aI0
aa(lp1886
I2
aI1
aI0
aa(lp1887
I2
aI0
aI1
aa(lp1888
I2
aI0
aI1
aa(lp1889
I1
aI2
aI0
aa(lp1890
I2
aI1
aI0
aa(lp1891
I0
aI2
aI1
aa(lp1892
I1
aI2
aI0
aa(lp1893
I2
aI0
aI1
aa(lp1894
I1
aI2
aI0
aa(lp1895
I2
aI1
aI0
aa(lp1896
I2
aI1
aI0
aa(lp1897
I2
aI1
aI0
aa(lp1898
I2
aI1
aI0
aa(lp1899
I2
aI0
aI1
aa(lp1900
I2
aI0
aI1
aa(lp1901
I2
aI1
aI0
aa(lp1902
I0
aI2
aI1
aa(lp1903
I2
aI0
aI1
aa(lp1904
I2
aI0
aI1
aa(lp1905
I2
aI0
aI1
aa(lp1906
I2
aI1
aI0
aa(lp1907
I2
aI0
aI1
aa(lp1908
I2
aI0
aI1
aa(lp1909
I1
aI2
aI0
aa(lp1910
I1
aI2
aI0
aa(lp1911
I1
aI2
aI0
aa(lp1912
I2
aI0
aI1
aa(lp1913
I1
aI2
aI0
aa(lp1914
I0
aI1
aI2
aa(lp1915
I0
aI2
aI1
aa(lp1916
I2
aI0
aI1
aa(lp1917
I2
aI0
aI1
aa(lp1918
I0
aI2
aI1
aa(lp1919
I2
aI0
aI1
aa(lp1920
I2
aI0
aI1
aa(lp1921
I2
aI1
aI0
aa(lp1922
I2
aI0
aI1
aa(lp1923
I1
aI2
aI0
aa(lp1924
I2
aI1
aI0
aa(lp1925
I2
aI1
aI0
aa(lp1926
I2
aI0
aI1
aa(lp1927
I2
aI0
aI1
aa(lp1928
I2
aI0
aI1
aa(lp1929
I2
aI0
aI1
aa(lp1930
I2
aI1
aI0
aa(lp1931
I1
aI0
aI2
aa(lp1932
I2
aI0
aI1
aa(lp1933
I0
aI2
aI1
aa(lp1934
I1
aI2
aI0
aa(lp1935
I1
aI2
aI0
aa(lp1936
I2
aI0
aI1
aa(lp1937
I2
aI1
aI0
aa(lp1938
I0
aI2
aI1
aa(lp1939
I0
aI2
aI1
aa(lp1940
I1
aI0
aI2
aa(lp1941
I1
aI2
aI0
aa(lp1942
I1
aI2
aI0
aa(lp1943
I2
aI0
aI1
aa(lp1944
I2
aI1
aI0
aa(lp1945
I1
aI2
aI0
aa(lp1946
I1
aI2
aI0
aa(lp1947
I1
aI0
aI2
aa(lp1948
I2
aI0
aI1
aa(lp1949
I2
aI1
aI0
aa(lp1950
I1
aI2
aI0
aa(lp1951
I2
aI0
aI1
aa(lp1952
I1
aI2
aI0
aa(lp1953
I2
aI0
aI1
aa(lp1954
I1
aI2
aI0
aa(lp1955
I2
aI0
aI1
aa(lp1956
I2
aI0
aI1
aa(lp1957
I2
aI0
aI1
aa(lp1958
I2
aI0
aI1
aa(lp1959
I2
aI0
aI1
aa(lp1960
I0
aI2
aI1
aa(lp1961
I2
aI0
aI1
aa(lp1962
I1
aI2
aI0
aa(lp1963
I2
aI0
aI1
aa(lp1964
I2
aI1
aI0
aa(lp1965
I2
aI1
aI0
aa(lp1966
I1
aI0
aI2
aa(lp1967
I2
aI1
aI0
aa(lp1968
I0
aI2
aI1
aa(lp1969
I1
aI2
aI0
aa(lp1970
I1
aI2
aI0
aa(lp1971
I1
aI2
aI0
aa(lp1972
I2
aI0
aI1
aa(lp1973
I1
aI2
aI0
aa(lp1974
I2
aI1
aI0
aa(lp1975
I0
aI2
aI1
aa(lp1976
I1
aI2
aI0
aa(lp1977
I2
aI0
aI1
aa(lp1978
I2
aI1
aI0
aa(lp1979
I2
aI0
aI1
aa(lp1980
I1
aI2
aI0
aa(lp1981
I1
aI2
aI0
aa(lp1982
I2
aI1
aI0
aa(lp1983
I2
aI0
aI1
aa(lp1984
I2
aI1
aI0
aa(lp1985
I2
aI0
aI1
aa(lp1986
I0
aI2
aI1
aa(lp1987
I1
aI2
aI0
aa(lp1988
I0
aI2
aI1
aa(lp1989
I2
aI1
aI0
aa(lp1990
I2
aI0
aI1
aa(lp1991
I1
aI2
aI0
aa(lp1992
I0
aI2
aI1
aa(lp1993
I2
aI0
aI1
aa(lp1994
I1
aI2
aI0
aa(lp1995
I2
aI0
aI1
aa(lp1996
I2
aI1
aI0
aa(lp1997
I1
aI0
aI2
aa(lp1998
I1
aI2
aI0
aa(lp1999
I1
aI0
aI2
aa(lp2000
I2
aI1
aI0
aa(lp2001
I2
aI0
aI1
aa(lp2002
I1
aI0
aI2
aa(lp2003
I2
aI0
aI1
aa(lp2004
I2
aI1
aI0
aa(lp2005
I1
aI2
aI0
aa(lp2006
I1
aI2
aI0
aa(lp2007
I2
aI0
aI1
aa(lp2008
I2
aI1
aI0
aa(lp2009
I1
aI2
aI0
aa(lp2010
I0
aI2
aI1
aa(lp2011
I2
aI0
aI1
aa(lp2012
I0
aI2
aI1
aa(lp2013
I2
aI1
aI0
aa(lp2014
I2
aI0
aI1
aa(lp2015
I1
aI2
aI0
aa(lp2016
I2
aI1
aI0
aa(lp2017
I2
aI0
aI1
aa(lp2018
I1
aI2
aI0
aa(lp2019
I1
aI2
aI0
aa(lp2020
I2
aI0
aI1
aa(lp2021
I0
aI2
aI1
aa(lp2022
I0
aI2
aI1
aa(lp2023
I0
aI2
aI1
aa(lp2024
I2
aI0
aI1
aa(lp2025
I2
aI1
aI0
aa(lp2026
I2
aI0
aI1
aa(lp2027
I2
aI0
aI1
aa(lp2028
I1
aI2
aI0
aa(lp2029
I2
aI0
aI1
aa(lp2030
I2
aI0
aI1
aa(lp2031
I2
aI0
aI1
aa(lp2032
I2
aI1
aI0
aa(lp2033
I1
aI2
aI0
aa(lp2034
I2
aI0
aI1
aa(lp2035
I0
aI2
aI1
aa(lp2036
I2
aI0
aI1
aa(lp2037
I2
aI1
aI0
aa(lp2038
I2
aI0
aI1
aa(lp2039
I0
aI2
aI1
aa(lp2040
I0
aI2
aI1
aa(lp2041
I2
aI0
aI1
aa(lp2042
I2
aI1
aI0
aa(lp2043
I0
aI2
aI1
aa(lp2044
I2
aI1
aI0
aa(lp2045
I2
aI0
aI1
aa(lp2046
I2
aI1
aI0
aa(lp2047
I2
aI0
aI1
aa(lp2048
I1
aI2
aI0
aa(lp2049
I2
aI0
aI1
aa(lp2050
I0
aI2
aI1
aa(lp2051
I2
aI0
aI1
aa(lp2052
I1
aI2
aI0
aa(lp2053
I1
aI2
aI0
aa(lp2054
I2
aI0
aI1
aa(lp2055
I1
aI0
aI2
aa(lp2056
I2
aI1
aI0
aa(lp2057
I2
aI0
aI1
aa(lp2058
I2
aI0
aI1
aa(lp2059
I1
aI2
aI0
aa(lp2060
I2
aI0
aI1
aa(lp2061
I2
aI0
aI1
aa(lp2062
I2
aI1
aI0
aa(lp2063
I2
aI1
aI0
aa(lp2064
I1
aI2
aI0
aa(lp2065
I1
aI2
aI0
aa(lp2066
I0
aI2
aI1
aa(lp2067
I2
aI0
aI1
aa(lp2068
I2
aI1
aI0
aa(lp2069
I2
aI1
aI0
aa(lp2070
I1
aI0
aI2
aa(lp2071
I1
aI2
aI0
aa(lp2072
I2
aI0
aI1
aa(lp2073
I2
aI1
aI0
aa(lp2074
I0
aI2
aI1
aa(lp2075
I2
aI0
aI1
aa(lp2076
I0
aI2
aI1
aa(lp2077
I2
aI0
aI1
aa(lp2078
I2
aI1
aI0
aa(lp2079
I1
aI2
aI0
aa(lp2080
I2
aI0
aI1
aa(lp2081
I2
aI0
aI1
aa(lp2082
I2
aI0
aI1
aa(lp2083
I1
aI2
aI0
aa(lp2084
I2
aI1
aI0
aa(lp2085
I2
aI0
aI1
aa(lp2086
I0
aI2
aI1
aa(lp2087
I1
aI2
aI0
aa(lp2088
I2
aI1
aI0
aa(lp2089
I1
aI2
aI0
aa(lp2090
I2
aI1
aI0
aa(lp2091
I1
aI0
aI2
aa(lp2092
I2
aI0
aI1
aa(lp2093
I2
aI1
aI0
aa(lp2094
I2
aI1
aI0
aa(lp2095
I2
aI1
aI0
aa(lp2096
I2
aI1
aI0
aa(lp2097
I1
aI2
aI0
aa(lp2098
I1
aI2
aI0
aa(lp2099
I2
aI1
aI0
aa(lp2100
I1
aI2
aI0
aa(lp2101
I2
aI1
aI0
aa(lp2102
I2
aI1
aI0
aa(lp2103
I2
aI0
aI1
aa(lp2104
I2
aI0
aI1
aa(lp2105
I1
aI2
aI0
aa(lp2106
I1
aI2
aI0
aa(lp2107
I2
aI1
aI0
aa(lp2108
I2
aI0
aI1
aa(lp2109
I2
aI0
aI1
aa(lp2110
I2
aI0
aI1
aa(lp2111
I1
aI2
aI0
aa(lp2112
I1
aI2
aI0
aa(lp2113
I1
aI0
aI2
aa(lp2114
I2
aI0
aI1
aa(lp2115
I1
aI2
aI0
aa(lp2116
I0
aI2
aI1
aa(lp2117
I2
aI1
aI0
aa(lp2118
I1
aI2
aI0
aa(lp2119
I1
aI2
aI0
aa(lp2120
I2
aI1
aI0
aa(lp2121
I2
aI0
aI1
aa(lp2122
I2
aI0
aI1
aa(lp2123
I2
aI1
aI0
aa(lp2124
I2
aI0
aI1
aa(lp2125
I2
aI0
aI1
aa(lp2126
I2
aI0
aI1
aa(lp2127
I2
aI1
aI0
aa(lp2128
I1
aI2
aI0
aa(lp2129
I1
aI2
aI0
aa(lp2130
I2
aI1
aI0
aa(lp2131
I2
aI0
aI1
aa(lp2132
I1
aI2
aI0
aa(lp2133
I2
aI1
aI0
aa(lp2134
I2
aI1
aI0
aa(lp2135
I2
aI1
aI0
aa(lp2136
I1
aI0
aI2
aa(lp2137
I2
aI1
aI0
aa(lp2138
I2
aI0
aI1
aa(lp2139
I2
aI1
aI0
aa(lp2140
I2
aI0
aI1
aa(lp2141
I0
aI2
aI1
aa(lp2142
I1
aI2
aI0
aa(lp2143
I2
aI0
aI1
aa(lp2144
I2
aI1
aI0
aa(lp2145
I1
aI2
aI0
aa(lp2146
I2
aI0
aI1
aa(lp2147
I1
aI2
aI0
aa(lp2148
I2
aI1
aI0
aa(lp2149
I0
aI2
aI1
aa(lp2150
I0
aI2
aI1
aa(lp2151
I2
aI0
aI1
aa(lp2152
I0
aI2
aI1
aa(lp2153
I2
aI1
aI0
aa(lp2154
I2
aI0
aI1
aa(lp2155
I0
aI1
aI2
aa(lp2156
I0
aI2
aI1
aa(lp2157
I1
aI2
aI0
aa(lp2158
I1
aI0
aI2
aa(lp2159
I1
aI2
aI0
aa(lp2160
I1
aI2
aI0
aa(lp2161
I2
aI0
aI1
aa(lp2162
I2
aI0
aI1
aa(lp2163
I2
aI0
aI1
aa(lp2164
I2
aI0
aI1
aa(lp2165
I2
aI0
aI1
aa(lp2166
I2
aI0
aI1
aa(lp2167
I2
aI0
aI1
aa(lp2168
I2
aI0
aI1
aa(lp2169
I2
aI1
aI0
aa(lp2170
I0
aI2
aI1
aa(lp2171
I2
aI0
aI1
aa(lp2172
I1
aI2
aI0
aa(lp2173
I2
aI1
aI0
aa(lp2174
I1
aI2
aI0
aa(lp2175
I2
aI0
aI1
aa(lp2176
I2
aI1
aI0
aa(lp2177
I2
aI0
aI1
aa(lp2178
I0
aI2
aI1
aa(lp2179
I0
aI1
aI2
aa(lp2180
I1
aI2
aI0
aa(lp2181
I2
aI1
aI0
aa(lp2182
I1
aI2
aI0
aa(lp2183
I2
aI0
aI1
aa(lp2184
I1
aI2
aI0
aa(lp2185
I2
aI1
aI0
aa(lp2186
I2
aI0
aI1
aa(lp2187
I2
aI0
aI1
aa(lp2188
I1
aI2
aI0
aa(lp2189
I2
aI0
aI1
aa(lp2190
I0
aI2
aI1
aa(lp2191
I2
aI0
aI1
aa(lp2192
I0
aI2
aI1
aa(lp2193
I2
aI1
aI0
aa(lp2194
I0
aI1
aI2
aa(lp2195
I2
aI1
aI0
aa(lp2196
I2
aI0
aI1
aa(lp2197
I2
aI0
aI1
aa(lp2198
I0
aI1
aI2
aa(lp2199
I2
aI0
aI1
aa(lp2200
I1
aI2
aI0
aa(lp2201
I0
aI2
aI1
aa(lp2202
I2
aI0
aI1
aa(lp2203
I1
aI0
aI2
aa(lp2204
I2
aI0
aI1
aa(lp2205
I0
aI2
aI1
aa(lp2206
I2
aI1
aI0
aa(lp2207
I1
aI2
aI0
aa(lp2208
I0
aI2
aI1
aa(lp2209
I2
aI0
aI1
aa(lp2210
I2
aI1
aI0
aa(lp2211
I0
aI2
aI1
aa(lp2212
I2
aI1
aI0
aa(lp2213
I0
aI1
aI2
aa(lp2214
I0
aI1
aI2
aa(lp2215
I1
aI2
aI0
aa(lp2216
I2
aI0
aI1
aa(lp2217
I1
aI2
aI0
aa(lp2218
I2
aI1
aI0
aa(lp2219
I2
aI0
aI1
aa(lp2220
I2
aI0
aI1
aa(lp2221
I2
aI0
aI1
aa(lp2222
I2
aI1
aI0
aa(lp2223
I1
aI0
aI2
aa(lp2224
I1
aI2
aI0
aa(lp2225
I2
aI0
aI1
aa(lp2226
I1
aI2
aI0
aa(lp2227
I2
aI1
aI0
aa(lp2228
I0
aI2
aI1
aa(lp2229
I2
aI0
aI1
aa(lp2230
I2
aI0
aI1
aa(lp2231
I0
aI2
aI1
aa(lp2232
I0
aI1
aI2
aa(lp2233
I2
aI1
aI0
aa(lp2234
I1
aI2
aI0
aa(lp2235
I0
aI1
aI2
aa(lp2236
I2
aI0
aI1
aa(lp2237
I2
aI1
aI0
aa(lp2238
I0
aI2
aI1
aa(lp2239
I1
aI0
aI2
aa(lp2240
I1
aI2
aI0
aa(lp2241
I1
aI2
aI0
aa(lp2242
I1
aI2
aI0
aa(lp2243
I2
aI0
aI1
aa(lp2244
I0
aI2
aI1
aa(lp2245
I0
aI2
aI1
aa(lp2246
I1
aI2
aI0
aa(lp2247
I2
aI0
aI1
aa(lp2248
I0
aI2
aI1
aa(lp2249
I1
aI2
aI0
aa(lp2250
I2
aI0
aI1
aa(lp2251
I1
aI2
aI0
aa(lp2252
I2
aI0
aI1
aa(lp2253
I2
aI0
aI1
aa(lp2254
I2
aI1
aI0
aa(lp2255
I2
aI0
aI1
aa(lp2256
I2
aI1
aI0
aa(lp2257
I2
aI1
aI0
aa(lp2258
I2
aI0
aI1
aa(lp2259
I1
aI2
aI0
aa(lp2260
I1
aI0
aI2
aa(lp2261
I2
aI0
aI1
aa(lp2262
I2
aI1
aI0
aa(lp2263
I2
aI0
aI1
aa(lp2264
I2
aI0
aI1
aa(lp2265
I2
aI0
aI1
aa(lp2266
I1
aI0
aI2
aa(lp2267
I0
aI2
aI1
aa(lp2268
I0
aI2
aI1
aa(lp2269
I2
aI0
aI1
aa(lp2270
I2
aI1
aI0
aa(lp2271
I2
aI0
aI1
aa(lp2272
I2
aI0
aI1
aa(lp2273
I1
aI2
aI0
aa(lp2274
I1
aI2
aI0
aa(lp2275
I1
aI2
aI0
aa(lp2276
I2
aI1
aI0
aa(lp2277
I1
aI0
aI2
aa(lp2278
I1
aI2
aI0
aa(lp2279
I2
aI0
aI1
aa(lp2280
I2
aI1
aI0
aa(lp2281
I0
aI1
aI2
aa(lp2282
I1
aI2
aI0
aa(lp2283
I2
aI0
aI1
aa(lp2284
I2
aI0
aI1
aa(lp2285
I2
aI0
aI1
aa(lp2286
I2
aI0
aI1
aa(lp2287
I1
aI2
aI0
aa(lp2288
I2
aI0
aI1
aa(lp2289
I2
aI0
aI1
aa(lp2290
I1
aI2
aI0
aa(lp2291
I2
aI1
aI0
aa(lp2292
I2
aI0
aI1
aa(lp2293
I2
aI0
aI1
aa(lp2294
I2
aI0
aI1
aa(lp2295
I1
aI0
aI2
aa(lp2296
I2
aI0
aI1
aa(lp2297
I2
aI0
aI1
aa(lp2298
I2
aI1
aI0
aa(lp2299
I0
aI2
aI1
aa(lp2300
I2
aI0
aI1
aa(lp2301
I2
aI1
aI0
aa(lp2302
I1
aI2
aI0
aa(lp2303
I0
aI2
aI1
aa(lp2304
I0
aI2
aI1
aa(lp2305
I1
aI2
aI0
aa(lp2306
I2
aI1
aI0
aa(lp2307
I1
aI2
aI0
aa(lp2308
I0
aI2
aI1
aa(lp2309
I2
aI1
aI0
aa(lp2310
I0
aI2
aI1
aa(lp2311
I1
aI2
aI0
aa(lp2312
I2
aI1
aI0
aa(lp2313
I2
aI0
aI1
aa(lp2314
I2
aI0
aI1
aa(lp2315
I2
aI1
aI0
aa(lp2316
I1
aI0
aI2
aa(lp2317
I1
aI2
aI0
aa(lp2318
I1
aI2
aI0
aa(lp2319
I2
aI0
aI1
aa(lp2320
I2
aI1
aI0
aa(lp2321
I1
aI2
aI0
aa(lp2322
I1
aI2
aI0
aa(lp2323
I0
aI2
aI1
aa(lp2324
I2
aI0
aI1
aa(lp2325
I1
aI2
aI0
aa(lp2326
I1
aI2
aI0
aa(lp2327
I2
aI1
aI0
aa(lp2328
I1
aI0
aI2
aa(lp2329
I1
aI0
aI2
aa(lp2330
I1
aI2
aI0
aa(lp2331
I2
aI0
aI1
aa(lp2332
I2
aI0
aI1
aa(lp2333
I1
aI2
aI0
aa(lp2334
I0
aI2
aI1
aa(lp2335
I0
aI2
aI1
aa(lp2336
I0
aI1
aI2
aa(lp2337
I2
aI1
aI0
aa(lp2338
I1
aI2
aI0
aa(lp2339
I1
aI2
aI0
aa(lp2340
I1
aI2
aI0
aa(lp2341
I0
aI2
aI1
aa(lp2342
I2
aI0
aI1
aa(lp2343
I2
aI0
aI1
aa(lp2344
I2
aI1
aI0
aa(lp2345
I2
aI0
aI1
aa(lp2346
I2
aI1
aI0
aa(lp2347
I1
aI2
aI0
aa(lp2348
I2
aI0
aI1
aa(lp2349
I1
aI2
aI0
aa(lp2350
I1
aI2
aI0
aa(lp2351
I2
aI0
aI1
aa(lp2352
I2
aI0
aI1
aa(lp2353
I2
aI1
aI0
aa(lp2354
I1
aI2
aI0
aa(lp2355
I0
aI2
aI1
aa(lp2356
I2
aI0
aI1
aa(lp2357
I1
aI2
aI0
aa(lp2358
I2
aI0
aI1
aa(lp2359
I2
aI0
aI1
aa(lp2360
I2
aI0
aI1
aa(lp2361
I2
aI0
aI1
aa(lp2362
I2
aI0
aI1
aa(lp2363
I0
aI2
aI1
aa(lp2364
I2
aI0
aI1
aa(lp2365
I0
aI1
aI2
aa(lp2366
I2
aI1
aI0
aa(lp2367
I2
aI0
aI1
aa(lp2368
I2
aI1
aI0
aa(lp2369
I1
aI0
aI2
aa(lp2370
I1
aI2
aI0
aa(lp2371
I1
aI2
aI0
aa(lp2372
I1
aI2
aI0
aa(lp2373
I2
aI1
aI0
aa(lp2374
I2
aI0
aI1
aa(lp2375
I1
aI2
aI0
aa(lp2376
I2
aI0
aI1
aa(lp2377
I1
aI0
aI2
aa(lp2378
I1
aI0
aI2
aa(lp2379
I1
aI2
aI0
aa(lp2380
I2
aI1
aI0
aa(lp2381
I2
aI0
aI1
aa(lp2382
I0
aI2
aI1
aa(lp2383
I1
aI2
aI0
aa(lp2384
I0
aI2
aI1
aa(lp2385
I0
aI1
aI2
aa(lp2386
I2
aI1
aI0
aa(lp2387
I1
aI2
aI0
aa(lp2388
I0
aI1
aI2
aa(lp2389
I2
aI0
aI1
aa(lp2390
I1
aI0
aI2
aa(lp2391
I0
aI2
aI1
aa(lp2392
I1
aI0
aI2
aa(lp2393
I2
aI0
aI1
aa(lp2394
I0
aI2
aI1
aa(lp2395
I1
aI2
aI0
aa(lp2396
I2
aI0
aI1
aa(lp2397
I1
aI0
aI2
aa(lp2398
I1
aI2
aI0
aa(lp2399
I2
aI0
aI1
aa(lp2400
I1
aI0
aI2
aa(lp2401
I0
aI2
aI1
aa(lp2402
I1
aI0
aI2
aa(lp2403
I2
aI1
aI0
aa(lp2404
I1
aI2
aI0
aa(lp2405
I0
aI2
aI1
aa(lp2406
I2
aI0
aI1
aa(lp2407
I2
aI0
aI1
aa(lp2408
I2
aI0
aI1
aa(lp2409
I2
aI1
aI0
aa(lp2410
I1
aI0
aI2
aa(lp2411
I0
aI1
aI2
aa(lp2412
I1
aI2
aI0
aa(lp2413
I1
aI0
aI2
aa(lp2414
I2
aI1
aI0
aa(lp2415
I2
aI1
aI0
aa(lp2416
I2
aI1
aI0
aa(lp2417
I2
aI0
aI1
aa(lp2418
I1
aI2
aI0
aa(lp2419
I1
aI0
aI2
aa(lp2420
I2
aI1
aI0
aa(lp2421
I2
aI0
aI1
aa(lp2422
I2
aI0
aI1
aa(lp2423
I2
aI1
aI0
aa(lp2424
I2
aI1
aI0
aa(lp2425
I2
aI0
aI1
aa(lp2426
I2
aI0
aI1
aa(lp2427
I2
aI0
aI1
aa(lp2428
I2
aI0
aI1
aa(lp2429
I2
aI0
aI1
aa(lp2430
I2
aI0
aI1
aa(lp2431
I1
aI2
aI0
aa(lp2432
I2
aI0
aI1
aa(lp2433
I1
aI2
aI0
aa(lp2434
I2
aI1
aI0
aa(lp2435
I1
aI2
aI0
aa(lp2436
I2
aI1
aI0
aa(lp2437
I1
aI2
aI0
aa(lp2438
I2
aI0
aI1
aa(lp2439
I0
aI2
aI1
aa(lp2440
I2
aI0
aI1
aa(lp2441
I1
aI2
aI0
aa(lp2442
I1
aI2
aI0
aa(lp2443
I0
aI2
aI1
aa(lp2444
I1
aI2
aI0
aa(lp2445
I1
aI2
aI0
aa(lp2446
I1
aI2
aI0
aa(lp2447
I1
aI2
aI0
aa(lp2448
I0
aI2
aI1
aa(lp2449
I2
aI1
aI0
aa(lp2450
I0
aI2
aI1
aa(lp2451
I1
aI2
aI0
aa(lp2452
I2
aI1
aI0
aa(lp2453
I2
aI0
aI1
aa(lp2454
I0
aI2
aI1
aa(lp2455
I2
aI0
aI1
aa(lp2456
I2
aI0
aI1
aa(lp2457
I2
aI0
aI1
aa(lp2458
I2
aI1
aI0
aa(lp2459
I2
aI0
aI1
aa(lp2460
I2
aI1
aI0
aa(lp2461
I1
aI2
aI0
aa(lp2462
I1
aI2
aI0
aa(lp2463
I2
aI0
aI1
aa(lp2464
I1
aI2
aI0
aa(lp2465
I2
aI1
aI0
aa(lp2466
I2
aI1
aI0
aa(lp2467
I2
aI1
aI0
aa(lp2468
I1
aI0
aI2
aa(lp2469
I1
aI2
aI0
aa(lp2470
I2
aI0
aI1
aa(lp2471
I1
aI2
aI0
aa(lp2472
I1
aI2
aI0
aa(lp2473
I2
aI0
aI1
aa(lp2474
I2
aI0
aI1
aa(lp2475
I0
aI2
aI1
aa(lp2476
I1
aI2
aI0
aa(lp2477
I2
aI1
aI0
aa(lp2478
I1
aI2
aI0
aa(lp2479
I1
aI2
aI0
aa(lp2480
I1
aI2
aI0
aa(lp2481
I2
aI1
aI0
aa(lp2482
I1
aI2
aI0
aa(lp2483
I1
aI2
aI0
aa(lp2484
I1
aI2
aI0
aa(lp2485
I2
aI0
aI1
aa(lp2486
I1
aI2
aI0
aa(lp2487
I2
aI1
aI0
aa(lp2488
I0
aI2
aI1
aa(lp2489
I0
aI2
aI1
aa(lp2490
I2
aI0
aI1
aa(lp2491
I2
aI1
aI0
aa(lp2492
I2
aI1
aI0
aa(lp2493
I0
aI2
aI1
aa(lp2494
I2
aI0
aI1
aa(lp2495
I2
aI1
aI0
aa(lp2496
I0
aI2
aI1
aa(lp2497
I1
aI2
aI0
aa(lp2498
I2
aI1
aI0
aa(lp2499
I2
aI0
aI1
aa(lp2500
I2
aI1
aI0
aa(lp2501
I2
aI0
aI1
aa(lp2502
I2
aI0
aI1
aa(lp2503
I2
aI0
aI1
aa(lp2504
I1
aI2
aI0
aa(lp2505
I0
aI2
aI1
aa(lp2506
I2
aI1
aI0
aa(lp2507
I2
aI0
aI1
aa(lp2508
I2
aI0
aI1
aa(lp2509
I2
aI0
aI1
aa(lp2510
I1
aI2
aI0
aa(lp2511
I0
aI2
aI1
aa(lp2512
I1
aI0
aI2
aa(lp2513
I2
aI1
aI0
aa(lp2514
I1
aI2
aI0
aa(lp2515
I2
aI0
aI1
aa(lp2516
I1
aI2
aI0
aa(lp2517
I2
aI1
aI0
aa(lp2518
I2
aI0
aI1
aa(lp2519
I1
aI0
aI2
aa(lp2520
I1
aI2
aI0
aa(lp2521
I2
aI1
aI0
aa(lp2522
I2
aI1
aI0
aa(lp2523
I0
aI2
aI1
aa(lp2524
I1
aI2
aI0
aa(lp2525
I1
aI2
aI0
aa(lp2526
I2
aI0
aI1
aa(lp2527
I2
aI0
aI1
aa(lp2528
I0
aI2
aI1
aa(lp2529
I0
aI2
aI1
aa(lp2530
I2
aI1
aI0
aa(lp2531
I2
aI0
aI1
aa(lp2532
I2
aI0
aI1
aa(lp2533
I1
aI2
aI0
aa(lp2534
I2
aI1
aI0
aa(lp2535
I2
aI0
aI1
aa(lp2536
I2
aI0
aI1
aa(lp2537
I2
aI0
aI1
aa(lp2538
I0
aI2
aI1
aa(lp2539
I2
aI0
aI1
aa(lp2540
I2
aI0
aI1
aa(lp2541
I2
aI1
aI0
aa(lp2542
I2
aI0
aI1
aa(lp2543
I1
aI2
aI0
aa(lp2544
I2
aI1
aI0
aa(lp2545
I2
aI0
aI1
aa(lp2546
I1
aI2
aI0
aa(lp2547
I2
aI1
aI0
aa(lp2548
I1
aI2
aI0
aa(lp2549
I2
aI0
aI1
aa(lp2550
I0
aI2
aI1
aa(lp2551
I2
aI1
aI0
aa(lp2552
I0
aI2
aI1
aa(lp2553
I1
aI2
aI0
aa(lp2554
I1
aI2
aI0
aa(lp2555
I1
aI2
aI0
aa(lp2556
I1
aI2
aI0
aa(lp2557
I1
aI2
aI0
aa(lp2558
I2
aI1
aI0
aa(lp2559
I2
aI0
aI1
aa(lp2560
I2
aI1
aI0
aa(lp2561
I1
aI2
aI0
aa(lp2562
I2
aI1
aI0
aa(lp2563
I2
aI0
aI1
aa(lp2564
I2
aI1
aI0
aa(lp2565
I1
aI2
aI0
aa(lp2566
I2
aI0
aI1
aa(lp2567
I2
aI1
aI0
aa(lp2568
I2
aI1
aI0
aa(lp2569
I2
aI1
aI0
aa(lp2570
I0
aI2
aI1
aa(lp2571
I2
aI1
aI0
aa(lp2572
I1
aI2
aI0
aa(lp2573
I0
aI2
aI1
aa(lp2574
I2
aI0
aI1
aa(lp2575
I2
aI0
aI1
aa(lp2576
I2
aI0
aI1
aa(lp2577
I2
aI0
aI1
aa(lp2578
I2
aI0
aI1
aa(lp2579
I2
aI0
aI1
aa(lp2580
I2
aI0
aI1
aa(lp2581
I2
aI1
aI0
aa(lp2582
I2
aI0
aI1
aa(lp2583
I2
aI0
aI1
aa(lp2584
I2
aI0
aI1
aa(lp2585
I1
aI2
aI0
aa(lp2586
I2
aI1
aI0
aa(lp2587
I2
aI0
aI1
aa(lp2588
I2
aI1
aI0
aa(lp2589
I1
aI2
aI0
aa(lp2590
I0
aI2
aI1
aa(lp2591
I2
aI1
aI0
aa(lp2592
I1
aI2
aI0
aa(lp2593
I0
aI2
aI1
aa(lp2594
I1
aI2
aI0
aa(lp2595
I2
aI0
aI1
aa(lp2596
I0
aI2
aI1
aa(lp2597
I2
aI1
aI0
aa(lp2598
I1
aI2
aI0
aa(lp2599
I1
aI2
aI0
aa(lp2600
I1
aI0
aI2
aa(lp2601
I2
aI1
aI0
aa(lp2602
I0
aI2
aI1
aa(lp2603
I2
aI0
aI1
aa(lp2604
I2
aI0
aI1
aa(lp2605
I1
aI2
aI0
aa(lp2606
I2
aI1
aI0
aa(lp2607
I0
aI2
aI1
aa(lp2608
I2
aI0
aI1
aa(lp2609
I2
aI0
aI1
aa(lp2610
I0
aI2
aI1
aa(lp2611
I2
aI1
aI0
aa(lp2612
I1
aI2
aI0
aa(lp2613
I2
aI1
aI0
aa(lp2614
I2
aI0
aI1
aa(lp2615
I0
aI1
aI2
aa(lp2616
I2
aI1
aI0
aa(lp2617
I0
aI2
aI1
aa(lp2618
I1
aI0
aI2
aa(lp2619
I0
aI2
aI1
aa(lp2620
I1
aI0
aI2
aa(lp2621
I2
aI0
aI1
aa(lp2622
I1
aI2
aI0
aa(lp2623
I2
aI1
aI0
aa(lp2624
I2
aI0
aI1
aa(lp2625
I2
aI1
aI0
aa(lp2626
I2
aI0
aI1
aa(lp2627
I2
aI0
aI1
aa(lp2628
I2
aI1
aI0
aa(lp2629
I0
aI2
aI1
aa(lp2630
I1
aI2
aI0
aa(lp2631
I2
aI1
aI0
aa(lp2632
I2
aI1
aI0
aa(lp2633
I1
aI2
aI0
aa(lp2634
I1
aI2
aI0
aa(lp2635
I1
aI2
aI0
aa(lp2636
I1
aI0
aI2
aa(lp2637
I1
aI2
aI0
aa(lp2638
I1
aI2
aI0
aa(lp2639
I2
aI0
aI1
aa(lp2640
I0
aI2
aI1
aa(lp2641
I2
aI1
aI0
aa(lp2642
I2
aI1
aI0
aa(lp2643
I2
aI1
aI0
aa(lp2644
I1
aI2
aI0
aa(lp2645
I2
aI1
aI0
aa(lp2646
I1
aI2
aI0
aa(lp2647
I2
aI0
aI1
aa(lp2648
I2
aI0
aI1
aa(lp2649
I2
aI0
aI1
aa(lp2650
I2
aI0
aI1
aa(lp2651
I2
aI0
aI1
aa(lp2652
I2
aI1
aI0
aa(lp2653
I1
aI2
aI0
aa(lp2654
I2
aI0
aI1
aa(lp2655
I2
aI0
aI1
aa(lp2656
I2
aI0
aI1
aa(lp2657
I1
aI2
aI0
aa(lp2658
I2
aI1
aI0
aa(lp2659
I1
aI2
aI0
aa(lp2660
I0
aI2
aI1
aa(lp2661
I2
aI0
aI1
aa(lp2662
I1
aI2
aI0
aa(lp2663
I0
aI2
aI1
aa(lp2664
I2
aI0
aI1
aa(lp2665
I1
aI2
aI0
aa(lp2666
I1
aI2
aI0
aa(lp2667
I2
aI0
aI1
aa(lp2668
I2
aI0
aI1
aa(lp2669
I0
aI2
aI1
aa(lp2670
I1
aI2
aI0
aa(lp2671
I2
aI0
aI1
aa(lp2672
I2
aI0
aI1
aa(lp2673
I2
aI1
aI0
aa(lp2674
I2
aI1
aI0
aa(lp2675
I2
aI0
aI1
aa(lp2676
I2
aI1
aI0
aa(lp2677
I2
aI0
aI1
aa(lp2678
I2
aI1
aI0
aa(lp2679
I1
aI0
aI2
aa(lp2680
I2
aI0
aI1
aa(lp2681
I1
aI2
aI0
aa(lp2682
I1
aI2
aI0
aa(lp2683
I2
aI1
aI0
aa(lp2684
I2
aI0
aI1
aa(lp2685
I0
aI2
aI1
aa(lp2686
I2
aI1
aI0
aa(lp2687
I2
aI0
aI1
aa(lp2688
I2
aI0
aI1
aa(lp2689
I1
aI2
aI0
aa(lp2690
I2
aI0
aI1
aa(lp2691
I1
aI2
aI0
aa(lp2692
I1
aI2
aI0
aa(lp2693
I1
aI2
aI0
aa(lp2694
I2
aI0
aI1
aa(lp2695
I0
aI2
aI1
aa(lp2696
I2
aI0
aI1
aa(lp2697
I2
aI1
aI0
aa(lp2698
I2
aI1
aI0
aa(lp2699
I0
aI2
aI1
aa(lp2700
I1
aI0
aI2
aa(lp2701
I1
aI2
aI0
aa(lp2702
I1
aI0
aI2
aa(lp2703
I2
aI0
aI1
aa(lp2704
I2
aI0
aI1
aa(lp2705
I2
aI0
aI1
aa(lp2706
I1
aI2
aI0
aa(lp2707
I2
aI0
aI1
aa(lp2708
I2
aI1
aI0
aa(lp2709
I2
aI0
aI1
aa(lp2710
I1
aI2
aI0
aa(lp2711
I2
aI1
aI0
aa(lp2712
I1
aI2
aI0
aa(lp2713
I0
aI2
aI1
aa(lp2714
I2
aI0
aI1
aa(lp2715
I1
aI2
aI0
aa(lp2716
I2
aI1
aI0
aa(lp2717
I1
aI2
aI0
aa(lp2718
I1
aI2
aI0
aa(lp2719
I2
aI0
aI1
aa(lp2720
I1
aI2
aI0
aa(lp2721
I2
aI0
aI1
aa(lp2722
I2
aI1
aI0
aa(lp2723
I1
aI2
aI0
aa(lp2724
I2
aI0
aI1
aa(lp2725
I0
aI2
aI1
aa(lp2726
I1
aI2
aI0
aa(lp2727
I1
aI0
aI2
aa(lp2728
I2
aI0
aI1
aa(lp2729
I2
aI0
aI1
aa(lp2730
I2
aI0
aI1
aa(lp2731
I1
aI2
aI0
aa(lp2732
I1
aI2
aI0
aa(lp2733
I2
aI0
aI1
aa(lp2734
I2
aI1
aI0
aa(lp2735
I2
aI0
aI1
aa(lp2736
I1
aI2
aI0
aa(lp2737
I0
aI2
aI1
aa(lp2738
I2
aI0
aI1
aa(lp2739
I0
aI2
aI1
aa(lp2740
I2
aI0
aI1
aa(lp2741
I1
aI2
aI0
aa(lp2742
I2
aI0
aI1
aa(lp2743
I1
aI2
aI0
aa(lp2744
I1
aI2
aI0
aa(lp2745
I0
aI2
aI1
aa(lp2746
I1
aI2
aI0
aa(lp2747
I0
aI2
aI1
aa(lp2748
I2
aI0
aI1
aa(lp2749
I2
aI1
aI0
aa(lp2750
I0
aI2
aI1
aa(lp2751
I0
aI1
aI2
aa(lp2752
I2
aI0
aI1
aa(lp2753
I1
aI2
aI0
aa(lp2754
I2
aI1
aI0
aa(lp2755
I1
aI2
aI0
aa(lp2756
I1
aI2
aI0
aa(lp2757
I2
aI1
aI0
aa(lp2758
I1
aI2
aI0
aa(lp2759
I1
aI2
aI0
aa(lp2760
I2
aI0
aI1
aa(lp2761
I2
aI0
aI1
aa(lp2762
I1
aI2
aI0
aa(lp2763
I1
aI0
aI2
aa(lp2764
I2
aI0
aI1
aa(lp2765
I2
aI1
aI0
aa(lp2766
I2
aI0
aI1
aa(lp2767
I0
aI2
aI1
aa(lp2768
I2
aI1
aI0
aa(lp2769
I1
aI2
aI0
aa(lp2770
I1
aI2
aI0
aa(lp2771
I1
aI2
aI0
aa(lp2772
I2
aI0
aI1
aa(lp2773
I2
aI0
aI1
aa(lp2774
I1
aI0
aI2
aa(lp2775
I2
aI1
aI0
aa(lp2776
I1
aI2
aI0
aa(lp2777
I2
aI1
aI0
aa(lp2778
I0
aI2
aI1
aa(lp2779
I2
aI0
aI1
aa(lp2780
I2
aI1
aI0
aa(lp2781
I1
aI0
aI2
aa(lp2782
I1
aI2
aI0
aa(lp2783
I2
aI1
aI0
aa(lp2784
I2
aI1
aI0
aa(lp2785
I2
aI0
aI1
aa(lp2786
I2
aI0
aI1
aa(lp2787
I2
aI1
aI0
aa(lp2788
I0
aI2
aI1
aa(lp2789
I1
aI0
aI2
aa(lp2790
I1
aI0
aI2
aa(lp2791
I1
aI2
aI0
aa(lp2792
I2
aI0
aI1
aa(lp2793
I2
aI0
aI1
aa(lp2794
I2
aI1
aI0
aa(lp2795
I2
aI1
aI0
aa(lp2796
I1
aI2
aI0
aa(lp2797
I2
aI1
aI0
aa(lp2798
I1
aI2
aI0
aa(lp2799
I2
aI1
aI0
aa(lp2800
I2
aI1
aI0
aa(lp2801
I2
aI1
aI0
aa(lp2802
I1
aI2
aI0
aa(lp2803
I2
aI0
aI1
aa(lp2804
I1
aI2
aI0
aa(lp2805
I2
aI1
aI0
aa(lp2806
I0
aI2
aI1
aa(lp2807
I1
aI0
aI2
aa(lp2808
I1
aI2
aI0
aa(lp2809
I2
aI0
aI1
aa(lp2810
I2
aI0
aI1
aa(lp2811
I2
aI0
aI1
aa(lp2812
I1
aI2
aI0
aa(lp2813
I1
aI2
aI0
aa(lp2814
I1
aI2
aI0
aa(lp2815
I1
aI2
aI0
aa(lp2816
I1
aI2
aI0
aa(lp2817
I2
aI0
aI1
aa(lp2818
I2
aI1
aI0
aa(lp2819
I2
aI0
aI1
aa(lp2820
I1
aI2
aI0
aa(lp2821
I1
aI0
aI2
aa(lp2822
I2
aI1
aI0
aa(lp2823
I1
aI2
aI0
aa(lp2824
I2
aI0
aI1
aa(lp2825
I1
aI2
aI0
aa(lp2826
I1
aI2
aI0
aa(lp2827
I2
aI0
aI1
aa(lp2828
I2
aI0
aI1
aa(lp2829
I2
aI0
aI1
aa(lp2830
I2
aI0
aI1
aa(lp2831
I2
aI0
aI1
aa(lp2832
I2
aI0
aI1
aa(lp2833
I2
aI0
aI1
aa(lp2834
I2
aI0
aI1
aa(lp2835
I0
aI2
aI1
aa(lp2836
I2
aI1
aI0
aa(lp2837
I2
aI0
aI1
aa(lp2838
I2
aI0
aI1
aa(lp2839
I1
aI2
aI0
aa(lp2840
I2
aI1
aI0
aa(lp2841
I2
aI1
aI0
aa(lp2842
I2
aI0
aI1
aa(lp2843
I2
aI0
aI1
aa(lp2844
I2
aI0
aI1
aa(lp2845
I2
aI0
aI1
aa(lp2846
I1
aI2
aI0
aa(lp2847
I2
aI1
aI0
aa(lp2848
I2
aI1
aI0
aa(lp2849
I2
aI0
aI1
aa(lp2850
I2
aI0
aI1
aa(lp2851
I2
aI1
aI0
aa(lp2852
I2
aI1
aI0
aa(lp2853
I2
aI0
aI1
aa(lp2854
I2
aI0
aI1
aa(lp2855
I1
aI2
aI0
aa(lp2856
I2
aI1
aI0
aa(lp2857
I1
aI2
aI0
aa(lp2858
I2
aI0
aI1
aa(lp2859
I0
aI2
aI1
aa(lp2860
I2
aI0
aI1
aa(lp2861
I2
aI0
aI1
aa(lp2862
I2
aI0
aI1
aa(lp2863
I2
aI1
aI0
aasS'PCMC'
p2864
g2
(g3
(I0
tp2865
g5
tp2866
Rp2867
(I1
(I6
tp2868
g12
I00
S'\xfb\x1b\xfd\xc5\xfaI_?s\xdf\xff\xbc\x0e~\xf6?p\xbe\xf6\xafl\x8am?\x11\xb7\xe6 >\xbf\xea?\xf8\xfas\xaa\x077\xd3?^\xd9\xae\xfe\x0fJ\xda?'
p2869
tp2870
bsS'PL'
p2871
g2
(g3
(I0
tp2872
g5
tp2873
Rp2874
(I1
(I3
tp2875
g12
I00
S'h\xa6Q\x1a\xe3(\xc9??\\\xcf!x5\xca?W\xbf\xf70i(\xe3?'
p2876
tp2877
bsS'Mallows-greedy-RE'
p2878
((lp2879
I0
aI1
aI2
ag34
(g12
S'\x8d\xe2/\xb2\xdc\x82\xf1?'
p2880
tp2881
Rp2882
tp2883
s.