(dp0
S'PCMC-RE'
p1
cnumpy.core.multiarray
_reconstruct
p2
(cnumpy
ndarray
p3
(I0
tp4
S'b'
p5
tp6
Rp7
(I1
(I6
tp8
cnumpy
dtype
p9
(S'f8'
p10
I0
I1
tp11
Rp12
(I3
S'<'
p13
NNNI-1
I-1
I0
tp14
bI00
S'\x85\xeer\xad$fc@\x90\x12o\xb54\xf4T@\xbe_1\xab\xf91\x80@\x1c/a\xd06^Z?L8R\x8c,e]@\xfc\xa9\xf1\xd2MbP?'
p15
tp16
bsS'MMNL-RE'
p17
g2
(g3
(I0
tp18
g5
tp19
Rp20
(I1
(I4
tp21
g12
I00
S'\x00\x00\x00\x00\x00\x00\xf0?W\x0f\xe7$\x94\xc0\xf2?\x0573hT\xf6\xd8?\x0ec\xc0\xe7,\xd9\xe8?'
p22
tp23
bsS'PL-RE'
p24
g2
(g3
(I0
tp25
g5
tp26
Rp27
(I1
(I3
tp28
g12
I00
S'Z\xf7j\xe2\x94\t\xe0?h\x9c\x95\xad-Y\xc5?\x19C_d?@\xd5?'
p29
tp30
bsS'N'
p31
I3
sS'Mallows-greedy'
p32
((lp33
I1
aI2
aI0
acnumpy.core.multiarray
scalar
p34
(g12
S'c7S\x8bl\x10\xf2?'
p35
tp36
Rp37
tp38
sS'MMNL'
p39
g2
(g3
(I0
tp40
g5
tp41
Rp42
(I1
(I4
tp43
g12
I00
S'\x00\x00\x00\x00\x00\x00\xf0?\xe7\xf8\xc3~\x07B\xd6?a\xb0\xed\xa6\x15\x8e\xf0?\x18\xad\x1b\xc8\x05\x90\xde?'
p44
tp45
bsS'test-lists'
p46
(lp47
(lp48
I1
aI0
aI2
aa(lp49
I2
aI1
aI0
aa(lp50
I1
aI0
aI2
aa(lp51
I1
aI0
aI2
aa(lp52
I0
aI1
aI2
aa(lp53
I2
aI0
aI1
aa(lp54
I1
aI0
aI2
aa(lp55
I1
aI2
aI0
aa(lp56
I1
aI0
aI2
aa(lp57
I2
aI1
aI0
aa(lp58
I2
aI1
aI0
aa(lp59
I2
aI0
aI1
aa(lp60
I2
aI1
aI0
aa(lp61
I1
aI0
aI2
aa(lp62
I0
aI2
aI1
aa(lp63
I1
aI2
aI0
aa(lp64
I1
aI2
aI0
aa(lp65
I1
aI2
aI0
aa(lp66
I0
aI1
aI2
aa(lp67
I1
aI0
aI2
aa(lp68
I1
aI2
aI0
aa(lp69
I1
aI2
aI0
aa(lp70
I1
aI2
aI0
aa(lp71
I0
aI2
aI1
aa(lp72
I1
aI2
aI0
aa(lp73
I1
aI0
aI2
aa(lp74
I2
aI1
aI0
aa(lp75
I1
aI0
aI2
aa(lp76
I1
aI0
aI2
aa(lp77
I2
aI1
aI0
aa(lp78
I1
aI0
aI2
aa(lp79
I1
aI0
aI2
aa(lp80
I2
aI1
aI0
aa(lp81
I2
aI1
aI0
aa(lp82
I1
aI2
aI0
aa(lp83
I2
aI1
aI0
aa(lp84
I1
aI0
aI2
aa(lp85
I1
aI2
aI0
aa(lp86
I0
aI1
aI2
aa(lp87
I1
aI2
aI0
aa(lp88
I2
aI1
aI0
aa(lp89
I1
aI0
aI2
aa(lp90
I2
aI0
aI1
aa(lp91
I1
aI0
aI2
aa(lp92
I0
aI1
aI2
aa(lp93
I1
aI2
aI0
aa(lp94
I1
aI0
aI2
aa(lp95
I2
aI0
aI1
aa(lp96
I1
aI2
aI0
aa(lp97
I1
aI2
aI0
aa(lp98
I2
aI1
aI0
aa(lp99
I1
aI2
aI0
aa(lp100
I2
aI0
aI1
aa(lp101
I1
aI2
aI0
aa(lp102
I2
aI0
aI1
aa(lp103
I2
aI1
aI0
aa(lp104
I1
aI2
aI0
aa(lp105
I0
aI2
aI1
aa(lp106
I2
aI0
aI1
aa(lp107
I0
aI2
aI1
aa(lp108
I1
aI0
aI2
aa(lp109
I1
aI2
aI0
aa(lp110
I1
aI0
aI2
aa(lp111
I1
aI0
aI2
aa(lp112
I0
aI2
aI1
aa(lp113
I1
aI0
aI2
aa(lp114
I2
aI0
aI1
aa(lp115
I1
aI0
aI2
aa(lp116
I1
aI2
aI0
aa(lp117
I1
aI0
aI2
aa(lp118
I1
aI2
aI0
aa(lp119
I2
aI0
aI1
aa(lp120
I1
aI2
aI0
aa(lp121
I2
aI1
aI0
aa(lp122
I1
aI2
aI0
aa(lp123
I2
aI0
aI1
aa(lp124
I2
aI1
aI0
aa(lp125
I2
aI0
aI1
aa(lp126
I1
aI0
aI2
aa(lp127
I0
aI1
aI2
aa(lp128
I0
aI1
aI2
aa(lp129
I1
aI2
aI0
aa(lp130
I1
aI0
aI2
aasS'PCMC'
p131
g2
(g3
(I0
tp132
g5
tp133
Rp134
(I1
(I6
tp135
g12
I00
S'2J\x8e\x02\xc4g\xf7?\xbc*&\xd9\xd3\xf6R?\x0e`\xb5\x92\x88h\xdc?V\x10\x82qz(\xda?\xfc\xa9\xf1\xd2MbP?\xc0\xa7\xbe/\xe1\x03\xea?'
p136
tp137
bsS'PL'
p138
g2
(g3
(I0
tp139
g5
tp140
Rp141
(I1
(I3
tp142
g12
I00
S'CBi\xc2\xe4\xee\xc7?V\xf2\xa3J\x0f\xcd\xe1?7z\x83\ton\xd0?'
p143
tp144
bsS'Mallows-greedy-RE'
p145
((lp146
I0
aI2
aI1
ag34
(g12
S'c7S\x8bl\x10\xf2?'
p147
tp148
Rp149
tp150
s.