(dp0
S'PCMC-RE'
p1
cnumpy.core.multiarray
_reconstruct
p2
(cnumpy
ndarray
p3
(I0
tp4
S'b'
p5
tp6
Rp7
(I1
(I6
tp8
cnumpy
dtype
p9
(S'f8'
p10
I0
I1
tp11
Rp12
(I3
S'<'
p13
NNNI-1
I-1
I0
tp14
bI00
S"\xfc\xa9\xf1\xd2MbP?+\xee\x04'nY\xf0?\xec\x9d\xf6\x8f\xc2/p?\xb0 \xc6\xbaF\x11\x08@\x97_\x15t1\xcf\xe9?\xf3\xc9{4:m\xf2?"
p15
tp16
bsS'MMNL-RE'
p17
g2
(g3
(I0
tp18
g5
tp19
Rp20
(I1
(I4
tp21
g12
I00
S'\x00\x00\x00\x00\x00\x00\xf0?#\xfd\x8b\xd3\xa3!\xf2?\x9f?h\x0c3\x01\xdc?\x97\x11\xf7\x99\xa7\x11\xf5?'
p22
tp23
bsS'PL-RE'
p24
g2
(g3
(I0
tp25
g5
tp26
Rp27
(I1
(I3
tp28
g12
I00
S'\x8b\xf5\xb9Q\xc3\x1d\xd9?\x82:\x92}\x83e\xc3?3\xed|\xefz/\xdd?'
p29
tp30
bsS'N'
p31
I3
sS'Mallows-greedy'
p32
((lp33
I1
aI0
aI2
acnumpy.core.multiarray
scalar
p34
(g12
S'\x0b\x03\xadz\xea\x93\xf1?'
p35
tp36
Rp37
tp38
sS'MMNL'
p39
g2
(g3
(I0
tp40
g5
tp41
Rp42
(I1
(I4
tp43
g12
I00
S'\x00\x00\x00\x00\x00\x00\xf0?`n\r+r,\xe2?\xd9\xa4\x18c\xf2\x9a\xf4?l\xf0_8\xdf\xe4\xde?'
p44
tp45
bsS'test-lists'
p46
(lp47
(lp48
I1
aI2
aI0
aa(lp49
I1
aI2
aI0
aa(lp50
I1
aI2
aI0
aa(lp51
I2
aI1
aI0
aa(lp52
I2
aI0
aI1
aa(lp53
I1
aI0
aI2
aa(lp54
I1
aI2
aI0
aa(lp55
I1
aI0
aI2
aa(lp56
I1
aI2
aI0
aa(lp57
I2
aI1
aI0
aa(lp58
I2
aI1
aI0
aa(lp59
I1
aI2
aI0
aa(lp60
I0
aI1
aI2
aa(lp61
I1
aI0
aI2
aa(lp62
I1
aI0
aI2
aa(lp63
I0
aI2
aI1
aa(lp64
I2
aI0
aI1
aa(lp65
I0
aI1
aI2
aa(lp66
I1
aI0
aI2
aa(lp67
I1
aI0
aI2
aa(lp68
I1
aI0
aI2
aa(lp69
I1
aI2
aI0
aa(lp70
I1
aI2
aI0
aa(lp71
I0
aI2
aI1
aa(lp72
I2
aI1
aI0
aa(lp73
I2
aI0
aI1
aa(lp74
I1
aI2
aI0
aa(lp75
I2
aI1
aI0
aa(lp76
I1
aI0
aI2
aa(lp77
I2
aI0
aI1
aa(lp78
I1
aI2
aI0
aa(lp79
I1
aI2
aI0
aa(lp80
I1
aI0
aI2
aa(lp81
I1
aI2
aI0
aa(lp82
I0
aI2
aI1
aa(lp83
I0
aI1
aI2
aa(lp84
I1
aI0
aI2
aa(lp85
I1
aI0
aI2
aa(lp86
I1
aI0
aI2
aa(lp87
I1
aI2
aI0
aa(lp88
I1
aI2
aI0
aa(lp89
I1
aI2
aI0
aa(lp90
I1
aI0
aI2
aa(lp91
I0
aI2
aI1
aa(lp92
I1
aI0
aI2
aa(lp93
I1
aI2
aI0
aa(lp94
I2
aI1
aI0
aa(lp95
I0
aI1
aI2
aa(lp96
I1
aI2
aI0
aa(lp97
I1
aI2
aI0
aa(lp98
I0
aI2
aI1
aa(lp99
I1
aI2
aI0
aa(lp100
I1
aI0
aI2
aa(lp101
I2
aI0
aI1
aa(lp102
I1
aI0
aI2
aa(lp103
I1
aI2
aI0
aa(lp104
I1
aI0
aI2
aa(lp105
I0
aI2
aI1
aa(lp106
I1
aI0
aI2
aa(lp107
I0
aI2
aI1
aa(lp108
I1
aI2
aI0
aa(lp109
I1
aI0
aI2
aa(lp110
I1
aI0
aI2
aa(lp111
I1
aI2
aI0
aa(lp112
I1
aI2
aI0
aa(lp113
I2
aI1
aI0
aa(lp114
I1
aI2
aI0
aa(lp115
I1
aI0
aI2
aa(lp116
I1
aI2
aI0
aa(lp117
I0
aI1
aI2
aa(lp118
I1
aI2
aI0
aa(lp119
I1
aI2
aI0
aa(lp120
I1
aI0
aI2
aa(lp121
I2
aI1
aI0
aa(lp122
I1
aI0
aI2
aa(lp123
I1
aI2
aI0
aa(lp124
I0
aI2
aI1
aa(lp125
I2
aI0
aI1
aa(lp126
I1
aI2
aI0
aa(lp127
I0
aI2
aI1
aa(lp128
I1
aI0
aI2
aa(lp129
I2
aI0
aI1
aa(lp130
I1
aI2
aI0
aa(lp131
I0
aI2
aI1
aa(lp132
I1
aI2
aI0
aa(lp133
I1
aI2
aI0
aa(lp134
I2
aI0
aI1
aa(lp135
I2
aI1
aI0
aa(lp136
I2
aI0
aI1
aa(lp137
I1
aI2
aI0
aa(lp138
I1
aI2
aI0
aa(lp139
I1
aI2
aI0
aa(lp140
I1
aI0
aI2
aa(lp141
I1
aI2
aI0
aa(lp142
I1
aI0
aI2
aa(lp143
I1
aI2
aI0
aa(lp144
I2
aI1
aI0
aa(lp145
I0
aI2
aI1
aa(lp146
I1
aI0
aI2
aa(lp147
I2
aI0
aI1
aa(lp148
I1
aI2
aI0
aa(lp149
I2
aI0
aI1
aa(lp150
I1
aI2
aI0
aa(lp151
I1
aI2
aI0
aa(lp152
I1
aI2
aI0
aa(lp153
I1
aI2
aI0
aa(lp154
I1
aI0
aI2
aa(lp155
I1
aI2
aI0
aa(lp156
I1
aI0
aI2
aa(lp157
I1
aI2
aI0
aa(lp158
I0
aI1
aI2
aa(lp159
I2
aI0
aI1
aa(lp160
I0
aI2
aI1
aa(lp161
I1
aI0
aI2
aa(lp162
I1
aI0
aI2
aasS'PCMC'
p163
g2
(g3
(I0
tp164
g5
tp165
Rp166
(I1
(I6
tp167
g12
I00
S'\xd6\xb6\xb6x\xb7E`@\x0c\x03+\xe5%#@@Yc\x15\x01\xe6\xe2H@\xcf\x18\xcb|\xa8\x1dS?+ \\\xe6\xd0ZE@\xfc\xa9\xf1\xd2MbP?'
p168
tp169
bsS'PL'
p170
g2
(g3
(I0
tp171
g5
tp172
Rp173
(I1
(I3
tp174
g12
I00
S'-\x14\x110\x17\x16\xcf?\xf9\t\xa7\xc0q\x9f\xe1?\xed\xc3R\xcd!l\xca?'
p175
tp176
bsS'Mallows-greedy-RE'
p177
((lp178
I2
aI0
aI1
ag34
(g12
S'\x0b\x03\xadz\xea\x93\xf1?'
p179
tp180
Rp181
tp182
s.