(dp0
S'PCMC-RE'
p1
cnumpy.core.multiarray
_reconstruct
p2
(cnumpy
ndarray
p3
(I0
tp4
S'b'
p5
tp6
Rp7
(I1
(I12
tp8
cnumpy
dtype
p9
(S'f8'
p10
I0
I1
tp11
Rp12
(I3
S'<'
p13
NNNI-1
I-1
I0
tp14
bI00
S"\x83\xdb\xdfud\xed\xce?\xf3\xd8N\xa8\xea\xa1\x9d?FXG\x8aO\xfd;@c0{\xad\xb8X\xc6?MZyWgf0@\x98D\x1f\xa6\xbfD\x1b@Q82\xb46\x8b\x90?JA+1\xc6Y'@\xa0\x19qG\x1eDT?B\x05K\xf1\xcb\x192@\xe4\x8f\x06\xde$\xd6&@\xfc\xa9\xf1\xd2MbP?"
p15
tp16
bsS'MMNL-RE'
p17
g2
(g3
(I0
tp18
g5
tp19
Rp20
(I1
(I10
tp21
g12
I00
S'c\xda\xf0sb"\xd9?\xce\x92\x07\xc6\xcen\xe3?\xe9\xe9\x11\xd2U\\\xf8>\xa3\x0ef\xa1Q\x02\xe5?\x13\xfb\xe5\xc9\xe1s\x0c?+\xef \xca\x1f\xe3\xf5?\xf1u+\xd1O2\xf7?y\x17\x14~\x84\xde\xc6?\x18\xec\xcc\xddd6\t?ah\x99\x05}s\xeb?'
p22
tp23
bsS'PL-RE'
p24
g2
(g3
(I0
tp25
g5
tp26
Rp27
(I1
(I4
tp28
g12
I00
S'k\xc2Y3Ab\xc2?A\x01z\t\xf9s\xd2?{6\xde\xd7I2\xd7?\x1c\xce\xf5\t9Q\xca?'
p29
tp30
bsS'N'
p31
I4
sS'Mallows-greedy'
p32
((lp33
I0
aI3
aI1
aI2
acnumpy.core.multiarray
scalar
p34
(g12
S'\xa9z\xe9\xe8\xa0b\xf0?'
p35
tp36
Rp37
tp38
sS'MMNL'
p39
g2
(g3
(I0
tp40
g5
tp41
Rp42
(I1
(I10
tp43
g12
I00
S'\r\xe3\xa7)k\xe8\xce?=\x07\x965\xe5E\xe8?E{i\x92\x13\xd3\xf9?\x10%]\xb3\x91\xdb\xe9?<,;\xd1I;\xa0? \x05\r\xe4\xeeH\xe8?\x95\xd6&\xe8\x0b.\x11>\x97\x95\x93\x86\xfa\xc9\xe4?\x16\x89w\xd64\xa1\xc7? \x19Oz\x1e\x1d\xef?'
p44
tp45
bsS'test-lists'
p46
(lp47
(lp48
I2
aI1
aI3
aI0
aa(lp49
I3
aI2
aI0
aI1
aa(lp50
I0
aI1
aI3
aI2
aa(lp51
I0
aI3
aI1
aI2
aa(lp52
I0
aI3
aI1
aI2
aa(lp53
I0
aI2
aI1
aI3
aa(lp54
I3
aI0
aI1
aI2
aa(lp55
I0
aI1
aI3
aI2
aa(lp56
I1
aI0
aI3
aI2
aa(lp57
I0
aI1
aI3
aI2
aa(lp58
I1
aI3
aI2
aI0
aa(lp59
I2
aI3
aI0
aI1
aa(lp60
I0
aI3
aI1
aI2
aa(lp61
I2
aI1
aI3
aI0
aa(lp62
I3
aI0
aI2
aI1
aa(lp63
I1
aI3
aI2
aI0
aa(lp64
I1
aI2
aI0
aI3
aa(lp65
I0
aI2
aI3
aI1
aa(lp66
I3
aI1
aI0
aI2
aa(lp67
I0
aI1
aI3
aI2
aa(lp68
I2
aI3
aI0
aI1
aa(lp69
I1
aI3
aI0
aI2
aa(lp70
I0
aI3
aI2
aI1
aa(lp71
I1
aI0
aI3
aI2
aa(lp72
I1
aI2
aI0
aI3
aa(lp73
I0
aI2
aI3
aI1
aa(lp74
I2
aI0
aI3
aI1
aa(lp75
I0
aI3
aI1
aI2
aa(lp76
I0
aI3
aI2
aI1
aa(lp77
I2
aI0
aI3
aI1
aa(lp78
I0
aI3
aI2
aI1
aa(lp79
I3
aI2
aI1
aI0
aa(lp80
I0
aI3
aI1
aI2
aa(lp81
I0
aI2
aI1
aI3
aa(lp82
I2
aI3
aI0
aI1
aa(lp83
I0
aI3
aI2
aI1
aa(lp84
I0
aI3
aI2
aI1
aa(lp85
I0
aI2
aI1
aI3
aa(lp86
I3
aI2
aI1
aI0
aa(lp87
I1
aI0
aI3
aI2
aa(lp88
I0
aI2
aI1
aI3
aa(lp89
I0
aI3
aI1
aI2
aa(lp90
I3
aI0
aI1
aI2
aa(lp91
I0
aI3
aI2
aI1
aa(lp92
I1
aI0
aI3
aI2
aa(lp93
I3
aI0
aI2
aI1
aa(lp94
I1
aI2
aI0
aI3
aa(lp95
I0
aI1
aI3
aI2
aa(lp96
I0
aI2
aI3
aI1
aa(lp97
I1
aI3
aI2
aI0
aa(lp98
I3
aI0
aI1
aI2
aa(lp99
I0
aI3
aI2
aI1
aa(lp100
I0
aI2
aI3
aI1
aa(lp101
I2
aI1
aI3
aI0
aa(lp102
I0
aI1
aI3
aI2
aa(lp103
I3
aI0
aI2
aI1
aa(lp104
I3
aI0
aI2
aI1
aa(lp105
I3
aI1
aI2
aI0
aa(lp106
I3
aI0
aI1
aI2
aa(lp107
I1
aI0
aI3
aI2
aa(lp108
I0
aI3
aI1
aI2
aa(lp109
I3
aI2
aI0
aI1
aa(lp110
I1
aI3
aI0
aI2
aa(lp111
I1
aI2
aI0
aI3
aa(lp112
I1
aI3
aI0
aI2
aa(lp113
I0
aI1
aI3
aI2
aa(lp114
I0
aI3
aI2
aI1
aa(lp115
I0
aI2
aI3
aI1
aa(lp116
I0
aI3
aI1
aI2
aa(lp117
I0
aI1
aI3
aI2
aa(lp118
I0
aI3
aI2
aI1
aa(lp119
I0
aI3
aI2
aI1
aa(lp120
I0
aI3
aI2
aI1
aa(lp121
I0
aI2
aI1
aI3
aa(lp122
I0
aI2
aI1
aI3
aa(lp123
I0
aI2
aI1
aI3
aa(lp124
I0
aI1
aI3
aI2
aa(lp125
I1
aI3
aI2
aI0
aa(lp126
I1
aI0
aI2
aI3
aa(lp127
I3
aI1
aI2
aI0
aa(lp128
I3
aI0
aI2
aI1
aa(lp129
I0
aI2
aI3
aI1
aa(lp130
I0
aI2
aI1
aI3
aa(lp131
I3
aI0
aI1
aI2
aasS'PCMC'
p132
g2
(g3
(I0
tp133
g5
tp134
Rp135
(I1
(I12
tp136
g12
I00
S'213y\x1a"\xd0?V%<\xb0\xd1\x01\xb7?\x81DkH\x0cv\xf0?\x91C\xdf\x02V\xcf\xdd?Be"^\xe5b\x96?\xd5\xac\xfb\x90h\xbc\xe6?\xde\xf0\xad\x1c\xf6\xab\xc9?\x05\xeb\xed\xf7\xe7\x17\xa5?\xac(\x1d\x83\xd7d\xa6?\xc6\xd4o\xe1]\xbd\xf9?\xd5\x01=\xc5Ny\xda?\xcc\xa6?k\xa5\x01\x95?'
p137
tp138
bsS'PL'
p139
g2
(g3
(I0
tp140
g5
tp141
Rp142
(I1
(I4
tp143
g12
I00
S'\xb0\xa8\x97\xd1\xe6\x9c\xd8?\xc2$\xaa\xf2\xd8\x9a\xc8?\xf5\xc2\xe7m\xf7\xcf\xc1?rc\x1f\xfe\xb0-\xd2?'
p144
tp145
bsS'Mallows-greedy-RE'
p146
((lp147
I2
aI1
aI3
aI0
ag34
(g12
S'\xa9z\xe9\xe8\xa0b\xf0?'
p148
tp149
Rp150
tp151
s.