(dp0
S'PCMC-RE'
p1
cnumpy.core.multiarray
_reconstruct
p2
(cnumpy
ndarray
p3
(I0
tp4
S'b'
p5
tp6
Rp7
(I1
(I12
tp8
cnumpy
dtype
p9
(S'f8'
p10
I0
I1
tp11
Rp12
(I3
S'<'
p13
NNNI-1
I-1
I0
tp14
bI00
S'Rvw\xf13\x04\xd8?\xde\x9d\xf1R\xcd\x0f\xd3?.\xfd\x08\x05\x9c1\xda?4.sMf\x80\xf6?9\x1bN\xe7\xec\xb2\xa0?\xdc\xd4\xc7^\x960\xfd?\xc3\x90\xd8\xc1\xd0\x7f\xeb?\xcb\x9dQ\xf3ra\xae?\xb7\xc8\xa39\x8b\x94\x96?\xd7\xe5\xe3\x10\xa92\xe2?\xefTi\xe9\xf5\x86\xdc?z\xd2\xc6w\xff\x80\x84?'
p15
tp16
bsS'MMNL-RE'
p17
g2
(g3
(I0
tp18
g5
tp19
Rp20
(I1
(I10
tp21
g12
I00
S"+\x91\xe7e\xf8-\x11>=\x90v\xff\xff\xff\xef?\xde\xb4Vl\x95s\xeb?AM?\x11gm\xf5?\x9aw\x92yx\xc9\xdd?\xc8\x8d\x96\xe3q&\xd8?[\xf2\xfb\xd9x$\xd1?\xfcR\xfb\x87\x99\x08\xd4?\x92\xf1\xa9'\xd6M\xe8?\xb7\x0e\xd9\xf0oV\xf2?"
p22
tp23
bsS'PL-RE'
p24
g2
(g3
(I0
tp25
g5
tp26
Rp27
(I1
(I4
tp28
g12
I00
S'\x85\xf5\xe2YA\xfd\xda?\x80\xb1E\xc5:k\xbe?\x90\xc4\xed\x84\xd6;\xb9?\xf8,\x90S\xfa\x18\xd7?'
p29
tp30
bsS'N'
p31
I4
sS'Mallows-greedy'
p32
((lp33
I1
aI2
aI3
aI0
acnumpy.core.multiarray
scalar
p34
(g12
S'+\x84\x0e\xdb\xd8<\xf2?'
p35
tp36
Rp37
tp38
sS'MMNL'
p39
g2
(g3
(I0
tp40
g5
tp41
Rp42
(I1
(I10
tp43
g12
I00
S'\x9a\x00\x1e0\xd8\x85\xdd?\xb3\xff\xf0\xe7\x13=\xe1?\x83\xb7\x06\x81\n\xa2\xf4>c*\xb6\xfdq\x1e\xe6?\xe3\xeb?\xc0\x91\\\x0e?r\x08\xf2\xaf5\xf5\n@\x04\xe3>NF\xad\x05@\x95\xd6&\xe8\x0b.\x11>\x91\x88\xa5W\x15M\xe7>K*xJ\xc8J\xef?'
p44
tp45
bsS'test-lists'
p46
(lp47
(lp48
I2
aI1
aI0
aI3
aa(lp49
I3
aI1
aI0
aI2
aa(lp50
I2
aI1
aI0
aI3
aa(lp51
I1
aI3
aI2
aI0
aa(lp52
I3
aI1
aI0
aI2
aa(lp53
I2
aI1
aI3
aI0
aa(lp54
I1
aI2
aI0
aI3
aa(lp55
I2
aI1
aI3
aI0
aa(lp56
I2
aI1
aI3
aI0
aa(lp57
I1
aI2
aI0
aI3
aa(lp58
I2
aI1
aI3
aI0
aa(lp59
I3
aI2
aI1
aI0
aa(lp60
I2
aI1
aI0
aI3
aa(lp61
I2
aI3
aI0
aI1
aa(lp62
I2
aI3
aI1
aI0
aa(lp63
I1
aI3
aI0
aI2
aa(lp64
I2
aI3
aI1
aI0
aa(lp65
I1
aI2
aI0
aI3
aa(lp66
I3
aI2
aI1
aI0
aa(lp67
I2
aI1
aI0
aI3
aa(lp68
I1
aI2
aI0
aI3
aa(lp69
I3
aI1
aI2
aI0
aa(lp70
I2
aI1
aI3
aI0
aa(lp71
I3
aI2
aI0
aI1
aa(lp72
I3
aI2
aI1
aI0
aa(lp73
I1
aI2
aI0
aI3
aa(lp74
I1
aI0
aI3
aI2
aa(lp75
I3
aI1
aI0
aI2
aa(lp76
I2
aI0
aI3
aI1
aa(lp77
I3
aI1
aI0
aI2
aa(lp78
I3
aI2
aI0
aI1
aa(lp79
I2
aI0
aI1
aI3
aa(lp80
I1
aI3
aI0
aI2
aa(lp81
I3
aI0
aI1
aI2
aa(lp82
I2
aI1
aI0
aI3
aa(lp83
I2
aI3
aI0
aI1
aa(lp84
I2
aI1
aI0
aI3
aa(lp85
I2
aI1
aI3
aI0
aa(lp86
I1
aI3
aI2
aI0
aa(lp87
I1
aI2
aI3
aI0
aa(lp88
I2
aI1
aI0
aI3
aa(lp89
I3
aI1
aI2
aI0
aa(lp90
I3
aI2
aI0
aI1
aa(lp91
I1
aI3
aI0
aI2
aa(lp92
I1
aI2
aI0
aI3
aa(lp93
I1
aI3
aI2
aI0
aa(lp94
I2
aI1
aI0
aI3
aa(lp95
I2
aI1
aI3
aI0
aa(lp96
I1
aI2
aI0
aI3
aa(lp97
I2
aI1
aI0
aI3
aa(lp98
I2
aI1
aI3
aI0
aa(lp99
I2
aI0
aI1
aI3
aa(lp100
I2
aI1
aI0
aI3
aa(lp101
I1
aI3
aI2
aI0
aa(lp102
I3
aI1
aI2
aI0
aa(lp103
I1
aI3
aI0
aI2
aa(lp104
I2
aI0
aI1
aI3
aa(lp105
I1
aI2
aI0
aI3
aa(lp106
I2
aI1
aI3
aI0
aa(lp107
I1
aI3
aI0
aI2
aa(lp108
I2
aI1
aI0
aI3
aa(lp109
I1
aI2
aI0
aI3
aa(lp110
I2
aI1
aI3
aI0
aa(lp111
I1
aI2
aI0
aI3
aa(lp112
I2
aI1
aI0
aI3
aa(lp113
I0
aI1
aI3
aI2
aa(lp114
I3
aI1
aI0
aI2
aa(lp115
I1
aI2
aI0
aI3
aa(lp116
I1
aI2
aI3
aI0
aa(lp117
I2
aI1
aI3
aI0
aa(lp118
I2
aI1
aI3
aI0
aa(lp119
I3
aI1
aI2
aI0
aa(lp120
I3
aI0
aI1
aI2
aa(lp121
I2
aI3
aI1
aI0
aa(lp122
I2
aI1
aI3
aI0
aa(lp123
I1
aI2
aI3
aI0
aa(lp124
I1
aI2
aI0
aI3
aa(lp125
I2
aI1
aI3
aI0
aa(lp126
I1
aI3
aI0
aI2
aa(lp127
I1
aI2
aI0
aI3
aa(lp128
I2
aI1
aI0
aI3
aa(lp129
I2
aI1
aI0
aI3
aa(lp130
I2
aI1
aI0
aI3
aa(lp131
I1
aI2
aI3
aI0
aa(lp132
I3
aI1
aI2
aI0
aa(lp133
I1
aI2
aI3
aI0
aa(lp134
I1
aI0
aI3
aI2
aa(lp135
I2
aI0
aI1
aI3
aa(lp136
I1
aI2
aI0
aI3
aa(lp137
I1
aI0
aI3
aI2
aa(lp138
I2
aI1
aI3
aI0
aa(lp139
I2
aI1
aI0
aI3
aa(lp140
I2
aI1
aI3
aI0
aa(lp141
I1
aI3
aI0
aI2
aa(lp142
I1
aI2
aI0
aI3
aa(lp143
I2
aI0
aI1
aI3
aa(lp144
I0
aI3
aI1
aI2
aa(lp145
I2
aI1
aI3
aI0
aasS'PCMC'
p146
g2
(g3
(I0
tp147
g5
tp148
Rp149
(I1
(I12
tp150
g12
I00
S'\x85\nJ\x9b\xf6\xff\xbf@TV\n/t_@@\xfe\xda j3\xa9y@i\x0c<\x9e\x8a\xce\x9b@M7w\xf6\xa3\x07\xc5@3\xd7\x8a\xe43\xd4\xa9@\xa9t\x8b&\xd4\xfa4@\xadv9\x94a$\xc2@\xb2t(\xd6^\x04a?"\xa0]:\xc3\x0f|@kM(\x8b\x1b\xd8\xc8@\xfc\xa9\xf1\xd2MbP?'
p151
tp152
bsS'PL'
p153
g2
(g3
(I0
tp154
g5
tp155
Rp156
(I1
(I4
tp157
g12
I00
S'\xcf\x92 g\xba*\xbf?\x87\xa2\xadj/D\xd9?B\n\x87\xeb\xe1\xd4\xd6?\x02]\x06 \x808\xc0?'
p158
tp159
bsS'Mallows-greedy-RE'
p160
((lp161
I0
aI3
aI1
aI2
ag34
(g12
S'\x04Xh%\x9d\x03\xf3?'
p162
tp163
Rp164
tp165
s.