(dp0
S'PCMC-RE'
p1
cnumpy.core.multiarray
_reconstruct
p2
(cnumpy
ndarray
p3
(I0
tp4
S'b'
p5
tp6
Rp7
(I1
(I6
tp8
cnumpy
dtype
p9
(S'f8'
p10
I0
I1
tp11
Rp12
(I3
S'<'
p13
NNNI-1
I-1
I0
tp14
bI00
S'\xb6\xce\xb7\x99\xd2P\xde?\x92\xe6\x95/\x93z\xde?$\xa0\xb5\xd3\xe2c\xe9?\t\x08JX\xed\x9bX?\xb7\x19\xba\xfea-\xf8?\xc1b.\x8bS^^?'
p15
tp16
bsS'MMNL-RE'
p17
g2
(g3
(I0
tp18
g5
tp19
Rp20
(I1
(I4
tp21
g12
I00
S'\x00\x00\x00\x00\x00\x00\xf0?W=\xca8\x1a\xbd\xf4?-<\x7f\xbb;j\xe6?\x0f^q\\\xf8R\xdd?'
p22
tp23
bsS'PL-RE'
p24
g2
(g3
(I0
tp25
g5
tp26
Rp27
(I1
(I3
tp28
g12
I00
S'K\x01\xf3\x8bq\xe5\xe0?m6\t\xdc\x10C\xd2?\xfb\x8d!\x18\x18\xe4\xc7?'
p29
tp30
bsS'N'
p31
I3
sS'Mallows-greedy'
p32
((lp33
I2
aI1
aI0
acnumpy.core.multiarray
scalar
p34
(g12
S'\x0e\xc1C2C\xc6\xf1?'
p35
tp36
Rp37
tp38
sS'MMNL'
p39
g2
(g3
(I0
tp40
g5
tp41
Rp42
(I1
(I4
tp43
g12
I00
S'\x00\x00\x00\x00\x00\x00\xf0?|\xef\xf9\x8d<\x88\xe0?\xbb\xb6\x94\ne\xa4\xec?\xfeigD\x96&\xf8?'
p44
tp45
bsS'test-lists'
p46
(lp47
(lp48
I1
aI0
aI2
aa(lp49
I2
aI1
aI0
aa(lp50
I2
aI1
aI0
aa(lp51
I2
aI1
aI0
aa(lp52
I2
aI1
aI0
aa(lp53
I0
aI1
aI2
aa(lp54
I1
aI2
aI0
aa(lp55
I2
aI0
aI1
aa(lp56
I0
aI1
aI2
aa(lp57
I1
aI0
aI2
aa(lp58
I1
aI2
aI0
aa(lp59
I2
aI1
aI0
aa(lp60
I0
aI2
aI1
aa(lp61
I2
aI1
aI0
aa(lp62
I2
aI1
aI0
aa(lp63
I2
aI1
aI0
aa(lp64
I2
aI1
aI0
aa(lp65
I2
aI0
aI1
aa(lp66
I0
aI2
aI1
aa(lp67
I0
aI2
aI1
aa(lp68
I2
aI0
aI1
aa(lp69
I0
aI2
aI1
aa(lp70
I1
aI2
aI0
aa(lp71
I0
aI2
aI1
aa(lp72
I1
aI0
aI2
aa(lp73
I1
aI2
aI0
aa(lp74
I0
aI2
aI1
aa(lp75
I2
aI0
aI1
aa(lp76
I2
aI1
aI0
aa(lp77
I2
aI1
aI0
aa(lp78
I2
aI1
aI0
aa(lp79
I2
aI1
aI0
aa(lp80
I0
aI1
aI2
aa(lp81
I2
aI1
aI0
aa(lp82
I2
aI1
aI0
aa(lp83
I2
aI0
aI1
aa(lp84
I2
aI1
aI0
aa(lp85
I1
aI2
aI0
aa(lp86
I0
aI1
aI2
aa(lp87
I2
aI0
aI1
aa(lp88
I1
aI0
aI2
aa(lp89
I1
aI2
aI0
aa(lp90
I2
aI0
aI1
aa(lp91
I2
aI1
aI0
aa(lp92
I1
aI2
aI0
aa(lp93
I2
aI0
aI1
aa(lp94
I0
aI2
aI1
aa(lp95
I1
aI2
aI0
aa(lp96
I0
aI2
aI1
aa(lp97
I1
aI2
aI0
aa(lp98
I2
aI0
aI1
aa(lp99
I1
aI2
aI0
aa(lp100
I1
aI2
aI0
aa(lp101
I2
aI0
aI1
aa(lp102
I2
aI1
aI0
aa(lp103
I2
aI0
aI1
aa(lp104
I2
aI0
aI1
aa(lp105
I0
aI2
aI1
aa(lp106
I1
aI2
aI0
aa(lp107
I0
aI2
aI1
aa(lp108
I2
aI1
aI0
aa(lp109
I0
aI2
aI1
aa(lp110
I2
aI0
aI1
aa(lp111
I2
aI0
aI1
aa(lp112
I1
aI2
aI0
aa(lp113
I2
aI0
aI1
aa(lp114
I2
aI0
aI1
aa(lp115
I2
aI0
aI1
aa(lp116
I2
aI1
aI0
aa(lp117
I0
aI2
aI1
aa(lp118
I1
aI2
aI0
aa(lp119
I2
aI1
aI0
aa(lp120
I1
aI2
aI0
aa(lp121
I2
aI1
aI0
aa(lp122
I2
aI0
aI1
aa(lp123
I1
aI2
aI0
aa(lp124
I1
aI2
aI0
aa(lp125
I2
aI0
aI1
aa(lp126
I2
aI1
aI0
aa(lp127
I1
aI2
aI0
aa(lp128
I2
aI0
aI1
aa(lp129
I1
aI0
aI2
aa(lp130
I0
aI1
aI2
aa(lp131
I2
aI1
aI0
aa(lp132
I1
aI2
aI0
aa(lp133
I2
aI0
aI1
aa(lp134
I2
aI1
aI0
aa(lp135
I2
aI1
aI0
aa(lp136
I0
aI2
aI1
aa(lp137
I0
aI2
aI1
aa(lp138
I1
aI0
aI2
aa(lp139
I1
aI2
aI0
aa(lp140
I0
aI1
aI2
aa(lp141
I1
aI2
aI0
aa(lp142
I1
aI0
aI2
aa(lp143
I1
aI2
aI0
aa(lp144
I2
aI0
aI1
aa(lp145
I2
aI0
aI1
aa(lp146
I0
aI2
aI1
aa(lp147
I2
aI0
aI1
aa(lp148
I2
aI1
aI0
aa(lp149
I2
aI1
aI0
aa(lp150
I1
aI0
aI2
aa(lp151
I1
aI0
aI2
aa(lp152
I2
aI1
aI0
aa(lp153
I0
aI1
aI2
aa(lp154
I2
aI1
aI0
aa(lp155
I2
aI1
aI0
aa(lp156
I0
aI2
aI1
aa(lp157
I2
aI0
aI1
aa(lp158
I1
aI2
aI0
aa(lp159
I1
aI2
aI0
aa(lp160
I2
aI0
aI1
aa(lp161
I2
aI1
aI0
aa(lp162
I1
aI2
aI0
aa(lp163
I2
aI0
aI1
aa(lp164
I2
aI1
aI0
aa(lp165
I2
aI0
aI1
aa(lp166
I1
aI2
aI0
aa(lp167
I2
aI1
aI0
aa(lp168
I2
aI0
aI1
aa(lp169
I0
aI1
aI2
aa(lp170
I1
aI0
aI2
aa(lp171
I0
aI2
aI1
aa(lp172
I2
aI0
aI1
aa(lp173
I2
aI1
aI0
aa(lp174
I1
aI2
aI0
aa(lp175
I0
aI1
aI2
aa(lp176
I2
aI0
aI1
aa(lp177
I1
aI2
aI0
aa(lp178
I0
aI2
aI1
aa(lp179
I2
aI0
aI1
aa(lp180
I2
aI0
aI1
aa(lp181
I2
aI1
aI0
aa(lp182
I1
aI0
aI2
aa(lp183
I1
aI2
aI0
aa(lp184
I1
aI2
aI0
aa(lp185
I0
aI1
aI2
aa(lp186
I1
aI2
aI0
aa(lp187
I2
aI0
aI1
aa(lp188
I2
aI1
aI0
aa(lp189
I2
aI0
aI1
aa(lp190
I1
aI0
aI2
aasS'PCMC'
p191
g2
(g3
(I0
tp192
g5
tp193
Rp194
(I1
(I6
tp195
g12
I00
S']r\xf4\x13\xceVc?\xe2J\xe2\xc7\xdfq\xf3?\xc4e\xb0zl\xf4Z?[\x80\xe9A\x99\xa7\xeb?\xe9V\xc1j\x9a\x8a\xd8?*\xf5.\xa5\x9a(\xe1?'
p196
tp197
bsS'PL'
p198
g2
(g3
(I0
tp199
g5
tp200
Rp201
(I1
(I3
tp202
g12
I00
S'ek]\xd3`\xa3\xc6?n;K\xb6D\x9c\xd3?p\x07\x03p\x05\x89\xe0?'
p203
tp204
bsS'Mallows-greedy-RE'
p205
((lp206
I0
aI1
aI2
ag34
(g12
S'\x0e\xc1C2C\xc6\xf1?'
p207
tp208
Rp209
tp210
s.