(dp0
S'PCMC-RE'
p1
cnumpy.core.multiarray
_reconstruct
p2
(cnumpy
ndarray
p3
(I0
tp4
S'b'
p5
tp6
Rp7
(I1
(I6
tp8
cnumpy
dtype
p9
(S'f8'
p10
I0
I1
tp11
Rp12
(I3
S'<'
p13
NNNI-1
I-1
I0
tp14
bI00
S'\\\xb6\xcfu\x19v\x92@$\xea\x8b\xe8n\x18#@\xbccsK\x91\xee\xb0@\x95\x02\x07$\x1d\xe9f@TL\xfaK\xc2"A@\x90w\xa3H\x89m\x85@'
p15
tp16
bsS'MMNL-RE'
p17
g2
(g3
(I0
tp18
g5
tp19
Rp20
(I1
(I4
tp21
g12
I00
S'\x00\x00\x00\x00\x00\x00\xf0?\xaa\xe4\xa2\x1c7\xfd\x03@\x8djV\xacJy\xe8?/{\xae\xe7x\x05\xce?'
p22
tp23
bsS'PL-RE'
p24
g2
(g3
(I0
tp25
g5
tp26
Rp27
(I1
(I3
tp28
g12
I00
S'\xf4\x97J\xeb\x9b\xdb\xe6?\x17G\xb0\x96s\xfc\xcb?<\xb2Jx9*\xb1?'
p29
tp30
bsS'N'
p31
I3
sS'Mallows-greedy'
p32
((lp33
I2
aI1
aI0
acnumpy.core.multiarray
scalar
p34
(g12
S'\x8f\xf7\x89 \xa7\x87\xfb?'
p35
tp36
Rp37
tp38
sS'MMNL'
p39
g2
(g3
(I0
tp40
g5
tp41
Rp42
(I1
(I4
tp43
g12
I00
S'\x00\x00\x00\x00\x00\x00\xf0?\xd36\x14\xad?r\xbd?\xf8\x92\xd5=z\x12\xda?#\x13\xe6\xe8Q\x84\xf4?'
p44
tp45
bsS'test-lists'
p46
(lp47
(lp48
I1
aI2
aI0
aa(lp49
I2
aI0
aI1
aa(lp50
I2
aI1
aI0
aa(lp51
I2
aI1
aI0
aa(lp52
I2
aI1
aI0
aa(lp53
I1
aI2
aI0
aa(lp54
I2
aI1
aI0
aa(lp55
I2
aI0
aI1
aa(lp56
I1
aI2
aI0
aa(lp57
I2
aI1
aI0
aa(lp58
I1
aI0
aI2
aa(lp59
I2
aI1
aI0
aa(lp60
I1
aI2
aI0
aa(lp61
I2
aI1
aI0
aa(lp62
I1
aI2
aI0
aa(lp63
I2
aI1
aI0
aa(lp64
I2
aI1
aI0
aa(lp65
I1
aI2
aI0
aa(lp66
I2
aI0
aI1
aa(lp67
I2
aI1
aI0
aa(lp68
I1
aI2
aI0
aa(lp69
I2
aI1
aI0
aa(lp70
I1
aI2
aI0
aa(lp71
I2
aI0
aI1
aa(lp72
I2
aI0
aI1
aa(lp73
I2
aI1
aI0
aa(lp74
I1
aI2
aI0
aa(lp75
I2
aI1
aI0
aa(lp76
I1
aI2
aI0
aa(lp77
I1
aI2
aI0
aa(lp78
I1
aI2
aI0
aa(lp79
I0
aI2
aI1
aa(lp80
I2
aI1
aI0
aa(lp81
I2
aI1
aI0
aa(lp82
I1
aI2
aI0
aa(lp83
I2
aI1
aI0
aa(lp84
I2
aI1
aI0
aa(lp85
I0
aI1
aI2
aa(lp86
I2
aI1
aI0
aa(lp87
I2
aI0
aI1
aa(lp88
I2
aI1
aI0
aa(lp89
I2
aI1
aI0
aa(lp90
I1
aI0
aI2
aa(lp91
I2
aI1
aI0
aa(lp92
I2
aI1
aI0
aa(lp93
I2
aI1
aI0
aa(lp94
I2
aI1
aI0
aa(lp95
I2
aI0
aI1
aa(lp96
I2
aI1
aI0
aa(lp97
I2
aI0
aI1
aa(lp98
I2
aI1
aI0
aa(lp99
I0
aI1
aI2
aa(lp100
I2
aI1
aI0
aa(lp101
I1
aI2
aI0
aa(lp102
I2
aI1
aI0
aa(lp103
I0
aI2
aI1
aa(lp104
I2
aI1
aI0
aa(lp105
I2
aI1
aI0
aa(lp106
I2
aI1
aI0
aa(lp107
I2
aI1
aI0
aa(lp108
I1
aI2
aI0
aa(lp109
I2
aI1
aI0
aa(lp110
I2
aI0
aI1
aa(lp111
I1
aI2
aI0
aa(lp112
I0
aI2
aI1
aa(lp113
I2
aI0
aI1
aa(lp114
I2
aI1
aI0
aa(lp115
I2
aI0
aI1
aa(lp116
I2
aI1
aI0
aa(lp117
I2
aI1
aI0
aa(lp118
I2
aI1
aI0
aa(lp119
I2
aI1
aI0
aa(lp120
I1
aI2
aI0
aa(lp121
I2
aI1
aI0
aa(lp122
I2
aI1
aI0
aa(lp123
I1
aI0
aI2
aa(lp124
I2
aI1
aI0
aa(lp125
I2
aI1
aI0
aa(lp126
I2
aI1
aI0
aa(lp127
I2
aI1
aI0
aa(lp128
I2
aI0
aI1
aa(lp129
I2
aI1
aI0
aa(lp130
I2
aI1
aI0
aa(lp131
I0
aI1
aI2
aa(lp132
I2
aI1
aI0
aa(lp133
I1
aI2
aI0
aa(lp134
I1
aI2
aI0
aa(lp135
I1
aI2
aI0
aa(lp136
I0
aI2
aI1
aa(lp137
I2
aI1
aI0
aa(lp138
I2
aI0
aI1
aa(lp139
I2
aI0
aI1
aa(lp140
I1
aI0
aI2
aa(lp141
I1
aI2
aI0
aa(lp142
I2
aI1
aI0
aa(lp143
I2
aI0
aI1
aa(lp144
I2
aI1
aI0
aa(lp145
I0
aI2
aI1
aa(lp146
I2
aI1
aI0
aa(lp147
I2
aI1
aI0
aa(lp148
I2
aI1
aI0
aa(lp149
I2
aI1
aI0
aa(lp150
I2
aI1
aI0
aa(lp151
I2
aI1
aI0
aa(lp152
I2
aI1
aI0
aa(lp153
I1
aI2
aI0
aa(lp154
I2
aI1
aI0
aa(lp155
I2
aI1
aI0
aasS'PCMC'
p156
g2
(g3
(I0
tp157
g5
tp158
Rp159
(I1
(I6
tp160
g12
I00
S'\xd1\xea\xb1\xf1\x12\x02\x98?\xbb\xab\xe9\x1a\xe7\xfa\x87?~h\x18J\xd8\x81v?\x7f\xbf\x9e\x87\x1d\xe6\n@\x08\x10\xccp\x01\xb0`?\xbf\xf5\x86c\xfd\x97\xee?'
p161
tp162
bsS'PL'
p163
g2
(g3
(I0
tp164
g5
tp165
Rp166
(I1
(I3
tp167
g12
I00
S'\x08\xb2#R\xfeP\xb0?\xbf&\x10s\xbe\xe4\xcc?\x0f\x80\xf7\x98\xb0\xbc\xe6?'
p168
tp169
bsS'Mallows-greedy-RE'
p170
((lp171
I0
aI1
aI2
ag34
(g12
S'\x8f\xf7\x89 \xa7\x87\xfb?'
p172
tp173
Rp174
tp175
s.