(dp0
S'PCMC-RE'
p1
cnumpy.core.multiarray
_reconstruct
p2
(cnumpy
ndarray
p3
(I0
tp4
S'b'
p5
tp6
Rp7
(I1
(I6
tp8
cnumpy
dtype
p9
(S'f8'
p10
I0
I1
tp11
Rp12
(I3
S'<'
p13
NNNI-1
I-1
I0
tp14
bI00
S'\xfc\xa9\xf1\xd2MbP?\xee\xc0au\xd1\x1bJ@\xbf\xba\x8d5\xa5\x04b?\xcc\xa6Xv\x0bPs@\xac6\xda.\xa8\x8d\x80@\xf8At\xad\x05\xe2e@'
p15
tp16
bsS'MMNL-RE'
p17
g2
(g3
(I0
tp18
g5
tp19
Rp20
(I1
(I4
tp21
g12
I00
S'\x00\x00\x00\x00\x00\x00\xf0?9/m\xbb\x8c\xe0\x05@\x1el\xa1v,\xcc\xc7?a\xc8\xa6?\x02\xe2\xd3?'
p22
tp23
bsS'PL-RE'
p24
g2
(g3
(I0
tp25
g5
tp26
Rp27
(I1
(I3
tp28
g12
I00
S"A?[\xad\x05\x15\xeb?\xb8\x15\xfd\xc7\x9cu\xad?\x19{'1\x04\x9d\xb8?"
p29
tp30
bsS'N'
p31
I3
sS'Mallows-greedy'
p32
((lp33
I1
aI2
aI0
acnumpy.core.multiarray
scalar
p34
(g12
S'\xab\xa0\x8bdc\xcb\xfb?'
p35
tp36
Rp37
tp38
sS'MMNL'
p39
g2
(g3
(I0
tp40
g5
tp41
Rp42
(I1
(I4
tp43
g12
I00
S'\x00\x00\x00\x00\x00\x00\xf0?r\xbe\x9f]\x06\x1a\xbb?\xd3\xd3\x17\x02\xde*\xf9?B\xe2\xd8f\xe5\xc9\xed?'
p44
tp45
bsS'test-lists'
p46
(lp47
(lp48
I2
aI1
aI0
aa(lp49
I1
aI0
aI2
aa(lp50
I1
aI2
aI0
aa(lp51
I1
aI2
aI0
aa(lp52
I1
aI2
aI0
aa(lp53
I2
aI1
aI0
aa(lp54
I2
aI1
aI0
aa(lp55
I2
aI1
aI0
aa(lp56
I1
aI0
aI2
aa(lp57
I1
aI2
aI0
aa(lp58
I0
aI2
aI1
aa(lp59
I1
aI2
aI0
aa(lp60
I2
aI1
aI0
aa(lp61
I1
aI2
aI0
aa(lp62
I2
aI0
aI1
aa(lp63
I1
aI2
aI0
aa(lp64
I2
aI1
aI0
aa(lp65
I1
aI2
aI0
aa(lp66
I1
aI2
aI0
aa(lp67
I1
aI2
aI0
aa(lp68
I1
aI2
aI0
aa(lp69
I2
aI1
aI0
aa(lp70
I2
aI1
aI0
aa(lp71
I2
aI1
aI0
aa(lp72
I1
aI2
aI0
aa(lp73
I1
aI2
aI0
aa(lp74
I1
aI2
aI0
aa(lp75
I1
aI2
aI0
aa(lp76
I1
aI2
aI0
aa(lp77
I1
aI2
aI0
aa(lp78
I2
aI1
aI0
aa(lp79
I1
aI2
aI0
aa(lp80
I1
aI2
aI0
aa(lp81
I1
aI2
aI0
aa(lp82
I2
aI1
aI0
aa(lp83
I2
aI0
aI1
aa(lp84
I1
aI2
aI0
aa(lp85
I1
aI0
aI2
aa(lp86
I1
aI2
aI0
aa(lp87
I0
aI1
aI2
aa(lp88
I1
aI2
aI0
aa(lp89
I2
aI1
aI0
aa(lp90
I2
aI1
aI0
aa(lp91
I1
aI2
aI0
aa(lp92
I1
aI2
aI0
aa(lp93
I1
aI2
aI0
aa(lp94
I2
aI1
aI0
aa(lp95
I0
aI1
aI2
aa(lp96
I1
aI2
aI0
aa(lp97
I1
aI0
aI2
aa(lp98
I2
aI1
aI0
aa(lp99
I2
aI1
aI0
aa(lp100
I1
aI2
aI0
aa(lp101
I2
aI1
aI0
aa(lp102
I2
aI0
aI1
aa(lp103
I1
aI2
aI0
aa(lp104
I1
aI2
aI0
aa(lp105
I2
aI0
aI1
aa(lp106
I1
aI2
aI0
aa(lp107
I1
aI2
aI0
aa(lp108
I1
aI2
aI0
aa(lp109
I1
aI2
aI0
aa(lp110
I1
aI2
aI0
aa(lp111
I2
aI1
aI0
aa(lp112
I2
aI1
aI0
aa(lp113
I1
aI2
aI0
aa(lp114
I1
aI2
aI0
aa(lp115
I1
aI2
aI0
aa(lp116
I2
aI1
aI0
aa(lp117
I1
aI2
aI0
aa(lp118
I1
aI2
aI0
aa(lp119
I1
aI0
aI2
aa(lp120
I1
aI2
aI0
aa(lp121
I1
aI2
aI0
aa(lp122
I1
aI2
aI0
aa(lp123
I2
aI1
aI0
aa(lp124
I1
aI2
aI0
aa(lp125
I2
aI1
aI0
aa(lp126
I1
aI2
aI0
aa(lp127
I1
aI2
aI0
aa(lp128
I2
aI1
aI0
aa(lp129
I2
aI1
aI0
aa(lp130
I1
aI0
aI2
aa(lp131
I1
aI2
aI0
aa(lp132
I2
aI1
aI0
aa(lp133
I2
aI1
aI0
aa(lp134
I1
aI2
aI0
aa(lp135
I1
aI2
aI0
aa(lp136
I1
aI2
aI0
aa(lp137
I1
aI2
aI0
aa(lp138
I2
aI1
aI0
aa(lp139
I2
aI1
aI0
aa(lp140
I2
aI1
aI0
aa(lp141
I2
aI1
aI0
aa(lp142
I2
aI1
aI0
aa(lp143
I2
aI1
aI0
aa(lp144
I2
aI1
aI0
aa(lp145
I1
aI2
aI0
aasS'PCMC'
p146
g2
(g3
(I0
tp147
g5
tp148
Rp149
(I1
(I6
tp150
g12
I00
S"\xce\xe5\x8a\x9dP\xf8\xd1?\xe2^\xfaz&\xa0\xfc?\x90\xed\xb6\xd3\xbed\x9b?\x95\xe1\x98\xc9\x96\xec\xda?('\xca\x8bB\x1f\xc7?r\x01<\xde\xab\xf0\xe7?"
p151
tp152
bsS'PL'
p153
g2
(g3
(I0
tp154
g5
tp155
Rp156
(I1
(I3
tp157
g12
I00
S'\x1b\xb7\xd4\xf5\x0c\xc5\xa4?\xe1\xbc\xc2%\x94I\xe3?Z\xef\xbf\x156\xd4\xd6?'
p158
tp159
bsS'Mallows-greedy-RE'
p160
((lp161
I0
aI2
aI1
ag34
(g12
S'\xab\xa0\x8bdc\xcb\xfb?'
p162
tp163
Rp164
tp165
s.