(dp0
S'PCMC-RE'
p1
cnumpy.core.multiarray
_reconstruct
p2
(cnumpy
ndarray
p3
(I0
tp4
S'b'
p5
tp6
Rp7
(I1
(I6
tp8
cnumpy
dtype
p9
(S'f8'
p10
I0
I1
tp11
Rp12
(I3
S'<'
p13
NNNI-1
I-1
I0
tp14
bI00
S'\x90 \xa7\xc0\xb7K\xe2?|\xc2\xcb\xbcJ\x9d\xe4?\xce\xe5\xe3\x0b3\xf6\xe5?\xfc\xa9\xf1\xd2MbP?\xc1\xd4\xa1\xad\xa9\xe1\xfd?=\x19\x01Y\xd5\xa9t?'
p15
tp16
bsS'MMNL-RE'
p17
g2
(g3
(I0
tp18
g5
tp19
Rp20
(I1
(I4
tp21
g12
I00
S'\x00\x00\x00\x00\x00\x00\xf0?\x91\xba\x15^VL\xf5?!{\x0f\ts|\xf3?\x0b\x88\xa8\x99\xfa;\xd9?'
p22
tp23
bsS'PL-RE'
p24
g2
(g3
(I0
tp25
g5
tp26
Rp27
(I1
(I3
tp28
g12
I00
S'Ub8\x1d\xd3\xf1\xdc?\xec\x94l\r_{\xda?\x7f\x11\xb6\xaa\x9b%\xc1?'
p29
tp30
bsS'N'
p31
I3
sS'Mallows-greedy'
p32
((lp33
I2
aI1
aI0
acnumpy.core.multiarray
scalar
p34
(g12
S'\xb5P\x9f}\xaa$\xf2?'
p35
tp36
Rp37
tp38
sS'MMNL'
p39
g2
(g3
(I0
tp40
g5
tp41
Rp42
(I1
(I4
tp43
g12
I00
S'\x00\x00\x00\x00\x00\x00\xf0?Q\xcb?By\xd6\xcc?\xa0\xb5\xfen6\xea\xcf?\xean\xa1.f@\xe5?'
p44
tp45
bsS'test-lists'
p46
(lp47
(lp48
I1
aI0
aI2
aa(lp49
I2
aI0
aI1
aa(lp50
I2
aI1
aI0
aa(lp51
I2
aI1
aI0
aa(lp52
I2
aI1
aI0
aa(lp53
I2
aI1
aI0
aa(lp54
I2
aI1
aI0
aa(lp55
I1
aI2
aI0
aa(lp56
I2
aI0
aI1
aa(lp57
I2
aI0
aI1
aa(lp58
I2
aI1
aI0
aa(lp59
I2
aI1
aI0
aa(lp60
I0
aI1
aI2
aa(lp61
I2
aI0
aI1
aa(lp62
I1
aI0
aI2
aa(lp63
I2
aI1
aI0
aa(lp64
I1
aI2
aI0
aa(lp65
I0
aI1
aI2
aa(lp66
I0
aI1
aI2
aa(lp67
I2
aI1
aI0
aa(lp68
I1
aI0
aI2
aa(lp69
I2
aI0
aI1
aa(lp70
I2
aI1
aI0
aa(lp71
I2
aI0
aI1
aa(lp72
I1
aI0
aI2
aa(lp73
I1
aI0
aI2
aa(lp74
I2
aI1
aI0
aa(lp75
I2
aI0
aI1
aa(lp76
I2
aI1
aI0
aa(lp77
I1
aI0
aI2
aa(lp78
I2
aI0
aI1
aa(lp79
I1
aI0
aI2
aa(lp80
I2
aI0
aI1
aa(lp81
I2
aI1
aI0
aa(lp82
I2
aI0
aI1
aa(lp83
I2
aI1
aI0
aa(lp84
I2
aI0
aI1
aa(lp85
I2
aI1
aI0
aa(lp86
I0
aI1
aI2
aa(lp87
I1
aI2
aI0
aa(lp88
I2
aI0
aI1
aa(lp89
I0
aI2
aI1
aa(lp90
I2
aI1
aI0
aa(lp91
I2
aI1
aI0
aa(lp92
I2
aI1
aI0
aa(lp93
I1
aI0
aI2
aa(lp94
I2
aI1
aI0
aa(lp95
I2
aI1
aI0
aa(lp96
I2
aI1
aI0
aa(lp97
I2
aI1
aI0
aa(lp98
I2
aI0
aI1
aa(lp99
I2
aI1
aI0
aa(lp100
I2
aI1
aI0
aa(lp101
I1
aI0
aI2
aa(lp102
I2
aI1
aI0
aa(lp103
I2
aI1
aI0
aa(lp104
I2
aI1
aI0
aa(lp105
I1
aI2
aI0
aa(lp106
I2
aI0
aI1
aa(lp107
I2
aI1
aI0
aa(lp108
I2
aI0
aI1
aa(lp109
I0
aI2
aI1
aa(lp110
I2
aI0
aI1
aa(lp111
I2
aI1
aI0
aa(lp112
I0
aI1
aI2
aa(lp113
I2
aI1
aI0
aa(lp114
I2
aI0
aI1
aa(lp115
I1
aI0
aI2
aa(lp116
I1
aI2
aI0
aa(lp117
I2
aI0
aI1
aa(lp118
I1
aI0
aI2
aa(lp119
I0
aI2
aI1
aasS'PCMC'
p120
g2
(g3
(I0
tp121
g5
tp122
Rp123
(I1
(I6
tp124
g12
I00
S'\x03m\x1d\xfc\xafe\xf1?\xfc\xa9\xf1\xd2MbP?\xbf\x17\x98\x03D\xe0\xeb?\xdcO\x1cfdU\x08@>\x859\xb8\xf0\xceU?\xf5\xcdc\x97dN\xef?'
p125
tp126
bsS'PL'
p127
g2
(g3
(I0
tp128
g5
tp129
Rp130
(I1
(I3
tp131
g12
I00
S'\xd1\xdbb\xf0\x02S\xc9?\x06\xa5\xc7\x1b\xc6\x06\xcc?\xca_\xf5\xbc\x8d\xa9\xe2?'
p132
tp133
bsS'Mallows-greedy-RE'
p134
((lp135
I0
aI1
aI2
ag34
(g12
S'\xb5P\x9f}\xaa$\xf2?'
p136
tp137
Rp138
tp139
s.