(dp0
S'PCMC-RE'
p1
cnumpy.core.multiarray
_reconstruct
p2
(cnumpy
ndarray
p3
(I0
tp4
S'b'
p5
tp6
Rp7
(I1
(I12
tp8
cnumpy
dtype
p9
(S'f8'
p10
I0
I1
tp11
Rp12
(I3
S'<'
p13
NNNI-1
I-1
I0
tp14
bI00
S'\xb6Lh\xc3\xa8\xef\x9f?\xdev\xa8\xb5~K\xfd?6n\xde\x0e\x0eJ\xa2?{\xaf\x03o\xd4\x95\x81?\xac\t\xa4\xad\xba\xd2\xd4?CEB\x1e\xa0\x0c\xb3?\xec\x8e:\xa2L\r\xd1?\x91)\t\xdf\x08j\xf2?\xa1\x1c\xf5rO\xcb\xcc?\xdcM\xa7\x10\x9d\xcb\x96?\xf2~U\xf4\x82_\xd4?\x8a\xc8Dg6q\xd7?'
p15
tp16
bsS'MMNL-RE'
p17
g2
(g3
(I0
tp18
g5
tp19
Rp20
(I1
(I10
tp21
g12
I00
S'Q\x86\x03F=G\xe5?^\xf3\xf8s\x85q\xd5?Q\xbc\x07\x07\x0f\x0b\xd0?\xd8\x92u\xec\x847\xdf>x^9X\x0bd\xfc?b\x9b\xe0a1[\xfd?X\x9bx<9\x1e\xe6?33GUc\xbe\xd0?9)a\x1e\xbd\xaa\xea?J<\x91D\xadg\xce>'
p22
tp23
bsS'PL-RE'
p24
g2
(g3
(I0
tp25
g5
tp26
Rp27
(I1
(I4
tp28
g12
I00
S"~\x0f\x84\xb2\xd6\x1d\xa8? Dt '/\xe4?\x85\x93K\x8f>i\xca?9\xb0\x84\x84^\xa5\xbd?"
p29
tp30
bsS'N'
p31
I4
sS'Mallows-greedy'
p32
((lp33
I0
aI3
aI2
aI1
acnumpy.core.multiarray
scalar
p34
(g12
S'\xa4\xeeK)\xb4\x99\xf8?'
p35
tp36
Rp37
tp38
sS'MMNL'
p39
g2
(g3
(I0
tp40
g5
tp41
Rp42
(I1
(I10
tp43
g12
I00
S';\x941\xd5\x11+\xda?\xe35g\x15w\xea\xe2?\xb7R\xca}\xe5\x81\xd7?l\x9e\xf1nf?\x05@b\xa8\x9ai\x15\xd4\xd1?\xd54x\xfel)\xec>\xa2T\x83\xacP\x8e\xe5?|\x99F\xb1\xe0\xd8\x13?Vb\xd1\xac\x99\x18\x02@\xe5\xcaZ\xc6\xa8\xab\x02?'
p44
tp45
bsS'test-lists'
p46
(lp47
(lp48
I0
aI3
aI2
aI1
aa(lp49
I0
aI2
aI3
aI1
aa(lp50
I0
aI2
aI3
aI1
aa(lp51
I0
aI3
aI1
aI2
aa(lp52
I3
aI0
aI2
aI1
aa(lp53
I0
aI2
aI3
aI1
aa(lp54
I0
aI2
aI3
aI1
aa(lp55
I0
aI2
aI3
aI1
aa(lp56
I0
aI3
aI2
aI1
aa(lp57
I3
aI0
aI1
aI2
aa(lp58
I2
aI0
aI3
aI1
aa(lp59
I0
aI3
aI2
aI1
aa(lp60
I0
aI3
aI2
aI1
aa(lp61
I0
aI1
aI3
aI2
aa(lp62
I3
aI1
aI2
aI0
aa(lp63
I0
aI3
aI2
aI1
aa(lp64
I2
aI0
aI1
aI3
aa(lp65
I0
aI3
aI1
aI2
aa(lp66
I3
aI0
aI1
aI2
aa(lp67
I0
aI2
aI3
aI1
aa(lp68
I0
aI1
aI2
aI3
aa(lp69
I0
aI2
aI3
aI1
aa(lp70
I0
aI3
aI1
aI2
aa(lp71
I0
aI3
aI2
aI1
aa(lp72
I0
aI3
aI2
aI1
aa(lp73
I0
aI2
aI3
aI1
aa(lp74
I0
aI2
aI3
aI1
aa(lp75
I0
aI3
aI2
aI1
aa(lp76
I0
aI2
aI3
aI1
aa(lp77
I0
aI2
aI1
aI3
aa(lp78
I3
aI0
aI1
aI2
aa(lp79
I3
aI0
aI2
aI1
aa(lp80
I0
aI3
aI2
aI1
aa(lp81
I2
aI0
aI3
aI1
aa(lp82
I0
aI2
aI3
aI1
aa(lp83
I0
aI2
aI3
aI1
aa(lp84
I0
aI3
aI1
aI2
aa(lp85
I3
aI0
aI2
aI1
aa(lp86
I0
aI3
aI1
aI2
aa(lp87
I3
aI2
aI0
aI1
aa(lp88
I3
aI0
aI1
aI2
aa(lp89
I0
aI3
aI2
aI1
aa(lp90
I0
aI3
aI1
aI2
aa(lp91
I0
aI3
aI2
aI1
aa(lp92
I0
aI3
aI2
aI1
aa(lp93
I3
aI0
aI2
aI1
aa(lp94
I2
aI0
aI1
aI3
aa(lp95
I0
aI3
aI2
aI1
aa(lp96
I3
aI2
aI0
aI1
aa(lp97
I3
aI0
aI2
aI1
aa(lp98
I0
aI3
aI1
aI2
aa(lp99
I0
aI2
aI1
aI3
aa(lp100
I3
aI0
aI2
aI1
aa(lp101
I0
aI2
aI1
aI3
aa(lp102
I0
aI2
aI3
aI1
aa(lp103
I0
aI2
aI3
aI1
aa(lp104
I0
aI3
aI2
aI1
aa(lp105
I0
aI3
aI2
aI1
aa(lp106
I0
aI3
aI2
aI1
aa(lp107
I0
aI3
aI1
aI2
aa(lp108
I0
aI2
aI1
aI3
aa(lp109
I2
aI0
aI3
aI1
aa(lp110
I0
aI3
aI2
aI1
aa(lp111
I2
aI3
aI0
aI1
aa(lp112
I0
aI2
aI1
aI3
aa(lp113
I0
aI2
aI3
aI1
aa(lp114
I0
aI2
aI1
aI3
aa(lp115
I0
aI2
aI3
aI1
aa(lp116
I3
aI1
aI0
aI2
aa(lp117
I0
aI3
aI1
aI2
aa(lp118
I2
aI0
aI3
aI1
aa(lp119
I0
aI3
aI1
aI2
aa(lp120
I3
aI2
aI0
aI1
aa(lp121
I3
aI2
aI1
aI0
aa(lp122
I0
aI3
aI2
aI1
aa(lp123
I3
aI0
aI2
aI1
aasS'PCMC'
p124
g2
(g3
(I0
tp125
g5
tp126
Rp127
(I1
(I12
tp128
g12
I00
S'\x05]aWR\xaf\xb9?\xd98.e\xe7r\xc0?\xfa-\x92\x9a\x11[\xd7?\x91\xed\xae\x1f\xb0\xdb\xea?\xe8\xf8\xdf\n\xcd3\xed?\xf1\xf7\x85\xad6g\xe5?\x84\x18\xfcm\xed\x84\xef?1%\x88\xc1NO\xcd?\xcf\xf1\x05\x92;IZ?A:f\x10\xb7\xfb\xe8?\x99U\x8d\xfdp\x92\xc2?\x86Jf\x9e>\xf0n?'
p129
tp130
bsS'PL'
p131
g2
(g3
(I0
tp132
g5
tp133
Rp134
(I1
(I4
tp135
g12
I00
S'\x13\xb7\xbe\xaa>Q\xe3?\xdfpK\xc2\xc5\xdc\xa5?\x92E}\xaa\xf7\x8a\xc2?\xe5\x01\xf59\xdc\xb8\xca?'
p136
tp137
bsS'Mallows-greedy-RE'
p138
((lp139
I1
aI2
aI3
aI0
ag34
(g12
S'\xa4\xeeK)\xb4\x99\xf8?'
p140
tp141
Rp142
tp143
s.