(dp0
S'PCMC-RE'
p1
cnumpy.core.multiarray
_reconstruct
p2
(cnumpy
ndarray
p3
(I0
tp4
S'b'
p5
tp6
Rp7
(I1
(I6
tp8
cnumpy
dtype
p9
(S'f8'
p10
I0
I1
tp11
Rp12
(I3
S'<'
p13
NNNI-1
I-1
I0
tp14
bI00
S'\xa2\xef)\x17}\xf8Q@\xe2\xe3PW\xd2h\xa5?\xb8Q*S\xdc#0@\xb0y\x10\xf6\xf6\xbf:@\xde\xef\x8a\x8ax|\x9b?{\x86s!~\xa0K@'
p15
tp16
bsS'MMNL-RE'
p17
g2
(g3
(I0
tp18
g5
tp19
Rp20
(I1
(I4
tp21
g12
I00
S'\x00\x00\x00\x00\x00\x00\xf0?\xa0B\xfd\xe0\xf75\xd1?.\x7f\x92\x892\xad\xf1?\x85\x15J!\xe2\x15\xdf?'
p22
tp23
bsS'PL-RE'
p24
g2
(g3
(I0
tp25
g5
tp26
Rp27
(I1
(I3
tp28
g12
I00
S'\xc4!\xd8\xe0\x17\x83\xc2?C=\xec(V\x03\xe3?\x9ct\xbb\xbd\xc7\xb7\xd0?'
p29
tp30
bsS'N'
p31
I3
sS'Mallows-greedy'
p32
((lp33
I0
aI2
aI1
acnumpy.core.multiarray
scalar
p34
(g12
S'\x15\xd1\xc6\xba\xe2=\xf4?'
p35
tp36
Rp37
tp38
sS'MMNL'
p39
g2
(g3
(I0
tp40
g5
tp41
Rp42
(I1
(I4
tp43
g12
I00
S'\x00\x00\x00\x00\x00\x00\xf0?\te\x0e\x80+\xd8\xf5?5\xb6\xbc)\x1c\xc3\xd6?\xe3\xc0\x9e\x8d\x172\xe6?'
p44
tp45
bsS'test-lists'
p46
(lp47
(lp48
I0
aI2
aI1
aa(lp49
I0
aI2
aI1
aa(lp50
I0
aI2
aI1
aa(lp51
I2
aI0
aI1
aa(lp52
I0
aI1
aI2
aa(lp53
I0
aI2
aI1
aa(lp54
I0
aI2
aI1
aa(lp55
I0
aI1
aI2
aa(lp56
I0
aI2
aI1
aa(lp57
I0
aI1
aI2
aa(lp58
I2
aI0
aI1
aa(lp59
I2
aI1
aI0
aa(lp60
I2
aI0
aI1
aa(lp61
I2
aI0
aI1
aa(lp62
I0
aI2
aI1
aa(lp63
I2
aI1
aI0
aa(lp64
I0
aI2
aI1
aa(lp65
I0
aI2
aI1
aa(lp66
I2
aI0
aI1
aa(lp67
I2
aI1
aI0
aa(lp68
I0
aI2
aI1
aa(lp69
I2
aI0
aI1
aa(lp70
I0
aI1
aI2
aa(lp71
I2
aI1
aI0
aa(lp72
I2
aI0
aI1
aa(lp73
I2
aI0
aI1
aa(lp74
I2
aI0
aI1
aa(lp75
I0
aI1
aI2
aa(lp76
I2
aI0
aI1
aa(lp77
I0
aI2
aI1
aa(lp78
I1
aI2
aI0
aa(lp79
I2
aI0
aI1
aa(lp80
I0
aI2
aI1
aa(lp81
I0
aI2
aI1
aa(lp82
I2
aI0
aI1
aa(lp83
I0
aI1
aI2
aa(lp84
I0
aI2
aI1
aa(lp85
I2
aI0
aI1
aa(lp86
I0
aI1
aI2
aa(lp87
I0
aI2
aI1
aa(lp88
I0
aI2
aI1
aa(lp89
I2
aI1
aI0
aa(lp90
I2
aI1
aI0
aa(lp91
I1
aI2
aI0
aa(lp92
I0
aI2
aI1
aa(lp93
I0
aI2
aI1
aa(lp94
I2
aI0
aI1
aa(lp95
I2
aI1
aI0
aa(lp96
I2
aI1
aI0
aa(lp97
I2
aI0
aI1
aa(lp98
I0
aI1
aI2
aa(lp99
I1
aI0
aI2
aa(lp100
I0
aI2
aI1
aa(lp101
I0
aI2
aI1
aa(lp102
I0
aI2
aI1
aa(lp103
I0
aI2
aI1
aa(lp104
I2
aI0
aI1
aa(lp105
I2
aI1
aI0
aa(lp106
I2
aI0
aI1
aa(lp107
I0
aI2
aI1
aa(lp108
I2
aI0
aI1
aa(lp109
I2
aI1
aI0
aa(lp110
I0
aI2
aI1
aa(lp111
I0
aI2
aI1
aa(lp112
I1
aI0
aI2
aa(lp113
I0
aI2
aI1
aa(lp114
I0
aI2
aI1
aa(lp115
I2
aI0
aI1
aa(lp116
I0
aI2
aI1
aa(lp117
I0
aI1
aI2
aa(lp118
I0
aI1
aI2
aa(lp119
I2
aI0
aI1
aa(lp120
I0
aI1
aI2
aa(lp121
I0
aI2
aI1
aa(lp122
I1
aI0
aI2
aa(lp123
I0
aI2
aI1
aa(lp124
I1
aI0
aI2
aa(lp125
I0
aI2
aI1
aa(lp126
I0
aI1
aI2
aa(lp127
I1
aI2
aI0
aa(lp128
I0
aI2
aI1
aasS'PCMC'
p129
g2
(g3
(I0
tp130
g5
tp131
Rp132
(I1
(I6
tp133
g12
I00
S'\xcc\xd3+\xdc\x03\x01\xd1?D\xb8\xc1\xc8\xef\xad\xe3?\xc9\xa3\xaeT\x11\x10\xf3?\xfenX$k\x91Y?\x04H\xe2)\x8fo\xf1?\xfc\xa9\xf1\xd2MbP?'
p134
tp135
bsS'PL'
p136
g2
(g3
(I0
tp137
g5
tp138
Rp139
(I1
(I3
tp140
g12
I00
S'\xfb\x8a\xb1\x84\x0f\x18\xe2?\x9d\x11\x15\xca\xaa\xda\xc2??a\x92\x91\x8bb\xd2?'
p141
tp142
bsS'Mallows-greedy-RE'
p143
((lp144
I1
aI2
aI0
ag34
(g12
S'\x15\xd1\xc6\xba\xe2=\xf4?'
p145
tp146
Rp147
tp148
s.