(dp0
S'PCMC-RE'
p1
cnumpy.core.multiarray
_reconstruct
p2
(cnumpy
ndarray
p3
(I0
tp4
S'b'
p5
tp6
Rp7
(I1
(I12
tp8
cnumpy
dtype
p9
(S'f8'
p10
I0
I1
tp11
Rp12
(I3
S'<'
p13
NNNI-1
I-1
I0
tp14
bI00
S'\x9eAW\xb3y\xc1\xd3?oM\x8e}&\xc5\xc1??\xe1\xab\xc0\x87\xb7\xdf?\xe2%\xbf\x9c\xa9\x89\xf8?\t%\x1c\x1a&\xea\x98?\x11Mt1T\xbf\xe1? \xd4s\xe0\xa8\xcf\xd5?\x1f7zG\xd1\x9b\x95?\x08\x8f\xd7\xb7\x8a!j?\xfa$\xc5\xd82_\xea?b\x9cx\xa5K\xc0\xc2?S\xbc\x94\xfd9\xe2a?'
p15
tp16
bsS'MMNL-RE'
p17
g2
(g3
(I0
tp18
g5
tp19
Rp20
(I1
(I10
tp21
g12
I00
S'%\xd2\xc08l\xfe\xd4?\xee\x96\x9f\xe3\xc9\x80\xe5?\xda\x91\xb6IR$\xee?\xba\xab\x93\xb2w\xe2\xe8?\xfa\x8d\xe03O\xf6\xe5>\xba{\xb1\xef\x86=\xcf?\x95\t]M\x1a\xeb\xd0>\xa9\x88\xd8YK\x13\xdf?\x0b&\xf9QJ\xbb\xe7?\xfa&c\x8d\xff\xc9\xd9?'
p22
tp23
bsS'PL-RE'
p24
g2
(g3
(I0
tp25
g5
tp26
Rp27
(I1
(I4
tp28
g12
I00
S'\x9cO\xd1\xe6\n\x02\xdd?\xab\xfe\xb2\x8e\xd0A\xb9?\xda\x1b\xba\x16\r\xe6\xc2?\xcb\xe2$jz:\xd3?'
p29
tp30
bsS'N'
p31
I4
sS'Mallows-greedy'
p32
((lp33
I1
aI2
aI3
aI0
acnumpy.core.multiarray
scalar
p34
(g12
S'J\xd1\x1a\xfe]Y\xf3?'
p35
tp36
Rp37
tp38
sS'MMNL'
p39
g2
(g3
(I0
tp40
g5
tp41
Rp42
(I1
(I10
tp43
g12
I00
S'\xa4R\xc8\xd1\xd0\n\xd9?\xae\xd6\x1b\x97\x97z\xe3?\xdb\xafFb\xf7\xfa\xdf?\xad\xd6\\\t\xcf,\xab?\xd6\x8cJ\xab\xe6\xf6\xec?\xe4Q\xb0\x93\x05^\xf1?\x95\xd6&\xe8\x0b.\x11>\xb4\xc5b\x18\xaf\x0f\xf3?\x15=\xa9\xae.<\xe8? \x1e\x98\r\xa0\x03\xb4?'
p44
tp45
bsS'test-lists'
p46
(lp47
(lp48
I3
aI1
aI2
aI0
aa(lp49
I2
aI1
aI3
aI0
aa(lp50
I1
aI2
aI0
aI3
aa(lp51
I2
aI1
aI0
aI3
aa(lp52
I1
aI3
aI2
aI0
aa(lp53
I1
aI0
aI3
aI2
aa(lp54
I1
aI2
aI3
aI0
aa(lp55
I0
aI1
aI3
aI2
aa(lp56
I2
aI3
aI1
aI0
aa(lp57
I1
aI2
aI3
aI0
aa(lp58
I0
aI2
aI1
aI3
aa(lp59
I2
aI1
aI0
aI3
aa(lp60
I1
aI2
aI0
aI3
aa(lp61
I1
aI2
aI3
aI0
aa(lp62
I1
aI3
aI0
aI2
aa(lp63
I1
aI0
aI3
aI2
aa(lp64
I1
aI0
aI3
aI2
aa(lp65
I2
aI3
aI1
aI0
aa(lp66
I2
aI1
aI3
aI0
aa(lp67
I1
aI0
aI3
aI2
aa(lp68
I2
aI3
aI1
aI0
aa(lp69
I2
aI3
aI0
aI1
aa(lp70
I3
aI1
aI0
aI2
aa(lp71
I2
aI1
aI0
aI3
aa(lp72
I1
aI2
aI0
aI3
aa(lp73
I1
aI2
aI0
aI3
aa(lp74
I1
aI2
aI3
aI0
aa(lp75
I3
aI0
aI1
aI2
aa(lp76
I1
aI0
aI2
aI3
aa(lp77
I3
aI1
aI0
aI2
aa(lp78
I1
aI2
aI0
aI3
aa(lp79
I1
aI3
aI2
aI0
aa(lp80
I1
aI3
aI0
aI2
aa(lp81
I1
aI2
aI3
aI0
aa(lp82
I2
aI1
aI3
aI0
aa(lp83
I0
aI1
aI3
aI2
aa(lp84
I1
aI2
aI0
aI3
aa(lp85
I1
aI0
aI2
aI3
aa(lp86
I2
aI1
aI0
aI3
aa(lp87
I1
aI2
aI0
aI3
aa(lp88
I0
aI3
aI1
aI2
aa(lp89
I1
aI2
aI0
aI3
aa(lp90
I1
aI3
aI0
aI2
aa(lp91
I2
aI1
aI3
aI0
aa(lp92
I2
aI0
aI3
aI1
aa(lp93
I2
aI1
aI0
aI3
aa(lp94
I1
aI0
aI3
aI2
aa(lp95
I2
aI3
aI1
aI0
aa(lp96
I2
aI0
aI1
aI3
aa(lp97
I2
aI1
aI3
aI0
aa(lp98
I1
aI3
aI2
aI0
aa(lp99
I1
aI3
aI2
aI0
aa(lp100
I1
aI2
aI0
aI3
aa(lp101
I1
aI2
aI0
aI3
aa(lp102
I3
aI1
aI0
aI2
aa(lp103
I2
aI1
aI3
aI0
aa(lp104
I2
aI1
aI3
aI0
aa(lp105
I1
aI2
aI3
aI0
aa(lp106
I1
aI3
aI2
aI0
aa(lp107
I1
aI2
aI3
aI0
aa(lp108
I2
aI3
aI0
aI1
aa(lp109
I1
aI2
aI0
aI3
aa(lp110
I1
aI0
aI2
aI3
aa(lp111
I2
aI1
aI3
aI0
aa(lp112
I1
aI2
aI3
aI0
aa(lp113
I1
aI2
aI3
aI0
aa(lp114
I3
aI2
aI1
aI0
aa(lp115
I2
aI1
aI0
aI3
aa(lp116
I0
aI1
aI2
aI3
aa(lp117
I2
aI0
aI1
aI3
aa(lp118
I1
aI3
aI2
aI0
aa(lp119
I3
aI1
aI0
aI2
aa(lp120
I1
aI3
aI2
aI0
aa(lp121
I2
aI1
aI3
aI0
aa(lp122
I2
aI3
aI1
aI0
aa(lp123
I1
aI3
aI0
aI2
aa(lp124
I2
aI1
aI3
aI0
aa(lp125
I1
aI2
aI0
aI3
aa(lp126
I2
aI1
aI3
aI0
aa(lp127
I1
aI3
aI2
aI0
aa(lp128
I1
aI2
aI0
aI3
aa(lp129
I1
aI0
aI3
aI2
aa(lp130
I2
aI0
aI3
aI1
aa(lp131
I1
aI2
aI3
aI0
aa(lp132
I2
aI1
aI0
aI3
aa(lp133
I1
aI3
aI2
aI0
aa(lp134
I1
aI2
aI0
aI3
aa(lp135
I2
aI0
aI3
aI1
aa(lp136
I1
aI3
aI0
aI2
aa(lp137
I1
aI2
aI0
aI3
aa(lp138
I1
aI3
aI0
aI2
aa(lp139
I1
aI3
aI0
aI2
aa(lp140
I1
aI0
aI2
aI3
aa(lp141
I1
aI3
aI2
aI0
aa(lp142
I3
aI1
aI2
aI0
aa(lp143
I2
aI0
aI1
aI3
aa(lp144
I3
aI0
aI1
aI2
aa(lp145
I1
aI3
aI2
aI0
aasS'PCMC'
p146
g2
(g3
(I0
tp147
g5
tp148
Rp149
(I1
(I12
tp150
g12
I00
S'\r\xf7\t\x00\xefHW?\xb5\xea\xf1\xd1\xc3VU?{\xde\x89\xe1\x96\xd2\xeb?\xfc\xa9\xf1\xd2MbP?2\x19\x0b2\x85~\xf1?\xaf\x8dz?\x9c|\xd6?:\xa4\xb7\xde~\x96P?NJ\xd8\x8ar\x18\xfa?\x8a\x9eq\x85Q\xa0\xb4?\x1e\t[v\xda\xa5\xe0?I\x96\xaa|h\xbb\xf5?\x0c\xb8\x9agQ4\xc1?'
p151
tp152
bsS'PL'
p153
g2
(g3
(I0
tp154
g5
tp155
Rp156
(I1
(I4
tp157
g12
I00
S'\xcf\xd5.\xb0\xb2\x85\xbb?\xbb\xd9\x93\xd2\xf4x\xdd?Gn<\xa3\xcb\xd7\xd1?\x16\x05H\xbc\xa5\x9b\xc3?'
p158
tp159
bsS'Mallows-greedy-RE'
p160
((lp161
I0
aI3
aI2
aI1
ag34
(g12
S'J\xd1\x1a\xfe]Y\xf3?'
p162
tp163
Rp164
tp165
s.