(dp0
S'PCMC-RE'
p1
cnumpy.core.multiarray
_reconstruct
p2
(cnumpy
ndarray
p3
(I0
tp4
S'b'
p5
tp6
Rp7
(I1
(I12
tp8
cnumpy
dtype
p9
(S'f8'
p10
I0
I1
tp11
Rp12
(I3
S'<'
p13
NNNI-1
I-1
I0
tp14
bI00
S'\xfd8\x9e`m\x11\n@?\xf3V\xa7\x9d\x17K@\xa3\xe5\xc9\x949C\x0e@\x12\xefz\xbb<#\x12@7R@[\xe0\x1e\n@\xfc\xa9\xf1\xd2MbP?1i\x9fK\x08\xcaf@\xd53\xd7\xdaM\xc8\xf1?\xe3\xceX\xadG\x7f\x13@\xef\x8a \nW\x87#@\xde\xcf\xe1\xfe\xec Q?8\x9dh)\xfcp<@'
p15
tp16
bsS'MMNL-RE'
p17
g2
(g3
(I0
tp18
g5
tp19
Rp20
(I1
(I10
tp21
g12
I00
S'\x85\x80\xfc\x9d\xe2|\xdf?\xbd\xbf\x01\xb1\x8eA\xe0?U\xca\xa1,\x97\xeb\xf0?v(\x9f\xf3]\xa6\xe4?\x95\xd6&\xe8\x0b.\x11>\t\xd6\x985\xd0/\xed?86h\xac\xfau\x81?\xa8\xad\xfd\xf7\xa1+\xd9?\x95\xd6&\xe8\x0b.\x11>\x81&\x88&\x8c\xf9\xd2?'
p22
tp23
bsS'PL-RE'
p24
g2
(g3
(I0
tp25
g5
tp26
Rp27
(I1
(I4
tp28
g12
I00
S'^$\x01\xbc\xb8j\xe1?Wof\xdaD\x0b\xc2?c\x14\x86\x136\n\xce?\x9c\xd5\x1dDD\x7f\xb4?'
p29
tp30
bsS'N'
p31
I4
sS'Mallows-greedy'
p32
((lp33
I3
aI1
aI2
aI0
acnumpy.core.multiarray
scalar
p34
(g12
S'\x0c\xe9aB\xef*\xf5?'
p35
tp36
Rp37
tp38
sS'MMNL'
p39
g2
(g3
(I0
tp40
g5
tp41
Rp42
(I1
(I10
tp43
g12
I00
S'\x06\x10\xa5\xd9\xff)\xe7?\xf6\xdf\xb5L\x00\xac\xd1?\x96\xea\xc0\x82\xed\xac\xf4?\xd4\xf9\xb4\x0bx\x0b\xe7>,\xb3~\r8\xe7\xe5?&w\xee\x90\xc4\x1c+@2\x885\xe7\x08\xc6\x0f@\x11u\xce\xc5;\n7?Sf\xaf\xce\xbe\xf63@\x98s\xba\xe5J\x96\xda>'
p44
tp45
bsS'test-lists'
p46
(lp47
(lp48
I1
aI3
aI2
aI0
aa(lp49
I1
aI3
aI2
aI0
aa(lp50
I2
aI0
aI3
aI1
aa(lp51
I3
aI2
aI1
aI0
aa(lp52
I2
aI0
aI1
aI3
aa(lp53
I1
aI3
aI2
aI0
aa(lp54
I3
aI0
aI2
aI1
aa(lp55
I1
aI2
aI3
aI0
aa(lp56
I2
aI3
aI1
aI0
aa(lp57
I1
aI2
aI3
aI0
aa(lp58
I3
aI2
aI1
aI0
aa(lp59
I3
aI1
aI2
aI0
aa(lp60
I3
aI2
aI0
aI1
aa(lp61
I3
aI1
aI2
aI0
aa(lp62
I1
aI3
aI2
aI0
aa(lp63
I3
aI1
aI2
aI0
aa(lp64
I3
aI1
aI2
aI0
aa(lp65
I3
aI1
aI2
aI0
aa(lp66
I1
aI0
aI3
aI2
aa(lp67
I3
aI1
aI2
aI0
aa(lp68
I3
aI2
aI0
aI1
aa(lp69
I3
aI1
aI2
aI0
aa(lp70
I3
aI2
aI0
aI1
aa(lp71
I3
aI1
aI2
aI0
aa(lp72
I3
aI1
aI2
aI0
aa(lp73
I1
aI3
aI0
aI2
aa(lp74
I1
aI3
aI2
aI0
aa(lp75
I3
aI1
aI2
aI0
aa(lp76
I3
aI1
aI0
aI2
aa(lp77
I1
aI3
aI0
aI2
aa(lp78
I3
aI2
aI1
aI0
aa(lp79
I3
aI1
aI2
aI0
aa(lp80
I3
aI0
aI2
aI1
aa(lp81
I0
aI2
aI3
aI1
aa(lp82
I1
aI2
aI0
aI3
aa(lp83
I3
aI0
aI2
aI1
aa(lp84
I3
aI1
aI2
aI0
aa(lp85
I3
aI1
aI2
aI0
aa(lp86
I1
aI3
aI2
aI0
aa(lp87
I1
aI3
aI2
aI0
aa(lp88
I3
aI2
aI0
aI1
aa(lp89
I3
aI1
aI2
aI0
aa(lp90
I3
aI2
aI0
aI1
aa(lp91
I3
aI2
aI1
aI0
aa(lp92
I1
aI3
aI2
aI0
aa(lp93
I3
aI1
aI2
aI0
aa(lp94
I1
aI2
aI3
aI0
aa(lp95
I3
aI1
aI2
aI0
aa(lp96
I3
aI0
aI2
aI1
aa(lp97
I3
aI0
aI2
aI1
aa(lp98
I3
aI2
aI0
aI1
aa(lp99
I3
aI2
aI1
aI0
aa(lp100
I3
aI1
aI2
aI0
aa(lp101
I2
aI3
aI0
aI1
aa(lp102
I3
aI0
aI2
aI1
aa(lp103
I3
aI1
aI2
aI0
aa(lp104
I3
aI2
aI0
aI1
aa(lp105
I1
aI3
aI2
aI0
aa(lp106
I1
aI2
aI3
aI0
aa(lp107
I3
aI1
aI0
aI2
aa(lp108
I3
aI0
aI1
aI2
aa(lp109
I3
aI2
aI0
aI1
aa(lp110
I3
aI1
aI0
aI2
aa(lp111
I0
aI1
aI3
aI2
aa(lp112
I2
aI0
aI3
aI1
aa(lp113
I3
aI1
aI2
aI0
aa(lp114
I3
aI2
aI0
aI1
aa(lp115
I3
aI2
aI1
aI0
aa(lp116
I3
aI1
aI2
aI0
aa(lp117
I3
aI0
aI2
aI1
aa(lp118
I3
aI1
aI2
aI0
aa(lp119
I3
aI2
aI1
aI0
aa(lp120
I2
aI0
aI1
aI3
aa(lp121
I1
aI3
aI0
aI2
aa(lp122
I1
aI3
aI2
aI0
aa(lp123
I3
aI2
aI1
aI0
aasS'PCMC'
p124
g2
(g3
(I0
tp125
g5
tp126
Rp127
(I1
(I12
tp128
g12
I00
S'o\xbb($\x0f\xacb?9\xf5\x1d\xc7!\xb2\x87?~#\xd7\xbe\x12Pj?\xbb/\xf3\xbb\x1f\x97a?M{I*\xbbe\xa2?\xc9<\x98s\x1d\xd2\xf4?\xef\xa5<f*\xb7T?\xedF\x9f\xf5\xfeW\x9b?@\x1f\xc8\x84o[\x0b@\xfc\xa9\xf1\xd2MbP?\xad?;^\xb5\x96\xe8?I\x87\xcc\xbb0\xd2\xe9?'
p129
tp130
bsS'PL'
p131
g2
(g3
(I0
tp132
g5
tp133
Rp134
(I1
(I4
tp135
g12
I00
S'\xc4E\x8f\x89\x1f\xcc\xb1?\xffR\xea\x10\x93;\xca?ipH\xf7\xfb\xc1\xca?nf\xc1L\x18\x87\xe0?'
p136
tp137
bsS'Mallows-greedy-RE'
p138
((lp139
I0
aI2
aI1
aI3
ag34
(g12
S'\x0c\xe9aB\xef*\xf5?'
p140
tp141
Rp142
tp143
s.