(dp0
S'PCMC-RE'
p1
cnumpy.core.multiarray
_reconstruct
p2
(cnumpy
ndarray
p3
(I0
tp4
S'b'
p5
tp6
Rp7
(I1
(I12
tp8
cnumpy
dtype
p9
(S'f8'
p10
I0
I1
tp11
Rp12
(I3
S'<'
p13
NNNI-1
I-1
I0
tp14
bI00
S"h\xf7&\xbd\xb2p\xd1?\x956\xb1_*\xe3\xdb?\x1a\x8a\x13L\x8f\x95r?\xad\xd6\x90C\x83\x03\xae?\x1fD\xe3\xcc\xfd\x04\xe7?\xfc\xa9\xf1\xd2MbP?\x83\x1fa\xea\t\xb5\xb6?\xd1\xa8\x8b\x85Q\xd5\xde?5\xb6v\x16oWk?\x00w\xe5k'Bh?\xc4\xc6\xd8K?>b?\xf9\xd7p\xff\x81mg?"
p15
tp16
bsS'MMNL-RE'
p17
g2
(g3
(I0
tp18
g5
tp19
Rp20
(I1
(I10
tp21
g12
I00
S"$\xe0\xdc7@\xa8\xe2?\xb8?F\x90\x7f\xaf\xda?}<\xba\xf2\xce\xa1\xce?\xa4\x1c\x0e \xe4\x03\x93?\xaf[\xbb&y\x94\xed?+\xfcp\xeb]*\xc1?\xf2\x95\xf1\x84\xe7\xb5\xd0?\xee\xad'\x8b\xb8*\x00@\xa6\x19\x06j\xc1B\xf0?G\xc6f\xe7\nE{?"
p22
tp23
bsS'PL-RE'
p24
g2
(g3
(I0
tp25
g5
tp26
Rp27
(I1
(I4
tp28
g12
I00
S'\xa1\xdd\x10\xbb\x9bt\xb6?\xa0\x00S\x98/\xf8\xd3?R\xa982T\x94\xd9?L=`\x8d\xaa\xac\xc9?'
p29
tp30
bsS'N'
p31
I4
sS'Mallows-greedy'
p32
((lp33
I0
aI3
aI1
aI2
acnumpy.core.multiarray
scalar
p34
(g12
S'\xf3\xb2n>\xca\x06\xf3?'
p35
tp36
Rp37
tp38
sS'MMNL'
p39
g2
(g3
(I0
tp40
g5
tp41
Rp42
(I1
(I10
tp43
g12
I00
S"/\x92\xc4\xfd\xd6\xdb\xe0?\xa1\xdbv\x04RH\xde?\xbbx\xc6OJ\xa6\xf1?^\x8d>>-\xb4\xea?7:\xe6\xb0'i\xd1?n\xcd\xc2p\xeb\x87\xcd?o\xa9\x84\xc9\x03\xe6\xd5?\x95\xd6&\xe8\x0b.\x11>\r\x0c\xa3o\xb8\xf3\xa5?\x9a2j\xe4\x00V\xef?"
p44
tp45
bsS'test-lists'
p46
(lp47
(lp48
I3
aI0
aI1
aI2
aa(lp49
I1
aI3
aI0
aI2
aa(lp50
I0
aI1
aI3
aI2
aa(lp51
I1
aI3
aI2
aI0
aa(lp52
I0
aI3
aI1
aI2
aa(lp53
I2
aI1
aI0
aI3
aa(lp54
I0
aI1
aI3
aI2
aa(lp55
I2
aI0
aI1
aI3
aa(lp56
I2
aI3
aI0
aI1
aa(lp57
I3
aI0
aI1
aI2
aa(lp58
I3
aI0
aI1
aI2
aa(lp59
I0
aI3
aI1
aI2
aa(lp60
I2
aI3
aI1
aI0
aa(lp61
I0
aI1
aI3
aI2
aa(lp62
I0
aI2
aI1
aI3
aa(lp63
I0
aI3
aI1
aI2
aa(lp64
I0
aI2
aI1
aI3
aa(lp65
I0
aI1
aI3
aI2
aa(lp66
I0
aI1
aI3
aI2
aa(lp67
I0
aI3
aI1
aI2
aa(lp68
I0
aI3
aI2
aI1
aa(lp69
I3
aI1
aI0
aI2
aa(lp70
I0
aI3
aI1
aI2
aa(lp71
I1
aI0
aI3
aI2
aa(lp72
I0
aI1
aI2
aI3
aa(lp73
I3
aI0
aI2
aI1
aa(lp74
I0
aI3
aI1
aI2
aa(lp75
I0
aI3
aI1
aI2
aa(lp76
I0
aI3
aI1
aI2
aa(lp77
I0
aI3
aI2
aI1
aa(lp78
I2
aI0
aI1
aI3
aa(lp79
I3
aI0
aI1
aI2
aa(lp80
I0
aI1
aI2
aI3
aa(lp81
I3
aI2
aI0
aI1
aa(lp82
I3
aI1
aI0
aI2
aa(lp83
I1
aI0
aI2
aI3
aa(lp84
I0
aI1
aI3
aI2
aa(lp85
I0
aI3
aI1
aI2
aa(lp86
I3
aI0
aI1
aI2
aa(lp87
I3
aI0
aI1
aI2
aa(lp88
I0
aI1
aI2
aI3
aa(lp89
I0
aI1
aI3
aI2
aa(lp90
I0
aI2
aI1
aI3
aa(lp91
I0
aI3
aI1
aI2
aa(lp92
I0
aI3
aI2
aI1
aa(lp93
I0
aI1
aI2
aI3
aa(lp94
I0
aI2
aI3
aI1
aa(lp95
I0
aI3
aI1
aI2
aa(lp96
I3
aI0
aI2
aI1
aa(lp97
I0
aI2
aI1
aI3
aa(lp98
I3
aI0
aI1
aI2
aa(lp99
I3
aI0
aI1
aI2
aa(lp100
I3
aI2
aI1
aI0
aa(lp101
I2
aI1
aI0
aI3
aa(lp102
I1
aI2
aI3
aI0
aa(lp103
I3
aI0
aI1
aI2
aa(lp104
I3
aI1
aI0
aI2
aa(lp105
I0
aI1
aI2
aI3
aa(lp106
I0
aI3
aI1
aI2
aa(lp107
I0
aI1
aI2
aI3
aa(lp108
I2
aI3
aI0
aI1
aa(lp109
I3
aI1
aI2
aI0
aa(lp110
I2
aI1
aI3
aI0
aa(lp111
I3
aI1
aI0
aI2
aa(lp112
I0
aI3
aI1
aI2
aa(lp113
I0
aI3
aI1
aI2
aa(lp114
I0
aI3
aI2
aI1
aa(lp115
I0
aI1
aI2
aI3
aa(lp116
I0
aI3
aI1
aI2
aa(lp117
I1
aI0
aI2
aI3
aa(lp118
I0
aI3
aI1
aI2
aa(lp119
I3
aI0
aI1
aI2
aa(lp120
I0
aI1
aI3
aI2
aa(lp121
I0
aI2
aI1
aI3
aa(lp122
I1
aI0
aI3
aI2
aa(lp123
I0
aI1
aI2
aI3
aa(lp124
I0
aI1
aI2
aI3
aa(lp125
I0
aI1
aI3
aI2
aa(lp126
I0
aI3
aI1
aI2
aa(lp127
I0
aI2
aI1
aI3
aa(lp128
I0
aI3
aI1
aI2
aa(lp129
I3
aI0
aI1
aI2
aa(lp130
I0
aI1
aI2
aI3
aasS'PCMC'
p131
g2
(g3
(I0
tp132
g5
tp133
Rp134
(I1
(I12
tp135
g12
I00
S'\x01\x1a)\x10bw\xd7?pN\x03\xbceZ\xc1?\x9f\xc0?\xa5\xb0\xf5\xdb?\xae{l/\x84b\xf8?P\xf4\xaf\x95]\x19\x82?x\x94(\xad\x96W\xe1?\xc2\xa4Mn\x82,\xed?\rJ\xdag+t\x96?3\xbe]2\xf5\xf8\xe6?\x9d\xfaq\xd0y\xf4\xe7?Q\x1c\xd9\xbcL\x1d\xde?[\x99O\xc5\x9e\xd0\xe0?'
p136
tp137
bsS'PL'
p138
g2
(g3
(I0
tp139
g5
tp140
Rp141
(I1
(I4
tp142
g12
I00
S'\x0e\xec!\xfb\x0e\x1a\xe1?\xa5\x8dS\xdf\xca\xe5\xc4?i\xef\xdb\xd1E\x1f\xbb?o\xca6KV"\xc9?'
p143
tp144
bsS'Mallows-greedy-RE'
p145
((lp146
I2
aI1
aI3
aI0
ag34
(g12
S'\xf3\xb2n>\xca\x06\xf3?'
p147
tp148
Rp149
tp150
s.