(dp0
S'PCMC-RE'
p1
cnumpy.core.multiarray
_reconstruct
p2
(cnumpy
ndarray
p3
(I0
tp4
S'b'
p5
tp6
Rp7
(I1
(I12
tp8
cnumpy
dtype
p9
(S'f8'
p10
I0
I1
tp11
Rp12
(I3
S'<'
p13
NNNI-1
I-1
I0
tp14
bI00
S'w/\xfa;\x07\x11\xf4?\xb9\x18&\xeb\x02\\\xd1?7;\xc3\x1b-f\xdc?\xf8\xed\xb3\x1e\xb7\xfb\xec?\xe8\xf7\xf9\xe7\xaa\xf5`?1\xc8\x94\xeb\x81\x91\xdb?r1g]"\xaa\xef?0\x9f\x8a\xb6\x9c"m?\xb8h\x13%\x87V\xe7?\x1d\x08\xd4\xad6\xaa\xea?l\x10\xb0\xcf\xc9\x01\xe5?\xdfL$\xb4T\x92\xd3?'
p15
tp16
bsS'MMNL-RE'
p17
g2
(g3
(I0
tp18
g5
tp19
Rp20
(I1
(I10
tp21
g12
I00
S'\x8f\xc74\x93E\x1b\xe3?\xe3p\x96\xd9t\xc9\xd9?s\xf2n\xc0Q\xee\xf7?\xc8\x0c$\xeba\xce\x17?\xae\xd6\x1d\x8e\xca\x8d\xc9?,&\xe7\x8e\x06~\x10@6\xdc|\xb5\xf3\x94\xd8?@\x8a=\x08\xd1\xf3\xf9>r\x0c\xb4$XB\xee?\x17J\x07\xa5\xd2i\x0c?'
p22
tp23
bsS'PL-RE'
p24
g2
(g3
(I0
tp25
g5
tp26
Rp27
(I1
(I4
tp28
g12
I00
S'\x01\xb1\xdf9\x03}\xd4?\x11~3\x98\x95\x0b\xd8?\xb6u\x07-\xdd%\xb8?\xfe\xe6U\xc5\xdf\xdb\xca?'
p29
tp30
bsS'N'
p31
I4
sS'Mallows-greedy'
p32
((lp33
I2
aI3
aI0
aI1
acnumpy.core.multiarray
scalar
p34
(g12
S'\xb7a\xf9Qv\xc3\xf2?'
p35
tp36
Rp37
tp38
sS'MMNL'
p39
g2
(g3
(I0
tp40
g5
tp41
Rp42
(I1
(I10
tp43
g12
I00
S'X\x94\xdb\xf2/\x8a\xe0?Q\xd7H\x1a\xa0\xeb\xde?\xa7\x15E\xbb\x0bI7?/\xcd\x98\xf7\x07y\xf1?:<\xe8\xe9\xbe\xc7\x1b?\x82\xe4c\xf1\xd1\x06\xf3?\xf0\xc8\x01\xa7Jb\x0b@}\xbe\xba\xc2\x94\xbd\xd5?\xb3g\x859\xca\x85;?\x99c\xcc\x16\xcf\x1e\xff?'
p44
tp45
bsS'test-lists'
p46
(lp47
(lp48
I2
aI3
aI0
aI1
aa(lp49
I2
aI3
aI0
aI1
aa(lp50
I2
aI3
aI0
aI1
aa(lp51
I1
aI2
aI3
aI0
aa(lp52
I3
aI2
aI1
aI0
aa(lp53
I2
aI0
aI3
aI1
aa(lp54
I3
aI2
aI0
aI1
aa(lp55
I3
aI1
aI2
aI0
aa(lp56
I2
aI3
aI0
aI1
aa(lp57
I2
aI0
aI3
aI1
aa(lp58
I3
aI0
aI2
aI1
aa(lp59
I2
aI0
aI3
aI1
aa(lp60
I2
aI3
aI0
aI1
aa(lp61
I2
aI3
aI0
aI1
aa(lp62
I2
aI0
aI1
aI3
aa(lp63
I3
aI2
aI0
aI1
aa(lp64
I1
aI0
aI2
aI3
aa(lp65
I2
aI0
aI3
aI1
aa(lp66
I2
aI3
aI0
aI1
aa(lp67
I1
aI2
aI3
aI0
aa(lp68
I1
aI3
aI0
aI2
aa(lp69
I2
aI3
aI1
aI0
aa(lp70
I2
aI3
aI1
aI0
aa(lp71
I2
aI3
aI1
aI0
aa(lp72
I1
aI3
aI2
aI0
aa(lp73
I3
aI2
aI1
aI0
aa(lp74
I2
aI3
aI0
aI1
aa(lp75
I2
aI3
aI1
aI0
aa(lp76
I2
aI3
aI1
aI0
aa(lp77
I3
aI2
aI1
aI0
aa(lp78
I3
aI2
aI1
aI0
aa(lp79
I2
aI3
aI0
aI1
aa(lp80
I2
aI3
aI1
aI0
aa(lp81
I3
aI2
aI1
aI0
aa(lp82
I3
aI2
aI0
aI1
aa(lp83
I3
aI2
aI0
aI1
aa(lp84
I2
aI3
aI1
aI0
aa(lp85
I2
aI3
aI0
aI1
aa(lp86
I0
aI3
aI2
aI1
aa(lp87
I3
aI2
aI1
aI0
aa(lp88
I2
aI3
aI1
aI0
aa(lp89
I2
aI3
aI0
aI1
aa(lp90
I3
aI1
aI2
aI0
aa(lp91
I2
aI3
aI0
aI1
aa(lp92
I0
aI3
aI2
aI1
aa(lp93
I1
aI2
aI0
aI3
aa(lp94
I2
aI3
aI0
aI1
aa(lp95
I2
aI0
aI3
aI1
aa(lp96
I2
aI3
aI1
aI0
aa(lp97
I2
aI1
aI3
aI0
aa(lp98
I3
aI1
aI0
aI2
aa(lp99
I0
aI1
aI2
aI3
aa(lp100
I2
aI3
aI0
aI1
aa(lp101
I2
aI0
aI3
aI1
aa(lp102
I2
aI3
aI0
aI1
aa(lp103
I3
aI2
aI0
aI1
aa(lp104
I0
aI2
aI1
aI3
aa(lp105
I3
aI2
aI1
aI0
aa(lp106
I2
aI3
aI0
aI1
aa(lp107
I2
aI0
aI3
aI1
aa(lp108
I2
aI3
aI0
aI1
aa(lp109
I2
aI3
aI1
aI0
aa(lp110
I3
aI0
aI2
aI1
aa(lp111
I2
aI3
aI0
aI1
aa(lp112
I2
aI0
aI3
aI1
aa(lp113
I2
aI3
aI0
aI1
aa(lp114
I2
aI3
aI0
aI1
aa(lp115
I2
aI3
aI1
aI0
aa(lp116
I2
aI3
aI0
aI1
aa(lp117
I2
aI0
aI3
aI1
aa(lp118
I3
aI2
aI0
aI1
aa(lp119
I1
aI3
aI2
aI0
aa(lp120
I1
aI0
aI2
aI3
aa(lp121
I1
aI3
aI2
aI0
aa(lp122
I2
aI3
aI0
aI1
aa(lp123
I2
aI3
aI0
aI1
aa(lp124
I0
aI1
aI2
aI3
aa(lp125
I2
aI1
aI3
aI0
aa(lp126
I2
aI3
aI0
aI1
aa(lp127
I3
aI2
aI0
aI1
aa(lp128
I2
aI3
aI0
aI1
aa(lp129
I2
aI0
aI3
aI1
aa(lp130
I3
aI2
aI0
aI1
aa(lp131
I2
aI3
aI0
aI1
aa(lp132
I1
aI2
aI3
aI0
aa(lp133
I3
aI2
aI0
aI1
aa(lp134
I2
aI3
aI0
aI1
aa(lp135
I2
aI3
aI0
aI1
aa(lp136
I2
aI3
aI0
aI1
aa(lp137
I2
aI1
aI3
aI0
aa(lp138
I3
aI1
aI0
aI2
aa(lp139
I0
aI2
aI3
aI1
aa(lp140
I2
aI1
aI0
aI3
aa(lp141
I3
aI0
aI2
aI1
aasS'PCMC'
p142
g2
(g3
(I0
tp143
g5
tp144
Rp145
(I1
(I12
tp146
g12
I00
S'V=\xc1\x92\tP\x0b@\xe2\xe2q\x0b!gP?\xbc0n\xf2\xe2zg@\x91\xce\tK\xb7\x9c\x17@\xd9\xcc\x94+\xa4\xa9b@;\x8a\rJd1U@\xfc\xa9\xf1\xd2MbP?\x95\x9a\xc8\x956>E@\r[\xfd\x156\xeeP@\xbfv\x9f\xed\xd07[@\xe7\x0c\xe9\x10\xed\xefC@\xb5x\nLQzg@'
p147
tp148
bsS'PL'
p149
g2
(g3
(I0
tp150
g5
tp151
Rp152
(I1
(I4
tp153
g12
I00
S'Y\r\xb9\x87\x80+\xc4?\xda\xd8l\x1c<#\xbc?\xb8\xe6B\xca\xe4\x1f\xe0?_\xeb\x04ANC\xcd?'
p154
tp155
bsS'Mallows-greedy-RE'
p156
((lp157
I1
aI0
aI3
aI2
ag34
(g12
S'\xb7a\xf9Qv\xc3\xf2?'
p158
tp159
Rp160
tp161
s.