(dp0
S'PCMC-RE'
p1
cnumpy.core.multiarray
_reconstruct
p2
(cnumpy
ndarray
p3
(I0
tp4
S'b'
p5
tp6
Rp7
(I1
(I12
tp8
cnumpy
dtype
p9
(S'f8'
p10
I0
I1
tp11
Rp12
(I3
S'<'
p13
NNNI-1
I-1
I0
tp14
bI00
S'\xb1"\xf7\xff|\xf1Z?\xba\xc1\xeae\xfb|\xee?\x14\x02\x8aDq\x7f\xdc?\xe2\xa3\xa1p\x0e\xc5Z?N:ox\x95(\xf2?\x8f\x97\xcb\x91\x9beV?\xd0\xbf\xf0\xc8Z;\xda?.\x9ei^\xd2\x14\xe9?#\xb8\xd8\x92\xc5\xaf\xd3?Li\x04\xfc\xb4\xee\xf4?\xfc\xa9\xf1\xd2MbP?\x07\xee\xcc\xc8M\xa7\xfd?'
p15
tp16
bsS'MMNL-RE'
p17
g2
(g3
(I0
tp18
g5
tp19
Rp20
(I1
(I10
tp21
g12
I00
S'i\x93v\xff\xff\xff\xef?\x90\x97u\xe4\x92-\x11>4g\x04\xa35\x12\xed?\xc9\x87\x13\xd0\xdb\x9c\xea?k\x0b\xde\x90\x83\xeb\xea?6e?\x86\x8f)\xe6?\x85\x96_\xdc \x04\xfc?!\xdc\x80\x05\x13:\xfe?\\"\x84\xaf_M\xda?\x0f\x96\xfa!\xa4\x18\xe2?'
p22
tp23
bsS'PL-RE'
p24
g2
(g3
(I0
tp25
g5
tp26
Rp27
(I1
(I4
tp28
g12
I00
S'\xe5\x9dr\x8a<\xba\xcd?q\x83\n\xd2\x18\x87\xcb?\x8c\x99(w\xfe\xa5\xdc?(Wcj[\xe5\xba?'
p29
tp30
bsS'N'
p31
I4
sS'Mallows-greedy'
p32
((lp33
I3
aI0
aI1
aI2
acnumpy.core.multiarray
scalar
p34
(g12
S'\xf4\xb1\xca\xfa\xdem\xf2?'
p35
tp36
Rp37
tp38
sS'MMNL'
p39
g2
(g3
(I0
tp40
g5
tp41
Rp42
(I1
(I10
tp43
g12
I00
S'N\x10\xd1K\xc3\xdf\xe5?e\xdf]hy@\xd4?\xaa\xe1ZK\xc0Z\xe3?\x95\xd6&\xe8\x0b.\x11>\x95\xd6&\xe8\x0b.\x11>\xf0\x8e+\x8b\x98t\x02@;\x1f\xf8\xa8\x97\x04\xc8?\x03\xcbu3\x96f\xb4?\xf1D\xaa\x1aie\xf8?HB\x07K8O\xdb?'
p44
tp45
bsS'test-lists'
p46
(lp47
(lp48
I3
aI0
aI2
aI1
aa(lp49
I3
aI0
aI2
aI1
aa(lp50
I3
aI2
aI0
aI1
aa(lp51
I3
aI0
aI2
aI1
aa(lp52
I3
aI1
aI2
aI0
aa(lp53
I0
aI3
aI2
aI1
aa(lp54
I0
aI2
aI3
aI1
aa(lp55
I3
aI0
aI1
aI2
aa(lp56
I1
aI3
aI0
aI2
aa(lp57
I1
aI3
aI2
aI0
aa(lp58
I1
aI0
aI3
aI2
aa(lp59
I3
aI0
aI2
aI1
aa(lp60
I3
aI1
aI2
aI0
aa(lp61
I3
aI0
aI1
aI2
aa(lp62
I0
aI3
aI2
aI1
aa(lp63
I3
aI2
aI1
aI0
aa(lp64
I3
aI0
aI2
aI1
aa(lp65
I1
aI3
aI0
aI2
aa(lp66
I1
aI3
aI2
aI0
aa(lp67
I1
aI0
aI2
aI3
aa(lp68
I3
aI0
aI1
aI2
aa(lp69
I0
aI3
aI2
aI1
aa(lp70
I3
aI1
aI0
aI2
aa(lp71
I0
aI3
aI2
aI1
aa(lp72
I3
aI1
aI2
aI0
aa(lp73
I3
aI0
aI2
aI1
aa(lp74
I0
aI3
aI2
aI1
aa(lp75
I3
aI1
aI2
aI0
aa(lp76
I3
aI1
aI2
aI0
aa(lp77
I1
aI2
aI3
aI0
aa(lp78
I3
aI1
aI2
aI0
aa(lp79
I1
aI3
aI2
aI0
aa(lp80
I1
aI3
aI2
aI0
aa(lp81
I1
aI3
aI2
aI0
aa(lp82
I3
aI2
aI0
aI1
aa(lp83
I0
aI2
aI3
aI1
aa(lp84
I3
aI1
aI0
aI2
aa(lp85
I3
aI1
aI0
aI2
aa(lp86
I1
aI3
aI0
aI2
aa(lp87
I1
aI3
aI2
aI0
aa(lp88
I0
aI3
aI2
aI1
aa(lp89
I3
aI1
aI2
aI0
aa(lp90
I0
aI3
aI2
aI1
aa(lp91
I0
aI3
aI1
aI2
aa(lp92
I3
aI1
aI0
aI2
aa(lp93
I3
aI0
aI2
aI1
aa(lp94
I0
aI2
aI3
aI1
aa(lp95
I0
aI3
aI2
aI1
aa(lp96
I3
aI1
aI0
aI2
aa(lp97
I1
aI2
aI0
aI3
aa(lp98
I0
aI2
aI3
aI1
aa(lp99
I1
aI3
aI2
aI0
aa(lp100
I0
aI1
aI3
aI2
aa(lp101
I3
aI0
aI2
aI1
aa(lp102
I3
aI0
aI2
aI1
aa(lp103
I2
aI3
aI0
aI1
aa(lp104
I3
aI1
aI0
aI2
aa(lp105
I1
aI2
aI0
aI3
aa(lp106
I1
aI3
aI0
aI2
aa(lp107
I1
aI3
aI0
aI2
aa(lp108
I1
aI3
aI0
aI2
aa(lp109
I1
aI3
aI2
aI0
aa(lp110
I3
aI1
aI0
aI2
aa(lp111
I0
aI1
aI2
aI3
aa(lp112
I1
aI3
aI2
aI0
aa(lp113
I3
aI2
aI0
aI1
aa(lp114
I0
aI3
aI2
aI1
aa(lp115
I3
aI0
aI2
aI1
aa(lp116
I3
aI1
aI0
aI2
aa(lp117
I1
aI3
aI0
aI2
aa(lp118
I0
aI1
aI2
aI3
aa(lp119
I3
aI0
aI2
aI1
aa(lp120
I3
aI1
aI2
aI0
aa(lp121
I0
aI3
aI2
aI1
aa(lp122
I3
aI1
aI2
aI0
aa(lp123
I3
aI0
aI1
aI2
aa(lp124
I0
aI3
aI2
aI1
aa(lp125
I3
aI0
aI2
aI1
aa(lp126
I3
aI0
aI2
aI1
aa(lp127
I1
aI3
aI2
aI0
aa(lp128
I0
aI3
aI2
aI1
aa(lp129
I1
aI3
aI0
aI2
aa(lp130
I3
aI0
aI2
aI1
aa(lp131
I3
aI0
aI1
aI2
aa(lp132
I1
aI0
aI3
aI2
aa(lp133
I1
aI3
aI0
aI2
aa(lp134
I0
aI3
aI1
aI2
aa(lp135
I0
aI3
aI1
aI2
aa(lp136
I3
aI0
aI1
aI2
aasS'PCMC'
p137
g2
(g3
(I0
tp138
g5
tp139
Rp140
(I1
(I12
tp141
g12
I00
S'9>\tx\x18\xc8\xd9?\xe8\x10s\xad\xc2V\xe6?\xbc\xd0\xb2\xab\xd3L\xd7?\xbd\x84\x93\xff\xff\xee\xe1?(\x98\xa0\xb4!\xa8c?N\x93z\xca\xb5]\xf6?\x92\xbb\xa4\xda[\xc8\xf5?\xd6{\t\xfe\xdd\x05Q?G\xc1\xe9\x91"\x9a\xfc?\xfc\xa9\xf1\xd2MbP?\\y\xcc\x14\x13Z\xea?\x9b=F\x9e\xae\xde\xd3?'
p142
tp143
bsS'PL'
p144
g2
(g3
(I0
tp145
g5
tp146
Rp147
(I1
(I4
tp148
g12
I00
S'\xaaspA\x880\xc8?\xb4\x16\x8d\xbf\xbe+\xc3?\x0f\xa5\xab\x95\x14o\xbf?\xc7(\x0b\xad\x0b;\xe1?'
p149
tp150
bsS'Mallows-greedy-RE'
p151
((lp152
I2
aI0
aI1
aI3
ag34
(g12
S'\x9e=\x17aW\xd9\xf1?'
p153
tp154
Rp155
tp156
s.