(dp0
S'PCMC-RE'
p1
cnumpy.core.multiarray
_reconstruct
p2
(cnumpy
ndarray
p3
(I0
tp4
S'b'
p5
tp6
Rp7
(I1
(I12
tp8
cnumpy
dtype
p9
(S'f8'
p10
I0
I1
tp11
Rp12
(I3
S'<'
p13
NNNI-1
I-1
I0
tp14
bI00
S'\xcd$\x00W\xfd\x87Q@\x88z\x9c\x13IzZ@v\xb2\xa0\xa3\\\x159@\x03\xdbM6\\WU@]\n\x9bY|\xcd\xf5?\xfc\xa9\xf1\xd2MbP?\xc6]\xd2\xd9\x0ek`@w:b\xf5)n\xe8?s\x9b\x88\x8c\x99\x98(@\xc1\x9d\x1f\xe0m-T@$\x87\xc8\xc9\x9b%[?q\x0480@\x842@'
p15
tp16
bsS'MMNL-RE'
p17
g2
(g3
(I0
tp18
g5
tp19
Rp20
(I1
(I10
tp21
g12
I00
S'\x11\xc0\x95\x1f\xdfr\xe2?\xdd\x7f\xd4\xc0A\x1a\xdb?|\xa2\xc1f\t\xa6\xf0?\r\x04\xaa2\x88\xffe?\xfd6\xbf\xc8\x8a\x89\xb6?\tw\x8f_\xde\x0c\xf1?AS\xc4\xc3TY\xc8?\x86\xb1\xc8R\xeb\x14\xec?WL\xa3\xdf\xf3\xca\xd5?H\xb9HG\x86\xc7X?'
p22
tp23
bsS'PL-RE'
p24
g2
(g3
(I0
tp25
g5
tp26
Rp27
(I1
(I4
tp28
g12
I00
S'\x16\xc9(\xeb\xc5\xac\xd5?\xe8\x8b)\xb0\xa8V\xcf?\xc8Q\xb5?n\xd2\xd1?a>\x1a\xfa\xee\xaa\xc1?'
p29
tp30
bsS'N'
p31
I4
sS'Mallows-greedy'
p32
((lp33
I3
aI1
aI2
aI0
acnumpy.core.multiarray
scalar
p34
(g12
S'\xb9\x10\x8e\nk\xe4\xed?'
p35
tp36
Rp37
tp38
sS'MMNL'
p39
g2
(g3
(I0
tp40
g5
tp41
Rp42
(I1
(I10
tp43
g12
I00
S'u\x88\xbe\xf7\xc4F\xd9?\xc6\xbb \x84\x9d\\\xe3?\xc1ra\xdb\xd3\x9aK?\x19\x81\\\x04\xee\xa1\xf3?o\xce\x85\x05\x08"\t@\x1b\xe4\xa5\\\x97\xa6\xc0?\x95\xc7$\x0b\xfe\x00\x00@\xa4\xb7\xca\xeb\xbc\xe1\xd5?\xa4\x12\xcc\xf9\xddX7?_|\xcb8\xc2\xa1\x10@'
p44
tp45
bsS'test-lists'
p46
(lp47
(lp48
I1
aI3
aI2
aI0
aa(lp49
I0
aI3
aI1
aI2
aa(lp50
I1
aI3
aI2
aI0
aa(lp51
I3
aI0
aI2
aI1
aa(lp52
I1
aI0
aI2
aI3
aa(lp53
I2
aI1
aI0
aI3
aa(lp54
I1
aI2
aI3
aI0
aa(lp55
I3
aI1
aI2
aI0
aa(lp56
I3
aI2
aI0
aI1
aa(lp57
I3
aI0
aI2
aI1
aa(lp58
I0
aI3
aI2
aI1
aa(lp59
I1
aI3
aI2
aI0
aa(lp60
I3
aI1
aI0
aI2
aa(lp61
I1
aI2
aI0
aI3
aa(lp62
I0
aI3
aI1
aI2
aa(lp63
I3
aI2
aI0
aI1
aa(lp64
I0
aI3
aI2
aI1
aa(lp65
I3
aI0
aI2
aI1
aa(lp66
I3
aI1
aI0
aI2
aa(lp67
I1
aI0
aI3
aI2
aa(lp68
I2
aI1
aI0
aI3
aa(lp69
I3
aI1
aI2
aI0
aa(lp70
I2
aI1
aI3
aI0
aa(lp71
I0
aI2
aI3
aI1
aa(lp72
I3
aI1
aI0
aI2
aa(lp73
I1
aI2
aI3
aI0
aa(lp74
I1
aI2
aI0
aI3
aa(lp75
I3
aI0
aI1
aI2
aa(lp76
I3
aI0
aI2
aI1
aa(lp77
I0
aI3
aI2
aI1
aa(lp78
I3
aI2
aI1
aI0
aa(lp79
I0
aI1
aI3
aI2
aa(lp80
I3
aI0
aI2
aI1
aa(lp81
I2
aI1
aI3
aI0
aa(lp82
I3
aI0
aI2
aI1
aa(lp83
I1
aI2
aI0
aI3
aa(lp84
I1
aI2
aI3
aI0
aa(lp85
I3
aI0
aI2
aI1
aa(lp86
I3
aI0
aI2
aI1
aa(lp87
I1
aI0
aI3
aI2
aa(lp88
I3
aI0
aI2
aI1
aa(lp89
I2
aI1
aI0
aI3
aa(lp90
I3
aI0
aI2
aI1
aa(lp91
I3
aI0
aI2
aI1
aa(lp92
I3
aI2
aI0
aI1
aa(lp93
I1
aI3
aI2
aI0
aa(lp94
I3
aI1
aI2
aI0
aa(lp95
I1
aI2
aI3
aI0
aa(lp96
I3
aI1
aI0
aI2
aa(lp97
I3
aI0
aI1
aI2
aa(lp98
I3
aI2
aI0
aI1
aa(lp99
I3
aI2
aI0
aI1
aa(lp100
I3
aI2
aI1
aI0
aa(lp101
I3
aI0
aI1
aI2
aa(lp102
I3
aI2
aI0
aI1
aa(lp103
I3
aI0
aI2
aI1
aa(lp104
I2
aI0
aI3
aI1
aa(lp105
I2
aI0
aI3
aI1
aa(lp106
I0
aI3
aI2
aI1
aa(lp107
I3
aI0
aI2
aI1
aa(lp108
I1
aI2
aI0
aI3
aa(lp109
I0
aI3
aI2
aI1
aa(lp110
I3
aI0
aI1
aI2
aa(lp111
I3
aI1
aI2
aI0
aa(lp112
I1
aI0
aI3
aI2
aa(lp113
I3
aI0
aI2
aI1
aa(lp114
I3
aI0
aI2
aI1
aa(lp115
I1
aI0
aI3
aI2
aa(lp116
I3
aI0
aI2
aI1
aa(lp117
I3
aI1
aI0
aI2
aa(lp118
I3
aI0
aI1
aI2
aa(lp119
I3
aI0
aI2
aI1
aa(lp120
I2
aI1
aI3
aI0
aa(lp121
I3
aI0
aI2
aI1
aa(lp122
I1
aI3
aI2
aI0
aa(lp123
I3
aI2
aI0
aI1
aa(lp124
I3
aI0
aI1
aI2
aa(lp125
I0
aI2
aI1
aI3
aa(lp126
I2
aI0
aI3
aI1
aa(lp127
I3
aI2
aI1
aI0
aa(lp128
I2
aI0
aI1
aI3
aa(lp129
I1
aI3
aI0
aI2
aa(lp130
I2
aI0
aI3
aI1
aa(lp131
I1
aI2
aI0
aI3
aa(lp132
I3
aI0
aI1
aI2
aa(lp133
I0
aI2
aI3
aI1
aasS'PCMC'
p134
g2
(g3
(I0
tp135
g5
tp136
Rp137
(I1
(I12
tp138
g12
I00
S'k\xd5\xf4:\x87\x0f\x9b?\xe7\xc4\x00\x8cX}\xa0?\x85\xd2G\xa2\x03\xfb\x08@~Sp?\x9ft\x9d?\xc1\x87\x82Q \xd4Y?#\x84\x04S\x8b\xee\xed?:yYkPO\xa5?\xfc\xa9\xf1\xd2MbP?\x04\xef\xe4\xee6\xf5\xf7?\xa9^X\xf2\xf3\x9b\xf1?iL\xf2|x$\xe3?k\x9f\xa07\x81D\xec?'
p139
tp140
bsS'PL'
p141
g2
(g3
(I0
tp142
g5
tp143
Rp144
(I1
(I4
tp145
g12
I00
S'#\xa9\xee8\xfc1\xc7?\xfe\x196\x850:\xcb?\xf0\xc9\\\xb8L(\xcb?u9\xbfD\xc35\xd9?'
p146
tp147
bsS'Mallows-greedy-RE'
p148
((lp149
I0
aI2
aI1
aI3
ag34
(g12
S'\xb9\x10\x8e\nk\xe4\xed?'
p150
tp151
Rp152
tp153
s.