(dp0
S'PCMC-RE'
p1
cnumpy.core.multiarray
_reconstruct
p2
(cnumpy
ndarray
p3
(I0
tp4
S'b'
p5
tp6
Rp7
(I1
(I12
tp8
cnumpy
dtype
p9
(S'f8'
p10
I0
I1
tp11
Rp12
(I3
S'<'
p13
NNNI-1
I-1
I0
tp14
bI00
S'\x96&\x16K\xcb\x0f\xe2?jS\xf4\x8d\xbboP?-8\xd4\xcc\xdcX&@\xb3\xe4\\\xb6(\xad\xff?H\x86Pu\xa8]\xce?\xcb\xbdt\xd0\xe3\n[?;\xf3S\xcdN\x16d?r#&\xd9\xc1\x91\xd0?\x9c\x0c\x1e95$\xff?\xbf\xd8\xedqZH\x17@GS\x83)\x80\x04R?z\xc1\x0f\xec\xaf\xed\xd6?'
p15
tp16
bsS'MMNL-RE'
p17
g2
(g3
(I0
tp18
g5
tp19
Rp20
(I1
(I10
tp21
g12
I00
S'w\re\xfch)\xdb?Ey\xcd\x81Kk\xe2?z\x1d\xbb\x1a\x1ao\xdb?\x02\x0c\xc0C\xa7\x02\xe4?l\xa1\x16\xb5\xa0\xe3\xe3?\x95\xd6&\xe8\x0b.\x11>JE/b\xc2`\xe3?\x95\xd6&\xe8\x0b.\x11>>S\xa4\xa7\x1d1\xe8?\x7f\x9f\x19L\x02\xbd\xf4?'
p22
tp23
bsS'PL-RE'
p24
g2
(g3
(I0
tp25
g5
tp26
Rp27
(I1
(I4
tp28
g12
I00
S'\xc5\xb6\x95\x9e\x89\xc6\xd2?\xcb\x87y\x12Zl\xb8?\xd3\xe2x\xce\xe8!\xb7?I\xd7\x96\xd4\xf2\xaa\xe0?'
p29
tp30
bsS'N'
p31
I4
sS'Mallows-greedy'
p32
((lp33
I2
aI1
aI0
aI3
acnumpy.core.multiarray
scalar
p34
(g12
S'\xf4\x8e\xeb\xbfb\x0f\xf5?'
p35
tp36
Rp37
tp38
sS'MMNL'
p39
g2
(g3
(I0
tp40
g5
tp41
Rp42
(I1
(I10
tp43
g12
I00
S'[w0\xd1fK\xc7?*\xe2\xb3K&-\xea?_2\x0f\x19;y,?)\xd4j\xe3\xdd\xd2\xd7?\xf0\xe8\x9f\x89\xe4L\x01@\xe7\x10J\x03T\x96\xe8?\x95\xd6&\xe8\x0b.\x11>V\xf2^\x88\xebR\xf8?\x134\x91\xe4!\xb9\x1a?_\xefK\xa9:\xdc\xc9?'
p44
tp45
bsS'test-lists'
p46
(lp47
(lp48
I2
aI1
aI0
aI3
aa(lp49
I1
aI0
aI2
aI3
aa(lp50
I2
aI1
aI0
aI3
aa(lp51
I2
aI3
aI0
aI1
aa(lp52
I1
aI2
aI0
aI3
aa(lp53
I2
aI1
aI0
aI3
aa(lp54
I1
aI2
aI3
aI0
aa(lp55
I2
aI0
aI1
aI3
aa(lp56
I1
aI2
aI0
aI3
aa(lp57
I1
aI2
aI0
aI3
aa(lp58
I1
aI0
aI2
aI3
aa(lp59
I2
aI1
aI0
aI3
aa(lp60
I1
aI2
aI0
aI3
aa(lp61
I0
aI1
aI2
aI3
aa(lp62
I1
aI2
aI0
aI3
aa(lp63
I1
aI2
aI3
aI0
aa(lp64
I1
aI2
aI0
aI3
aa(lp65
I3
aI0
aI1
aI2
aa(lp66
I2
aI3
aI1
aI0
aa(lp67
I1
aI3
aI0
aI2
aa(lp68
I1
aI2
aI0
aI3
aa(lp69
I2
aI1
aI0
aI3
aa(lp70
I1
aI2
aI3
aI0
aa(lp71
I3
aI1
aI2
aI0
aa(lp72
I1
aI2
aI0
aI3
aa(lp73
I2
aI1
aI0
aI3
aa(lp74
I0
aI1
aI2
aI3
aa(lp75
I3
aI0
aI1
aI2
aa(lp76
I2
aI0
aI1
aI3
aa(lp77
I1
aI2
aI0
aI3
aa(lp78
I2
aI1
aI0
aI3
aa(lp79
I1
aI3
aI0
aI2
aa(lp80
I3
aI2
aI0
aI1
aa(lp81
I1
aI2
aI3
aI0
aa(lp82
I0
aI1
aI2
aI3
aa(lp83
I2
aI1
aI0
aI3
aa(lp84
I2
aI1
aI0
aI3
aa(lp85
I2
aI1
aI0
aI3
aa(lp86
I1
aI2
aI3
aI0
aa(lp87
I2
aI1
aI0
aI3
aa(lp88
I2
aI1
aI0
aI3
aa(lp89
I1
aI2
aI0
aI3
aa(lp90
I2
aI1
aI0
aI3
aa(lp91
I0
aI2
aI1
aI3
aa(lp92
I2
aI1
aI3
aI0
aa(lp93
I1
aI2
aI3
aI0
aa(lp94
I2
aI3
aI1
aI0
aa(lp95
I1
aI2
aI0
aI3
aa(lp96
I1
aI0
aI3
aI2
aa(lp97
I1
aI2
aI3
aI0
aa(lp98
I1
aI0
aI2
aI3
aa(lp99
I1
aI2
aI3
aI0
aa(lp100
I1
aI0
aI2
aI3
aa(lp101
I1
aI2
aI0
aI3
aa(lp102
I2
aI1
aI3
aI0
aa(lp103
I3
aI0
aI1
aI2
aa(lp104
I1
aI2
aI0
aI3
aa(lp105
I3
aI1
aI2
aI0
aa(lp106
I1
aI2
aI0
aI3
aa(lp107
I2
aI1
aI3
aI0
aa(lp108
I3
aI1
aI0
aI2
aa(lp109
I1
aI2
aI3
aI0
aa(lp110
I2
aI1
aI3
aI0
aa(lp111
I0
aI1
aI2
aI3
aa(lp112
I1
aI2
aI3
aI0
aa(lp113
I2
aI0
aI3
aI1
aa(lp114
I2
aI1
aI0
aI3
aa(lp115
I2
aI1
aI3
aI0
aa(lp116
I2
aI0
aI3
aI1
aa(lp117
I2
aI1
aI0
aI3
aa(lp118
I0
aI2
aI1
aI3
aa(lp119
I1
aI0
aI3
aI2
aa(lp120
I0
aI1
aI3
aI2
aa(lp121
I1
aI0
aI2
aI3
aa(lp122
I2
aI0
aI1
aI3
aa(lp123
I2
aI1
aI3
aI0
aa(lp124
I1
aI2
aI0
aI3
aa(lp125
I2
aI0
aI1
aI3
aa(lp126
I2
aI3
aI1
aI0
aa(lp127
I1
aI2
aI0
aI3
aa(lp128
I2
aI1
aI0
aI3
aa(lp129
I1
aI2
aI0
aI3
aa(lp130
I0
aI2
aI1
aI3
aa(lp131
I1
aI2
aI0
aI3
aa(lp132
I1
aI2
aI0
aI3
aasS'PCMC'
p133
g2
(g3
(I0
tp134
g5
tp135
Rp136
(I1
(I12
tp137
g12
I00
S'\xfb\x92\x97\x83:\xa6b@\x8c\x87C.\x10\xc6[@\x17QN\x01\xc3\x1aG@\xf3\x1e\r3g\xe8F@"o`\x88Y\x1eG@P\xf7\x92;\x182\xb9?\x83x+%\xd0\x1cB@\x96CZ\x9dr5G@\xfc\xa9\xf1\xd2MbP?\xd58,E\x01]W@\x1a\x9ayH\xc2\xd1\xd1?\xfd\\^\x9eU\x8ac?'
p138
tp139
bsS'PL'
p140
g2
(g3
(I0
tp141
g5
tp142
Rp143
(I1
(I4
tp144
g12
I00
S'\x17\xe1U)\x1dI\xc1?g\x91\xd3\xb9\x02k\xd9?\xac\xe0rp->\xd9?~u:\x04\x05\xc9\xb2?'
p145
tp146
bsS'Mallows-greedy-RE'
p147
((lp148
I3
aI0
aI1
aI2
ag34
(g12
S'\xf4\x8e\xeb\xbfb\x0f\xf5?'
p149
tp150
Rp151
tp152
s.