(dp0
S'PCMC-RE'
p1
cnumpy.core.multiarray
_reconstruct
p2
(cnumpy
ndarray
p3
(I0
tp4
S'b'
p5
tp6
Rp7
(I1
(I12
tp8
cnumpy
dtype
p9
(S'f8'
p10
I0
I1
tp11
Rp12
(I3
S'<'
p13
NNNI-1
I-1
I0
tp14
bI00
S'k|/H\x03\xb0\xfe?\xa8s\x85\x0c\x89\xfb\xfb?\xfc\xa9\xf1\xd2MbP?<\xdc\x11\xecM\xa1\xda?\xcd\xff\x00\xb4\xa8\xc1v?P:/\xb8:\n\xfc?hA\xaf\x9c\xf5\r\xf9?\x90\xd2\x98\x1bO?\x8c?g\x0cw\x84\xb6\x18\x88?T\xf3\xc5\xe7E\xbda?\x7f>\xb2\x12\xea\x8c\xfb?\xbe2\xd7|\xfao\x8f?'
p15
tp16
bsS'MMNL-RE'
p17
g2
(g3
(I0
tp18
g5
tp19
Rp20
(I1
(I10
tp21
g12
I00
S"\xaae\x008\xc1*\xe3?\xab4\xff\x8f}\xaa\xd9?\x98mE'I\xc4\xe6?\x95\xd6&\xe8\x0b.\x11>N\xa1\x91\xd4\xe8N\xfe?\xb9\x16(\x1d=\xf3\xd2?\xc8\x11\xdckt\xd5\xe9?\x95\xd6&\xe8\x0b.\x11>\x95\xd6&\xe8\x0b.\x11>\x0b&\xdc\xf3\xb3\x0e\x02@"
p22
tp23
bsS'PL-RE'
p24
g2
(g3
(I0
tp25
g5
tp26
Rp27
(I1
(I4
tp28
g12
I00
S'\x11.\x08\x8cX \xc2?s\x8b"7\xe2f\xdb?\xe4\x9dl\xc3\x94s\xc4?\x92\x0e#!\'O\xd1?'
p29
tp30
bsS'N'
p31
I4
sS'Mallows-greedy'
p32
((lp33
I0
aI2
aI1
aI3
acnumpy.core.multiarray
scalar
p34
(g12
S'\x87\x99t\xcf\xc6\xfa\xf0?'
p35
tp36
Rp37
tp38
sS'MMNL'
p39
g2
(g3
(I0
tp40
g5
tp41
Rp42
(I1
(I10
tp43
g12
I00
S'\xdeh\x94\xef$H\xcc?\xc9\xe5\x1a\xc4\xf6\xed\xe8?Q-\xf4\xe9\x92\xba\xe3>\xa30%Y1\xd5\xf2?!\xe0\xa4\x11\xe0\x82\x01?O\x0f\xd1\xaeW\xa0\xce?\xdf\xa9\xe2\x17A\x08\xf7>"\t\xee\xf3\x15\x04\xef?\x7f\x80N\x00\xcc\xd1\xf8?\x10x>-\x06\xb5r?'
p44
tp45
bsS'test-lists'
p46
(lp47
(lp48
I2
aI0
aI1
aI3
aa(lp49
I2
aI3
aI1
aI0
aa(lp50
I3
aI1
aI2
aI0
aa(lp51
I0
aI2
aI1
aI3
aa(lp52
I3
aI0
aI1
aI2
aa(lp53
I0
aI2
aI1
aI3
aa(lp54
I3
aI2
aI0
aI1
aa(lp55
I0
aI2
aI1
aI3
aa(lp56
I0
aI2
aI1
aI3
aa(lp57
I3
aI2
aI1
aI0
aa(lp58
I2
aI3
aI0
aI1
aa(lp59
I1
aI0
aI2
aI3
aa(lp60
I0
aI1
aI2
aI3
aa(lp61
I0
aI2
aI1
aI3
aa(lp62
I0
aI2
aI1
aI3
aa(lp63
I0
aI1
aI2
aI3
aa(lp64
I2
aI1
aI0
aI3
aa(lp65
I2
aI0
aI1
aI3
aa(lp66
I0
aI2
aI3
aI1
aa(lp67
I3
aI2
aI0
aI1
aa(lp68
I1
aI0
aI2
aI3
aa(lp69
I3
aI2
aI0
aI1
aa(lp70
I2
aI1
aI0
aI3
aa(lp71
I0
aI1
aI2
aI3
aa(lp72
I2
aI0
aI1
aI3
aa(lp73
I3
aI0
aI1
aI2
aa(lp74
I2
aI0
aI3
aI1
aa(lp75
I2
aI3
aI0
aI1
aa(lp76
I0
aI2
aI1
aI3
aa(lp77
I3
aI2
aI1
aI0
aa(lp78
I3
aI0
aI2
aI1
aa(lp79
I3
aI0
aI1
aI2
aa(lp80
I0
aI2
aI1
aI3
aa(lp81
I3
aI2
aI0
aI1
aa(lp82
I2
aI0
aI1
aI3
aa(lp83
I2
aI0
aI1
aI3
aa(lp84
I2
aI0
aI1
aI3
aa(lp85
I0
aI1
aI3
aI2
aa(lp86
I2
aI3
aI0
aI1
aa(lp87
I0
aI2
aI3
aI1
aa(lp88
I3
aI2
aI1
aI0
aa(lp89
I3
aI0
aI1
aI2
aa(lp90
I2
aI0
aI1
aI3
aa(lp91
I2
aI0
aI1
aI3
aa(lp92
I3
aI0
aI2
aI1
aa(lp93
I0
aI1
aI2
aI3
aa(lp94
I3
aI0
aI1
aI2
aa(lp95
I3
aI2
aI1
aI0
aa(lp96
I0
aI2
aI3
aI1
aa(lp97
I0
aI1
aI2
aI3
aa(lp98
I0
aI1
aI2
aI3
aa(lp99
I3
aI0
aI1
aI2
aa(lp100
I2
aI3
aI0
aI1
aa(lp101
I2
aI1
aI0
aI3
aa(lp102
I3
aI0
aI1
aI2
aa(lp103
I2
aI0
aI3
aI1
aa(lp104
I0
aI2
aI1
aI3
aa(lp105
I0
aI2
aI1
aI3
aa(lp106
I0
aI2
aI3
aI1
aa(lp107
I3
aI0
aI2
aI1
aa(lp108
I3
aI0
aI2
aI1
aa(lp109
I0
aI2
aI1
aI3
aa(lp110
I0
aI2
aI1
aI3
aa(lp111
I0
aI1
aI2
aI3
aa(lp112
I3
aI2
aI0
aI1
aa(lp113
I2
aI0
aI1
aI3
aa(lp114
I3
aI2
aI1
aI0
aa(lp115
I0
aI2
aI1
aI3
aa(lp116
I0
aI1
aI2
aI3
aa(lp117
I2
aI3
aI1
aI0
aa(lp118
I0
aI2
aI3
aI1
aa(lp119
I1
aI0
aI2
aI3
aa(lp120
I0
aI1
aI3
aI2
aa(lp121
I3
aI0
aI2
aI1
aa(lp122
I0
aI1
aI3
aI2
aa(lp123
I2
aI1
aI3
aI0
aa(lp124
I0
aI2
aI1
aI3
aa(lp125
I0
aI2
aI1
aI3
aa(lp126
I3
aI2
aI0
aI1
aa(lp127
I2
aI0
aI1
aI3
aa(lp128
I0
aI2
aI3
aI1
aa(lp129
I2
aI0
aI3
aI1
aa(lp130
I0
aI1
aI2
aI3
aa(lp131
I0
aI1
aI3
aI2
aa(lp132
I2
aI0
aI1
aI3
aa(lp133
I0
aI2
aI3
aI1
aa(lp134
I2
aI3
aI1
aI0
aa(lp135
I2
aI0
aI3
aI1
aa(lp136
I2
aI0
aI1
aI3
aa(lp137
I3
aI0
aI2
aI1
aa(lp138
I2
aI0
aI1
aI3
aa(lp139
I2
aI1
aI0
aI3
aa(lp140
I0
aI2
aI3
aI1
aa(lp141
I0
aI2
aI1
aI3
aa(lp142
I3
aI0
aI2
aI1
aa(lp143
I0
aI2
aI1
aI3
aa(lp144
I0
aI1
aI2
aI3
aa(lp145
I0
aI2
aI1
aI3
aa(lp146
I2
aI0
aI3
aI1
aa(lp147
I3
aI2
aI0
aI1
aa(lp148
I0
aI2
aI1
aI3
aa(lp149
I3
aI1
aI0
aI2
aa(lp150
I0
aI2
aI1
aI3
aa(lp151
I3
aI1
aI0
aI2
aa(lp152
I0
aI2
aI3
aI1
aasS'PCMC'
p153
g2
(g3
(I0
tp154
g5
tp155
Rp156
(I1
(I12
tp157
g12
I00
S" M_\xf0\x93\xa9\xd8?X\xbb\xa3\xfaM\x02\xde?\xb4\x1f\xba\xfdA\xc2\xe4?\xc0\xafk\xe8\x0eJ\xf7?\xd5\xdf\xd8\x1e\xd5\x16\xf0?\xfc\xa9\xf1\xd2MbP?D\xfa\x1c'1u\xe1?=\r\xd6j\xa9D\xd7?\x96\x97\x05>\xcc\xfaT?\x05\xe7Z\x1f\xf46\xf2?\x02\xd5\xdf)\xfaTh?EV\xea\xed\xf3Vv?"
p158
tp159
bsS'PL'
p160
g2
(g3
(I0
tp161
g5
tp162
Rp163
(I1
(I4
tp164
g12
I00
S'7\x01>\x989]\xd8?\xfbOp\xcc\xe1\x04\xc2?hv#0hu\xd6?\xc9\xc0\xcc\xa2\xdaU\xc0?'
p165
tp166
bsS'Mallows-greedy-RE'
p167
((lp168
I1
aI3
aI2
aI0
ag34
(g12
S'\xf4G\xc1\xd3\x07\xe8\xf0?'
p169
tp170
Rp171
tp172
s.