(dp0
S'PCMC-RE'
p1
cnumpy.core.multiarray
_reconstruct
p2
(cnumpy
ndarray
p3
(I0
tp4
S'b'
p5
tp6
Rp7
(I1
(I12
tp8
cnumpy
dtype
p9
(S'f8'
p10
I0
I1
tp11
Rp12
(I3
S'<'
p13
NNNI-1
I-1
I0
tp14
bI00
S'\xde\xc6\xb7\xdf\xe8\xc3\xb4?_\n\xd7~\x9edv?\xcb\xbf\x1eV\'8\x84?\xb5\xd6\xba\xf2C\xbc\xd4?\xd0\xcf\xb9tA\x87X@\x1b\xd5]\x91Ekq?\xb33\x12\xce,\xe4\xa5?m\xa2\xe6\r[p*@"\xe9+5\x0b\xb9E@\xb4\xa0\x92\x81c\xa1\\?\xfc\xa9\xf1\xd2MbP?C!\x110\xa7`*@'
p15
tp16
bsS'MMNL-RE'
p17
g2
(g3
(I0
tp18
g5
tp19
Rp20
(I1
(I10
tp21
g12
I00
S'ybV\xb7\x84\x8d\x10>\xdb\x93{\xff\xff\xff\xef?o\xb4&\xc1\x05C\xdc?:qcPA\xad\xe6?C\xe6\x91\x1ds\x1c\xd4?\rC\xad\xc1\xb8p\xc0?u.\x87b\xfc\x16\xe0?\x01\xa6\x81\x80\xb2\x84\xe7?\x81Vf\x9al\x08\xec?a\x89l\xe2\xca\xdc\x03@'
p22
tp23
bsS'PL-RE'
p24
g2
(g3
(I0
tp25
g5
tp26
Rp27
(I1
(I4
tp28
g12
I00
S'\x15\x9d\xbd\r\xbb^\xc6?\x02\xeb{d\xcb7\xa0?\xf0\xa8\x9f\x9bB3\xc7?\xcf\xef`\xdf\x03\x98\xe3?'
p29
tp30
bsS'N'
p31
I4
sS'Mallows-greedy'
p32
((lp33
I1
aI0
aI2
aI3
acnumpy.core.multiarray
scalar
p34
(g12
S'b\xca\x94\xe2\xef(\xf9?'
p35
tp36
Rp37
tp38
sS'MMNL'
p39
g2
(g3
(I0
tp40
g5
tp41
Rp42
(I1
(I10
tp43
g12
I00
S'[\x90v\xff\xff\xff\xef?K_)\xa0\xf4-\x11>\xde\xc4\x1e%\xd6\xee\xdc?_ct\xb4\xe4\xd9\xe4?\xafp\x03\x92m\x85\x07@\xa7]c"%3\xe7?\xde\x92V<\rQ\xda?Z\x138G_\xa0\xcc?w\xa3\\\xa3]\xe5\xc2?\x1e\xe2 \\\xcb\xda\xe8?'
p44
tp45
bsS'test-lists'
p46
(lp47
(lp48
I1
aI0
aI2
aI3
aa(lp49
I1
aI2
aI0
aI3
aa(lp50
I1
aI2
aI0
aI3
aa(lp51
I0
aI1
aI2
aI3
aa(lp52
I1
aI2
aI0
aI3
aa(lp53
I1
aI2
aI3
aI0
aa(lp54
I0
aI1
aI2
aI3
aa(lp55
I1
aI0
aI2
aI3
aa(lp56
I2
aI1
aI0
aI3
aa(lp57
I1
aI0
aI2
aI3
aa(lp58
I1
aI0
aI3
aI2
aa(lp59
I1
aI2
aI0
aI3
aa(lp60
I1
aI2
aI3
aI0
aa(lp61
I1
aI0
aI2
aI3
aa(lp62
I1
aI0
aI3
aI2
aa(lp63
I2
aI1
aI0
aI3
aa(lp64
I1
aI2
aI3
aI0
aa(lp65
I1
aI0
aI2
aI3
aa(lp66
I1
aI0
aI3
aI2
aa(lp67
I1
aI2
aI0
aI3
aa(lp68
I0
aI2
aI1
aI3
aa(lp69
I1
aI0
aI3
aI2
aa(lp70
I1
aI2
aI0
aI3
aa(lp71
I1
aI2
aI3
aI0
aa(lp72
I1
aI3
aI0
aI2
aa(lp73
I0
aI1
aI3
aI2
aa(lp74
I1
aI2
aI3
aI0
aa(lp75
I1
aI2
aI0
aI3
aa(lp76
I1
aI2
aI0
aI3
aa(lp77
I0
aI1
aI2
aI3
aa(lp78
I0
aI1
aI2
aI3
aa(lp79
I1
aI0
aI3
aI2
aa(lp80
I1
aI0
aI3
aI2
aa(lp81
I1
aI2
aI0
aI3
aa(lp82
I1
aI0
aI2
aI3
aa(lp83
I1
aI0
aI2
aI3
aa(lp84
I1
aI0
aI2
aI3
aa(lp85
I1
aI2
aI0
aI3
aa(lp86
I2
aI0
aI1
aI3
aa(lp87
I1
aI0
aI2
aI3
aa(lp88
I1
aI0
aI2
aI3
aa(lp89
I3
aI1
aI0
aI2
aa(lp90
I1
aI0
aI3
aI2
aa(lp91
I1
aI2
aI0
aI3
aa(lp92
I2
aI1
aI0
aI3
aa(lp93
I1
aI2
aI0
aI3
aa(lp94
I1
aI2
aI0
aI3
aa(lp95
I1
aI0
aI2
aI3
aa(lp96
I1
aI2
aI0
aI3
aa(lp97
I1
aI0
aI2
aI3
aa(lp98
I1
aI3
aI2
aI0
aa(lp99
I1
aI3
aI0
aI2
aa(lp100
I1
aI2
aI0
aI3
aa(lp101
I1
aI0
aI2
aI3
aa(lp102
I1
aI2
aI3
aI0
aa(lp103
I1
aI0
aI3
aI2
aa(lp104
I1
aI2
aI0
aI3
aa(lp105
I2
aI1
aI3
aI0
aa(lp106
I1
aI2
aI0
aI3
aa(lp107
I1
aI2
aI3
aI0
aa(lp108
I1
aI0
aI2
aI3
aa(lp109
I1
aI0
aI2
aI3
aa(lp110
I1
aI0
aI2
aI3
aa(lp111
I0
aI1
aI3
aI2
aa(lp112
I1
aI0
aI3
aI2
aa(lp113
I0
aI1
aI3
aI2
aa(lp114
I1
aI3
aI0
aI2
aa(lp115
I1
aI3
aI2
aI0
aa(lp116
I1
aI0
aI3
aI2
aa(lp117
I1
aI2
aI3
aI0
aa(lp118
I1
aI0
aI2
aI3
aa(lp119
I1
aI2
aI3
aI0
aa(lp120
I1
aI0
aI2
aI3
aa(lp121
I1
aI2
aI0
aI3
aa(lp122
I1
aI0
aI2
aI3
aa(lp123
I1
aI2
aI0
aI3
aa(lp124
I2
aI1
aI0
aI3
aasS'PCMC'
p125
g2
(g3
(I0
tp126
g5
tp127
Rp128
(I1
(I12
tp129
g12
I00
S'\x90\x98\xf9\x8c\xb8cP?w\xa4\xf0\xf6\xe9\x04\xb4@\x9b\x14\xf9\x8a\x049\x1b@\xfc\xa9\xf1\xd2MbP?\x14\xc6v\xa4\x11@o@J\x93L\x95B%3@\x19\xf8z\xf8`Z\xb6@\xac^\xd1\xd4\xfc\x7f\xa0@<\x83\xb9\x01o\xc1\x8c@ \xc2\xc0\xa1F)/@\xb6b\x9dm\xf5tb@\xd3P\x88\xb2\xda\xfd\xa6@'
p130
tp131
bsS'PL'
p132
g2
(g3
(I0
tp133
g5
tp134
Rp135
(I1
(I4
tp136
g12
I00
S'\xd3\x94p\x01\xa0J\xbd?\xd3-\xc1\x8d\x05\xd0\xe7?\x13\xe5\x9fo\x8a\xa4\xba?\xf6.\xccAR!\xa3?'
p137
tp138
bsS'Mallows-greedy-RE'
p139
((lp140
I3
aI2
aI0
aI1
ag34
(g12
S'b\xca\x94\xe2\xef(\xf9?'
p141
tp142
Rp143
tp144
s.