(dp0
S'PCMC-RE'
p1
cnumpy.core.multiarray
_reconstruct
p2
(cnumpy
ndarray
p3
(I0
tp4
S'b'
p5
tp6
Rp7
(I1
(I6
tp8
cnumpy
dtype
p9
(S'f8'
p10
I0
I1
tp11
Rp12
(I3
S'<'
p13
NNNI-1
I-1
I0
tp14
bI00
S'\xfc\xa9\xf1\xd2MbP?\x90;\xbd8\x89X\xf1?\xf3\xec\x8e\xb5\xf7\xb4Q?\xa1\x7f$\xc9\xb0\xeb\xe8?X\xf56\xaf\xa5_\xc1?\x1a\xa5\x00G\r<\xc3?'
p15
tp16
bsS'MMNL-RE'
p17
g2
(g3
(I0
tp18
g5
tp19
Rp20
(I1
(I4
tp21
g12
I00
S"\x00\x00\x00\x00\x00\x00\xf0?\x00\xe6}\xa6\xd6\x83\xd5?\xae:m\xab'\xa9\xd6?\xcb:S\xff\xbay\x01@"
p22
tp23
bsS'PL-RE'
p24
g2
(g3
(I0
tp25
g5
tp26
Rp27
(I1
(I3
tp28
g12
I00
S'\x15\x95\xb9\xaf\xec\xef\xbd?A\x97\xe1\xc3\r\x88\xbf?v\x9a\x8c\xb1\x00Q\xe8?'
p29
tp30
bsS'N'
p31
I3
sS'Mallows-greedy'
p32
((lp33
I0
aI1
aI2
acnumpy.core.multiarray
scalar
p34
(g12
S'\xf2\x98\x18u\x94\x0f\xf6?'
p35
tp36
Rp37
tp38
sS'MMNL'
p39
g2
(g3
(I0
tp40
g5
tp41
Rp42
(I1
(I4
tp43
g12
I00
S'\x00\x00\x00\x00\x00\x00\xf0?\x10\x0eQ=I\xb9\xfa?\x820x\xc3e9\xf7?Q\xd5\xbd\rd\xae\xd1?'
p44
tp45
bsS'test-lists'
p46
(lp47
(lp48
I1
aI0
aI2
aa(lp49
I0
aI2
aI1
aa(lp50
I1
aI0
aI2
aa(lp51
I1
aI0
aI2
aa(lp52
I1
aI0
aI2
aa(lp53
I0
aI2
aI1
aa(lp54
I1
aI0
aI2
aa(lp55
I1
aI0
aI2
aa(lp56
I0
aI1
aI2
aa(lp57
I0
aI1
aI2
aa(lp58
I1
aI0
aI2
aa(lp59
I0
aI1
aI2
aa(lp60
I1
aI0
aI2
aa(lp61
I0
aI1
aI2
aa(lp62
I0
aI1
aI2
aa(lp63
I2
aI1
aI0
aa(lp64
I1
aI2
aI0
aa(lp65
I1
aI0
aI2
aa(lp66
I0
aI1
aI2
aa(lp67
I0
aI2
aI1
aa(lp68
I0
aI1
aI2
aa(lp69
I0
aI1
aI2
aa(lp70
I1
aI0
aI2
aa(lp71
I1
aI0
aI2
aa(lp72
I0
aI2
aI1
aa(lp73
I1
aI2
aI0
aa(lp74
I0
aI2
aI1
aa(lp75
I0
aI2
aI1
aa(lp76
I0
aI1
aI2
aa(lp77
I0
aI1
aI2
aa(lp78
I1
aI0
aI2
aa(lp79
I1
aI0
aI2
aa(lp80
I0
aI1
aI2
aa(lp81
I0
aI2
aI1
aa(lp82
I0
aI1
aI2
aa(lp83
I1
aI0
aI2
aa(lp84
I0
aI1
aI2
aa(lp85
I1
aI0
aI2
aa(lp86
I1
aI0
aI2
aa(lp87
I0
aI1
aI2
aa(lp88
I1
aI0
aI2
aa(lp89
I0
aI1
aI2
aa(lp90
I1
aI2
aI0
aa(lp91
I0
aI1
aI2
aa(lp92
I0
aI1
aI2
aa(lp93
I0
aI2
aI1
aa(lp94
I1
aI0
aI2
aa(lp95
I2
aI1
aI0
aa(lp96
I0
aI2
aI1
aa(lp97
I1
aI0
aI2
aa(lp98
I1
aI0
aI2
aa(lp99
I1
aI0
aI2
aa(lp100
I1
aI0
aI2
aa(lp101
I0
aI1
aI2
aa(lp102
I0
aI2
aI1
aa(lp103
I1
aI0
aI2
aa(lp104
I1
aI0
aI2
aa(lp105
I2
aI0
aI1
aa(lp106
I1
aI2
aI0
aa(lp107
I0
aI1
aI2
aa(lp108
I1
aI2
aI0
aa(lp109
I0
aI1
aI2
aa(lp110
I0
aI2
aI1
aa(lp111
I0
aI1
aI2
aa(lp112
I0
aI1
aI2
aa(lp113
I1
aI0
aI2
aa(lp114
I0
aI2
aI1
aa(lp115
I1
aI0
aI2
aa(lp116
I0
aI1
aI2
aa(lp117
I0
aI1
aI2
aa(lp118
I0
aI1
aI2
aa(lp119
I0
aI1
aI2
aa(lp120
I1
aI2
aI0
aa(lp121
I1
aI0
aI2
aa(lp122
I1
aI2
aI0
aa(lp123
I0
aI1
aI2
aa(lp124
I0
aI2
aI1
aa(lp125
I1
aI2
aI0
aa(lp126
I0
aI2
aI1
aa(lp127
I0
aI1
aI2
aa(lp128
I1
aI2
aI0
aa(lp129
I1
aI0
aI2
aa(lp130
I0
aI2
aI1
aa(lp131
I0
aI1
aI2
aa(lp132
I0
aI1
aI2
aa(lp133
I0
aI1
aI2
aa(lp134
I0
aI1
aI2
aa(lp135
I0
aI1
aI2
aa(lp136
I1
aI0
aI2
aa(lp137
I0
aI1
aI2
aa(lp138
I0
aI1
aI2
aa(lp139
I1
aI0
aI2
aa(lp140
I1
aI0
aI2
aa(lp141
I1
aI0
aI2
aa(lp142
I0
aI2
aI1
aa(lp143
I1
aI0
aI2
aa(lp144
I1
aI0
aI2
aa(lp145
I0
aI2
aI1
aa(lp146
I1
aI2
aI0
aa(lp147
I0
aI1
aI2
aa(lp148
I1
aI0
aI2
aa(lp149
I0
aI1
aI2
aa(lp150
I1
aI0
aI2
aa(lp151
I0
aI1
aI2
aa(lp152
I1
aI0
aI2
aa(lp153
I0
aI1
aI2
aa(lp154
I0
aI1
aI2
aa(lp155
I0
aI1
aI2
aa(lp156
I0
aI1
aI2
aa(lp157
I0
aI1
aI2
aa(lp158
I0
aI1
aI2
aa(lp159
I1
aI0
aI2
aa(lp160
I1
aI0
aI2
aa(lp161
I1
aI0
aI2
aa(lp162
I0
aI1
aI2
aa(lp163
I1
aI2
aI0
aa(lp164
I1
aI0
aI2
aa(lp165
I0
aI1
aI2
aa(lp166
I1
aI0
aI2
aa(lp167
I0
aI1
aI2
aa(lp168
I0
aI1
aI2
aa(lp169
I1
aI0
aI2
aa(lp170
I0
aI1
aI2
aa(lp171
I1
aI0
aI2
aa(lp172
I1
aI0
aI2
aa(lp173
I1
aI0
aI2
aa(lp174
I1
aI0
aI2
aa(lp175
I0
aI1
aI2
aa(lp176
I0
aI1
aI2
aa(lp177
I1
aI0
aI2
aa(lp178
I1
aI0
aI2
aa(lp179
I2
aI0
aI1
aasS'PCMC'
p180
g2
(g3
(I0
tp181
g5
tp182
Rp183
(I1
(I6
tp184
g12
I00
S'*\xb0\x90\x1e\xedz\x0b@[W\x9d\xa0\xcb\xb6\x00@d\xa4\x94\x81\x9d\x93\x0b@\xfc\xa9\xf1\xd2MbP?d\x9cy\xde\xbd#.@\xf5J#\xf3\x9a\x97j?'
p185
tp186
bsS'PL'
p187
g2
(g3
(I0
tp188
g5
tp189
Rp190
(I1
(I3
tp191
g12
I00
S'\x9cXhlDu\xdf?j(\xda\x1f\xaaV\xdb?\xe0\xfb\xf5\xceE\xd0\xb4?'
p192
tp193
bsS'Mallows-greedy-RE'
p194
((lp195
I2
aI1
aI0
ag34
(g12
S'\xf2\x98\x18u\x94\x0f\xf6?'
p196
tp197
Rp198
tp199
s.