(dp0
S'PCMC-RE'
p1
cnumpy.core.multiarray
_reconstruct
p2
(cnumpy
ndarray
p3
(I0
tp4
S'b'
p5
tp6
Rp7
(I1
(I6
tp8
cnumpy
dtype
p9
(S'f8'
p10
I0
I1
tp11
Rp12
(I3
S'<'
p13
NNNI-1
I-1
I0
tp14
bI00
S'\xc7\x80{\x80\x0b\x81\x01@\xcd\x81\xa7\x87\xd8\xbf\\?\xef\xf9\xb0\x85\xd99\xe1?\x00\xb9\xe2\xe8\x90\xe6\xd6?\xfc\xa9\xf1\xd2MbP?<\xd3G\x0b\x8b\x9c\xdc?'
p15
tp16
bsS'MMNL-RE'
p17
g2
(g3
(I0
tp18
g5
tp19
Rp20
(I1
(I4
tp21
g12
I00
S'\x00\x00\x00\x00\x00\x00\xf0?\xc6\x99\xd8\x8f\xaeM\xd7?\xec\x0f\x16\x90G\xcb\xf3?\xa9\xb1\xb3\x88\xb2@\xec?'
p22
tp23
bsS'PL-RE'
p24
g2
(g3
(I0
tp25
g5
tp26
Rp27
(I1
(I3
tp28
g12
I00
S'\xb8a\x92I\x02\xc3\xc2?h\x86}ng\xdf\xdf?\xbdH\xb9l\x17\xbf\xd6?'
p29
tp30
bsS'N'
p31
I3
sS'Mallows-greedy'
p32
((lp33
I0
aI2
aI1
acnumpy.core.multiarray
scalar
p34
(g12
S'\x98/\x85\x911K\xf3?'
p35
tp36
Rp37
tp38
sS'MMNL'
p39
g2
(g3
(I0
tp40
g5
tp41
Rp42
(I1
(I4
tp43
g12
I00
S'\x00\x00\x00\x00\x00\x00\xf0?\x05\x01\xd8\xf7@\xd2\xf4?\xf6\xa6fK9\xbf\xd5?\xca\xbb%\xa4\xf9\xb0\xdd?'
p44
tp45
bsS'test-lists'
p46
(lp47
(lp48
I0
aI1
aI2
aa(lp49
I0
aI1
aI2
aa(lp50
I2
aI0
aI1
aa(lp51
I2
aI0
aI1
aa(lp52
I1
aI0
aI2
aa(lp53
I0
aI2
aI1
aa(lp54
I0
aI2
aI1
aa(lp55
I2
aI0
aI1
aa(lp56
I2
aI0
aI1
aa(lp57
I0
aI2
aI1
aa(lp58
I0
aI1
aI2
aa(lp59
I0
aI2
aI1
aa(lp60
I0
aI1
aI2
aa(lp61
I0
aI1
aI2
aa(lp62
I0
aI1
aI2
aa(lp63
I2
aI0
aI1
aa(lp64
I1
aI2
aI0
aa(lp65
I0
aI2
aI1
aa(lp66
I0
aI2
aI1
aa(lp67
I0
aI1
aI2
aa(lp68
I2
aI0
aI1
aa(lp69
I0
aI1
aI2
aa(lp70
I0
aI2
aI1
aa(lp71
I0
aI2
aI1
aa(lp72
I1
aI0
aI2
aa(lp73
I0
aI2
aI1
aa(lp74
I0
aI2
aI1
aa(lp75
I0
aI2
aI1
aa(lp76
I0
aI2
aI1
aa(lp77
I0
aI1
aI2
aa(lp78
I0
aI2
aI1
aa(lp79
I2
aI0
aI1
aa(lp80
I2
aI0
aI1
aa(lp81
I0
aI1
aI2
aa(lp82
I2
aI0
aI1
aa(lp83
I0
aI2
aI1
aa(lp84
I0
aI2
aI1
aa(lp85
I0
aI1
aI2
aa(lp86
I0
aI2
aI1
aa(lp87
I2
aI0
aI1
aa(lp88
I1
aI0
aI2
aa(lp89
I0
aI2
aI1
aa(lp90
I0
aI2
aI1
aa(lp91
I0
aI2
aI1
aa(lp92
I0
aI2
aI1
aa(lp93
I0
aI1
aI2
aa(lp94
I0
aI2
aI1
aa(lp95
I2
aI0
aI1
aa(lp96
I0
aI2
aI1
aa(lp97
I0
aI2
aI1
aa(lp98
I0
aI1
aI2
aa(lp99
I0
aI2
aI1
aa(lp100
I0
aI1
aI2
aa(lp101
I0
aI2
aI1
aa(lp102
I2
aI0
aI1
aa(lp103
I0
aI1
aI2
aa(lp104
I0
aI2
aI1
aa(lp105
I1
aI2
aI0
aa(lp106
I0
aI2
aI1
aa(lp107
I2
aI1
aI0
aa(lp108
I0
aI2
aI1
aa(lp109
I2
aI0
aI1
aa(lp110
I2
aI0
aI1
aa(lp111
I2
aI0
aI1
aa(lp112
I2
aI0
aI1
aa(lp113
I2
aI0
aI1
aa(lp114
I0
aI2
aI1
aa(lp115
I0
aI1
aI2
aa(lp116
I2
aI0
aI1
aa(lp117
I2
aI0
aI1
aa(lp118
I0
aI1
aI2
aa(lp119
I2
aI0
aI1
aa(lp120
I0
aI2
aI1
aasS'PCMC'
p121
g2
(g3
(I0
tp122
g5
tp123
Rp124
(I1
(I6
tp125
g12
I00
S'\xfc\xa9\xf1\xd2MbP?\x18h\x128\x8f3\xf1?\xa5\xc1\x93\xe4`ts?\xae\x9bCh\xee\xb3q?\x97\xba\x84\x0c{\xaf\x06@,\x85\x1a\xd4vVl?'
p126
tp127
bsS'PL'
p128
g2
(g3
(I0
tp129
g5
tp130
Rp131
(I1
(I3
tp132
g12
I00
S'\xca\xfaHY>\xc8\xe3?\x86j\xa4pb\xa9\xc4?R\xaa7*\xa45\xcc?'
p133
tp134
bsS'Mallows-greedy-RE'
p135
((lp136
I1
aI2
aI0
ag34
(g12
S'\x98/\x85\x911K\xf3?'
p137
tp138
Rp139
tp140
s.