(dp0
S'PCMC-RE'
p1
cnumpy.core.multiarray
_reconstruct
p2
(cnumpy
ndarray
p3
(I0
tp4
S'b'
p5
tp6
Rp7
(I1
(I12
tp8
cnumpy
dtype
p9
(S'f8'
p10
I0
I1
tp11
Rp12
(I3
S'<'
p13
NNNI-1
I-1
I0
tp14
bI00
S'\xa4\x89t|*0\x81?de\x11-\xfb#\xc9?\x98\x10HX\xac\x0b\xdd?\x9e\x0cJ\x99\x16V\xa1?D\\\x89\xb0\xbar\xba?\x0c*\xb6\xee\xbd\x03g?@Gl:\xdbT\xf9?o\xe7!\xcc\x12%\xa7?d\xc0\xba\xac\xf4P\xeb?\xc1\x13\x8a\x8a<p\xe7?\xfc\xa9\xf1\xd2MbP?\x1dx,\xec\x04\x9c\xd6?'
p15
tp16
bsS'MMNL-RE'
p17
g2
(g3
(I0
tp18
g5
tp19
Rp20
(I1
(I10
tp21
g12
I00
S'K\x0b\xf3_\x86\x80\xe5?j\xe9\x19@\xf3\xfe\xd4?#\xf6\xc6D\x8b\x07\xf2?\xa3\x02\x811\xd0\xd1\xf3?\xd8\xa7\xc5\n\xdehE?\xfa\xcda\x19\x88P\xe0?\xb1\x1d\xb0\xb4\xaboY?\xae\xe7\xb2\xfa\xcc\xad\xea?Dq\xbf\x1dU\xf2\xec?\x94\xfb?\xa9\xa5\xed\xe2>'
p22
tp23
bsS'PL-RE'
p24
g2
(g3
(I0
tp25
g5
tp26
Rp27
(I1
(I4
tp28
g12
I00
S'\xed\xb7\xf1\xfe\x92\xa2\xe1?\xeb\x97\xd8\x92C\x8e\xad?\x97]\xe1@T\xbf\xbb?\xc2%\x89\x7f<\x19\xd2?'
p29
tp30
bsS'N'
p31
I4
sS'Mallows-greedy'
p32
((lp33
I1
aI2
aI3
aI0
acnumpy.core.multiarray
scalar
p34
(g12
S'6R+\xae\x10U\xf7?'
p35
tp36
Rp37
tp38
sS'MMNL'
p39
g2
(g3
(I0
tp40
g5
tp41
Rp42
(I1
(I10
tp43
g12
I00
S'\xa4\x1c\xe6o%1\xe4?\xb7\xc63 \xb5\x9d\xd7?\x95\xd6&\xe8\x0b.\x11>\x99\xcea\x16\x1c\x92\xe3?\x91\x86\xc4\xc1B_\xf2?\xdf\xe9\xe5\xc7\xab\x11\xe7?\\\x8d\xcd}\x01\xb8\xde?\xc7\x8c+?Jy\xe7?\x95\xd6&\xe8\x0b.\x11>;\x96\xa5Gq\xfa\xf6?'
p44
tp45
bsS'test-lists'
p46
(lp47
(lp48
I1
aI2
aI0
aI3
aa(lp49
I0
aI2
aI1
aI3
aa(lp50
I3
aI1
aI2
aI0
aa(lp51
I3
aI1
aI2
aI0
aa(lp52
I1
aI3
aI2
aI0
aa(lp53
I2
aI1
aI3
aI0
aa(lp54
I1
aI2
aI3
aI0
aa(lp55
I1
aI2
aI3
aI0
aa(lp56
I1
aI2
aI0
aI3
aa(lp57
I1
aI2
aI0
aI3
aa(lp58
I1
aI2
aI3
aI0
aa(lp59
I1
aI2
aI3
aI0
aa(lp60
I1
aI2
aI3
aI0
aa(lp61
I3
aI2
aI0
aI1
aa(lp62
I1
aI2
aI3
aI0
aa(lp63
I1
aI3
aI2
aI0
aa(lp64
I1
aI3
aI2
aI0
aa(lp65
I1
aI3
aI2
aI0
aa(lp66
I1
aI0
aI2
aI3
aa(lp67
I1
aI2
aI3
aI0
aa(lp68
I3
aI0
aI2
aI1
aa(lp69
I1
aI2
aI3
aI0
aa(lp70
I2
aI1
aI3
aI0
aa(lp71
I2
aI1
aI3
aI0
aa(lp72
I1
aI0
aI3
aI2
aa(lp73
I1
aI2
aI3
aI0
aa(lp74
I2
aI1
aI0
aI3
aa(lp75
I1
aI2
aI0
aI3
aa(lp76
I3
aI0
aI2
aI1
aa(lp77
I1
aI2
aI3
aI0
aa(lp78
I2
aI1
aI0
aI3
aa(lp79
I1
aI2
aI0
aI3
aa(lp80
I1
aI0
aI2
aI3
aa(lp81
I2
aI1
aI3
aI0
aa(lp82
I2
aI1
aI3
aI0
aa(lp83
I1
aI2
aI0
aI3
aa(lp84
I2
aI0
aI3
aI1
aa(lp85
I2
aI1
aI3
aI0
aa(lp86
I1
aI2
aI0
aI3
aa(lp87
I2
aI3
aI0
aI1
aa(lp88
I1
aI2
aI0
aI3
aa(lp89
I1
aI3
aI0
aI2
aa(lp90
I2
aI1
aI3
aI0
aa(lp91
I1
aI0
aI2
aI3
aa(lp92
I0
aI1
aI2
aI3
aa(lp93
I1
aI2
aI0
aI3
aa(lp94
I2
aI1
aI0
aI3
aa(lp95
I1
aI2
aI3
aI0
aa(lp96
I3
aI1
aI0
aI2
aa(lp97
I1
aI3
aI2
aI0
aa(lp98
I3
aI0
aI1
aI2
aa(lp99
I1
aI3
aI0
aI2
aa(lp100
I1
aI2
aI0
aI3
aa(lp101
I2
aI1
aI3
aI0
aa(lp102
I1
aI2
aI3
aI0
aa(lp103
I2
aI1
aI0
aI3
aa(lp104
I1
aI3
aI0
aI2
aa(lp105
I1
aI2
aI3
aI0
aa(lp106
I1
aI2
aI3
aI0
aa(lp107
I2
aI3
aI1
aI0
aa(lp108
I1
aI2
aI3
aI0
aa(lp109
I2
aI1
aI3
aI0
aa(lp110
I1
aI3
aI2
aI0
aa(lp111
I1
aI3
aI2
aI0
aa(lp112
I1
aI2
aI3
aI0
aa(lp113
I2
aI1
aI3
aI0
aa(lp114
I0
aI3
aI1
aI2
aa(lp115
I1
aI2
aI3
aI0
aa(lp116
I1
aI2
aI3
aI0
aa(lp117
I1
aI2
aI0
aI3
aa(lp118
I1
aI2
aI3
aI0
aa(lp119
I1
aI2
aI3
aI0
aa(lp120
I3
aI1
aI0
aI2
aa(lp121
I2
aI1
aI0
aI3
aa(lp122
I1
aI2
aI0
aI3
aa(lp123
I2
aI0
aI3
aI1
aa(lp124
I3
aI1
aI2
aI0
aa(lp125
I1
aI2
aI3
aI0
aa(lp126
I2
aI1
aI0
aI3
aa(lp127
I1
aI3
aI2
aI0
aa(lp128
I2
aI1
aI3
aI0
aa(lp129
I2
aI3
aI0
aI1
aa(lp130
I2
aI3
aI1
aI0
aa(lp131
I2
aI0
aI3
aI1
aasS'PCMC'
p132
g2
(g3
(I0
tp133
g5
tp134
Rp135
(I1
(I12
tp136
g12
I00
S'\xfc\xa9\xf1\xd2MbP?\xc7\xce``\xefHq@\xfd\x931\xbac\x97<@\xbey\xe0mXcP?\x98W\xe4\x14\x83q3@\x86S\xc90\xd9\xf1+@\x10\x95\xab\xc7nlE@\xba\xfdwx\x7f/C@\x86\x18\xa3\xb9L;\x02@\xe5\xb9\xd1\xc1]\x813@;j\xe5\xa4>gO@\xd0\xef\xfe\xa7\xd21\x03@'
p137
tp138
bsS'PL'
p139
g2
(g3
(I0
tp140
g5
tp141
Rp142
(I1
(I4
tp143
g12
I00
S'\x9911\xcf\xc9$\xb1?c\x86o\xbb\xb9\x99\xe0?sA\x92\x9eK\x9a\xd3?y\x95\t\xdb9\xa4\xbb?'
p144
tp145
bsS'Mallows-greedy-RE'
p146
((lp147
I0
aI3
aI2
aI1
ag34
(g12
S'6R+\xae\x10U\xf7?'
p148
tp149
Rp150
tp151
s.