(dp0
S'PCMC-RE'
p1
cnumpy.core.multiarray
_reconstruct
p2
(cnumpy
ndarray
p3
(I0
tp4
S'b'
p5
tp6
Rp7
(I1
(I12
tp8
cnumpy
dtype
p9
(S'f8'
p10
I0
I1
tp11
Rp12
(I3
S'<'
p13
NNNI-1
I-1
I0
tp14
bI00
S'\xdf\t7\x0e)\x98\x86?}\xf6\x03\xa6\xd6\xbai?p@F\xf6J\x89\x87?0\x8dZ\xfa\xa8\xc4V?D\xd5\xf0\xf5\xb1\x07\xe4?\xda}\xca\x8a\xfe\xe1\x07@\xfc\xa9\xf1\xd2MbP?\x8f\xf5\xedq<\xc0\xe0?\x82)C[?m\xfb?\xb9\xcdJ\xf1\xe5\xc6}?-\xf9\x98\x8eL-\x00@\xb8)\x9e\x16\x9c\xfe\xf2?'
p15
tp16
bsS'MMNL-RE'
p17
g2
(g3
(I0
tp18
g5
tp19
Rp20
(I1
(I10
tp21
g12
I00
S"d\x11\xd7\\7\xec\xe4?9\xddQF\x91'\xd6?\x00\x00\x00\xe8\x0b.\x11>\xd2\xb61\xa8C\xdd\xf1?\xba\xfd\x89\x9c\x81\xfb\xd1?\x9dp\x8d-%M\xf8?\x95\xe2z\xd8\xfa\xa1\xe1?Z\x97\xa6N\x17\x07\xe2?tn3\xc8\xe97\xf3?\x95\xd6&\xe8\x0b.\x11>"
p22
tp23
bsS'PL-RE'
p24
g2
(g3
(I0
tp25
g5
tp26
Rp27
(I1
(I4
tp28
g12
I00
S'Z\xdeK+x\x0e\xb9?\xfe8\t2\xdf\x07\xd2?\xa7\xb2z\xa6\x16\x90\xd1?\xc5\x1c\xa9\x1cl$\xd6?'
p29
tp30
bsS'N'
p31
I4
sS'Mallows-greedy'
p32
((lp33
I0
aI1
aI2
aI3
acnumpy.core.multiarray
scalar
p34
(g12
S'o\xfb~81\xdb\xf0?'
p35
tp36
Rp37
tp38
sS'MMNL'
p39
g2
(g3
(I0
tp40
g5
tp41
Rp42
(I1
(I10
tp43
g12
I00
S'E&rE\x99\xf7\xdd?\xdd\xecF]3\x04\xe1?\x95\xd6&\xe8\x0b.\x11>J\xdfR\xfe\xbf\xfb\x01@:\xa9\xae\x1dY\xd7\xe1?\xc8\x93\x90\xcf\xf9C\x9d?\xd3\xadw\x80\x0bp\xf1?\x82\xcfLN\x06\xa0}?\x80L\xe3\x86$\xc9\xf0?<;\xcd\xda\xe1\x1cf?'
p44
tp45
bsS'test-lists'
p46
(lp47
(lp48
I0
aI1
aI2
aI3
aa(lp49
I0
aI2
aI1
aI3
aa(lp50
I0
aI1
aI2
aI3
aa(lp51
I0
aI3
aI2
aI1
aa(lp52
I1
aI0
aI3
aI2
aa(lp53
I0
aI1
aI2
aI3
aa(lp54
I0
aI2
aI3
aI1
aa(lp55
I0
aI1
aI2
aI3
aa(lp56
I0
aI1
aI2
aI3
aa(lp57
I0
aI1
aI2
aI3
aa(lp58
I0
aI1
aI2
aI3
aa(lp59
I2
aI1
aI0
aI3
aa(lp60
I2
aI0
aI1
aI3
aa(lp61
I0
aI1
aI2
aI3
aa(lp62
I0
aI1
aI2
aI3
aa(lp63
I0
aI2
aI1
aI3
aa(lp64
I0
aI3
aI2
aI1
aa(lp65
I0
aI3
aI1
aI2
aa(lp66
I2
aI0
aI1
aI3
aa(lp67
I3
aI0
aI2
aI1
aa(lp68
I0
aI1
aI2
aI3
aa(lp69
I0
aI3
aI1
aI2
aa(lp70
I0
aI1
aI2
aI3
aa(lp71
I0
aI3
aI2
aI1
aa(lp72
I0
aI1
aI2
aI3
aa(lp73
I1
aI2
aI0
aI3
aa(lp74
I0
aI1
aI2
aI3
aa(lp75
I0
aI2
aI1
aI3
aa(lp76
I3
aI0
aI1
aI2
aa(lp77
I0
aI1
aI2
aI3
aa(lp78
I3
aI1
aI0
aI2
aa(lp79
I0
aI1
aI3
aI2
aa(lp80
I0
aI1
aI3
aI2
aa(lp81
I0
aI3
aI2
aI1
aa(lp82
I0
aI3
aI1
aI2
aa(lp83
I1
aI0
aI3
aI2
aa(lp84
I3
aI2
aI0
aI1
aa(lp85
I0
aI1
aI2
aI3
aa(lp86
I2
aI1
aI0
aI3
aa(lp87
I3
aI1
aI2
aI0
aa(lp88
I0
aI2
aI3
aI1
aa(lp89
I1
aI3
aI2
aI0
aa(lp90
I0
aI3
aI2
aI1
aa(lp91
I2
aI1
aI3
aI0
aa(lp92
I0
aI2
aI1
aI3
aa(lp93
I0
aI2
aI1
aI3
aa(lp94
I2
aI0
aI1
aI3
aa(lp95
I2
aI0
aI1
aI3
aa(lp96
I0
aI3
aI1
aI2
aa(lp97
I0
aI1
aI2
aI3
aa(lp98
I0
aI1
aI2
aI3
aa(lp99
I0
aI3
aI1
aI2
aa(lp100
I0
aI1
aI2
aI3
aa(lp101
I0
aI1
aI2
aI3
aa(lp102
I0
aI2
aI1
aI3
aa(lp103
I3
aI2
aI0
aI1
aa(lp104
I3
aI0
aI2
aI1
aa(lp105
I2
aI3
aI0
aI1
aa(lp106
I0
aI2
aI1
aI3
aa(lp107
I0
aI2
aI1
aI3
aa(lp108
I2
aI0
aI1
aI3
aa(lp109
I3
aI0
aI2
aI1
aa(lp110
I0
aI2
aI3
aI1
aa(lp111
I0
aI1
aI2
aI3
aa(lp112
I0
aI2
aI1
aI3
aa(lp113
I0
aI1
aI2
aI3
aa(lp114
I0
aI1
aI2
aI3
aa(lp115
I2
aI3
aI1
aI0
aa(lp116
I3
aI0
aI1
aI2
aa(lp117
I0
aI1
aI2
aI3
aa(lp118
I0
aI2
aI3
aI1
aa(lp119
I3
aI1
aI0
aI2
aa(lp120
I0
aI2
aI1
aI3
aa(lp121
I0
aI2
aI1
aI3
aa(lp122
I0
aI1
aI2
aI3
aa(lp123
I2
aI0
aI3
aI1
aa(lp124
I3
aI0
aI1
aI2
aa(lp125
I0
aI3
aI2
aI1
aa(lp126
I0
aI1
aI3
aI2
aa(lp127
I2
aI0
aI3
aI1
aa(lp128
I0
aI3
aI2
aI1
aa(lp129
I1
aI0
aI3
aI2
aa(lp130
I2
aI0
aI1
aI3
aasS'PCMC'
p131
g2
(g3
(I0
tp132
g5
tp133
Rp134
(I1
(I12
tp135
g12
I00
S"^\x87\xdb}\xa4\n\x03@\x86\x04\xbf\xcacM\xe3?`\xc2\x12\xee\xaf\x9b\x8a?\xf4'\xa7\x08s\xea\x1d@\xd8\xbb\xf2\x04\xe3N\xc3?\xfc\xa9\xf1\xd2MbP?I\xf7\xefq\xd9_\xf7?\xa6\x80\x90R\xaf\\\xcd?\x1f\t\xfal\xc5\xfc\xa0?'9\xb1c^\xc0\x8b?{b8\x96\x8e\xdcX?'\x19\x92\xee[\xd8\xaf?"
p136
tp137
bsS'PL'
p138
g2
(g3
(I0
tp139
g5
tp140
Rp141
(I1
(I4
tp142
g12
I00
S'\x97\x9bD:\xe2\xb1\xdd?\x04y\xa3\xc6(I\xca?Q\x17{@\xacY\xc8?\x818X\x84f\xf9\xc1?'
p143
tp144
bsS'Mallows-greedy-RE'
p145
((lp146
I3
aI2
aI1
aI0
ag34
(g12
S'o\xfb~81\xdb\xf0?'
p147
tp148
Rp149
tp150
s.