(dp0
S'PCMC-RE'
p1
cnumpy.core.multiarray
_reconstruct
p2
(cnumpy
ndarray
p3
(I0
tp4
S'b'
p5
tp6
Rp7
(I1
(I6
tp8
cnumpy
dtype
p9
(S'f8'
p10
I0
I1
tp11
Rp12
(I3
S'<'
p13
NNNI-1
I-1
I0
tp14
bI00
S'\xbcQ\x05\xe797\xd9?\xad\xf6\x0b\xb45\x19\xe5?\xa6I\xfa|dd\x10@!\x96\x8c\x85\xe9\xd0~?\xf1\xcb\xd4-\xe0\x10\xf8?\x9a\xe5Ns\xd8\xd5d?'
p15
tp16
bsS'MMNL-RE'
p17
g2
(g3
(I0
tp18
g5
tp19
Rp20
(I1
(I4
tp21
g12
I00
S'\x00\x00\x00\x00\x00\x00\xf0?\x18N3\x9e9\xf2\x00@\xf58\x1d\xcf\xa7\x1d\xd0?\xa5\x81<_\xdd\xa0\xeb?'
p22
tp23
bsS'PL-RE'
p24
g2
(g3
(I0
tp25
g5
tp26
Rp27
(I1
(I3
tp28
g12
I00
S'\xc2\xdd\xadm\xa1\xf6\xe4?\xce\x1c\xbe\xb5\xbb\xef\xb3?H\xbd47\xce\x16\xd1?'
p29
tp30
bsS'N'
p31
I3
sS'Mallows-greedy'
p32
((lp33
I1
aI2
aI0
acnumpy.core.multiarray
scalar
p34
(g12
S'\x94\xc0G\xb0H\x86\xf9?'
p35
tp36
Rp37
tp38
sS'MMNL'
p39
g2
(g3
(I0
tp40
g5
tp41
Rp42
(I1
(I4
tp43
g12
I00
S'\x00\x00\x00\x00\x00\x00\xf0?\xa2,\xcb\x19\x19C\xcc?0\xcf:w\xce)\xff?@\xee\x1f,,\xa6\xe0?'
p44
tp45
bsS'test-lists'
p46
(lp47
(lp48
I1
aI2
aI0
aa(lp49
I1
aI2
aI0
aa(lp50
I1
aI2
aI0
aa(lp51
I1
aI2
aI0
aa(lp52
I1
aI0
aI2
aa(lp53
I1
aI2
aI0
aa(lp54
I1
aI2
aI0
aa(lp55
I1
aI0
aI2
aa(lp56
I1
aI2
aI0
aa(lp57
I1
aI2
aI0
aa(lp58
I1
aI2
aI0
aa(lp59
I1
aI0
aI2
aa(lp60
I1
aI0
aI2
aa(lp61
I2
aI1
aI0
aa(lp62
I1
aI2
aI0
aa(lp63
I2
aI1
aI0
aa(lp64
I2
aI1
aI0
aa(lp65
I1
aI2
aI0
aa(lp66
I1
aI2
aI0
aa(lp67
I1
aI2
aI0
aa(lp68
I2
aI1
aI0
aa(lp69
I1
aI2
aI0
aa(lp70
I2
aI1
aI0
aa(lp71
I2
aI1
aI0
aa(lp72
I1
aI0
aI2
aa(lp73
I1
aI0
aI2
aa(lp74
I1
aI2
aI0
aa(lp75
I2
aI1
aI0
aa(lp76
I1
aI0
aI2
aa(lp77
I1
aI0
aI2
aa(lp78
I1
aI0
aI2
aa(lp79
I1
aI2
aI0
aa(lp80
I1
aI2
aI0
aa(lp81
I1
aI2
aI0
aa(lp82
I1
aI2
aI0
aa(lp83
I1
aI2
aI0
aa(lp84
I1
aI2
aI0
aa(lp85
I1
aI2
aI0
aa(lp86
I0
aI1
aI2
aa(lp87
I1
aI2
aI0
aa(lp88
I1
aI2
aI0
aa(lp89
I1
aI2
aI0
aa(lp90
I1
aI2
aI0
aa(lp91
I1
aI2
aI0
aa(lp92
I1
aI2
aI0
aa(lp93
I1
aI0
aI2
aa(lp94
I1
aI2
aI0
aa(lp95
I1
aI2
aI0
aa(lp96
I1
aI0
aI2
aa(lp97
I1
aI2
aI0
aa(lp98
I1
aI0
aI2
aa(lp99
I1
aI2
aI0
aa(lp100
I1
aI0
aI2
aa(lp101
I2
aI1
aI0
aa(lp102
I2
aI1
aI0
aa(lp103
I1
aI2
aI0
aa(lp104
I1
aI2
aI0
aa(lp105
I1
aI0
aI2
aa(lp106
I1
aI2
aI0
aa(lp107
I1
aI0
aI2
aa(lp108
I1
aI2
aI0
aa(lp109
I2
aI1
aI0
aa(lp110
I1
aI2
aI0
aa(lp111
I1
aI2
aI0
aa(lp112
I1
aI0
aI2
aa(lp113
I1
aI2
aI0
aa(lp114
I2
aI1
aI0
aa(lp115
I1
aI2
aI0
aa(lp116
I1
aI2
aI0
aa(lp117
I1
aI2
aI0
aa(lp118
I1
aI0
aI2
aa(lp119
I1
aI2
aI0
aa(lp120
I1
aI2
aI0
aa(lp121
I1
aI2
aI0
aa(lp122
I2
aI1
aI0
aasS'PCMC'
p123
g2
(g3
(I0
tp124
g5
tp125
Rp126
(I1
(I6
tp127
g12
I00
S':\xeb\x1a\xf3Z\x93\x90@y]\xe3\xf5KB\xc3?w\x80\x8f\xf4\x1d\xf4Y@\xc7\x1cn\xb9\x03\x8dx?\xde,kre\xc2\xb1?\x9d\xee\xc4\xfc\xafk\x82?'
p128
tp129
bsS'PL'
p130
g2
(g3
(I0
tp131
g5
tp132
Rp133
(I1
(I3
tp134
g12
I00
S'/\x1f\xf2\x84\xaa\x05\xb5?\xf7\xc6\xc3\x8f!.\xe7?\x89\xd4w~\xa4\xc4\xc8?'
p135
tp136
bsS'Mallows-greedy-RE'
p137
((lp138
I0
aI2
aI1
ag34
(g12
S'\x94\xc0G\xb0H\x86\xf9?'
p139
tp140
Rp141
tp142
s.