(dp0
S'PCMC-RE'
p1
cnumpy.core.multiarray
_reconstruct
p2
(cnumpy
ndarray
p3
(I0
tp4
S'b'
p5
tp6
Rp7
(I1
(I6
tp8
cnumpy
dtype
p9
(S'f8'
p10
I0
I1
tp11
Rp12
(I3
S'<'
p13
NNNI-1
I-1
I0
tp14
bI00
S'\xcd\x04\xbd\xf3\xd6\xe14@\x8e 7#p\xbe\xab?D\x8c|+\x9b\xb2!@3\xe4\x00\xbf\xa8\xcf-@\x83\x0e\x84\xd1\xa4T\xa4?{\xc0\xc3\xb16\x10*@'
p15
tp16
bsS'MMNL-RE'
p17
g2
(g3
(I0
tp18
g5
tp19
Rp20
(I1
(I4
tp21
g12
I00
S'\x00\x00\x00\x00\x00\x00\xf0?r\xbf\xc2\xc4\xb4\x8e\xd9?\x1d \x00\xa8|\xe5\xe9?\xca\x88f[\xbf\xb6\xec?'
p22
tp23
bsS'PL-RE'
p24
g2
(g3
(I0
tp25
g5
tp26
Rp27
(I1
(I3
tp28
g12
I00
S'\xbfN\x13#\xacE\xc8??3\x1d\x82\x16\x98\xd8?`%Yl\x13E\xdb?'
p29
tp30
bsS'N'
p31
I3
sS'Mallows-greedy'
p32
((lp33
I0
aI1
aI2
acnumpy.core.multiarray
scalar
p34
(g12
S'\xd0t\x92.\xf5\xa5\xf0?'
p35
tp36
Rp37
tp38
sS'MMNL'
p39
g2
(g3
(I0
tp40
g5
tp41
Rp42
(I1
(I4
tp43
g12
I00
S'\x00\x00\x00\x00\x00\x00\xf0?Z\x9e\xac\x7f4\xb1\xf3?\x81\x8aRy\xecV\xe2?\x8c\x9c\x16\xb1C!\xdf?'
p44
tp45
bsS'test-lists'
p46
(lp47
(lp48
I2
aI0
aI1
aa(lp49
I1
aI2
aI0
aa(lp50
I1
aI0
aI2
aa(lp51
I2
aI0
aI1
aa(lp52
I1
aI0
aI2
aa(lp53
I1
aI0
aI2
aa(lp54
I2
aI0
aI1
aa(lp55
I2
aI0
aI1
aa(lp56
I0
aI1
aI2
aa(lp57
I0
aI2
aI1
aa(lp58
I0
aI1
aI2
aa(lp59
I0
aI1
aI2
aa(lp60
I2
aI0
aI1
aa(lp61
I0
aI1
aI2
aa(lp62
I1
aI0
aI2
aa(lp63
I1
aI0
aI2
aa(lp64
I2
aI0
aI1
aa(lp65
I0
aI1
aI2
aa(lp66
I2
aI0
aI1
aa(lp67
I2
aI1
aI0
aa(lp68
I0
aI2
aI1
aa(lp69
I0
aI1
aI2
aa(lp70
I0
aI1
aI2
aa(lp71
I0
aI1
aI2
aa(lp72
I2
aI1
aI0
aa(lp73
I2
aI0
aI1
aa(lp74
I2
aI0
aI1
aa(lp75
I0
aI1
aI2
aa(lp76
I2
aI0
aI1
aa(lp77
I1
aI0
aI2
aa(lp78
I0
aI1
aI2
aa(lp79
I1
aI0
aI2
aa(lp80
I0
aI1
aI2
aa(lp81
I0
aI2
aI1
aa(lp82
I0
aI1
aI2
aa(lp83
I1
aI0
aI2
aa(lp84
I2
aI0
aI1
aa(lp85
I1
aI0
aI2
aa(lp86
I2
aI0
aI1
aa(lp87
I0
aI2
aI1
aa(lp88
I0
aI1
aI2
aa(lp89
I2
aI0
aI1
aa(lp90
I1
aI0
aI2
aa(lp91
I1
aI0
aI2
aa(lp92
I0
aI1
aI2
aa(lp93
I0
aI1
aI2
aa(lp94
I0
aI2
aI1
aa(lp95
I1
aI0
aI2
aa(lp96
I2
aI1
aI0
aa(lp97
I0
aI2
aI1
aa(lp98
I2
aI0
aI1
aa(lp99
I1
aI0
aI2
aa(lp100
I0
aI1
aI2
aa(lp101
I0
aI2
aI1
aa(lp102
I0
aI1
aI2
aa(lp103
I2
aI1
aI0
aa(lp104
I0
aI1
aI2
aa(lp105
I0
aI1
aI2
aa(lp106
I2
aI0
aI1
aa(lp107
I1
aI2
aI0
aa(lp108
I0
aI1
aI2
aa(lp109
I1
aI0
aI2
aa(lp110
I1
aI2
aI0
aa(lp111
I2
aI0
aI1
aa(lp112
I2
aI1
aI0
aa(lp113
I1
aI2
aI0
aa(lp114
I2
aI0
aI1
aa(lp115
I0
aI2
aI1
aa(lp116
I2
aI0
aI1
aa(lp117
I0
aI2
aI1
aa(lp118
I0
aI2
aI1
aa(lp119
I0
aI1
aI2
aa(lp120
I0
aI1
aI2
aa(lp121
I0
aI1
aI2
aa(lp122
I1
aI2
aI0
aa(lp123
I1
aI0
aI2
aa(lp124
I0
aI2
aI1
aa(lp125
I0
aI2
aI1
aa(lp126
I0
aI2
aI1
aa(lp127
I2
aI0
aI1
aa(lp128
I0
aI2
aI1
aa(lp129
I0
aI2
aI1
aa(lp130
I1
aI0
aI2
aa(lp131
I0
aI1
aI2
aa(lp132
I0
aI1
aI2
aa(lp133
I0
aI1
aI2
aa(lp134
I0
aI1
aI2
aa(lp135
I2
aI0
aI1
aa(lp136
I0
aI1
aI2
aa(lp137
I1
aI2
aI0
aa(lp138
I1
aI0
aI2
aa(lp139
I0
aI2
aI1
aa(lp140
I0
aI1
aI2
aa(lp141
I2
aI0
aI1
aa(lp142
I0
aI1
aI2
aa(lp143
I1
aI0
aI2
aa(lp144
I0
aI1
aI2
aa(lp145
I2
aI1
aI0
aa(lp146
I0
aI2
aI1
aa(lp147
I2
aI1
aI0
aa(lp148
I0
aI1
aI2
aa(lp149
I2
aI0
aI1
aa(lp150
I0
aI1
aI2
aa(lp151
I0
aI2
aI1
aa(lp152
I2
aI0
aI1
aa(lp153
I0
aI2
aI1
aa(lp154
I2
aI0
aI1
aa(lp155
I1
aI0
aI2
aa(lp156
I0
aI1
aI2
aa(lp157
I0
aI1
aI2
aa(lp158
I0
aI1
aI2
aa(lp159
I2
aI0
aI1
aa(lp160
I0
aI2
aI1
aa(lp161
I0
aI1
aI2
aa(lp162
I1
aI0
aI2
aa(lp163
I0
aI1
aI2
aa(lp164
I1
aI0
aI2
aa(lp165
I1
aI0
aI2
aa(lp166
I1
aI0
aI2
aa(lp167
I2
aI1
aI0
aa(lp168
I2
aI1
aI0
aa(lp169
I2
aI0
aI1
aa(lp170
I0
aI2
aI1
aa(lp171
I0
aI2
aI1
aa(lp172
I1
aI0
aI2
aa(lp173
I0
aI2
aI1
aa(lp174
I0
aI2
aI1
aa(lp175
I2
aI0
aI1
aa(lp176
I0
aI1
aI2
aa(lp177
I2
aI0
aI1
aa(lp178
I1
aI2
aI0
aa(lp179
I0
aI1
aI2
aa(lp180
I0
aI2
aI1
aa(lp181
I1
aI0
aI2
aa(lp182
I0
aI2
aI1
aa(lp183
I2
aI0
aI1
aa(lp184
I0
aI2
aI1
aa(lp185
I0
aI2
aI1
aa(lp186
I0
aI1
aI2
aa(lp187
I1
aI0
aI2
aa(lp188
I2
aI0
aI1
aa(lp189
I0
aI1
aI2
aa(lp190
I1
aI0
aI2
aa(lp191
I2
aI0
aI1
aa(lp192
I0
aI1
aI2
aa(lp193
I0
aI1
aI2
aa(lp194
I0
aI1
aI2
aa(lp195
I0
aI1
aI2
aa(lp196
I2
aI0
aI1
aa(lp197
I1
aI2
aI0
aa(lp198
I1
aI0
aI2
aa(lp199
I0
aI1
aI2
aa(lp200
I0
aI1
aI2
aa(lp201
I0
aI1
aI2
aa(lp202
I0
aI1
aI2
aa(lp203
I0
aI2
aI1
aa(lp204
I0
aI2
aI1
aa(lp205
I0
aI1
aI2
aa(lp206
I0
aI2
aI1
aa(lp207
I2
aI1
aI0
aa(lp208
I1
aI0
aI2
aa(lp209
I0
aI2
aI1
aa(lp210
I2
aI0
aI1
aasS'PCMC'
p211
g2
(g3
(I0
tp212
g5
tp213
Rp214
(I1
(I6
tp215
g12
I00
S'_\xd9\xc89\xe2\xa3\xe0?\x88p\x92D\xd4\xf4\xe2?!\x8b\x03\x0crW\xf3?\xfc\xa9\xf1\xd2MbP?D\xd4\x8c\xad\xa6\xeb\xf5?\x01\xde)\xdcN\xefV?'
p216
tp217
bsS'PL'
p218
g2
(g3
(I0
tp219
g5
tp220
Rp221
(I1
(I3
tp222
g12
I00
S"\x8b'\x9e\x8dD2\xe1?\x99\xdbb\x89\xdc\x03\xd0?\xa3\xaa\xc1\xb64/\xcb?"
p223
tp224
bsS'Mallows-greedy-RE'
p225
((lp226
I2
aI1
aI0
ag34
(g12
S'\xd0t\x92.\xf5\xa5\xf0?'
p227
tp228
Rp229
tp230
s.