(dp0
S'PCMC-RE'
p1
cnumpy.core.multiarray
_reconstruct
p2
(cnumpy
ndarray
p3
(I0
tp4
S'b'
p5
tp6
Rp7
(I1
(I6
tp8
cnumpy
dtype
p9
(S'f8'
p10
I0
I1
tp11
Rp12
(I3
S'<'
p13
NNNI-1
I-1
I0
tp14
bI00
S'\xb1\xd5o\xc8+\xe6o?i23/\xf0\xf9-@\xfc\xa9\xf1\xd2MbP?\xe3|\xcdDz\x00\xc8?\xcaI\xae\\Gl\xfd?\xfe\x88\xa1\x1f\xfb\xa4\xd3?'
p15
tp16
bsS'MMNL-RE'
p17
g2
(g3
(I0
tp18
g5
tp19
Rp20
(I1
(I4
tp21
g12
I00
S'\x00\x00\x00\x00\x00\x00\xf0?\x95M\xbf\x18\xa0\xf4\xc1?\x94y\xb8\xdc\xdb\x82\xf3?]@\xc9\xea{\xf5\xea?'
p22
tp23
bsS'PL-RE'
p24
g2
(g3
(I0
tp25
g5
tp26
Rp27
(I1
(I3
tp28
g12
I00
S'>V\x17H\x97N\xb0?\x0cf\x98\xb6B\xb8\xe1?Y^\xc9\xc0\xd4{\xd8?'
p29
tp30
bsS'N'
p31
I3
sS'Mallows-greedy'
p32
((lp33
I0
aI2
aI1
acnumpy.core.multiarray
scalar
p34
(g12
S'\xfd\xb0\xb3\x98\x12\xad\xf9?'
p35
tp36
Rp37
tp38
sS'MMNL'
p39
g2
(g3
(I0
tp40
g5
tp41
Rp42
(I1
(I4
tp43
g12
I00
S'\x00\x00\x00\x00\x00\x00\xf0?\xf9\xb4\xff2Z4\xfa?\x8a\x0b\x9ckL\x02\xc3?\xd7ZSK\x86\r\xcd?'
p44
tp45
bsS'test-lists'
p46
(lp47
(lp48
I0
aI1
aI2
aa(lp49
I0
aI2
aI1
aa(lp50
I1
aI0
aI2
aa(lp51
I2
aI0
aI1
aa(lp52
I0
aI2
aI1
aa(lp53
I0
aI2
aI1
aa(lp54
I0
aI1
aI2
aa(lp55
I0
aI2
aI1
aa(lp56
I0
aI1
aI2
aa(lp57
I2
aI0
aI1
aa(lp58
I0
aI2
aI1
aa(lp59
I0
aI2
aI1
aa(lp60
I0
aI1
aI2
aa(lp61
I0
aI1
aI2
aa(lp62
I0
aI2
aI1
aa(lp63
I0
aI2
aI1
aa(lp64
I0
aI1
aI2
aa(lp65
I0
aI1
aI2
aa(lp66
I2
aI1
aI0
aa(lp67
I2
aI0
aI1
aa(lp68
I0
aI2
aI1
aa(lp69
I1
aI0
aI2
aa(lp70
I0
aI1
aI2
aa(lp71
I0
aI2
aI1
aa(lp72
I0
aI1
aI2
aa(lp73
I0
aI2
aI1
aa(lp74
I2
aI0
aI1
aa(lp75
I0
aI2
aI1
aa(lp76
I1
aI2
aI0
aa(lp77
I0
aI2
aI1
aa(lp78
I0
aI1
aI2
aa(lp79
I1
aI0
aI2
aa(lp80
I0
aI2
aI1
aa(lp81
I0
aI1
aI2
aa(lp82
I0
aI2
aI1
aa(lp83
I0
aI2
aI1
aa(lp84
I0
aI2
aI1
aa(lp85
I1
aI0
aI2
aa(lp86
I0
aI2
aI1
aa(lp87
I0
aI2
aI1
aa(lp88
I0
aI1
aI2
aa(lp89
I0
aI1
aI2
aa(lp90
I0
aI2
aI1
aa(lp91
I0
aI2
aI1
aa(lp92
I0
aI2
aI1
aa(lp93
I0
aI1
aI2
aa(lp94
I0
aI2
aI1
aa(lp95
I0
aI2
aI1
aa(lp96
I0
aI2
aI1
aa(lp97
I0
aI1
aI2
aa(lp98
I0
aI2
aI1
aa(lp99
I0
aI1
aI2
aa(lp100
I0
aI2
aI1
aa(lp101
I0
aI2
aI1
aa(lp102
I0
aI2
aI1
aa(lp103
I0
aI1
aI2
aa(lp104
I0
aI1
aI2
aa(lp105
I0
aI1
aI2
aa(lp106
I0
aI2
aI1
aa(lp107
I0
aI2
aI1
aa(lp108
I0
aI1
aI2
aa(lp109
I0
aI1
aI2
aa(lp110
I0
aI2
aI1
aa(lp111
I0
aI2
aI1
aa(lp112
I0
aI2
aI1
aa(lp113
I0
aI2
aI1
aa(lp114
I1
aI0
aI2
aa(lp115
I0
aI2
aI1
aa(lp116
I2
aI0
aI1
aa(lp117
I2
aI0
aI1
aa(lp118
I0
aI2
aI1
aa(lp119
I0
aI1
aI2
aa(lp120
I0
aI2
aI1
aa(lp121
I2
aI0
aI1
aa(lp122
I0
aI1
aI2
aa(lp123
I0
aI2
aI1
aa(lp124
I0
aI2
aI1
aa(lp125
I0
aI2
aI1
aa(lp126
I0
aI2
aI1
aa(lp127
I0
aI2
aI1
aa(lp128
I1
aI0
aI2
aa(lp129
I0
aI1
aI2
aa(lp130
I0
aI2
aI1
aa(lp131
I0
aI1
aI2
aa(lp132
I0
aI2
aI1
aa(lp133
I0
aI2
aI1
aa(lp134
I0
aI1
aI2
aa(lp135
I0
aI1
aI2
aasS'PCMC'
p136
g2
(g3
(I0
tp137
g5
tp138
Rp139
(I1
(I6
tp140
g12
I00
S'\xc9%\xcaW\x905\xc7?\x8c~=f\xc6\xc5\xc8?\xf2\xc0\xd2\x85R*\xfb?F\xd8\xd0}\xae\xe7Z?\xcf\x0e38\x9b\x15\xf9?\xfc\xa9\xf1\xd2MbP?'
p141
tp142
bsS'PL'
p143
g2
(g3
(I0
tp144
g5
tp145
Rp146
(I1
(I3
tp147
g12
I00
S'\x010/\x16%\x08\xea?s\xa6\xc0\xe1h\xe2\xb2?\x8f\xd9\xc5ln\xdc\xbc?'
p148
tp149
bsS'Mallows-greedy-RE'
p150
((lp151
I1
aI2
aI0
ag34
(g12
S'\xfd\xb0\xb3\x98\x12\xad\xf9?'
p152
tp153
Rp154
tp155
s.