(dp0
S'PCMC-RE'
p1
cnumpy.core.multiarray
_reconstruct
p2
(cnumpy
ndarray
p3
(I0
tp4
S'b'
p5
tp6
Rp7
(I1
(I12
tp8
cnumpy
dtype
p9
(S'f8'
p10
I0
I1
tp11
Rp12
(I3
S'<'
p13
NNNI-1
I-1
I0
tp14
bI00
S'\xe1\x8c\xa8\xe6\xf2\xdc~@\xfc\xa9\xf1\xd2MbP?\x08\xe9\x03C\x8d`\xfd?\xc6k\t\x10+\xf7g@\x04\x93\x19%H\xb7\xaf@\x14}\x8d\xa1\xaa\xbe\xb0@\xe6q?\x83\xb9\x94e?\xd6py\xea>L\xab@\xb6\x95\xbe\xc5/c\xab@F\xfb\xba\x11@,\xf9?\xb3\x8a~N\x077\xac@\xb6#\x92Gs\xb4\xb2@'
p15
tp16
bsS'MMNL-RE'
p17
g2
(g3
(I0
tp18
g5
tp19
Rp20
(I1
(I10
tp21
g12
I00
S'\xdfU\xf6\x0f\x9c\xdc\xe9?\x87\xa8&\xc0\x8f\x8d\xc8?\xb9\xe2\xac\x92\x94\xaa\xe2?\x95\xd6&\xe8\x0b.\x11>\x8d@\x8d\x8b?\x93\xeb?xL\xdf]l?\xee?3\x1f\x87q+\xa3\xdf?\x12D\xbc\x1c\xf1\xdb\xfb?\xfe\x98\x83\x7f~\x07\xf2?\x95\xd6&\xe8\x0b.\x11>'
p22
tp23
bsS'PL-RE'
p24
g2
(g3
(I0
tp25
g5
tp26
Rp27
(I1
(I4
tp28
g12
I00
S'\xdf5z\x1f^\xbe\xc3?e\xf7k"\x15\r\xd2?\xd88\xc6\xbfW\x9e\xd2?\xd1\xb4\x10\x0edu\xd1?'
p29
tp30
bsS'N'
p31
I4
sS'Mallows-greedy'
p32
((lp33
I0
aI1
aI3
aI2
acnumpy.core.multiarray
scalar
p34
(g12
S'0\xb1\xf6\xe8\xc0\x19\xef?'
p35
tp36
Rp37
tp38
sS'MMNL'
p39
g2
(g3
(I0
tp40
g5
tp41
Rp42
(I1
(I10
tp43
g12
I00
S'0|w\xff\xff\xff\xef?\xe0k\x03\x07z\x10\x11>M=8~L\xaa\xf1?\xf1pB\xa0%\xd3\xd2?\x13\xe3b\xf43\r\xe1?\xed\xe1\x81\x06\xf8Q\xed?\xd0mYX\xdb\xed\xd6?\xc56U\x89F\xd7\xc8?.\x1e\xceO\xf3\xa4\xdf?V\xaf\x10A\x02\x06\xe9?'
p44
tp45
bsS'test-lists'
p46
(lp47
(lp48
I0
aI1
aI2
aI3
aa(lp49
I2
aI1
aI0
aI3
aa(lp50
I2
aI0
aI3
aI1
aa(lp51
I0
aI3
aI2
aI1
aa(lp52
I0
aI1
aI3
aI2
aa(lp53
I2
aI0
aI3
aI1
aa(lp54
I3
aI1
aI0
aI2
aa(lp55
I2
aI0
aI1
aI3
aa(lp56
I0
aI3
aI1
aI2
aa(lp57
I0
aI3
aI2
aI1
aa(lp58
I0
aI1
aI2
aI3
aa(lp59
I2
aI3
aI1
aI0
aa(lp60
I2
aI3
aI0
aI1
aa(lp61
I0
aI1
aI2
aI3
aa(lp62
I3
aI1
aI0
aI2
aa(lp63
I3
aI0
aI1
aI2
aa(lp64
I2
aI0
aI1
aI3
aa(lp65
I2
aI3
aI1
aI0
aa(lp66
I0
aI3
aI1
aI2
aa(lp67
I3
aI2
aI0
aI1
aa(lp68
I0
aI1
aI3
aI2
aa(lp69
I3
aI0
aI2
aI1
aa(lp70
I1
aI0
aI3
aI2
aa(lp71
I2
aI0
aI1
aI3
aa(lp72
I0
aI3
aI1
aI2
aa(lp73
I1
aI3
aI0
aI2
aa(lp74
I0
aI1
aI3
aI2
aa(lp75
I0
aI1
aI3
aI2
aa(lp76
I3
aI1
aI0
aI2
aa(lp77
I0
aI2
aI1
aI3
aa(lp78
I3
aI0
aI2
aI1
aa(lp79
I2
aI1
aI0
aI3
aa(lp80
I2
aI0
aI1
aI3
aa(lp81
I0
aI3
aI1
aI2
aa(lp82
I2
aI0
aI1
aI3
aa(lp83
I2
aI0
aI1
aI3
aa(lp84
I0
aI1
aI3
aI2
aa(lp85
I3
aI0
aI2
aI1
aa(lp86
I2
aI0
aI1
aI3
aa(lp87
I1
aI0
aI2
aI3
aa(lp88
I3
aI0
aI1
aI2
aa(lp89
I2
aI0
aI1
aI3
aa(lp90
I2
aI0
aI1
aI3
aa(lp91
I3
aI2
aI0
aI1
aa(lp92
I0
aI1
aI3
aI2
aa(lp93
I1
aI0
aI2
aI3
aa(lp94
I0
aI2
aI1
aI3
aa(lp95
I2
aI3
aI0
aI1
aa(lp96
I2
aI0
aI1
aI3
aa(lp97
I2
aI0
aI1
aI3
aa(lp98
I0
aI1
aI3
aI2
aa(lp99
I1
aI0
aI2
aI3
aa(lp100
I2
aI3
aI0
aI1
aa(lp101
I2
aI3
aI0
aI1
aa(lp102
I3
aI0
aI2
aI1
aa(lp103
I2
aI0
aI3
aI1
aa(lp104
I2
aI1
aI0
aI3
aa(lp105
I2
aI1
aI0
aI3
aa(lp106
I1
aI3
aI0
aI2
aa(lp107
I3
aI1
aI0
aI2
aa(lp108
I2
aI0
aI1
aI3
aa(lp109
I0
aI1
aI2
aI3
aa(lp110
I2
aI0
aI1
aI3
aa(lp111
I0
aI3
aI2
aI1
aa(lp112
I0
aI1
aI2
aI3
aa(lp113
I3
aI0
aI2
aI1
aa(lp114
I2
aI1
aI0
aI3
aa(lp115
I3
aI2
aI1
aI0
aa(lp116
I0
aI1
aI3
aI2
aa(lp117
I0
aI1
aI3
aI2
aa(lp118
I0
aI1
aI3
aI2
aa(lp119
I0
aI1
aI3
aI2
aa(lp120
I1
aI3
aI0
aI2
aa(lp121
I2
aI3
aI0
aI1
aa(lp122
I3
aI0
aI1
aI2
aa(lp123
I3
aI0
aI2
aI1
aa(lp124
I2
aI0
aI1
aI3
aa(lp125
I2
aI0
aI1
aI3
aa(lp126
I1
aI0
aI3
aI2
aa(lp127
I3
aI0
aI1
aI2
aa(lp128
I2
aI0
aI1
aI3
aa(lp129
I1
aI3
aI0
aI2
aa(lp130
I2
aI1
aI0
aI3
aa(lp131
I3
aI2
aI0
aI1
aa(lp132
I3
aI0
aI1
aI2
aa(lp133
I2
aI0
aI1
aI3
aa(lp134
I1
aI3
aI0
aI2
aa(lp135
I0
aI2
aI1
aI3
aa(lp136
I3
aI1
aI0
aI2
aasS'PCMC'
p137
g2
(g3
(I0
tp138
g5
tp139
Rp140
(I1
(I12
tp141
g12
I00
S'\xefq\x91\x0cb@\xdf?X\x8a\t\xf7\x92\x01\xf2?k\xb1\xa5&\xa0\xe2\xd8?7B\xc2\xcd\xcbk\xf4?\xfc\xa9\xf1\xd2MbP?\xee\x88\xa8\xa0g\x8e\x85?\xcan\xc6\xda\x82z\x04@V\xa7\x00\xe5,]]?\xc6\xc7S\xf3?\xd7\x8f?s\rs\x94\xdd\x87\xec?E?6\x9ex;\x90?\x17!\xa1\xf4x\r}?'
p142
tp143
bsS'PL'
p144
g2
(g3
(I0
tp145
g5
tp146
Rp147
(I1
(I4
tp148
g12
I00
S'\xe0\x83\xe4g\xc9a\xdc?t-\x9c/Ie\xcb?;\xf3MJek\xc2?\x94\xd7L\xb6\xbek\xc9?'
p149
tp150
bsS'Mallows-greedy-RE'
p151
((lp152
I2
aI3
aI1
aI0
ag34
(g12
S'0\xb1\xf6\xe8\xc0\x19\xef?'
p153
tp154
Rp155
tp156
s.