(dp0
S'PCMC-RE'
p1
cnumpy.core.multiarray
_reconstruct
p2
(cnumpy
ndarray
p3
(I0
tp4
S'b'
p5
tp6
Rp7
(I1
(I6
tp8
cnumpy
dtype
p9
(S'f8'
p10
I0
I1
tp11
Rp12
(I3
S'<'
p13
NNNI-1
I-1
I0
tp14
bI00
S'\xd8V\xa4\xbf\x12\x0e\xf4?V\xf4l\x8b\xf9\xad\x94?_&/\x8f\x84\xcc\xdf?\xfc\xa9\xf1\xd2MbP?e\x97\xbc\x99 \xae\xb4?\xc5\x8f\xf9\xb2\x07~m?'
p15
tp16
bsS'MMNL-RE'
p17
g2
(g3
(I0
tp18
g5
tp19
Rp20
(I1
(I4
tp21
g12
I00
S'\x00\x00\x00\x00\x00\x00\xf0?\x9c\x9b\xe9\x88G\x98\xe3?{w\xa6R\xeeg\xf6?\x86\xbf\\K\xb3\xd0\xc6?'
p22
tp23
bsS'PL-RE'
p24
g2
(g3
(I0
tp25
g5
tp26
Rp27
(I1
(I3
tp28
g12
I00
S'\xe3\xdc\xcd\xf4\x13\xe3\xd1?\xc39Q:\x01t\xe4?T\xbe>Z\xa6\xd3\xb4?'
p29
tp30
bsS'N'
p31
I3
sS'Mallows-greedy'
p32
((lp33
I2
aI0
aI1
acnumpy.core.multiarray
scalar
p34
(g12
S"mQ\xc8'JQ\xf9?"
p35
tp36
Rp37
tp38
sS'MMNL'
p39
g2
(g3
(I0
tp40
g5
tp41
Rp42
(I1
(I4
tp43
g12
I00
S"\x00\x00\x00\x00\x00\x00\xf0?v\xbeW\xd1\xef.\xe2?'\xc9E\xf9K~\xcf?/\xfa\xb2\x05\xf0B\xff?"
p44
tp45
bsS'test-lists'
p46
(lp47
(lp48
I0
aI2
aI1
aa(lp49
I2
aI0
aI1
aa(lp50
I2
aI0
aI1
aa(lp51
I2
aI1
aI0
aa(lp52
I2
aI0
aI1
aa(lp53
I2
aI0
aI1
aa(lp54
I2
aI1
aI0
aa(lp55
I2
aI1
aI0
aa(lp56
I2
aI0
aI1
aa(lp57
I2
aI0
aI1
aa(lp58
I2
aI1
aI0
aa(lp59
I2
aI0
aI1
aa(lp60
I2
aI0
aI1
aa(lp61
I2
aI0
aI1
aa(lp62
I2
aI0
aI1
aa(lp63
I2
aI0
aI1
aa(lp64
I2
aI0
aI1
aa(lp65
I2
aI1
aI0
aa(lp66
I2
aI1
aI0
aa(lp67
I2
aI0
aI1
aa(lp68
I2
aI0
aI1
aa(lp69
I2
aI0
aI1
aa(lp70
I2
aI0
aI1
aa(lp71
I2
aI1
aI0
aa(lp72
I2
aI1
aI0
aa(lp73
I0
aI2
aI1
aa(lp74
I2
aI0
aI1
aa(lp75
I2
aI0
aI1
aa(lp76
I2
aI0
aI1
aa(lp77
I2
aI0
aI1
aa(lp78
I0
aI2
aI1
aa(lp79
I2
aI1
aI0
aa(lp80
I2
aI0
aI1
aa(lp81
I2
aI0
aI1
aa(lp82
I2
aI0
aI1
aa(lp83
I0
aI1
aI2
aa(lp84
I2
aI0
aI1
aa(lp85
I2
aI1
aI0
aa(lp86
I2
aI0
aI1
aa(lp87
I0
aI2
aI1
aa(lp88
I2
aI0
aI1
aa(lp89
I0
aI2
aI1
aa(lp90
I1
aI2
aI0
aa(lp91
I2
aI1
aI0
aa(lp92
I2
aI0
aI1
aa(lp93
I2
aI1
aI0
aa(lp94
I0
aI2
aI1
aa(lp95
I2
aI1
aI0
aa(lp96
I1
aI2
aI0
aa(lp97
I2
aI0
aI1
aa(lp98
I2
aI0
aI1
aa(lp99
I2
aI0
aI1
aa(lp100
I2
aI0
aI1
aa(lp101
I2
aI0
aI1
aa(lp102
I0
aI2
aI1
aa(lp103
I2
aI0
aI1
aa(lp104
I2
aI1
aI0
aa(lp105
I2
aI0
aI1
aa(lp106
I2
aI0
aI1
aa(lp107
I2
aI1
aI0
aa(lp108
I2
aI1
aI0
aa(lp109
I2
aI0
aI1
aa(lp110
I2
aI0
aI1
aa(lp111
I2
aI0
aI1
aa(lp112
I2
aI0
aI1
aa(lp113
I2
aI1
aI0
aa(lp114
I2
aI0
aI1
aa(lp115
I2
aI1
aI0
aa(lp116
I1
aI0
aI2
aa(lp117
I2
aI0
aI1
aa(lp118
I2
aI0
aI1
aa(lp119
I2
aI0
aI1
aa(lp120
I2
aI0
aI1
aa(lp121
I0
aI2
aI1
aa(lp122
I2
aI1
aI0
aa(lp123
I2
aI0
aI1
aa(lp124
I2
aI0
aI1
aa(lp125
I0
aI1
aI2
aa(lp126
I0
aI2
aI1
aa(lp127
I2
aI1
aI0
aa(lp128
I2
aI1
aI0
aa(lp129
I2
aI0
aI1
aa(lp130
I2
aI1
aI0
aa(lp131
I0
aI2
aI1
aa(lp132
I2
aI1
aI0
aa(lp133
I2
aI1
aI0
aa(lp134
I0
aI2
aI1
aa(lp135
I2
aI1
aI0
aasS'PCMC'
p136
g2
(g3
(I0
tp137
g5
tp138
Rp139
(I1
(I6
tp140
g12
I00
S'*me\x8c\xe7\xa2\xdc?zd\xe2\x19_\xe0\xfa?\x1d\x0f\xcf\xa0\\{\xf2?* Xc\x83t\x99?\x90\x18}\xeb\x9c\x86\xdb?\xe94\x85\xf2Pj\x82?'
p141
tp142
bsS'PL'
p143
g2
(g3
(I0
tp144
g5
tp145
Rp146
(I1
(I3
tp147
g12
I00
S'\xc71?M\x83F\xca?\x93F^@\x1f\xc1\xb6?\xbcj\xa4D;\x96\xe6?'
p148
tp149
bsS'Mallows-greedy-RE'
p150
((lp151
I1
aI0
aI2
ag34
(g12
S"mQ\xc8'JQ\xf9?"
p152
tp153
Rp154
tp155
s.