(dp0
S'PCMC-RE'
p1
cnumpy.core.multiarray
_reconstruct
p2
(cnumpy
ndarray
p3
(I0
tp4
S'b'
p5
tp6
Rp7
(I1
(I6
tp8
cnumpy
dtype
p9
(S'f8'
p10
I0
I1
tp11
Rp12
(I3
S'<'
p13
NNNI-1
I-1
I0
tp14
bI00
S'\x11]\x16u\x81\x94\xc4?B\xd8Wq\xae\xa8\xe3?\x7f\xd2Z\xd6\x0e\xae\xf7?m\x9av\xd9\xed\xfa\x82?B\x1f\xf0\xe8^\xe4\xf3?\nJ\xd1^\x1c\xc5i?'
p15
tp16
bsS'MMNL-RE'
p17
g2
(g3
(I0
tp18
g5
tp19
Rp20
(I1
(I4
tp21
g12
I00
S"\x00\x00\x00\x00\x00\x00\xf0?J-'\x1e^\x89\xf1?\xa5\xa6_\x972b\xc2?\xbc^\xe5\x19\x90\x18\xe0?"
p22
tp23
bsS'PL-RE'
p24
g2
(g3
(I0
tp25
g5
tp26
Rp27
(I1
(I3
tp28
g12
I00
S'\xa4Z\xa3<S \xe4?[E\xf7\xaf+\x19\xb5?dy\xbb\x9a\x0ey\xd2?'
p29
tp30
bsS'N'
p31
I3
sS'Mallows-greedy'
p32
((lp33
I1
aI2
aI0
acnumpy.core.multiarray
scalar
p34
(g12
S'EWK/j\xbc\xf8?'
p35
tp36
Rp37
tp38
sS'MMNL'
p39
g2
(g3
(I0
tp40
g5
tp41
Rp42
(I1
(I4
tp43
g12
I00
S'\x00\x00\x00\x00\x00\x00\xf0?e\xae\xfe\xb5\xc3W\xc4?\xdc\xa5FspM\xf4?1<\x1d\xdf6\x1c\xd5?'
p44
tp45
bsS'test-lists'
p46
(lp47
(lp48
I1
aI2
aI0
aa(lp49
I1
aI2
aI0
aa(lp50
I1
aI2
aI0
aa(lp51
I1
aI2
aI0
aa(lp52
I1
aI2
aI0
aa(lp53
I1
aI2
aI0
aa(lp54
I1
aI0
aI2
aa(lp55
I1
aI2
aI0
aa(lp56
I1
aI2
aI0
aa(lp57
I1
aI2
aI0
aa(lp58
I1
aI2
aI0
aa(lp59
I1
aI0
aI2
aa(lp60
I1
aI2
aI0
aa(lp61
I1
aI2
aI0
aa(lp62
I1
aI2
aI0
aa(lp63
I1
aI0
aI2
aa(lp64
I1
aI0
aI2
aa(lp65
I1
aI2
aI0
aa(lp66
I1
aI0
aI2
aa(lp67
I1
aI2
aI0
aa(lp68
I1
aI2
aI0
aa(lp69
I1
aI2
aI0
aa(lp70
I1
aI2
aI0
aa(lp71
I1
aI0
aI2
aa(lp72
I2
aI1
aI0
aa(lp73
I1
aI2
aI0
aa(lp74
I1
aI2
aI0
aa(lp75
I1
aI2
aI0
aa(lp76
I0
aI2
aI1
aa(lp77
I1
aI2
aI0
aa(lp78
I1
aI0
aI2
aa(lp79
I1
aI0
aI2
aa(lp80
I1
aI2
aI0
aa(lp81
I1
aI2
aI0
aa(lp82
I2
aI0
aI1
aa(lp83
I1
aI2
aI0
aa(lp84
I1
aI2
aI0
aa(lp85
I2
aI1
aI0
aa(lp86
I1
aI0
aI2
aa(lp87
I1
aI2
aI0
aa(lp88
I1
aI2
aI0
aa(lp89
I1
aI0
aI2
aa(lp90
I0
aI1
aI2
aa(lp91
I0
aI1
aI2
aa(lp92
I2
aI1
aI0
aa(lp93
I1
aI0
aI2
aa(lp94
I1
aI2
aI0
aa(lp95
I1
aI2
aI0
aa(lp96
I0
aI1
aI2
aa(lp97
I0
aI1
aI2
aa(lp98
I1
aI2
aI0
aa(lp99
I1
aI2
aI0
aa(lp100
I1
aI2
aI0
aa(lp101
I1
aI0
aI2
aa(lp102
I0
aI1
aI2
aa(lp103
I1
aI2
aI0
aa(lp104
I0
aI1
aI2
aa(lp105
I1
aI0
aI2
aa(lp106
I0
aI2
aI1
aa(lp107
I1
aI2
aI0
aa(lp108
I2
aI1
aI0
aa(lp109
I1
aI2
aI0
aa(lp110
I1
aI0
aI2
aa(lp111
I1
aI0
aI2
aa(lp112
I1
aI2
aI0
aa(lp113
I1
aI2
aI0
aa(lp114
I1
aI2
aI0
aa(lp115
I2
aI1
aI0
aa(lp116
I1
aI0
aI2
aa(lp117
I1
aI2
aI0
aa(lp118
I1
aI0
aI2
aa(lp119
I1
aI2
aI0
aa(lp120
I1
aI2
aI0
aa(lp121
I2
aI1
aI0
aa(lp122
I1
aI0
aI2
aa(lp123
I1
aI0
aI2
aa(lp124
I1
aI2
aI0
aa(lp125
I1
aI0
aI2
aa(lp126
I1
aI2
aI0
aa(lp127
I1
aI2
aI0
aa(lp128
I2
aI1
aI0
aa(lp129
I1
aI2
aI0
aa(lp130
I1
aI2
aI0
aa(lp131
I1
aI2
aI0
aa(lp132
I2
aI1
aI0
aasS'PCMC'
p133
g2
(g3
(I0
tp134
g5
tp135
Rp136
(I1
(I6
tp137
g12
I00
S'.M\xd7\x01a;\n@i,D\xd6\xab\x15\x93?h7~\x88\xd9o\xd6?\xfc\xa9\xf1\xd2MbP?\xde\x1e\xb4K\xf3\x1f\x84?\xa3i\x8c\x08\xfeL[?'
p138
tp139
bsS'PL'
p140
g2
(g3
(I0
tp141
g5
tp142
Rp143
(I1
(I3
tp144
g12
I00
S'\x8f\xc7\x1a\xb4\xb7%\xb7?\x15\x92\x02\xeb\xf8\x19\xe7?\xe0S\xe8y@\x05\xc8?'
p145
tp146
bsS'Mallows-greedy-RE'
p147
((lp148
I0
aI2
aI1
ag34
(g12
S'EWK/j\xbc\xf8?'
p149
tp150
Rp151
tp152
s.