(dp0
S'PCMC-RE'
p1
cnumpy.core.multiarray
_reconstruct
p2
(cnumpy
ndarray
p3
(I0
tp4
S'b'
p5
tp6
Rp7
(I1
(I12
tp8
cnumpy
dtype
p9
(S'f8'
p10
I0
I1
tp11
Rp12
(I3
S'<'
p13
NNNI-1
I-1
I0
tp14
bI00
S'\x13^ t\xfc\x1d\xe6?\x8d\xd4\xa2\x03\xda\xe0\xd4?T\xadf\xdeh\xe7\xd5?\xff\xa3\x99#\x8e\xdf\r@))\xa4>\xc9=\x92?\x8a`\x07\n\xbc\xaf\xc3?Uma\x04\xc0\xe5\xe9?\xd7}\xcc\xea\rC\xa1?\xe3\x8e\x82\xbdr\xe1q?\xf25\xab\x99\xf3H\xf0?\x86\xacb\x1f=\xe6\xc3?\xfc\xa9\xf1\xd2MbP?'
p15
tp16
bsS'MMNL-RE'
p17
g2
(g3
(I0
tp18
g5
tp19
Rp20
(I1
(I10
tp21
g12
I00
S'\xe9\xa2cJ\xd1J\xd2?\x8b.\xceZ\x97\xda\xe6?Mu\xf0\x96\xe1\x81R?VJ\x02\x1f\rl\xfe?\x0e\x07B\x12<\xe3\x80?2w^A\xd1p\xd3?\xc9\xe5\x87\x1d\\f\xfb?\x95\xd6&\xe8\x0b.\x11>\xbe\x98\x9fT\xd5\xd4\xe3?\xd6\x16\xc6\xdaE\xd8\xca?'
p22
tp23
bsS'PL-RE'
p24
g2
(g3
(I0
tp25
g5
tp26
Rp27
(I1
(I4
tp28
g12
I00
S'P\xba\xfa\x8e\xd9\x11\xe1?\xfeiW1H\xbf\xc3?\x8c\xfcC\x15\xab%\xbe?\x80\xae\x1b\x08|\xe6\xc8?'
p29
tp30
bsS'N'
p31
I4
sS'Mallows-greedy'
p32
((lp33
I2
aI1
aI3
aI0
acnumpy.core.multiarray
scalar
p34
(g12
S'\x9ff\x1c\xf1;\xcb\xf1?'
p35
tp36
Rp37
tp38
sS'MMNL'
p39
g2
(g3
(I0
tp40
g5
tp41
Rp42
(I1
(I10
tp43
g12
I00
S';\x00\x17\xc9\xfa-\x11>*\x90v\xff\xff\xff\xef?\x1d\x9f\x03\xf7\xa3`\xe8?}r\x9e\xac5\xac\xd7?\xdb\x96\xff\x81k\x1a\xe2?\xb6q\tq\xf8|\xf4?g\xbc\xe5\x85\x1bS\xe1?&\xccC\xad\x8a\xb4\xf2?\xbf\xd7\x07a\x80\x98\xe6?\x05*\xa5}$\xf5\xf0?'
p44
tp45
bsS'test-lists'
p46
(lp47
(lp48
I3
aI1
aI0
aI2
aa(lp49
I1
aI3
aI0
aI2
aa(lp50
I2
aI3
aI1
aI0
aa(lp51
I1
aI0
aI3
aI2
aa(lp52
I3
aI0
aI1
aI2
aa(lp53
I2
aI3
aI1
aI0
aa(lp54
I2
aI3
aI1
aI0
aa(lp55
I3
aI1
aI0
aI2
aa(lp56
I1
aI3
aI2
aI0
aa(lp57
I3
aI1
aI2
aI0
aa(lp58
I1
aI2
aI0
aI3
aa(lp59
I2
aI3
aI1
aI0
aa(lp60
I2
aI3
aI1
aI0
aa(lp61
I3
aI1
aI0
aI2
aa(lp62
I1
aI3
aI2
aI0
aa(lp63
I2
aI1
aI3
aI0
aa(lp64
I2
aI1
aI0
aI3
aa(lp65
I2
aI3
aI0
aI1
aa(lp66
I2
aI3
aI1
aI0
aa(lp67
I2
aI0
aI3
aI1
aa(lp68
I0
aI1
aI2
aI3
aa(lp69
I2
aI3
aI1
aI0
aa(lp70
I1
aI3
aI0
aI2
aa(lp71
I2
aI0
aI3
aI1
aa(lp72
I2
aI3
aI1
aI0
aa(lp73
I3
aI2
aI1
aI0
aa(lp74
I2
aI3
aI1
aI0
aa(lp75
I1
aI2
aI0
aI3
aa(lp76
I2
aI1
aI3
aI0
aa(lp77
I2
aI1
aI3
aI0
aa(lp78
I2
aI3
aI0
aI1
aa(lp79
I1
aI2
aI0
aI3
aa(lp80
I3
aI1
aI2
aI0
aa(lp81
I0
aI3
aI1
aI2
aa(lp82
I1
aI0
aI3
aI2
aa(lp83
I2
aI1
aI3
aI0
aa(lp84
I2
aI1
aI3
aI0
aa(lp85
I2
aI3
aI1
aI0
aa(lp86
I1
aI3
aI0
aI2
aa(lp87
I1
aI3
aI0
aI2
aa(lp88
I2
aI0
aI1
aI3
aa(lp89
I0
aI3
aI1
aI2
aa(lp90
I3
aI2
aI1
aI0
aa(lp91
I3
aI1
aI0
aI2
aa(lp92
I2
aI1
aI3
aI0
aa(lp93
I3
aI1
aI0
aI2
aa(lp94
I1
aI3
aI0
aI2
aa(lp95
I2
aI3
aI0
aI1
aa(lp96
I2
aI3
aI1
aI0
aa(lp97
I0
aI1
aI3
aI2
aa(lp98
I2
aI3
aI1
aI0
aa(lp99
I2
aI3
aI1
aI0
aa(lp100
I1
aI3
aI0
aI2
aa(lp101
I1
aI0
aI3
aI2
aa(lp102
I2
aI3
aI1
aI0
aa(lp103
I2
aI1
aI3
aI0
aa(lp104
I3
aI1
aI0
aI2
aa(lp105
I2
aI3
aI1
aI0
aa(lp106
I1
aI3
aI0
aI2
aa(lp107
I3
aI1
aI2
aI0
aa(lp108
I3
aI2
aI1
aI0
aa(lp109
I3
aI1
aI0
aI2
aa(lp110
I3
aI2
aI0
aI1
aa(lp111
I2
aI3
aI1
aI0
aa(lp112
I1
aI3
aI2
aI0
aa(lp113
I3
aI1
aI0
aI2
aa(lp114
I0
aI2
aI1
aI3
aa(lp115
I3
aI1
aI2
aI0
aa(lp116
I1
aI3
aI0
aI2
aa(lp117
I2
aI1
aI3
aI0
aa(lp118
I3
aI1
aI2
aI0
aa(lp119
I1
aI0
aI3
aI2
aa(lp120
I1
aI3
aI2
aI0
aa(lp121
I2
aI1
aI3
aI0
aa(lp122
I2
aI3
aI1
aI0
aa(lp123
I1
aI3
aI0
aI2
aa(lp124
I2
aI1
aI3
aI0
aa(lp125
I1
aI0
aI3
aI2
aa(lp126
I2
aI1
aI0
aI3
aa(lp127
I3
aI1
aI0
aI2
aa(lp128
I2
aI3
aI1
aI0
aa(lp129
I1
aI0
aI3
aI2
aa(lp130
I3
aI0
aI1
aI2
aa(lp131
I1
aI0
aI3
aI2
aa(lp132
I2
aI1
aI3
aI0
aa(lp133
I2
aI1
aI0
aI3
aa(lp134
I1
aI0
aI2
aI3
aa(lp135
I2
aI3
aI1
aI0
aa(lp136
I1
aI0
aI3
aI2
aa(lp137
I3
aI2
aI1
aI0
aa(lp138
I1
aI2
aI0
aI3
aa(lp139
I0
aI1
aI3
aI2
aa(lp140
I1
aI3
aI0
aI2
aa(lp141
I3
aI2
aI1
aI0
aa(lp142
I2
aI1
aI3
aI0
aa(lp143
I1
aI0
aI3
aI2
aa(lp144
I0
aI1
aI3
aI2
aa(lp145
I1
aI3
aI2
aI0
aa(lp146
I2
aI1
aI3
aI0
aa(lp147
I1
aI2
aI0
aI3
aa(lp148
I1
aI3
aI0
aI2
aa(lp149
I2
aI1
aI3
aI0
aasS'PCMC'
p150
g2
(g3
(I0
tp151
g5
tp152
Rp153
(I1
(I12
tp154
g12
I00
S'\xfd\x8b\xb0\xf8\xa3\x8c\x98@d\x11\xea\x8ewnP?\xc3\xe6\xd9\xbc\x1dMl?U\x80\xfe\xe4\xd9;q@Y\xe3u\xd7\x83\x0c\x86@\xc2\xa7\x85\x96@\x1d\x7f@\xe8\x82g}b\xbfP?,6\x1fq,j\x81@\x0e\x0bA\x93m(\xf1?\xc5\xa7\x1cs\xe4\xdbT?\xd14\xf2\xa9K\xf3\x84@\xc2h\x0f\x8aP\xa4\xe2?'
p155
tp156
bsS'PL'
p157
g2
(g3
(I0
tp158
g5
tp159
Rp160
(I1
(I4
tp161
g12
I00
S'\x11`g\xf6\xbeh\xb8?\x88\x84R!  \xd5?\xe8\x0eU\xa2\x81I\xd3?\x89\x94\xbe~.|\xd1?'
p162
tp163
bsS'Mallows-greedy-RE'
p164
((lp165
I0
aI3
aI1
aI2
ag34
(g12
S'\x9ff\x1c\xf1;\xcb\xf1?'
p166
tp167
Rp168
tp169
s.