(dp0
S'PCMC-RE'
p1
cnumpy.core.multiarray
_reconstruct
p2
(cnumpy
ndarray
p3
(I0
tp4
S'b'
p5
tp6
Rp7
(I1
(I6
tp8
cnumpy
dtype
p9
(S'f8'
p10
I0
I1
tp11
Rp12
(I3
S'<'
p13
NNNI-1
I-1
I0
tp14
bI00
S'\x9b\xb0\xbd\x8c\xeb\xe9\xe4?\xfc\xa9\xf1\xd2MbP?\xee\x92\x07\x97\xf9\x11\xe7?r\xb6\x98\x00\x9bo\xdd?b#1\x1e\xf0\xfdP?(g=\xfb\xf88\xea?'
p15
tp16
bsS'MMNL-RE'
p17
g2
(g3
(I0
tp18
g5
tp19
Rp20
(I1
(I4
tp21
g12
I00
S'\x00\x00\x00\x00\x00\x00\xf0?\xf3\xd2\xe1\x16W\x81\xee?\xac\x8d\x85\xa8\xa4\x93\xee?\x8e\x03\xb6XV.\xe3?'
p22
tp23
bsS'PL-RE'
p24
g2
(g3
(I0
tp25
g5
tp26
Rp27
(I1
(I3
tp28
g12
I00
S'\xaeb\xbc=\x01S\xd8?Cy2Z\x95a\xd8?$H"\xd0\xd2\x96\xce?'
p29
tp30
bsS'N'
p31
I3
sS'Mallows-greedy'
p32
((lp33
I2
aI1
aI0
acnumpy.core.multiarray
scalar
p34
(g12
S'\x07y\x14\xa4\xc5\x89\xec?'
p35
tp36
Rp37
tp38
sS'MMNL'
p39
g2
(g3
(I0
tp40
g5
tp41
Rp42
(I1
(I4
tp43
g12
I00
S'\x00\x00\x00\x00\x00\x00\xf0?\xb3\x8e\x17\xca\x95\xba\xe3?\xce\xfcW\x8f\xc1\x04\xe5?\xfd\xaaT\x89\xc0\xce\xf0?'
p44
tp45
bsS'test-lists'
p46
(lp47
(lp48
I2
aI0
aI1
aa(lp49
I2
aI1
aI0
aa(lp50
I2
aI0
aI1
aa(lp51
I0
aI1
aI2
aa(lp52
I2
aI1
aI0
aa(lp53
I2
aI0
aI1
aa(lp54
I1
aI2
aI0
aa(lp55
I1
aI2
aI0
aa(lp56
I1
aI2
aI0
aa(lp57
I2
aI1
aI0
aa(lp58
I1
aI2
aI0
aa(lp59
I2
aI1
aI0
aa(lp60
I2
aI1
aI0
aa(lp61
I1
aI2
aI0
aa(lp62
I2
aI1
aI0
aa(lp63
I0
aI2
aI1
aa(lp64
I0
aI2
aI1
aa(lp65
I1
aI0
aI2
aa(lp66
I2
aI1
aI0
aa(lp67
I2
aI1
aI0
aa(lp68
I1
aI2
aI0
aa(lp69
I0
aI2
aI1
aa(lp70
I2
aI0
aI1
aa(lp71
I2
aI0
aI1
aa(lp72
I0
aI1
aI2
aa(lp73
I2
aI0
aI1
aa(lp74
I1
aI2
aI0
aa(lp75
I1
aI0
aI2
aa(lp76
I2
aI1
aI0
aa(lp77
I1
aI0
aI2
aa(lp78
I1
aI2
aI0
aa(lp79
I2
aI1
aI0
aa(lp80
I0
aI2
aI1
aa(lp81
I0
aI1
aI2
aa(lp82
I2
aI1
aI0
aa(lp83
I1
aI2
aI0
aa(lp84
I1
aI2
aI0
aa(lp85
I2
aI0
aI1
aa(lp86
I0
aI2
aI1
aa(lp87
I1
aI0
aI2
aa(lp88
I0
aI2
aI1
aa(lp89
I2
aI1
aI0
aa(lp90
I2
aI1
aI0
aa(lp91
I0
aI1
aI2
aa(lp92
I0
aI1
aI2
aa(lp93
I2
aI1
aI0
aa(lp94
I1
aI2
aI0
aa(lp95
I2
aI0
aI1
aa(lp96
I0
aI1
aI2
aa(lp97
I0
aI2
aI1
aa(lp98
I0
aI1
aI2
aa(lp99
I1
aI0
aI2
aa(lp100
I2
aI0
aI1
aa(lp101
I2
aI1
aI0
aa(lp102
I2
aI1
aI0
aa(lp103
I1
aI0
aI2
aa(lp104
I1
aI2
aI0
aa(lp105
I0
aI2
aI1
aa(lp106
I2
aI1
aI0
aa(lp107
I1
aI2
aI0
aa(lp108
I2
aI1
aI0
aa(lp109
I2
aI0
aI1
aa(lp110
I1
aI2
aI0
aa(lp111
I1
aI0
aI2
aa(lp112
I2
aI0
aI1
aa(lp113
I1
aI0
aI2
aa(lp114
I2
aI1
aI0
aa(lp115
I2
aI0
aI1
aa(lp116
I0
aI2
aI1
aa(lp117
I0
aI1
aI2
aa(lp118
I1
aI2
aI0
aa(lp119
I0
aI2
aI1
aa(lp120
I2
aI1
aI0
aasS'PCMC'
p121
g2
(g3
(I0
tp122
g5
tp123
Rp124
(I1
(I6
tp125
g12
I00
S'\x0c\x93\x9c\xe7\xda\x1cW?J\xa7go\x9d\xe1v?\xfc\xa9\xf1\xd2MbP?\xf9\x1e\x94\x08\x0f\x17\x02@\x90:\x1eF\x10\x86o?`Q\xb4j/y\xf4?'
p126
tp127
bsS'PL'
p128
g2
(g3
(I0
tp129
g5
tp130
Rp131
(I1
(I3
tp132
g12
I00
S'\xaf\xdc\xd5\x95\xc5\xfa\xd0?\xa0\xcf\x8b\x8d\xec\x16\xd2?\xb1S\x9e\xdcM\xee\xdc?'
p133
tp134
bsS'Mallows-greedy-RE'
p135
((lp136
I0
aI1
aI2
ag34
(g12
S'\x07y\x14\xa4\xc5\x89\xec?'
p137
tp138
Rp139
tp140
s.