(dp0
S'N'
p1
I4
sS'Mallows-greedy'
p2
((lp3
I2
aI3
aI1
aI0
acnumpy.core.multiarray
scalar
p4
(cnumpy
dtype
p5
(S'f8'
p6
I0
I1
tp7
Rp8
(I3
S'<'
p9
NNNI-1
I-1
I0
tp10
bS'\xacy\xfa\xed\xd1\x01\xf6?'
p11
tp12
Rp13
tp14
sS'MMNL'
p15
cnumpy.core.multiarray
_reconstruct
p16
(cnumpy
ndarray
p17
(I0
tp18
S'b'
p19
tp20
Rp21
(I1
(I10
tp22
g8
I00
S'\x8b~\x7f\xb6\xceA\xe7?\xec\x02\x01\x93b|\xd1?\xeb\xfd\x80}\x98\x00\x95?\xbau\x8c0\x81a2@\x95\xd6&\xe8\x0b.\x11>\xe2\xaf\x1dHH\xbeN@@\xadq\x8f\xbcF&@=cz\x189\xba @B\x84\x1b\x91\xc2`\x18@\x95\xd6&\xe8\x0b.\x11>'
p23
tp24
bsS'test-lists'
p25
(lp26
(lp27
a(lp28
I2
aI3
aa(lp29
I2
aI3
aa(lp30
I2
aI3
aa(lp31
a(lp32
a(lp33
I1
aI0
aa(lp34
I3
aI2
aa(lp35
I2
aI0
aa(lp36
I2
aI3
aa(lp37
I3
aI2
aa(lp38
a(lp39
I2
aI3
aa(lp40
a(lp41
I3
aI2
aa(lp42
I2
aI3
aa(lp43
a(lp44
a(lp45
I2
aI3
aa(lp46
I1
aI2
aa(lp47
a(lp48
I3
aI2
aa(lp49
I2
aI1
aa(lp50
I1
aI2
aa(lp51
I3
aI2
aa(lp52
I2
aI1
aa(lp53
I2
aI0
aa(lp54
I2
aI3
aa(lp55
a(lp56
I3
aI2
aa(lp57
I1
aI2
aa(lp58
a(lp59
I3
aI2
aa(lp60
I2
aI3
aa(lp61
I3
aI2
aa(lp62
I2
aI0
aa(lp63
I2
aI1
aa(lp64
I3
aI2
aa(lp65
a(lp66
I1
aI2
aa(lp67
I2
aI3
aa(lp68
I3
aI0
aa(lp69
I2
aI3
aa(lp70
I2
aI3
aa(lp71
I2
aI3
aa(lp72
I2
aI0
aa(lp73
I3
aI1
aa(lp74
I2
aI3
aa(lp75
I2
aI3
aa(lp76
a(lp77
a(lp78
I1
aI2
aa(lp79
a(lp80
I2
aI1
aa(lp81
I2
aI3
aa(lp82
a(lp83
I0
aI1
aa(lp84
I2
aI3
aa(lp85
I0
aI3
aa(lp86
I1
aI2
aa(lp87
I3
aI2
aa(lp88
a(lp89
I3
aI2
aa(lp90
I2
aI3
aa(lp91
I2
aI1
aa(lp92
I0
aI1
aa(lp93
I1
aI2
aa(lp94
I1
aI2
aa(lp95
I3
aI1
aasS'PCMC'
p96
g16
(g17
(I0
tp97
g19
tp98
Rp99
(I1
(I12
tp100
g8
I00
S'\xfcM\xa7`\xb4\xaf\xe2?\x0eH)Y\x969\x98?\x86\xa6d\x00e\xfe\xe9?\xf1\xdd\xf6H\xc7\xeb\xc3?K\xb3\xa5U\x90\x1a\xa4?\xedok\xa0)\xa7\xf0?\xfc\xa9\xf1\xd2MbP?\xfc\xa9\xf1\xd2MbP?&qF\x06t\x1d\xdc?|v%\xc3\xf9\x12\xd1?Z\x045G*\xf6\xdf?\xa3,\xd5\xe44\xf6\xe3?'
p101
tp102
bsS'PL'
p103
g16
(g17
(I0
tp104
g19
tp105
Rp106
(I1
(I4
tp107
g8
I00
S'\xc1a\x03<\x01w\xb0?\xc1\xbdc\x8a\x12\xb7\xc1?*5\xf1\xc4\xcaI\xe0?[\xde\xea\xe1 s\xd2?'
p108
tp109
bs.