(dp0
S'N'
p1
I4
sS'Mallows-greedy'
p2
((lp3
I0
aI2
aI1
aI3
acnumpy.core.multiarray
scalar
p4
(cnumpy
dtype
p5
(S'f8'
p6
I0
I1
tp7
Rp8
(I3
S'<'
p9
NNNI-1
I-1
I0
tp10
bS"'qZ\x1b\x17\x85\xf0?"
p11
tp12
Rp13
tp14
sS'MMNL'
p15
cnumpy.core.multiarray
_reconstruct
p16
(cnumpy
ndarray
p17
(I0
tp18
S'b'
p19
tp20
Rp21
(I1
(I10
tp22
g8
I00
S'\xcb\xe0\xc9V\x98\xfc\xdd?\x9b\x0f\x9b\xd4\xb3\x01\xe1?\x95\xd6&\xe8\x0b.\x11>\xfd^\xf9\xf9\xa9\x95\xfb?{\xb6\xe4<Z/\x0b@\xfd`\xa7\x08Bl}?B\x9c\xfd\xb5\xde\x19\xfb?\x8d\xdeY\xb3\xacI\xb2?\xbb\xfeF\x19T*\x04@*\xa9\xc6;V#\x9c?'
p23
tp24
bsS'test-lists'
p25
(lp26
(lp27
I2
aI3
aa(lp28
a(lp29
I0
aI2
aa(lp30
I0
aI3
aa(lp31
I3
aI1
aa(lp32
a(lp33
a(lp34
I0
aI2
aa(lp35
a(lp36
a(lp37
I1
aI3
aa(lp38
I0
aI2
aa(lp39
a(lp40
I0
aI2
aa(lp41
I0
aI1
aa(lp42
I0
aI2
aa(lp43
I0
aI3
aa(lp44
I3
aI2
aa(lp45
I2
aI0
aa(lp46
a(lp47
I1
aI0
aa(lp48
I0
aI2
aa(lp49
a(lp50
I0
aI3
aa(lp51
I3
aI1
aa(lp52
I2
aI0
aa(lp53
I3
aI1
aa(lp54
a(lp55
a(lp56
a(lp57
I0
aI1
aa(lp58
I3
aI1
aa(lp59
a(lp60
a(lp61
I0
aI3
aa(lp62
a(lp63
a(lp64
I0
aI2
aa(lp65
a(lp66
I2
aI0
aa(lp67
I0
aI3
aa(lp68
I3
aI1
aa(lp69
a(lp70
I0
aI1
aa(lp71
I0
aI2
aa(lp72
I0
aI2
aa(lp73
I2
aI1
aa(lp74
a(lp75
I0
aI3
aa(lp76
I3
aI0
aa(lp77
I2
aI1
aa(lp78
I1
aI0
aa(lp79
I0
aI2
aa(lp80
I0
aI2
aa(lp81
I0
aI1
aa(lp82
I0
aI3
aa(lp83
I2
aI0
aa(lp84
I0
aI2
aa(lp85
I1
aI0
aa(lp86
I0
aI1
aa(lp87
a(lp88
I2
aI0
aa(lp89
a(lp90
I0
aI2
aa(lp91
a(lp92
I2
aI3
aa(lp93
I3
aI2
aa(lp94
I0
aI2
aa(lp95
a(lp96
I0
aI3
aa(lp97
a(lp98
I0
aI2
aa(lp99
I0
aI2
aa(lp100
I3
aI2
aa(lp101
I0
aI2
aa(lp102
a(lp103
a(lp104
a(lp105
I2
aI0
aa(lp106
I0
aI3
aa(lp107
I0
aI1
aa(lp108
a(lp109
I2
aI1
aasS'PCMC'
p110
g16
(g17
(I0
tp111
g19
tp112
Rp113
(I1
(I12
tp114
g8
I00
S'\x8d\xc2\xe0\x87HQ\xea?\xbb\xf1\xc6Ug\xbc\xde?\xfc\xa9\xf1\xd2MbP?\xb1\xb0\x9ek\xec\x8a\xf6?\x94__,\xb2\xc0\xe3?g\t\x84\xf5\x8e\x14\xf1?\xca\x81\xf7\x1d\x86\x02\xff?R\x90\xc17\xf6\xba\x9c?N\xc9\x9fD\x81\x96\xd5?\xfd\x9dl\n\xc7\x86\xb6?\xa0\xd3\xc5\x16\xa2\xf3\xf8?\xfc\xa9\xf1\xd2MbP?'
p115
tp116
bsS'PL'
p117
g16
(g17
(I0
tp118
g19
tp119
Rp120
(I1
(I4
tp121
g8
I00
S'\xf2\xf9m\x86;b\xde?T\xdf\x87.|\x89\xc6?\xaa2#NZ\x96\xc7?"\xfaxv\xb2\x1b\xc5?'
p122
tp123
bs.