(dp0
S'N'
p1
I3
sS'Mallows-greedy'
p2
((lp3
I0
aI2
aI1
acnumpy.core.multiarray
scalar
p4
(cnumpy
dtype
p5
(S'f8'
p6
I0
I1
tp7
Rp8
(I3
S'<'
p9
NNNI-1
I-1
I0
tp10
bS'\xc7\x14\x98\xa5\n\xb4\xf1?'
p11
tp12
Rp13
tp14
sS'MMNL'
p15
cnumpy.core.multiarray
_reconstruct
p16
(cnumpy
ndarray
p17
(I0
tp18
S'b'
p19
tp20
Rp21
(I1
(I4
tp22
g8
I00
S'\x00\x00\x00\x00\x00\x00\xf0?Z\x8aUtXD\xf5?Rr\rRD\x9e\xd9?\xaa\x94>\xae\x93<\xf0?'
p23
tp24
bsS'test-lists'
p25
(lp26
(lp27
I0
aa(lp28
I2
aa(lp29
I0
aa(lp30
I2
aa(lp31
I2
aa(lp32
I2
aa(lp33
I2
aa(lp34
I2
aa(lp35
I2
aa(lp36
I0
aa(lp37
I0
aa(lp38
I0
aa(lp39
I0
aa(lp40
I1
aa(lp41
I0
aa(lp42
I2
aa(lp43
I1
aa(lp44
I0
aa(lp45
I2
aa(lp46
I0
aa(lp47
I0
aa(lp48
I1
aa(lp49
I0
aa(lp50
I0
aa(lp51
I0
aa(lp52
I0
aa(lp53
I0
aa(lp54
I0
aa(lp55
I0
aa(lp56
I0
aa(lp57
I0
aa(lp58
I2
aa(lp59
I2
aa(lp60
I0
aa(lp61
I0
aa(lp62
I2
aa(lp63
I2
aa(lp64
I2
aa(lp65
I0
aa(lp66
I0
aa(lp67
I0
aa(lp68
I0
aa(lp69
I0
aa(lp70
I1
aa(lp71
I0
aa(lp72
I1
aa(lp73
I0
aa(lp74
I0
aasS'PCMC'
p75
g16
(g17
(I0
tp76
g19
tp77
Rp78
(I1
(I6
tp79
g8
I00
S'\xc1\xf1^U\xdeA\xd3?\x1b\x91\xf8v\x81\x1b\xea?\xa0\xb1\xe6\xf8\xf9\xad\xf0?\xff#u\xc9#\xe5\xd6?V\xf3\xa2\x05\x18\xd3\xf0?\x97}\x82\x1a\xcf?\xc4?'
p80
tp81
bsS'PL'
p82
g16
(g17
(I0
tp83
g19
tp84
Rp85
(I1
(I3
tp86
g8
I00
S'*r!\x02\x9d\xff\xde?\xaf\\\x0eh\xa0\xab\xc2?{_\xd7\xc9\x92\xaa\xd7?'
p87
tp88
bs.