(dp0
S'N'
p1
I4
sS'Mallows-greedy'
p2
((lp3
I2
aI0
aI1
aI3
acnumpy.core.multiarray
scalar
p4
(cnumpy
dtype
p5
(S'f8'
p6
I0
I1
tp7
Rp8
(I3
S'<'
p9
NNNI-1
I-1
I0
tp10
bS"\x00'u)\xfa\x1b\xff?"
p11
tp12
Rp13
tp14
sS'MMNL'
p15
cnumpy.core.multiarray
_reconstruct
p16
(cnumpy
ndarray
p17
(I0
tp18
S'b'
p19
tp20
Rp21
(I1
(I10
tp22
g8
I00
S'\x0f\x0f\xce\x08\\|\xda?x\xf8\x98\xfb\xd1\xc1\xe2?K\xb2; *\x89\xe9?\xf4H^\xbf\x90\x89\xad?&\xfc\xdb,\x1d\xe7\xea?\xcc\x07\xd5\xdbY\xe7c?\xe8O\xef\xc0\x86;\xfc?+U\xe2\x87&\xc4\xfb?\x04\x82HV<\xa7\xc6??\xfe\xf37p)\x83?'
p23
tp24
bsS'test-lists'
p25
(lp26
(lp27
I2
aI0
aa(lp28
I2
aa(lp29
I2
aI3
aa(lp30
I2
aI0
aa(lp31
I0
aI2
aa(lp32
I2
aI0
aa(lp33
I2
aI0
aa(lp34
I2
aI0
aa(lp35
I2
aI1
aa(lp36
I2
aI0
aa(lp37
I2
aI3
aa(lp38
I2
aI0
aa(lp39
I2
aI0
aa(lp40
I2
aa(lp41
I2
aI1
aa(lp42
I1
aI2
aa(lp43
I2
aI3
aa(lp44
I2
aI0
aa(lp45
I2
aI0
aa(lp46
a(lp47
a(lp48
I2
aI0
aa(lp49
I2
aI1
aa(lp50
I2
aa(lp51
I1
aI2
aa(lp52
I2
aa(lp53
I0
aI1
aa(lp54
I0
aI1
aa(lp55
I2
aI0
aa(lp56
I2
aI1
aa(lp57
a(lp58
I2
aa(lp59
a(lp60
I2
aI0
aa(lp61
I2
aI0
aa(lp62
I2
aI0
aa(lp63
I2
aI0
aa(lp64
I1
aa(lp65
I2
aa(lp66
I2
aI1
aa(lp67
I0
aa(lp68
I2
aI1
aa(lp69
I2
aa(lp70
I2
aI3
aa(lp71
I2
aI0
aa(lp72
I2
aI0
aa(lp73
I0
aI2
aa(lp74
I0
aI2
aa(lp75
I2
aI0
aa(lp76
I2
aa(lp77
I2
aI0
aa(lp78
I2
aI0
aa(lp79
I2
aI0
aa(lp80
I2
aa(lp81
I2
aI0
aa(lp82
I2
aa(lp83
I2
aI1
aa(lp84
I2
aI0
aa(lp85
I2
aI0
aa(lp86
I2
aI0
aa(lp87
I2
aa(lp88
I2
aa(lp89
I2
aI1
aa(lp90
I0
aI1
aa(lp91
I1
aa(lp92
I2
aI1
aa(lp93
I2
aI3
aa(lp94
I2
aI0
aa(lp95
a(lp96
I2
aI0
aa(lp97
I2
aI0
aa(lp98
I2
aI0
aa(lp99
I2
aI0
aa(lp100
I2
aI1
aa(lp101
I2
aI0
aasS'PCMC'
p102
g16
(g17
(I0
tp103
g19
tp104
Rp105
(I1
(I12
tp106
g8
I00
S")\xce5D5\xb5f?\x1d\xfa\x88L\x8a\x04\x12@sG\xe1]\x80?\xe2?\x060iP\xf8 \xf9?5qF[\xa20\xf1?\xfc\xa9\xf1\xd2MbP?\x1cL\x81);\xef\xe2?\xac\xef\x0f\xfe.\xf5\xd0?\xc6\xd6\x92\xcd\x92\r\xaa?\xa2f\x1ap\xbeW\xea?%*\xab\xb3\x1e'\x03@\x90\xb3\xe1A9\xb9\r@"
p107
tp108
bsS'PL'
p109
g16
(g17
(I0
tp110
g19
tp111
Rp112
(I1
(I4
tp113
g8
I00
S'\xefI\xaadF\x18\xc3?\x9e{\xeb$\xb4\x00\xb0?\x15u\xfb\xc1\xa7k\xe8?{\x1f\x91\x07\x04\xc6\x99?'
p114
tp115
bs.