(dp0
S'N'
p1
I3
sS'Mallows-greedy'
p2
((lp3
I1
aI2
aI0
acnumpy.core.multiarray
scalar
p4
(cnumpy
dtype
p5
(S'f8'
p6
I0
I1
tp7
Rp8
(I3
S'<'
p9
NNNI-1
I-1
I0
tp10
bS'9\xecSI\xdf\x1b\xf0?'
p11
tp12
Rp13
tp14
sS'MMNL'
p15
cnumpy.core.multiarray
_reconstruct
p16
(cnumpy
ndarray
p17
(I0
tp18
S'b'
p19
tp20
Rp21
(I1
(I4
tp22
g8
I00
S'\x00\x00\x00\x00\x00\x00\xf0?\x0b\xc0\x83\x8bl\xa6\xdc?\x88\xf0\xf3\x1f\xd0\xb0\xf3?;(i\x0e\xd0\xb0\xf3?'
p23
tp24
bsS'test-lists'
p25
(lp26
(lp27
I0
aa(lp28
I2
aa(lp29
I1
aa(lp30
I2
aa(lp31
I2
aa(lp32
I0
aa(lp33
I2
aa(lp34
I1
aa(lp35
I1
aa(lp36
I0
aa(lp37
I1
aa(lp38
I2
aa(lp39
I1
aa(lp40
I2
aa(lp41
I2
aa(lp42
I2
aa(lp43
I0
aa(lp44
I0
aa(lp45
I1
aa(lp46
I2
aa(lp47
I1
aa(lp48
I1
aa(lp49
I1
aa(lp50
I1
aa(lp51
I1
aa(lp52
I1
aa(lp53
I1
aa(lp54
I1
aa(lp55
I1
aa(lp56
I0
aa(lp57
I0
aa(lp58
I1
aasS'PCMC'
p59
g16
(g17
(I0
tp60
g19
tp61
Rp62
(I1
(I6
tp63
g8
I00
S'p\x97y\xcd\xf8\xc1\xec?<W\xc9\xc5\x89\x83\xeb?\x85\x15\x15k3g\xcc?\x03\xf7\xdd\xf5`\xdd\xdf?t4\x12\x9b\x7f\xbc\xda? L\x8d\\\x18%\xd9?'
p64
tp65
bsS'PL'
p66
g16
(g17
(I0
tp67
g19
tp68
Rp69
(I1
(I3
tp70
g8
I00
S'x\xe6\x8bz\x96\xb2\xc3?\xd0\x0b<]Z\x13\xdb?\xf1\x00~eZ\x13\xdb?'
p71
tp72
bs.