(dp0
S'N'
p1
I4
sS'Mallows-greedy'
p2
((lp3
I1
aI2
aI3
aI0
acnumpy.core.multiarray
scalar
p4
(cnumpy
dtype
p5
(S'f8'
p6
I0
I1
tp7
Rp8
(I3
S'<'
p9
NNNI-1
I-1
I0
tp10
bS'\xff\x87\xda\x10\x9b\xa3\xe9?'
p11
tp12
Rp13
tp14
sS'MMNL'
p15
cnumpy.core.multiarray
_reconstruct
p16
(cnumpy
ndarray
p17
(I0
tp18
S'b'
p19
tp20
Rp21
(I1
(I10
tp22
g8
I00
S"=\xa6\x07\xa6\xceL\xd8?\xe2,\xfc\xac\x98\xd9\xe3?\x95\xd6&\xe8\x0b.\x11>D\xe9\xe9\tS?\xf4?\x0b\xf9\x11%g\xb1\xfa?\xef?\xfa'\xc5)\xf4?\x95\xd6&\xe8\x0b.\x11>7\xb6\x04c\xc6\x8e\xfb?~n\xa79-m\x10@\x95\xd6&\xe8\x0b.\x11>"
p23
tp24
bsS'test-lists'
p25
(lp26
(lp27
I0
aI3
aa(lp28
I2
aI1
aa(lp29
I1
aI3
aa(lp30
a(lp31
I0
aI1
aa(lp32
I3
aI1
aa(lp33
a(lp34
I3
aI1
aa(lp35
a(lp36
I2
aI3
aa(lp37
I3
aI1
aa(lp38
I0
aI1
aa(lp39
I0
aI3
aa(lp40
I1
aI2
aa(lp41
I3
aI1
aa(lp42
a(lp43
I2
aI1
aa(lp44
I1
aI2
aa(lp45
a(lp46
I2
aI0
aa(lp47
a(lp48
I3
aI0
aa(lp49
a(lp50
I3
aI1
aa(lp51
a(lp52
I1
aI2
aa(lp53
a(lp54
I0
aI1
aa(lp55
I3
aI2
aa(lp56
I1
aI0
aa(lp57
a(lp58
I1
aI2
aa(lp59
a(lp60
a(lp61
I2
aI0
aa(lp62
a(lp63
I1
aI2
aa(lp64
I3
aI0
aa(lp65
I3
aI2
aa(lp66
a(lp67
I2
aI3
aa(lp68
a(lp69
a(lp70
a(lp71
a(lp72
a(lp73
I2
aI3
aa(lp74
I3
aI2
aa(lp75
I2
aI1
aa(lp76
a(lp77
I0
aI3
aa(lp78
I0
aI2
aa(lp79
I2
aI1
aa(lp80
I1
aI3
aa(lp81
I3
aI0
aa(lp82
I1
aI2
aa(lp83
I1
aI3
aa(lp84
a(lp85
a(lp86
a(lp87
I3
aI1
aa(lp88
a(lp89
I3
aI1
aa(lp90
a(lp91
I3
aI1
aa(lp92
I3
aI0
aa(lp93
I3
aI1
aa(lp94
a(lp95
I0
aI3
aa(lp96
I2
aI1
aa(lp97
a(lp98
a(lp99
I2
aI0
aa(lp100
a(lp101
I2
aI3
aa(lp102
I1
aI3
aa(lp103
a(lp104
a(lp105
I3
aI0
aa(lp106
I1
aI0
aa(lp107
a(lp108
I1
aI2
aa(lp109
I1
aI2
aa(lp110
I0
aI1
aa(lp111
a(lp112
a(lp113
I0
aI1
aa(lp114
a(lp115
I2
aI1
aa(lp116
I3
aI1
aa(lp117
a(lp118
I3
aI2
aa(lp119
I1
aI0
aa(lp120
I3
aI1
aasS'PCMC'
p121
g16
(g17
(I0
tp122
g19
tp123
Rp124
(I1
(I12
tp125
g8
I00
S'\'\xc5\xaeI\x97_\xe1?\x89\xce0\xf6$\xc2\xe1?\xfc\xa9\xf1\xd2MbP?\xcfn" Y\xf1\xcb?\x8a\xce{\xa4\xc6Fv?h\x82\xc6|\xfc\xbf\xf2?\xfc\xa9\xf1\xd2MbP?\xd74\x89a\x16G\xd4?\xfc~*\x9b|n\xdf?\r\x8b\xf8\xca\x80]\xe2?\x81*\x9f\x11\xe9\xad\xe8?\r\xee\xfb\xb1hF\xd7?'
p126
tp127
bsS'PL'
p128
g16
(g17
(I0
tp129
g19
tp130
Rp131
(I1
(I4
tp132
g8
I00
S'\xf7\xde"7\x9bR\xc8?\x16\xd4k\xff\xffB\xd4?Y\x11\x8dx?\xa9\xce?\xc43\xbc\xa8\x12?\xd0?'
p133
tp134
bs.