(dp0
S'N'
p1
I4
sS'Mallows-greedy'
p2
((lp3
I2
aI0
aI1
aI3
acnumpy.core.multiarray
scalar
p4
(cnumpy
dtype
p5
(S'f8'
p6
I0
I1
tp7
Rp8
(I3
S'<'
p9
NNNI-1
I-1
I0
tp10
bS'D\x15C]\xa2\xb5\xf6?'
p11
tp12
Rp13
tp14
sS'MMNL'
p15
cnumpy.core.multiarray
_reconstruct
p16
(cnumpy
ndarray
p17
(I0
tp18
S'b'
p19
tp20
Rp21
(I1
(I10
tp22
g8
I00
S'\t\xbf\x8d\t"\xf6\xdb?{ 9\xfb\xee\x04\xe2?\x18\xba\xb3\xe2\xa2u\xb9? \xc4\xf8k\x974\xfa?\xd2\xd3\x1aq\xf2D\xdc?\x1a\xce\xe2\xa1D\xb5\xdb?=\xa2W\xd5\xb7P\xf0?\x1e\x87\x9b\xd4ca\xf2?\xf9\xf8\x15\xec\xfe\x8b\x9d?\x83\xb93_\xe8\x18\xb1?'
p23
tp24
bsS'test-lists'
p25
(lp26
(lp27
I1
aI2
aa(lp28
I0
aI2
aa(lp29
I2
aI1
aa(lp30
I2
aI0
aa(lp31
I0
aI1
aa(lp32
I0
aI2
aa(lp33
a(lp34
I1
aI0
aa(lp35
I0
aI3
aa(lp36
I0
aa(lp37
I2
aa(lp38
I2
aI1
aa(lp39
I1
aI0
aa(lp40
I0
aI1
aa(lp41
I2
aa(lp42
I1
aI0
aa(lp43
a(lp44
I0
aI2
aa(lp45
I2
aI1
aa(lp46
I1
aI3
aa(lp47
I1
aI2
aa(lp48
I0
aI2
aa(lp49
I2
aI0
aa(lp50
I2
aI1
aa(lp51
I2
aI0
aa(lp52
a(lp53
I1
aa(lp54
I0
aI2
aa(lp55
I2
aa(lp56
I1
aI2
aa(lp57
I1
aa(lp58
I1
aa(lp59
I2
aI0
aa(lp60
I2
aI0
aa(lp61
I2
aa(lp62
I0
aa(lp63
I0
aI2
aa(lp64
I1
aI2
aa(lp65
I2
aI0
aa(lp66
I1
aa(lp67
I2
aI1
aa(lp68
I2
aI3
aa(lp69
I2
aI1
aa(lp70
I0
aI2
aa(lp71
I1
aI0
aa(lp72
I0
aI2
aa(lp73
I2
aI1
aa(lp74
I0
aI2
aa(lp75
I0
aI2
aa(lp76
a(lp77
I0
aa(lp78
I2
aI0
aa(lp79
I2
aI1
aa(lp80
I2
aa(lp81
I1
aI0
aa(lp82
I2
aI0
aa(lp83
I2
aI1
aa(lp84
I0
aI1
aa(lp85
I2
aa(lp86
I0
aa(lp87
I2
aa(lp88
I0
aa(lp89
I2
aa(lp90
I2
aI1
aa(lp91
I2
aI0
aa(lp92
I2
aI1
aa(lp93
I0
aI2
aa(lp94
I2
aI0
aa(lp95
I2
aI1
aa(lp96
I0
aI2
aa(lp97
I1
aI2
aa(lp98
I2
aI0
aa(lp99
I1
aI2
aa(lp100
I1
aI2
aa(lp101
I0
aI1
aa(lp102
I1
aI2
aa(lp103
I1
aI2
aa(lp104
I2
aI1
aa(lp105
I1
aI0
aa(lp106
I2
aI0
aa(lp107
I0
aI2
aa(lp108
I2
aa(lp109
I2
aa(lp110
a(lp111
I0
aa(lp112
a(lp113
I0
aI2
aa(lp114
I0
aI2
aa(lp115
I1
aI0
aa(lp116
a(lp117
I1
aI2
aasS'PCMC'
p118
g16
(g17
(I0
tp119
g19
tp120
Rp121
(I1
(I12
tp122
g8
I00
S"q\x1dzAV\xc4\xb8?ZT\xbeZ\x95\x1a\xe8?\xb7b\xa64\x88N\x90?\xfc\xa9\xf1\xd2MbP?!t,y\xd7\xdf\xf8?\xd32\xe8\x99T\xe3\xc0?'\x9a\xa4SM\x04\xe0?\xdb\x17\xa9[>\x0f\xe4?\xdd\x88\xb9\xa0C\xf7\xa5?\x8c\xe4\xf5\x1e\xc9q\xf4?\xf0\xe7\xc9\xb9\x06\x88\xd0?\x85|\xf2\xf5\xeeU\xf6?"
p123
tp124
bsS'PL'
p125
g16
(g17
(I0
tp126
g19
tp127
Rp128
(I1
(I4
tp129
g8
I00
S"'+PN\x15\x8e\xd2?U\xa0\x8d\x1a1\xc3\xca?|+\xd2H\xbf\xc6\xde?\xee\x92m\xb9-\x99\x94?"
p130
tp131
bs.