(dp0
S'N'
p1
I12
sS'Mallows-greedy'
p2
((lp3
I9
aI8
aI3
aI1
aI5
aI6
aI11
aI0
aI4
aI2
aI7
aI10
acnumpy.core.multiarray
scalar
p4
(cnumpy
dtype
p5
(S'f8'
p6
I0
I1
tp7
Rp8
(I3
S'<'
p9
NNNI-1
I-1
I0
tp10
bS'\xad\xb81\xfbd\x96\xf2?'
p11
tp12
Rp13
tp14
sS'MMNL'
p15
cnumpy.core.multiarray
_reconstruct
p16
(cnumpy
ndarray
p17
(I0
tp18
S'b'
p19
tp20
Rp21
(I1
(I130
tp22
g8
I00
S'\xf9Z\xac\x83\x14O\xcc=P\x02\xb22w\xc5\xc9?,\xcc\x98\xbe9P\xd5?\xf9Z\xac\x83\x14O\xcc=\xde\x01\x8a\x12\'=\xd5=\xd8\xb1\x04\xe7\xfcz\x86?c\x11m\x18\xf8u\xb4?\x04$\x8d\xb9\xb4\xfb\xd7?\x1c\x15\x1f\xcb\x1c^\x04>\xac\xbc)\xa9\xe7I\xf6=\x81\xe1q\x15\xae\xd3\xe3?T\xd8\x8b\x0cG\x01\xdd?\xa0(=y\xa4\xcb\xcb?&\xe6b\xb9\xc3H\x94?\xd0c\x1e^]\x96\xed?yGP_\xae\x1a\xce?\x95\xd6&\xe8\x0b.\x11>\x8a\xe80\x159M\xe4?\xed~Q\xd8\x86H\xdb?2\x8e!&^\x94\xd7?\x90x\x9cmx\x9a\xea?\xde\xe5\xcc\x9f\xe1\x06\xee?\xfc\xd4\x93\x947y\xd5?"\xc0\x80\x8b\xdc?\xc5?\x1c7@\xae\xe17\xe0?\'W-\x91\x1a\x9f\xd6?\xc2\x85^\xd0\x8c\xf9\xe0?\xac\x8f\x93\xd1^\x7f\xf0?{K`\x03\xe2=\xf1?)\xd6@\xec\xda\xf9\xed?&Z:Z\\3\xec?6YMJ3\xfc\xea?\x95\xd6&\xe8\x0b.\x11>D;\xa2\xae\x8b\xe3\xee?\xc2_W\x0e\x1c\xd7\xe5?hb\xd1\x14~\x1a\xe8?|@\x8cxg;\xd7?8\x96-\x00\x8a\xb6|?\xf0\x95\xce4\xbc\xea\xd1?\xc2kP\xcfo\'\xe0?\x8e\x96\xd1\x93\xf4\x1c\xc3?\xd7\xb0\xe0\xfb\x02P\xf4?\xa2\xb9)a\xe7k\xef?\xd7\x9c\xe2\xf4\xde%\xec?yt\x84xb\xa5\xc9?9*\x1d\x14\xa7\x89\xf0?1\xfc\'\x19\xecb\xf3?\x95\xd6&\xe8\x0b.\x11>\xf3\xb0\x90\xa4\xf3`\xf1?\xcc\xe3h\xb5C\xef\xe0?2/\xbb[\xba\x1f\xce?\x83\xb8\xcff`\xf8\xb3?\x95\xd6&\xe8\x0b.\x11>\xf5\x19\x9ac>\xf9\xe3?\x14(Di\xf1\x90\xe8?\xc9\xcb\xdc\xa4s\xd2\xb7?\x04pw\x92\xb1\x10\x91?\x9aT\xd3\xd9\xc1\x9c\xf5?\xf2a\xf9s\xeb\x0c\xdd?V\\\xed\xd6\x1b;\xee?Q\xf4\x96\xd8\x13\xbd\xcd?Y\xb4\xc6q3&\xfc?\xe8i^\na\x89\xf2?]\x1a\xd3x\xe6\xcd\xd6?\xe1W\xce@\x8b\x9d\xb6?\xbf\xa3\xec|y\x1c\xee?\xd2V\xb8\x06\x93G\xf4?\x95\xd6&\xe8\x0b.\x11>\x172\x90\xec\n\x85\xcb?\xae\xbf\x19\x13\xd5f\xef?7\xa6\xe2\xdf\x16\xd1\xe6?\x95\xd6&\xe8\x0b.\x11>\x90#\xe8\xc1\xbc^\xde?g\xa2\xf8<\xe2 \xd1?\xa4\x84z\xab\x10Q\xec?\x1a\xdaC]\xbd{\xd7?\xa2F\xf7\xc6\xcd\xd4\xb3?\x9a\xaaTU\x0e\xa5\xfb?]\xff\xa1\xd8\xde\xd6\xe7?\xde\xa0Vu@\x1f\xc0?(\x19\x8e;s\x0e\xe1?C\xc6|;X\x98\xb4?\x9e)\x07\x1f\x91\x94\xa5?9.\x83\xa3\xd1\xdc\xe3?#\x10g\x89\xa2\xa4\xd3?\x83\x95\x98\xcdq\x05\xd7?\x85\xe4l\x1b\xbf\xef\xbb?s\xc6#f\x16\xf8\xde?\xde\xa1t(\r\x04\xe2?!\x91\xf464\xe7\xeb?\xec\x80Myb\xde\xf1?L\x80\xdf\xb9\xafa\xec?\xd4\xd57\x9e\x8e\xc2\xe3?\x12A\x0b\x99\xe5v\xf0?\x98\x11\xc2[\x92\xd9\xe6?\x92L\xea&3\xcc\xcd??6\x0f\xd8\x90\x98\xd5?\x82\xe0\xcf\x1d\xe4\x1b\xfa?aH\n\r.\x0f\xe7?6?O\x0f\xe2}\xe1?eq\xaa\xb3\xc2@\xd5?"y\x01\x88\xae\xed\xf6?8\x03\x03\xa7\xdc\x95\xdb?]\xfc\x7f\xe5GZ\xd3?^O\xd4!\xd3\x8f\xf0?t\xe8\xd7@|\xca\xe8?\xcc\x00\xcc\xd9\x96O\xf6?\xe8;\x10\xb3\xd1\xa2\x02@\xe4\xdf!\x95\xc3M\xd9?57\xa9\xac\x1a\xa5\xf1?p\x8a$[\xc71\xe7?R\x11\xea\x1bQ\r\xb0?$\xa9\xb1 \xa8\xb9w?+u\x99;\x93\x0c\xe4?9\x9a\xa4\xc5\xde\xee\xdf?\xaeZ\x817s)\x8a?\x13Lfi\x87\x82\xd3?\xc1\xff\xc8\x89WK\xdd?,\xdc|\xad&\x13\xe4?\xd1M\x98\xb8\xf7*\xe7?\x05"\x83-\xd5\x0b\xee?\xdc\xbd\x1db\x8ce\xf4?\x9e[8\xbf<\xcd\xf0?\xad\x8f\xfb\xaeA&\xef?\x95\xd6&\xe8\x0b.\x11>\xa2yXh\xa5`\xdf?\xe7\x91H\x01|/\xf0?\x95\xd6&\xe8\x0b.\x11>\xc3\x86\xd8yP\xdf\xe8?dc\xe9\xcd\xa0\xd1\xc8?'
p23
tp24
bsS'test-lists'
p25
(lp26
(lp27
I6
aa(lp28
I1
aa(lp29
I11
aI1
aI3
aI5
aI6
aI7
aI8
aI9
aa(lp30
I8
aI6
aI9
aI1
aI0
aI4
aI10
aI11
aI5
aI3
aa(lp31
I9
aI11
aI1
aI5
aI8
aI10
aI3
aI0
aI2
aI6
aa(lp32
I8
aa(lp33
I11
aI5
aI3
aI4
aa(lp34
I1
aa(lp35
I9
aI4
aa(lp36
I3
aa(lp37
I8
aa(lp38
I6
aI0
aa(lp39
I11
aa(lp40
I8
aI6
aI1
aa(lp41
I6
aI0
aa(lp42
a(lp43
I11
aa(lp44
I8
aI1
aI9
aI3
aa(lp45
I5
aI11
aI9
aa(lp46
I3
aI5
aa(lp47
I6
aI0
aI9
aI8
aI3
aI2
aI11
aI10
aI7
aI5
aa(lp48
I5
aa(lp49
I3
aI11
aI5
aI9
aa(lp50
I9
aI1
aI7
aI10
aI8
aa(lp51
I2
aI3
aI8
aa(lp52
I11
aI5
aI9
aa(lp53
I1
aa(lp54
I9
aI5
aI11
aI1
aI3
aa(lp55
I5
aI11
aI3
aI8
aI9
aI1
aI6
aI0
aa(lp56
I5
aI3
aa(lp57
I5
aa(lp58
I5
aI3
aI11
aa(lp59
I5
aa(lp60
I8
aI9
aa(lp61
a(lp62
I2
aI3
aI11
aa(lp63
I9
aI8
aI6
aa(lp64
I1
aI9
aI8
aI2
aI4
aI10
aI7
aI6
aI0
aI11
aa(lp65
I8
aI6
aI9
aI0
aI3
aa(lp66
I11
aI3
aI5
aI0
aI6
aI8
aI1
aI4
aI9
aa(lp67
I8
aI5
aI0
aI6
aI3
aI9
aI11
aI4
aI1
aI7
aa(lp68
I1
aI5
aI6
aa(lp69
I1
aa(lp70
I3
aa(lp71
I2
aa(lp72
I8
aI9
aI1
aa(lp73
I11
aI9
aI0
aI3
aI6
aa(lp74
I9
aI6
aa(lp75
I3
aa(lp76
I7
aI4
aI6
aI1
aI8
aa(lp77
I9
aI6
aa(lp78
I3
aa(lp79
I1
aI9
aI6
aI0
aI8
aI10
aI7
aa(lp80
I9
aI1
aa(lp81
I3
aa(lp82
I3
aI6
aI8
aI1
aI0
aI11
aI9
aI5
aI4
aI2
aa(lp83
I1
aI8
aI9
aI10
aa(lp84
I1
aI3
aI5
aI11
aI0
aI2
aI7
aI4
aI9
aI10
aa(lp85
I8
aI0
aI6
aI11
aI9
aI7
aa(lp86
I6
aa(lp87
I3
aa(lp88
I6
aI0
aI1
aa(lp89
I11
aI8
aI9
aI1
aI3
aI4
aI5
aI2
aI10
aI0
aa(lp90
I9
aI8
aI7
aI2
aI4
aI10
aI1
aI0
aI6
aI11
aa(lp91
I3
aa(lp92
I11
aa(lp93
I3
aa(lp94
I4
aI1
aI9
aa(lp95
I0
aI6
aa(lp96
I5
aI11
aI3
aa(lp97
I11
aI1
aI7
aI4
aI8
aI3
aI5
aI10
aI9
aI0
aa(lp98
a(lp99
I3
aa(lp100
I6
aI8
aI0
aI7
aI9
aI4
aa(lp101
I3
aI11
aI5
aI9
aI8
aI1
aI0
aa(lp102
I5
aa(lp103
a(lp104
I1
aI2
aa(lp105
I3
aI11
aa(lp106
I6
aI8
aa(lp107
I9
aI1
aa(lp108
I9
aa(lp109
I1
aI8
aa(lp110
I1
aI8
aI2
aI4
aa(lp111
I2
aa(lp112
I8
aI2
aI1
aI9
aI6
aI0
aI4
aI7
aI10
aI3
aa(lp113
I9
aI8
aa(lp114
I3
aI11
aI5
aI2
aa(lp115
I3
aI5
aI8
aI11
aa(lp116
I8
aI6
aa(lp117
I5
aI11
aa(lp118
I5
aa(lp119
I6
aI9
aI8
aI4
aa(lp120
I0
aI2
aI5
aI11
aa(lp121
I11
aI5
aI3
aI1
aI8
aI9
aI10
aI4
aI7
aI0
aa(lp122
I9
aI3
aI2
aa(lp123
I9
aI4
aI7
aI1
aI8
aI6
aI0
aI3
aI5
aI11
aa(lp124
I6
aI0
aI8
aa(lp125
I1
aI2
aa(lp126
I6
aI0
aa(lp127
I2
aa(lp128
I9
aI1
aI2
aa(lp129
I5
aI3
aa(lp130
I2
aa(lp131
I0
aI6
aI10
aI9
aI1
aa(lp132
I1
aI9
aI4
aa(lp133
I11
aa(lp134
I6
aa(lp135
I11
aI5
aa(lp136
I3
aI8
aI9
aI2
aI1
aI11
aa(lp137
I1
aa(lp138
a(lp139
I3
aI8
aI9
aa(lp140
I5
aa(lp141
I11
aI2
aa(lp142
I9
aI8
aI6
aI1
aa(lp143
I9
aa(lp144
I6
aI0
aa(lp145
I5
aI11
aa(lp146
I11
aa(lp147
I5
aI3
aa(lp148
I11
aa(lp149
I8
aI1
aa(lp150
I6
aI5
aI11
aI8
aI9
aI3
aI0
aa(lp151
I1
aa(lp152
I0
aa(lp153
I11
aa(lp154
I1
aI4
aI7
aa(lp155
I8
aa(lp156
I5
aa(lp157
I5
aI1
aI8
aI6
aI2
aa(lp158
I11
aI5
aa(lp159
I5
aI11
aa(lp160
I6
aI0
aI8
aa(lp161
I4
aI7
aI1
aI6
aI8
aI9
aI10
aI2
aI0
aI3
aa(lp162
I0
aI6
aI8
aI9
aa(lp163
I1
aI4
aI7
aa(lp164
I5
aI9
aa(lp165
I3
aI5
aa(lp166
I9
aI1
aI4
aI0
aI6
aI8
aI7
aI10
aI3
aI5
aa(lp167
I9
aI8
aa(lp168
I10
aI9
aI6
aI0
aI5
aI3
aI11
aI2
aI1
aI7
aa(lp169
I8
aI9
aI6
aI4
aI2
aa(lp170
I8
aI4
aI0
aI6
aI11
aa(lp171
I5
aa(lp172
I11
aI8
aI5
aa(lp173
I3
aa(lp174
I11
aI5
aa(lp175
I9
aI0
aI6
aa(lp176
I1
aa(lp177
I1
aa(lp178
I8
aI9
aa(lp179
I5
aI11
aI3
aI4
aI8
aI10
aa(lp180
a(lp181
I10
aI9
aI4
aI7
aI6
aI0
aa(lp182
I8
aa(lp183
I8
aa(lp184
I3
aa(lp185
I8
aI3
aI5
aI2
aI1
aI11
aI9
aI4
aI7
aI10
aa(lp186
I5
aI2
aI9
aI3
aa(lp187
I5
aa(lp188
I6
aI11
aI1
aI9
aI4
aa(lp189
I3
aa(lp190
I11
aI3
aa(lp191
I5
aI3
aI11
aI6
aI0
aI7
aI4
aI2
aI1
aI9
aa(lp192
I8
aI3
aI5
aI9
aI1
aI11
aI7
aI10
aI4
aa(lp193
a(lp194
a(lp195
I1
aI8
aa(lp196
I9
aI11
aI8
aI6
aI0
aI10
aI1
aI3
aa(lp197
I1
aI11
aI3
aI9
aa(lp198
I3
aI8
aI9
aI1
aI2
aI11
aI5
aI0
aI4
aI7
aa(lp199
I9
aI10
aI11
aI7
aI6
aI5
aI4
aI2
aI1
aI0
aa(lp200
I5
aa(lp201
I3
aI5
aa(lp202
I9
aI6
aI0
aI1
aI7
aa(lp203
I1
aI8
aI2
aI5
aI11
aI10
aI0
aI4
aI3
aa(lp204
I8
aa(lp205
I11
aa(lp206
a(lp207
I1
aa(lp208
I11
aa(lp209
I5
aa(lp210
I1
aI9
aa(lp211
I8
aa(lp212
I11
aa(lp213
I5
aa(lp214
I9
aI6
aI0
aI3
aI5
aI11
aI4
aI7
aa(lp215
I11
aI5
aI3
aa(lp216
I4
aI7
aI9
aa(lp217
I4
aI3
aI8
aI5
aI0
aa(lp218
I6
aI0
aI9
aa(lp219
a(lp220
I8
aI6
aa(lp221
I0
aa(lp222
I8
aa(lp223
I3
aI11
aI5
aa(lp224
I5
aI3
aa(lp225
I8
aa(lp226
I8
aI1
aI4
aI9
aI7
aI0
aI6
aI2
aI10
aI3
aa(lp227
I8
aI6
aa(lp228
a(lp229
I3
aa(lp230
I11
aa(lp231
I9
aI4
aI6
aI8
aI1
aI0
aI7
aI10
aI3
aI5
aa(lp232
I8
aa(lp233
I3
aa(lp234
a(lp235
a(lp236
I5
aa(lp237
I6
aI0
aa(lp238
I8
aI9
aa(lp239
a(lp240
I9
aI4
aI6
aa(lp241
I8
aI9
aI6
aI4
aI0
aa(lp242
I11
aI5
aa(lp243
I0
aI8
aI6
aI9
aa(lp244
I3
aa(lp245
I11
aI3
aa(lp246
I11
aI5
aa(lp247
I11
aI8
aI5
aI9
aI6
aI3
aa(lp248
I2
aa(lp249
I5
aI4
aa(lp250
I9
aI8
aI1
aa(lp251
I6
aI0
aa(lp252
I11
aa(lp253
I8
aa(lp254
I0
aI5
aI6
aa(lp255
I9
aa(lp256
I11
aI6
aI5
aI4
aI3
aI0
aI1
aI7
aa(lp257
I1
aa(lp258
I9
aa(lp259
I3
aI9
aa(lp260
I1
aa(lp261
I11
aI5
aa(lp262
I2
aa(lp263
I6
aI9
aI1
aI3
aa(lp264
I1
aI5
aa(lp265
I11
aa(lp266
I8
aa(lp267
I3
aI6
aI9
aI5
aI0
aI7
aI8
aI11
aI4
aI1
aa(lp268
I8
aa(lp269
I3
aa(lp270
a(lp271
a(lp272
I6
aI9
aa(lp273
a(lp274
I9
aa(lp275
I9
aa(lp276
I9
aI11
aI5
aI3
aI2
aI4
aI8
aI10
aI7
aI1
aa(lp277
I11
aa(lp278
I11
aI5
aI0
aa(lp279
I4
aI3
aI9
aI8
aa(lp280
I1
aI5
aI2
aI3
aI9
aI10
aI6
aI4
aI0
aI7
aa(lp281
I8
aI6
aa(lp282
I9
aI4
aI0
aI2
aI7
aa(lp283
I5
aI11
aI3
aa(lp284
I7
aI4
aa(lp285
I3
aa(lp286
I4
aI9
aI8
aI6
aI0
aI3
aI5
aI10
aI1
aa(lp287
I1
aI2
aI8
aI9
aa(lp288
I8
aI2
aa(lp289
I9
aa(lp290
I11
aa(lp291
I1
aI8
aI9
aa(lp292
I5
aI1
aa(lp293
I11
aI5
aa(lp294
I11
aI9
aI8
aa(lp295
I11
aI8
aa(lp296
I1
aI5
aI3
aa(lp297
I1
aa(lp298
I5
aI3
aa(lp299
I8
aI9
aI0
aa(lp300
I10
aa(lp301
I3
aI5
aa(lp302
I6
aI9
aI5
aa(lp303
I11
aa(lp304
I11
aa(lp305
a(lp306
a(lp307
I11
aI5
aI3
aI6
aI8
aI0
aI1
aI9
aI7
aI10
aa(lp308
I5
aI3
aa(lp309
I8
aI9
aI1
aI6
aI0
aI10
aI4
aa(lp310
I5
aI11
aI3
aI8
aa(lp311
I9
aI3
aa(lp312
I6
aI0
aI9
aa(lp313
I11
aI1
aa(lp314
I6
aI0
aI8
aI9
aI1
aI3
aa(lp315
I0
aI9
aa(lp316
I3
aI0
aI1
aI8
aa(lp317
a(lp318
I11
aa(lp319
I1
aI9
aI8
aI11
aI5
aI6
aI2
aI10
aI4
aI3
aa(lp320
I11
aI5
aI3
aI8
aa(lp321
I9
aI8
aI11
aa(lp322
I6
aa(lp323
I5
aI3
aI9
aI11
aI8
aI4
aI2
aI1
aI10
aa(lp324
I8
aI5
aa(lp325
I9
aI6
aI0
aa(lp326
I5
aa(lp327
I10
aI1
aI8
aI4
aI9
aI11
aI2
aI3
aI7
aI0
aa(lp328
I7
aI3
aa(lp329
a(lp330
a(lp331
I6
aI9
aI8
aI1
aa(lp332
I6
aa(lp333
I6
aI11
aI9
aa(lp334
I9
aI11
aI5
aI3
aI6
aI0
aa(lp335
I9
aI11
aI1
aa(lp336
I9
aa(lp337
I1
aI0
aI9
aI10
aI2
aI6
aI4
aI7
aa(lp338
I9
aa(lp339
I11
aI5
aI2
aa(lp340
I11
aI5
aI3
aI6
aa(lp341
a(lp342
I0
aI6
aI8
aI9
aI3
aI1
aI4
aI7
aa(lp343
I3
aa(lp344
I11
aa(lp345
I4
aI9
aI6
aa(lp346
I9
aa(lp347
I1
aa(lp348
I3
aa(lp349
I3
aI6
aI9
aI11
aI0
aI1
aI5
aI8
aI7
aI4
aa(lp350
I3
aI5
aI11
aa(lp351
I5
aa(lp352
I8
aa(lp353
I4
aI1
aI9
aa(lp354
I6
aI0
aa(lp355
I9
aI8
aI1
aI2
aI10
aI11
aI3
aI4
aI5
aI7
aa(lp356
I1
aI9
aI8
aI2
aI6
aI11
aI4
aI3
aI5
aI7
aa(lp357
I1
aa(lp358
I11
aI5
aa(lp359
I6
aa(lp360
I1
aI8
aI4
aI2
aa(lp361
I9
aI8
aI5
aI1
aI6
aI0
aI2
aI11
aI3
aI10
aa(lp362
I9
aI11
aa(lp363
I9
aa(lp364
I8
aa(lp365
I11
aI8
aI5
aI3
aa(lp366
I11
aI5
aI3
aI9
aI8
aI6
aI0
aI1
aI10
aI7
aa(lp367
I9
aI3
aI6
aa(lp368
I6
aI3
aI9
aI5
aI11
aa(lp369
I9
aI1
aI3
aa(lp370
I11
aa(lp371
I3
aa(lp372
I8
aa(lp373
I1
aI9
aI8
aI5
aI0
aI4
aI6
aI10
aa(lp374
I8
aa(lp375
I6
aI5
aa(lp376
I9
aa(lp377
a(lp378
I11
aI3
aa(lp379
I6
aI8
aI3
aI5
aa(lp380
I1
aI9
aI3
aI6
aI5
aI7
aI11
aI10
aa(lp381
I9
aI8
aa(lp382
a(lp383
I8
aI5
aI6
aa(lp384
I3
aa(lp385
I1
aI3
aa(lp386
I3
aa(lp387
I3
aI9
aI5
aa(lp388
I8
aI9
aI1
aI6
aI0
aI7
aI10
aI4
aI3
aI11
aa(lp389
I3
aI8
aa(lp390
I8
aa(lp391
I3
aI0
aI4
aI5
aI6
aa(lp392
I3
aI9
aI11
aa(lp393
I11
aa(lp394
I1
aI9
aa(lp395
I1
aa(lp396
I9
aI7
aI10
aI4
aa(lp397
I8
aa(lp398
I9
aI8
aa(lp399
I9
aa(lp400
I5
aI11
aI8
aI9
aI1
aI0
aI10
aI6
aI3
aI7
aa(lp401
a(lp402
I11
aa(lp403
I1
aI4
aI9
aI8
aa(lp404
I5
aa(lp405
I9
aI0
aI3
aI6
aa(lp406
I8
aI9
aa(lp407
I9
aI7
aa(lp408
I6
aI0
aI1
aa(lp409
I9
aI8
aI11
aa(lp410
I9
aI6
aa(lp411
I5
aI3
aa(lp412
I8
aI3
aa(lp413
I3
aI5
aI11
aa(lp414
I0
aI8
aI6
aa(lp415
I3
aI5
aI11
aa(lp416
I5
aI9
aa(lp417
I8
aI9
aI11
aa(lp418
I11
aa(lp419
I6
aa(lp420
I1
aI5
aa(lp421
I1
aa(lp422
I5
aI3
aa(lp423
I8
aI1
aI9
aI0
aa(lp424
I6
aI9
aa(lp425
I9
aI6
aa(lp426
I5
aa(lp427
I4
aI2
aI7
aa(lp428
a(lp429
I3
aI6
aI8
aI5
aI9
aa(lp430
I9
aa(lp431
I1
aI6
aa(lp432
I7
aa(lp433
I3
aa(lp434
I3
aa(lp435
I9
aI1
aa(lp436
I8
aI9
aI1
aI6
aI7
aI10
aI2
aI0
aI4
aI5
aa(lp437
I5
aa(lp438
I5
aI8
aI3
aI11
aa(lp439
I8
aa(lp440
I9
aI1
aI4
aI8
aI7
aI0
aI3
aI2
aI10
aI11
aa(lp441
I11
aI5
aa(lp442
I9
aI8
aa(lp443
I6
aI0
aI3
aI9
aI1
aI11
aI4
aI5
aI7
aI8
aa(lp444
I11
aI5
aa(lp445
I5
aI3
aa(lp446
I9
aI6
aI3
aI4
aI0
aI5
aI11
aI8
aI10
aI1
aa(lp447
I8
aI9
aI6
aa(lp448
I9
aI7
aI4
aI2
aI10
aI1
aI3
aI5
aI8
aa(lp449
I2
aI3
aI5
aI11
aa(lp450
I3
aI5
aa(lp451
I1
aa(lp452
I5
aI9
aI1
aI3
aI11
aa(lp453
a(lp454
I8
aa(lp455
I7
aI4
aI6
aI8
aI9
aI1
aI0
aI2
aI10
aI3
aa(lp456
I6
aI8
aI1
aa(lp457
I11
aI5
aa(lp458
I5
aa(lp459
I9
aI8
aI6
aa(lp460
I11
aI5
aI3
aI6
aI1
aa(lp461
I1
aI8
aI4
aa(lp462
I8
aa(lp463
I5
aa(lp464
I3
aa(lp465
I9
aa(lp466
I11
aI3
aI5
aI4
aI6
aI0
aa(lp467
I5
aa(lp468
I8
aI5
aI3
aI11
aI9
aI6
aa(lp469
I3
aI2
aI6
aa(lp470
I9
aa(lp471
I8
aI11
aI1
aa(lp472
I8
aa(lp473
a(lp474
I11
aI5
aI9
aa(lp475
I5
aa(lp476
I3
aa(lp477
I4
aI0
aI6
aI8
aI9
aa(lp478
I5
aI11
aI9
aI6
aI3
aI1
aa(lp479
I9
aI0
aI6
aI8
aa(lp480
I9
aI0
aa(lp481
I8
aI5
aI11
aI9
aI6
aa(lp482
a(lp483
I8
aI1
aI5
aI11
aI3
aa(lp484
a(lp485
I11
aI2
aI1
aI5
aI8
aI9
aI10
aI3
aa(lp486
I3
aa(lp487
I9
aa(lp488
I1
aa(lp489
I3
aI9
aI5
aa(lp490
I11
aI5
aa(lp491
I5
aI1
aa(lp492
I8
aI9
aI6
aI0
aI1
aI11
aI3
aI5
aI4
aI7
aa(lp493
I5
aI3
aI11
aI6
aI9
aa(lp494
I1
aa(lp495
I11
aI5
aI9
aa(lp496
I9
aI1
aI5
aI8
aa(lp497
I5
aI11
aI3
aI9
aI6
aa(lp498
I8
aI1
aa(lp499
I8
aI6
aI5
aI0
aa(lp500
I8
aI9
aI11
aI6
aI3
aI1
aI0
aI2
aa(lp501
I9
aI6
aa(lp502
I9
aI7
aI1
aI8
aa(lp503
I11
aa(lp504
I11
aI5
aa(lp505
I8
aI9
aI6
aI0
aa(lp506
I3
aI5
aI9
aI11
aa(lp507
I8
aI1
aI0
aI4
aI6
aa(lp508
I5
aa(lp509
I9
aI0
aI1
aI6
aa(lp510
I8
aI9
aI5
aI1
aa(lp511
I9
aI6
aI11
aa(lp512
I8
aa(lp513
I0
aI9
aa(lp514
I11
aI9
aI5
aa(lp515
I11
aa(lp516
I9
aa(lp517
I11
aI9
aI8
aI2
aI1
aa(lp518
I6
aI9
aI0
aI1
aI8
aI10
aa(lp519
I3
aI6
aI9
aI11
aI8
aI7
aI2
aI0
aI1
aI10
aa(lp520
I3
aa(lp521
I0
aI6
aa(lp522
I5
aa(lp523
I3
aI0
aI5
aI7
aI9
aI6
aI1
aa(lp524
I1
aI9
aI2
aI8
aI0
aI6
aI11
aI3
aI7
aI10
aa(lp525
I8
aa(lp526
I9
aa(lp527
I3
aI11
aI5
aa(lp528
a(lp529
I5
aI11
aI3
aI9
aa(lp530
I8
aI1
aI9
aI10
aI7
aI4
aI6
aI0
aI3
aa(lp531
I11
aI5
aa(lp532
I6
aI9
aa(lp533
I5
aa(lp534
I3
aI5
aI11
aI9
aI7
aI8
aI1
aa(lp535
I8
aI6
aI4
aI1
aI0
aI2
aI3
aI5
aI7
aI9
aa(lp536
I5
aa(lp537
I6
aI0
aa(lp538
I9
aI8
aa(lp539
I1
aI4
aI7
aI9
aI10
aI11
aI6
aa(lp540
I3
aI11
aa(lp541
I1
aI8
aa(lp542
I3
aI8
aI9
aa(lp543
I3
aI8
aI9
aI1
aI0
aI4
aa(lp544
I3
aI2
aI8
aa(lp545
I2
aI4
aI3
aI1
aa(lp546
I5
aa(lp547
I11
aI8
aI1
aI0
aa(lp548
I5
aa(lp549
I8
aI1
aI0
aI6
aI7
aI9
aI10
aI11
aI5
aI4
aa(lp550
I8
aI11
aI9
aa(lp551
I9
aI8
aI5
aI6
aI1
aI7
aI0
aI3
aI11
aI10
aa(lp552
a(lp553
I3
aI5
aa(lp554
I9
aa(lp555
I8
aa(lp556
I5
aI11
aI3
aI10
aa(lp557
I1
aI8
aI9
aI2
aI4
aI10
aI7
aa(lp558
I11
aa(lp559
I5
aa(lp560
I5
aI3
aI11
aI7
aa(lp561
I8
aI9
aI11
aI6
aI1
aI4
aI7
aa(lp562
I2
aI1
aI4
aI7
aa(lp563
I8
aa(lp564
I3
aa(lp565
I6
aI8
aI9
aI0
aI11
aI10
aI7
aa(lp566
I9
aI6
aI0
aa(lp567
I9
aI6
aI8
aI1
aa(lp568
I9
aa(lp569
I1
aI9
aI5
aa(lp570
I3
aI9
aa(lp571
I1
aI5
aI8
aa(lp572
a(lp573
I6
aa(lp574
I8
aa(lp575
I8
aI6
aa(lp576
I8
aa(lp577
I8
aI6
aa(lp578
a(lp579
I11
aI5
aI3
aI1
aa(lp580
I5
aa(lp581
a(lp582
a(lp583
I9
aI4
aI11
aI8
aI6
aI1
aI5
aI3
aI2
aI0
aa(lp584
I4
aI1
aI8
aI6
aI2
aI9
aa(lp585
I0
aI6
aI8
aI3
aI5
aa(lp586
I10
aI1
aI2
aI4
aI7
aI9
aI8
aI5
aI6
aI11
aa(lp587
I3
aa(lp588
I9
aI4
aI6
aI8
aI0
aa(lp589
I1
aI8
aI9
aI0
aa(lp590
I8
aI9
aI6
aI1
aI0
aI7
aa(lp591
I11
aa(lp592
I1
aI8
aa(lp593
I1
aI4
aI8
aI3
aI2
aI5
aI7
aI9
aI10
aa(lp594
I9
aI6
aI0
aa(lp595
I5
aI3
aa(lp596
a(lp597
I8
aI9
aI6
aa(lp598
I1
aa(lp599
I3
aa(lp600
I6
aa(lp601
I11
aI1
aa(lp602
I8
aI9
aa(lp603
I11
aI5
aI3
aI6
aI8
aI9
aI0
aI1
aI7
aI10
aa(lp604
I8
aI6
aa(lp605
I9
aI1
aI6
aI5
aI0
aa(lp606
I8
aI9
aa(lp607
I0
aI6
aa(lp608
I9
aI1
aa(lp609
I8
aa(lp610
I9
aI8
aa(lp611
I5
aa(lp612
I3
aI2
aI8
aa(lp613
I2
aI0
aI8
aa(lp614
I5
aa(lp615
a(lp616
I3
aI5
aI11
aa(lp617
I11
aI3
aa(lp618
I9
aa(lp619
I8
aI9
aI3
aa(lp620
I9
aI8
aa(lp621
a(lp622
I8
aI9
aI6
aa(lp623
I6
aI0
aI9
aa(lp624
I5
aa(lp625
I9
aI8
aa(lp626
I11
aa(lp627
I8
aa(lp628
I11
aa(lp629
I5
aI0
aI3
aI9
aI11
aI1
aI7
aI8
aI6
aI10
aa(lp630
I11
aI8
aI5
aa(lp631
I6
aI1
aa(lp632
I11
aI3
aI6
aa(lp633
I11
aI1
aa(lp634
I9
aI8
aI3
aa(lp635
I3
aa(lp636
I0
aI3
aa(lp637
I1
aI2
aI8
aI9
aI0
aI3
aI10
aI11
aI6
aI5
aa(lp638
I1
aa(lp639
I9
aa(lp640
I3
aI5
aa(lp641
I1
aI8
aI6
aI9
aI0
aI4
aa(lp642
I9
aa(lp643
I2
aI9
aI1
aI10
aa(lp644
a(lp645
a(lp646
I6
aI0
aI9
aa(lp647
I3
aa(lp648
I6
aI8
aa(lp649
I6
aI0
aI11
aI1
aa(lp650
I4
aI9
aI8
aa(lp651
I1
aI3
aI8
aa(lp652
I9
aI1
aa(lp653
I3
aI11
aI5
aI9
aI8
aI6
aI0
aI1
aa(lp654
I11
aa(lp655
I5
aI11
aI9
aI2
aa(lp656
I11
aI5
aa(lp657
I1
aI6
aa(lp658
I1
aa(lp659
I1
aa(lp660
I9
aI8
aI3
aa(lp661
I5
aI11
aa(lp662
I6
aI9
aI11
aa(lp663
I1
aa(lp664
I9
aI8
aI6
aa(lp665
a(lp666
I6
aI8
aa(lp667
a(lp668
a(lp669
I1
aI8
aa(lp670
I3
aa(lp671
I8
aI1
aa(lp672
I8
aI9
aI5
aI4
aa(lp673
I9
aI6
aa(lp674
I11
aa(lp675
I3
aI5
aI11
aI9
aI8
aa(lp676
I8
aI3
aI9
aa(lp677
I8
aI1
aI11
aa(lp678
I11
aa(lp679
I2
aa(lp680
I6
aa(lp681
I1
aI8
aI4
aI10
aI5
aI9
aI6
aI3
aI7
aI11
aa(lp682
a(lp683
I8
aa(lp684
I1
aI2
aa(lp685
I11
aI5
aa(lp686
I5
aI11
aa(lp687
I3
aI9
aI8
aa(lp688
I11
aa(lp689
I11
aa(lp690
I3
aI5
aI9
aI1
aI0
aI11
aI6
aI7
aI8
aa(lp691
I8
aa(lp692
I1
aI2
aI9
aI7
aI4
aI6
aI0
aI8
aI3
aa(lp693
I6
aI5
aI9
aa(lp694
I1
aI3
aa(lp695
I3
aI11
aa(lp696
I1
aI8
aa(lp697
I11
aa(lp698
I4
aa(lp699
I3
aa(lp700
I8
aI9
aI10
aa(lp701
I9
aI2
aI8
aI0
aI6
aI4
aa(lp702
I5
aa(lp703
I1
aa(lp704
I8
aa(lp705
I8
aI3
aI9
aI4
aI1
aI10
aa(lp706
I6
aa(lp707
I5
aI4
aI11
aI3
aI10
aI8
aa(lp708
I8
aI9
aI1
aI2
aa(lp709
I11
aa(lp710
I11
aI3
aI5
aa(lp711
I8
aI11
aI2
aI5
aI7
aI6
aI3
aa(lp712
I6
aI0
aI9
aI8
aa(lp713
I5
aa(lp714
I3
aI8
aa(lp715
I9
aI1
aa(lp716
I5
aI1
aa(lp717
I9
aI8
aI11
aI3
aa(lp718
I8
aa(lp719
I9
aI6
aa(lp720
I11
aI5
aa(lp721
I11
aI5
aI3
aI4
aa(lp722
I1
aI2
aI4
aa(lp723
I11
aI8
aI3
aa(lp724
I9
aI6
aI0
aa(lp725
I6
aI0
aI8
aa(lp726
I9
aI3
aa(lp727
I3
aI5
aI11
aI6
aI8
aI9
aI4
aI1
aI0
aI7
aa(lp728
I9
aI8
aa(lp729
I6
aI8
aa(lp730
I3
aI8
aI6
aI0
aa(lp731
I11
aI2
aI8
aI9
aI10
aI7
aI6
aI5
aI4
aI3
aa(lp732
I11
aI3
aI9
aa(lp733
I9
aI8
aI0
aI3
aa(lp734
I9
aI2
aI1
aI6
aa(lp735
I1
aa(lp736
I6
aI8
aa(lp737
I1
aI9
aI4
aI5
aI3
aI11
aI8
aI7
aI0
aI6
aa(lp738
I5
aa(lp739
I9
aI11
aI6
aa(lp740
I8
aI1
aI9
aI4
aa(lp741
I9
aI3
aI11
aI2
aI5
aI1
aI7
aI4
aI0
aI8
aa(lp742
I3
aI5
aI11
aI8
aI1
aI0
aI6
aI9
aI7
aI4
aa(lp743
a(lp744
I2
aa(lp745
I9
aI8
aa(lp746
I5
aI2
aI3
aa(lp747
I5
aI3
aa(lp748
I1
aI8
aa(lp749
I6
aa(lp750
I6
aI0
aI9
aI8
aI4
aI7
aI10
aI1
aa(lp751
I1
aa(lp752
I9
aI5
aa(lp753
I9
aI3
aI11
aI5
aI1
aa(lp754
a(lp755
I3
aI5
aI11
aI6
aa(lp756
I9
aI11
aI6
aa(lp757
I2
aI1
aa(lp758
I3
aI11
aa(lp759
I1
aa(lp760
I6
aa(lp761
I6
aa(lp762
I5
aa(lp763
I11
aI2
aa(lp764
I6
aa(lp765
I8
aI9
aI5
aI3
aI0
aI11
aI6
aI10
aI7
aI2
aa(lp766
I11
aa(lp767
I3
aa(lp768
I9
aI11
aI5
aI3
aI6
aI8
aI10
aI1
aI0
aI4
aa(lp769
I6
aI4
aa(lp770
I5
aI11
aa(lp771
I6
aI0
aI9
aI3
aI11
aI2
aI7
aI8
aI10
aI1
aa(lp772
I11
aa(lp773
I3
aI5
aa(lp774
I8
aI1
aI9
aI0
aa(lp775
I9
aI3
aa(lp776
I7
aI8
aI0
aI1
aa(lp777
I1
aa(lp778
I8
aI9
aa(lp779
I9
aI4
aI8
aI1
aa(lp780
I8
aI9
aI5
aI1
aI6
aI11
aI3
aI10
aI7
aa(lp781
I3
aI5
aa(lp782
I8
aI6
aa(lp783
I1
aI4
aa(lp784
I5
aa(lp785
I6
aI8
aI9
aI1
aI0
aI3
aI11
aI2
aI4
aI5
aa(lp786
I8
aI1
aa(lp787
I11
aa(lp788
I6
aI0
aa(lp789
I5
aa(lp790
I1
aI8
aI5
aa(lp791
I1
aa(lp792
I1
aI8
aa(lp793
I2
aI1
aa(lp794
I1
aI8
aI5
aI11
aI3
aI6
aa(lp795
I3
aa(lp796
I5
aI10
aI11
aa(lp797
I8
aI4
aa(lp798
I9
aa(lp799
I5
aI3
aI8
aa(lp800
a(lp801
I6
aI9
aa(lp802
I5
aI3
aa(lp803
I11
aa(lp804
I8
aa(lp805
I9
aI1
aa(lp806
I9
aI8
aI6
aa(lp807
I3
aI8
aa(lp808
a(lp809
I8
aI1
aI9
aI6
aI4
aa(lp810
I3
aI9
aI8
aI5
aI6
aI10
aI1
aa(lp811
I8
aI3
aa(lp812
a(lp813
I8
aI1
aI0
aI4
aI9
aI5
aI11
aI6
aI3
aI2
aa(lp814
I11
aa(lp815
I3
aa(lp816
I1
aa(lp817
I8
aI9
aa(lp818
a(lp819
I11
aI3
aI5
aa(lp820
I8
aI9
aI1
aI0
aa(lp821
I3
aa(lp822
I1
aI9
aa(lp823
I3
aI8
aI2
aa(lp824
I3
aI11
aa(lp825
I5
aI8
aI9
aI2
aI6
aI0
aI1
aI4
aI3
aI7
aa(lp826
I8
aI5
aa(lp827
I9
aa(lp828
I1
aI8
aI9
aI6
aa(lp829
I3
aa(lp830
I9
aI1
aI6
aI8
aI0
aI11
aI5
aa(lp831
a(lp832
I8
aI9
aI11
aI3
aI6
aa(lp833
I8
aI0
aI9
aI1
aI3
aI11
aa(lp834
I1
aI4
aI9
aI6
aI2
aI0
aI8
aI3
aa(lp835
I6
aI0
aI8
aI9
aa(lp836
I11
aI3
aa(lp837
I1
aI9
aI6
aI8
aI0
aI2
aI4
aI3
aI7
aI5
aa(lp838
I1
aI2
aI7
aa(lp839
I8
aI11
aa(lp840
I5
aI3
aa(lp841
I6
aI8
aI1
aa(lp842
I8
aI4
aI9
aa(lp843
I11
aa(lp844
I11
aI5
aa(lp845
I5
aI3
aI0
aa(lp846
I11
aI0
aI6
aI9
aI5
aI3
aa(lp847
I8
aI11
aI3
aa(lp848
I1
aa(lp849
I5
aI3
aI1
aI9
aI11
aI7
aa(lp850
I1
aa(lp851
I8
aI6
aI0
aI7
aI9
aI2
aa(lp852
I8
aI5
aa(lp853
I8
aI5
aI11
aI9
aI3
aI6
aI0
aI10
aI7
aI4
aa(lp854
I1
aI9
aa(lp855
I2
aI8
aI9
aI1
aa(lp856
I1
aI9
aI4
aa(lp857
I11
aI9
aI3
aa(lp858
I3
aI1
aa(lp859
a(lp860
I0
aI6
aI3
aa(lp861
I11
aI5
aI3
aI9
aI2
aa(lp862
I5
aa(lp863
I11
aa(lp864
I6
aa(lp865
I9
aI0
aa(lp866
I8
aI9
aI1
aI6
aa(lp867
I9
aa(lp868
I9
aI6
aa(lp869
I3
aI5
aa(lp870
I8
aI9
aI1
aI0
aI6
aI2
aI4
aI7
aI3
aI5
aa(lp871
I4
aI11
aI9
aI6
aa(lp872
I8
aI6
aI5
aI1
aa(lp873
a(lp874
I5
aI9
aI4
aI1
aa(lp875
a(lp876
I6
aI0
aI1
aI11
aI5
aa(lp877
I11
aI2
aI8
aa(lp878
I9
aa(lp879
I9
aI4
aa(lp880
I1
aa(lp881
a(lp882
I8
aI6
aa(lp883
I6
aI9
aa(lp884
I11
aI5
aI1
aI3
aI8
aI9
aI6
aI7
aI2
aI0
aa(lp885
I9
aI11
aI0
aI6
aI5
aa(lp886
I6
aI0
aa(lp887
I3
aI11
aa(lp888
I1
aI7
aa(lp889
I8
aI3
aI9
aa(lp890
I3
aI5
aI11
aI6
aI0
aI4
aI7
aI8
aa(lp891
I6
aI0
aI8
aI9
aI5
aI3
aI4
aI1
aI10
aI7
aa(lp892
I1
aI9
aI6
aa(lp893
I3
aI8
aa(lp894
I9
aa(lp895
I9
aI8
aI0
aI6
aI7
aI4
aa(lp896
I9
aI1
aa(lp897
I9
aa(lp898
I1
aa(lp899
I9
aI0
aI6
aa(lp900
a(lp901
I8
aI11
aI5
aa(lp902
a(lp903
I8
aI0
aI9
aa(lp904
a(lp905
I11
aa(lp906
I6
aI0
aI8
aI4
aa(lp907
I1
aI9
aI5
aI11
aI8
aI3
aI4
aI0
aI6
aa(lp908
a(lp909
I1
aI8
aa(lp910
I1
aI2
aI9
aa(lp911
I11
aI2
aI3
aa(lp912
I6
aI3
aa(lp913
I5
aI11
aI3
aI1
aa(lp914
I11
aI8
aI3
aI5
aa(lp915
I9
aI3
aI0
aa(lp916
I1
aI9
aI6
aI8
aI0
aa(lp917
I3
aI11
aa(lp918
I9
aa(lp919
a(lp920
I6
aI9
aI8
aI0
aI4
aI7
aa(lp921
I9
aI5
aI3
aa(lp922
I8
aI9
aa(lp923
I5
aa(lp924
I9
aI1
aI8
aI4
aa(lp925
I9
aa(lp926
I8
aI0
aI6
aa(lp927
I8
aI9
aa(lp928
I6
aI8
aI9
aa(lp929
I3
aI8
aI9
aI4
aa(lp930
I10
aI4
aa(lp931
I3
aI11
aI5
aI4
aa(lp932
I6
aI9
aI8
aI0
aI5
aa(lp933
a(lp934
I4
aa(lp935
I0
aI6
aI9
aI11
aI10
aI5
aI2
aI4
aI8
aI3
aa(lp936
I1
aa(lp937
I6
aI0
aI8
aI9
aa(lp938
I8
aa(lp939
a(lp940
I6
aI0
aI8
aI9
aI3
aa(lp941
I9
aI8
aI6
aa(lp942
I2
aI9
aa(lp943
I8
aI5
aI11
aI6
aI3
aI0
aI9
aI2
aI4
aI7
aa(lp944
I9
aa(lp945
I1
aa(lp946
I5
aI11
aa(lp947
I9
aI5
aI11
aI3
aI6
aa(lp948
I3
aI11
aI8
aI9
aa(lp949
I11
aI3
aI5
aI8
aI7
aI10
aI1
aI4
aI9
aI2
aa(lp950
I9
aI5
aa(lp951
I11
aa(lp952
I3
aI11
aI6
aa(lp953
I9
aa(lp954
I6
aa(lp955
I1
aI6
aa(lp956
a(lp957
I8
aI4
aI9
aa(lp958
I8
aI6
aI9
aI0
aI1
aI4
aI7
aI5
aI3
aa(lp959
I3
aI9
aI11
aI5
aa(lp960
I11
aI5
aa(lp961
I3
aa(lp962
a(lp963
I1
aI2
aa(lp964
I0
aa(lp965
I1
aa(lp966
I1
aa(lp967
I2
aI8
aa(lp968
I6
aI0
aI8
aa(lp969
I3
aI0
aI9
aI5
aI6
aI11
aI8
aI7
aI2
aa(lp970
I0
aI8
aa(lp971
I1
aI5
aI3
aI9
aI11
aa(lp972
I2
aI11
aI1
aI9
aI8
aI5
aI3
aI10
aI7
aI4
aa(lp973
I6
aI0
aI8
aI9
aI1
aI11
aa(lp974
I8
aa(lp975
I8
aI9
aa(lp976
I9
aI1
aI3
aI11
aI6
aI0
aI8
aI7
aI4
aI2
aa(lp977
I8
aI6
aI9
aI0
aI3
aa(lp978
I3
aI5
aI11
aI8
aa(lp979
I8
aI3
aI0
aa(lp980
I11
aI2
aa(lp981
I1
aa(lp982
a(lp983
I1
aI5
aI3
aa(lp984
I3
aI0
aI8
aI9
aI6
aI1
aI10
aI11
aI5
aI7
aa(lp985
I11
aI9
aa(lp986
I9
aI6
aI8
aI3
aI1
aa(lp987
I9
aI6
aI8
aI11
aI0
aI3
aI5
aI10
aI4
aI7
aa(lp988
I5
aI11
aI3
aa(lp989
I6
aI9
aa(lp990
I11
aI5
aa(lp991
I9
aI0
aI5
aI11
aI3
aa(lp992
I9
aa(lp993
I5
aa(lp994
I1
aa(lp995
I9
aI3
aI5
aa(lp996
I11
aI5
aa(lp997
I1
aI8
aa(lp998
I9
aI3
aa(lp999
I11
aI5
aI3
aI6
aa(lp1000
I9
aI3
aa(lp1001
I6
aI8
aI9
aa(lp1002
I8
aI6
aI1
aI0
aI4
aa(lp1003
I11
aI8
aI9
aa(lp1004
I5
aI11
aI6
aI9
aI10
aI8
aI3
aI0
aI7
aI4
aa(lp1005
I5
aa(lp1006
I1
aa(lp1007
I8
aa(lp1008
I3
aa(lp1009
I5
aI3
aI9
aI11
aI1
aI2
aI6
aa(lp1010
I3
aa(lp1011
a(lp1012
I8
aa(lp1013
I9
aI8
aa(lp1014
I9
aI8
aa(lp1015
I11
aI3
aa(lp1016
I9
aI1
aa(lp1017
I1
aI6
aI0
aI9
aa(lp1018
I11
aI5
aI3
aI8
aI1
aI6
aa(lp1019
I3
aa(lp1020
I11
aI5
aI3
aa(lp1021
I0
aa(lp1022
I11
aI6
aI5
aI8
aI9
aI1
aa(lp1023
a(lp1024
I2
aI9
aI1
aI7
aI4
aa(lp1025
I3
aa(lp1026
I8
aI2
aa(lp1027
I3
aI5
aI11
aa(lp1028
I3
aa(lp1029
I11
aa(lp1030
I2
aI11
aI3
aI5
aI7
aa(lp1031
I2
aI9
aI8
aI1
aI4
aI7
aI10
aI11
aI5
aa(lp1032
I1
aI9
aI2
aa(lp1033
I5
aa(lp1034
I2
aI3
aI5
aI6
aI8
aa(lp1035
I5
aa(lp1036
I5
aI3
aI0
aa(lp1037
I11
aI3
aI9
aI6
aI5
aI0
aa(lp1038
I6
aI0
aI9
aa(lp1039
I3
aI11
aI5
aa(lp1040
I6
aa(lp1041
I1
aI4
aI7
aI9
aI11
aI5
aI10
aI6
aI3
aI0
aa(lp1042
I9
aa(lp1043
I1
aI8
aI2
aI4
aI9
aa(lp1044
I3
aI5
aI0
aa(lp1045
I11
aa(lp1046
I8
aI6
aI0
aa(lp1047
I1
aI6
aI2
aa(lp1048
I3
aa(lp1049
I3
aI9
aa(lp1050
I8
aI9
aa(lp1051
I0
aa(lp1052
I8
aa(lp1053
I3
aa(lp1054
I3
aa(lp1055
I1
aa(lp1056
a(lp1057
I8
aa(lp1058
I8
aa(lp1059
I8
aa(lp1060
I8
aI9
aa(lp1061
I9
aa(lp1062
I6
aI1
aa(lp1063
I3
aI5
aI11
aI6
aa(lp1064
a(lp1065
a(lp1066
I3
aI5
aa(lp1067
I8
aI9
aI4
aI1
aI6
aI0
aI11
aI5
aa(lp1068
I6
aI0
aI8
aI9
aI1
aa(lp1069
I3
aI5
aa(lp1070
I3
aa(lp1071
I1
aI5
aI3
aI8
aI9
aI11
aI10
aI6
aI7
aa(lp1072
I8
aI1
aI9
aI4
aI6
aI0
aI3
aI11
aI10
aI7
aa(lp1073
I5
aI11
aa(lp1074
a(lp1075
I0
aa(lp1076
I3
aI8
aI9
aI5
aI0
aa(lp1077
I9
aI1
aI7
aa(lp1078
I4
aa(lp1079
I8
aI1
aI9
aa(lp1080
I8
aI9
aa(lp1081
I11
aI1
aa(lp1082
I1
aI8
aa(lp1083
I11
aI6
aa(lp1084
I11
aa(lp1085
I6
aa(lp1086
I3
aI5
aI11
aI6
aa(lp1087
I6
aa(lp1088
I11
aI5
aI3
aI6
aa(lp1089
I1
aa(lp1090
I4
aI9
aa(lp1091
I5
aa(lp1092
I3
aa(lp1093
I3
aa(lp1094
I11
aa(lp1095
I8
aI9
aI1
aa(lp1096
I9
aa(lp1097
I11
aa(lp1098
I1
aa(lp1099
I1
aa(lp1100
I0
aI6
aI3
aI5
aa(lp1101
I3
aI1
aa(lp1102
I6
aI7
aI8
aI1
aa(lp1103
I5
aI3
aa(lp1104
I5
aI11
aI3
aI8
aa(lp1105
I8
aI1
aI4
aI3
aI5
aI11
aa(lp1106
I8
aI9
aa(lp1107
a(lp1108
I0
aI6
aI4
aI9
aI5
aI11
aI3
aI8
aI7
aI10
aa(lp1109
I8
aI9
aI1
aa(lp1110
I3
aI8
aI9
aa(lp1111
a(lp1112
I6
aa(lp1113
I6
aI0
aI9
aI3
aa(lp1114
I1
aI6
aI9
aa(lp1115
I9
aa(lp1116
I6
aa(lp1117
I0
aI6
aa(lp1118
I6
aI5
aI9
aa(lp1119
I5
aI11
aI3
aa(lp1120
I8
aI3
aa(lp1121
I9
aa(lp1122
I3
aI5
aI11
aa(lp1123
I8
aI9
aI10
aI4
aI1
aI0
aI2
aI3
aI5
aI6
aa(lp1124
I2
aa(lp1125
I6
aa(lp1126
I9
aI8
aa(lp1127
a(lp1128
I8
aI6
aI9
aa(lp1129
I2
aI0
aI1
aI4
aI3
aI5
aI6
aI7
aI8
aI9
aa(lp1130
I1
aI11
aI8
aI0
aI6
aI4
aa(lp1131
I8
aI1
aI0
aI6
aI9
aa(lp1132
I11
aI5
aI9
aI3
aa(lp1133
I1
aa(lp1134
I11
aI9
aI5
aa(lp1135
I5
aI3
aa(lp1136
I5
aI11
aI3
aI8
aa(lp1137
I5
aa(lp1138
a(lp1139
I3
aI1
aa(lp1140
I6
aI1
aa(lp1141
I5
aI11
aI3
aI9
aI7
aI8
aI1
aI4
aI6
aI2
aa(lp1142
I1
aa(lp1143
I9
aI6
aa(lp1144
I5
aI11
aI3
aI1
aI8
aI0
aI4
aI7
aI6
aI2
aa(lp1145
I6
aI0
aI9
aa(lp1146
I9
aI8
aI4
aI2
aa(lp1147
I3
aI8
aa(lp1148
I0
aI11
aI9
aa(lp1149
I11
aI5
aI3
aI1
aI8
aI4
aI7
aI6
aI0
aI9
aa(lp1150
I8
aa(lp1151
I9
aI6
aI0
aa(lp1152
I9
aI5
aI3
aI6
aI11
aI0
aI1
aI4
aI8
aI7
aa(lp1153
I2
aa(lp1154
I1
aI6
aI9
aa(lp1155
I11
aI5
aI6
aa(lp1156
I9
aa(lp1157
I3
aa(lp1158
I5
aI3
aa(lp1159
I8
aI9
aI6
aa(lp1160
I8
aI11
aI0
aI1
aa(lp1161
I3
aI5
aI11
aa(lp1162
I5
aI3
aI11
aI6
aI0
aa(lp1163
I11
aa(lp1164
I8
aI6
aI9
aI1
aI3
aI11
aI0
aI2
aI4
aI5
aa(lp1165
I11
aI8
aI9
aI6
aa(lp1166
I6
aI0
aI9
aI8
aa(lp1167
I5
aa(lp1168
I5
aI8
aI9
aI1
aI4
aI11
aI3
aa(lp1169
a(lp1170
I5
aI6
aI8
aI9
aI1
aI3
aa(lp1171
I5
aa(lp1172
I9
aa(lp1173
I9
aI8
aI6
aa(lp1174
I5
aI11
aa(lp1175
a(lp1176
I2
aI8
aa(lp1177
I1
aI8
aI9
aa(lp1178
a(lp1179
I9
aI6
aa(lp1180
I1
aI5
aa(lp1181
I5
aI1
aa(lp1182
I8
aI3
aa(lp1183
I6
aI0
aI9
aI8
aa(lp1184
I5
aI11
aI3
aI8
aI9
aI6
aa(lp1185
I9
aa(lp1186
a(lp1187
I9
aa(lp1188
I5
aI3
aa(lp1189
I11
aI6
aa(lp1190
I8
aa(lp1191
I1
aa(lp1192
I3
aa(lp1193
I9
aI8
aI1
aI2
aI0
aI6
aa(lp1194
I6
aI8
aI11
aI5
aa(lp1195
I7
aI1
aI4
aI8
aI9
aa(lp1196
I4
aI8
aI9
aa(lp1197
I9
aI1
aI8
aI6
aI5
aI11
aI7
aI2
aI3
aI0
aa(lp1198
I5
aI11
aI3
aa(lp1199
I1
aI2
aI3
aI4
aI9
aa(lp1200
I6
aI9
aI7
aa(lp1201
I3
aa(lp1202
I5
aI11
aa(lp1203
a(lp1204
I9
aI3
aI5
aI8
aI11
aa(lp1205
I5
aa(lp1206
I5
aa(lp1207
I3
aI11
aa(lp1208
I1
aI8
aa(lp1209
I8
aa(lp1210
I5
aI3
aa(lp1211
I11
aI3
aI5
aa(lp1212
a(lp1213
I8
aI3
aI5
aI9
aa(lp1214
I1
aI2
aI4
aI10
aa(lp1215
I6
aa(lp1216
I9
aI3
aI0
aI10
aI4
aI1
aI2
aI6
aI7
aI8
aa(lp1217
I1
aI8
aI9
aI7
aI4
aI2
aI10
aI6
aI0
aI3
aa(lp1218
I9
aa(lp1219
I11
aI3
aa(lp1220
a(lp1221
I11
aI5
aI3
aa(lp1222
a(lp1223
I3
aa(lp1224
a(lp1225
I6
aa(lp1226
I8
aa(lp1227
I3
aI5
aa(lp1228
I1
aa(lp1229
I5
aa(lp1230
I9
aI6
aa(lp1231
I2
aa(lp1232
I1
aa(lp1233
I5
aI9
aa(lp1234
I5
aI11
aa(lp1235
I1
aI8
aa(lp1236
I11
aa(lp1237
I2
aI8
aI9
aI5
aI3
aI10
aI7
aI1
aI4
aI11
aa(lp1238
a(lp1239
I1
aI2
aI4
aI0
aI6
aI7
aI11
aI3
aI5
aI10
aa(lp1240
I11
aI1
aI9
aa(lp1241
a(lp1242
I1
aI9
aI2
aI4
aI8
aI11
aI3
aI5
aI7
aI10
aa(lp1243
a(lp1244
I3
aI2
aI5
aa(lp1245
I5
aI11
aI3
aa(lp1246
I11
aI5
aI3
aa(lp1247
I8
aI9
aI2
aI3
aI5
aI6
aa(lp1248
I6
aI8
aI9
aI1
aI5
aI4
aI0
aI11
aI10
aI7
aa(lp1249
I9
aI1
aa(lp1250
I1
aa(lp1251
I1
aa(lp1252
I11
aa(lp1253
I1
aI9
aI4
aa(lp1254
I9
aa(lp1255
I6
aI8
aI9
aI1
aa(lp1256
I9
aI1
aI8
aI5
aI3
aI11
aI10
aI4
aI7
aI0
aa(lp1257
I6
aI0
aI1
aI8
aI11
aI3
aI5
aI9
aI4
aI7
aa(lp1258
I11
aI9
aI5
aI3
aI4
aI8
aI7
aI6
aI10
aI1
aa(lp1259
I11
aI3
aI5
aa(lp1260
I9
aI3
aI10
aa(lp1261
I5
aI11
aa(lp1262
I9
aa(lp1263
I6
aI0
aI9
aI8
aa(lp1264
I2
aI11
aa(lp1265
I3
aI5
aI11
aI9
aI1
aI2
aI0
aI6
aI7
aI8
aa(lp1266
I1
aI9
aa(lp1267
I8
aI3
aI6
aa(lp1268
a(lp1269
I5
aI8
aI0
aI6
aI1
aa(lp1270
I6
aI0
aI9
aa(lp1271
I1
aI2
aa(lp1272
I3
aa(lp1273
I11
aI5
aa(lp1274
I9
aI6
aI5
aa(lp1275
I3
aI11
aI8
aa(lp1276
I6
aa(lp1277
I9
aa(lp1278
a(lp1279
I5
aI3
aI11
aI8
aI1
aI2
aI9
aI6
aI0
aI4
aa(lp1280
I9
aa(lp1281
I9
aI8
aI6
aa(lp1282
I8
aI9
aI1
aa(lp1283
I4
aa(lp1284
I3
aa(lp1285
I3
aI0
aa(lp1286
I5
aI3
aI11
aI6
aI0
aI8
aI9
aI1
aI2
aI7
aa(lp1287
I5
aa(lp1288
a(lp1289
I11
aa(lp1290
I3
aa(lp1291
I9
aI8
aI1
aa(lp1292
I7
aI9
aI8
aI0
aa(lp1293
I5
aI11
aa(lp1294
I1
aI8
aa(lp1295
I8
aI9
aI6
aa(lp1296
I5
aI3
aI4
aI1
aI10
aI9
aI8
aI0
aI11
aI2
aa(lp1297
I3
aI6
aI9
aa(lp1298
I8
aI1
aI9
aI2
aI10
aI7
aI11
aa(lp1299
I8
aa(lp1300
I8
aa(lp1301
I3
aI5
aI11
aI8
aI0
aI6
aa(lp1302
I5
aI3
aa(lp1303
I8
aI9
aI11
aI5
aI1
aI0
aI3
aI6
aI10
aI7
aa(lp1304
I9
aI1
aI3
aI5
aI11
aI6
aI8
aI2
aa(lp1305
I1
aa(lp1306
I3
aI8
aI9
aa(lp1307
a(lp1308
I11
aI3
aI4
aI5
aa(lp1309
I6
aa(lp1310
I2
aI1
aa(lp1311
I11
aI3
aa(lp1312
a(lp1313
I11
aI5
aI3
aI8
aa(lp1314
I5
aI3
aa(lp1315
I11
aI6
aI5
aI9
aa(lp1316
I8
aI3
aI1
aa(lp1317
I1
aI9
aa(lp1318
I1
aa(lp1319
I8
aI11
aI5
aI3
aa(lp1320
I11
aI5
aI8
aI1
aa(lp1321
I8
aa(lp1322
I11
aI6
aI9
aI0
aI5
aI8
aI1
aI3
aI7
aI10
aa(lp1323
I1
aI11
aI8
aI6
aI3
aI9
aI10
aI7
aI5
aa(lp1324
I10
aI9
aI8
aI6
aI3
aa(lp1325
I8
aa(lp1326
I1
aI4
aa(lp1327
I3
aI5
aI1
aa(lp1328
I6
aI0
aa(lp1329
I5
aa(lp1330
I6
aa(lp1331
I5
aI11
aI3
aI4
aI1
aI2
aI8
aI10
aI9
aI7
aa(lp1332
I8
aI9
aI0
aI6
aa(lp1333
I9
aa(lp1334
I3
aI11
aI5
aa(lp1335
I5
aa(lp1336
I8
aI5
aI1
aI3
aI11
aa(lp1337
I3
aa(lp1338
I9
aa(lp1339
I1
aI9
aI4
aI2
aI8
aI6
aI0
aI3
aI7
aI11
aa(lp1340
I11
aI3
aI5
aI2
aa(lp1341
I8
aI9
aa(lp1342
I6
aI1
aI9
aI11
aa(lp1343
I8
aI4
aI1
aI9
aI2
aI0
aI6
aI10
aI3
aI11
aa(lp1344
I9
aa(lp1345
I9
aI1
aI0
aa(lp1346
I1
aI9
aI8
aa(lp1347
I8
aI9
aI1
aI7
aI0
aI2
aI3
aI4
aI5
aI6
aa(lp1348
I8
aI6
aI9
aI1
aI0
aI4
aI3
aa(lp1349
I1
aI3
aI2
aI4
aI5
aa(lp1350
I5
aI9
aI8
aa(lp1351
I6
aI5
aa(lp1352
I4
aI10
aI5
aI11
aI6
aI3
aI8
aI9
aa(lp1353
I5
aa(lp1354
I1
aI9
aI3
aI4
aI8
aa(lp1355
I6
aI8
aI11
aa(lp1356
a(lp1357
I4
aI9
aa(lp1358
I8
aI9
aa(lp1359
I3
aa(lp1360
I11
aI5
aI3
aI4
aI2
aI1
aI7
aI10
aI8
aI9
aa(lp1361
I5
aa(lp1362
I9
aI7
aI8
aI6
aa(lp1363
I6
aI0
aI1
aI8
aa(lp1364
I3
aI1
aI8
aa(lp1365
I3
aI5
aI11
aI4
aI6
aa(lp1366
I11
aI6
aI9
aI8
aI3
aI0
aa(lp1367
I0
aI6
aa(lp1368
a(lp1369
I11
aI6
aI8
aI9
aa(lp1370
I11
aI8
aa(lp1371
I11
aI5
aI3
aI2
aI6
aI9
aI0
aI1
aa(lp1372
I4
aI7
aI10
aI2
aI9
aI1
aI8
aI6
aI0
aI5
aa(lp1373
I9
aa(lp1374
I5
aa(lp1375
I3
aI1
aI5
aI8
aa(lp1376
I1
aa(lp1377
I11
aa(lp1378
I9
aI1
aI8
aa(lp1379
I5
aI1
aI8
aI9
aI2
aI7
aI6
aa(lp1380
I11
aa(lp1381
I0
aI6
aa(lp1382
I1
aa(lp1383
I9
aI8
aI6
aa(lp1384
I1
aI8
aI11
aa(lp1385
I3
aa(lp1386
I3
aI11
aI5
aI9
aI6
aa(lp1387
I5
aI8
aI1
aI2
aI11
aa(lp1388
I9
aI11
aI5
aa(lp1389
I9
aI6
aI4
aa(lp1390
I6
aI9
aI0
aI1
aI8
aa(lp1391
I0
aI6
aa(lp1392
I5
aI11
aI3
aa(lp1393
I9
aa(lp1394
I6
aI9
aI4
aI11
aa(lp1395
I6
aI0
aI5
aI1
aI9
aI8
aa(lp1396
I11
aI9
aa(lp1397
I3
aI9
aI2
aa(lp1398
I9
aa(lp1399
I9
aI6
aI3
aI0
aI5
aI8
aI1
aa(lp1400
I0
aI3
aI9
aI8
aI6
aa(lp1401
I0
aI8
aI6
aI9
aI1
aI3
aa(lp1402
I5
aa(lp1403
I3
aI5
aI11
aI6
aa(lp1404
I9
aI1
aI4
aI6
aa(lp1405
I8
aI9
aI2
aI3
aI1
aa(lp1406
I3
aa(lp1407
I3
aa(lp1408
I5
aa(lp1409
I6
aI0
aI8
aI3
aI9
aI1
aI4
aI7
aI11
aI10
aa(lp1410
I11
aI3
aI1
aa(lp1411
I5
aa(lp1412
I8
aI6
aa(lp1413
I11
aa(lp1414
I5
aI11
aI9
aa(lp1415
I3
aI5
aI11
aI9
aa(lp1416
I0
aI3
aI6
aI8
aa(lp1417
I1
aI5
aI4
aI8
aI2
aI3
aa(lp1418
I9
aa(lp1419
I1
aI5
aa(lp1420
I11
aa(lp1421
I8
aa(lp1422
I9
aI8
aI3
aI1
aI5
aI11
aI10
aI7
aI6
aI4
aa(lp1423
I9
aI1
aI6
aI8
aI0
aI4
aa(lp1424
I1
aI9
aI8
aa(lp1425
I9
aI6
aI8
aI0
aI1
aI10
aI7
aI4
aI11
aI5
aa(lp1426
I5
aI3
aa(lp1427
I1
aI2
aI3
aa(lp1428
I5
aI11
aa(lp1429
I8
aI9
aa(lp1430
I5
aa(lp1431
I3
aI9
aI5
aI0
aa(lp1432
a(lp1433
I6
aI0
aI8
aa(lp1434
I5
aI3
aI9
aI8
aa(lp1435
I11
aa(lp1436
I1
aI8
aa(lp1437
I8
aI9
aI11
aI6
aa(lp1438
I9
aI1
aI2
aI3
aI5
aI11
aI0
aI6
aI10
aI7
aa(lp1439
I1
aI6
aI8
aI9
aI7
aa(lp1440
I0
aa(lp1441
I11
aa(lp1442
I3
aI5
aI8
aI11
aa(lp1443
I1
aI2
aa(lp1444
I11
aa(lp1445
I8
aI1
aI9
aI11
aI5
aI3
aI0
aI6
aa(lp1446
I9
aa(lp1447
I8
aI9
aa(lp1448
I6
aI5
aI2
aI9
aI10
aI7
aI8
aa(lp1449
I11
aa(lp1450
I8
aa(lp1451
I3
aI5
aI11
aI2
aI8
aI1
aI0
aI9
aI10
aI7
aa(lp1452
I5
aI3
aa(lp1453
I1
aI9
aa(lp1454
I5
aI9
aI11
aI6
aI4
aI3
aI0
aa(lp1455
I11
aI3
aI6
aa(lp1456
I11
aa(lp1457
I1
aI8
aI9
aI11
aI3
aa(lp1458
I5
aa(lp1459
I11
aI3
aI1
aI10
aI4
aI2
aa(lp1460
I5
aI1
aI0
aI2
aa(lp1461
I8
aI6
aI0
aI3
aI9
aa(lp1462
I9
aI3
aa(lp1463
I1
aI9
aI8
aI3
aI6
aI0
aa(lp1464
I6
aI0
aa(lp1465
I9
aa(lp1466
I8
aI1
aI9
aI4
aI10
aI2
aI7
aa(lp1467
I0
aa(lp1468
I8
aI1
aI2
aI9
aI4
aI7
aI10
aI3
aI5
aI11
aa(lp1469
I11
aa(lp1470
I11
aa(lp1471
I3
aa(lp1472
I6
aI0
aI4
aI8
aa(lp1473
I11
aa(lp1474
I3
aI5
aI11
aI1
aI6
aI0
aI4
aI7
aI8
aI10
aa(lp1475
I6
aa(lp1476
I6
aI8
aI0
aI9
aI11
aI5
aI3
aI10
aI7
aI4
aa(lp1477
I5
aa(lp1478
I3
aI7
aI9
aI11
aa(lp1479
I5
aI8
aa(lp1480
I4
aI8
aI7
aI6
aI9
aI10
aI11
aI5
aI3
aa(lp1481
a(lp1482
I9
aI7
aI8
aI4
aI1
aI3
aI0
aI6
aI5
aI11
aa(lp1483
I2
aI9
aI8
aI1
aa(lp1484
I5
aI3
aI11
aI1
aI9
aI10
aI6
aa(lp1485
I9
aa(lp1486
I2
aI1
aI9
aI3
aa(lp1487
I5
aa(lp1488
I3
aI5
aI1
aI8
aa(lp1489
I0
aI8
aI6
aI1
aI2
aI9
aI4
aI7
aI10
aI11
aa(lp1490
I11
aI3
aa(lp1491
I1
aI8
aa(lp1492
I4
aI8
aI6
aI0
aa(lp1493
I6
aI1
aI9
aI8
aa(lp1494
I8
aI9
aI11
aI0
aI1
aI6
aI5
aI3
aI2
aI7
aa(lp1495
I4
aI9
aa(lp1496
a(lp1497
I8
aa(lp1498
a(lp1499
I1
aI9
aa(lp1500
a(lp1501
I1
aI9
aI2
aI7
aa(lp1502
I9
aI1
aa(lp1503
I11
aI3
aa(lp1504
I1
aI8
aa(lp1505
I5
aa(lp1506
I6
aI9
aI8
aa(lp1507
I3
aI11
aI5
aI6
aI9
aI1
aI4
aI0
aI10
aI7
aa(lp1508
I1
aa(lp1509
I5
aI8
aI11
aI3
aI6
aI9
aI4
aI1
aI7
aI0
aa(lp1510
I11
aI3
aa(lp1511
I5
aI11
aI6
aI8
aI9
aI1
aI10
aI7
aI4
aI0
aa(lp1512
I8
aI9
aI0
aa(lp1513
I8
aI4
aa(lp1514
I0
aa(lp1515
I1
aa(lp1516
I11
aI6
aa(lp1517
I9
aI1
aI5
aa(lp1518
I9
aI2
aa(lp1519
I3
aa(lp1520
I8
aI6
aa(lp1521
I1
aI9
aI8
aa(lp1522
a(lp1523
I8
aI3
aI5
aI9
aa(lp1524
a(lp1525
I6
aa(lp1526
I6
aI0
aa(lp1527
I10
aI9
aa(lp1528
I8
aI9
aI2
aa(lp1529
I6
aI9
aa(lp1530
I8
aI1
aa(lp1531
I3
aa(lp1532
I9
aa(lp1533
I1
aI4
aI8
aa(lp1534
I5
aI6
aa(lp1535
I11
aI3
aa(lp1536
a(lp1537
I8
aI1
aI11
aI6
aI9
aI2
aI0
aI5
aI4
aI7
aa(lp1538
I3
aI8
aI9
aI11
aI0
aI5
aa(lp1539
I9
aI4
aI0
aI6
aI2
aI7
aI10
aI1
aI3
aI5
aa(lp1540
I5
aI11
aa(lp1541
I9
aI6
aI8
aI5
aI11
aI3
aI0
aa(lp1542
I5
aa(lp1543
I1
aI4
aa(lp1544
I8
aa(lp1545
I3
aI5
aa(lp1546
I3
aI5
aa(lp1547
I0
aI6
aa(lp1548
I3
aa(lp1549
I1
aI0
aa(lp1550
I9
aI1
aa(lp1551
I11
aI8
aI9
aa(lp1552
I2
aI8
aa(lp1553
I8
aI9
aI6
aI0
aI4
aI7
aI1
aI2
aI5
aI11
aa(lp1554
I8
aI1
aI5
aI11
aI3
aa(lp1555
I9
aI8
aI6
aI1
aI0
aI5
aa(lp1556
I5
aI11
aa(lp1557
I6
aI0
aI8
aa(lp1558
I9
aI6
aa(lp1559
I6
aI9
aI5
aI0
aa(lp1560
I5
aI11
aI9
aa(lp1561
I9
aI11
aI5
aI3
aI1
aI0
aI6
aI7
aI4
aI8
aa(lp1562
I5
aI3
aI11
aI8
aa(lp1563
a(lp1564
I7
aI2
aI1
aa(lp1565
I3
aI8
aI9
aI5
aI11
aa(lp1566
I3
aI5
aI8
aI9
aa(lp1567
a(lp1568
I1
aI6
aI0
aI10
aI11
aI5
aI2
aI4
aI7
aI3
aa(lp1569
I11
aa(lp1570
I1
aa(lp1571
I6
aI0
aI9
aa(lp1572
I9
aa(lp1573
I3
aI5
aI11
aI8
aI9
aI1
aI10
aa(lp1574
I3
aa(lp1575
I6
aI3
aI9
aI8
aa(lp1576
I8
aI9
aI6
aa(lp1577
I2
aa(lp1578
a(lp1579
I3
aa(lp1580
I9
aI11
aI5
aI1
aa(lp1581
I6
aa(lp1582
a(lp1583
I4
aa(lp1584
I5
aI3
aI1
aa(lp1585
I3
aa(lp1586
I9
aI8
aI4
aI1
aI0
aI7
aI5
aI3
aa(lp1587
I3
aI5
aI9
aI11
aa(lp1588
a(lp1589
I3
aa(lp1590
I10
aI5
aI11
aI3
aI9
aI8
aI4
aI2
aI1
aI0
aa(lp1591
I1
aI9
aI8
aI2
aI10
aI5
aa(lp1592
I9
aI8
aI4
aI6
aI0
aI10
aa(lp1593
I8
aI1
aa(lp1594
I7
aI1
aa(lp1595
I6
aI0
aI4
aI10
aI9
aa(lp1596
I8
aa(lp1597
I7
aI11
aI6
aa(lp1598
I3
aa(lp1599
I1
aa(lp1600
I5
aa(lp1601
I9
aI4
aI1
aI7
aI8
aI10
aI2
aI6
aI0
aI5
aa(lp1602
I9
aa(lp1603
I9
aI3
aI8
aI1
aI5
aI11
aI0
aI6
aI10
aI7
aa(lp1604
I8
aI9
aa(lp1605
I9
aI11
aa(lp1606
I9
aa(lp1607
I9
aI8
aI11
aI2
aI1
aI5
aI3
aI4
aI6
aa(lp1608
a(lp1609
I11
aa(lp1610
I9
aI6
aI5
aI0
aI1
aI8
aI10
aa(lp1611
I9
aI8
aa(lp1612
I9
aI1
aI8
aa(lp1613
I1
aI8
aI5
aI9
aI6
aI3
aI11
aI10
aI4
aa(lp1614
I8
aI3
aI5
aI11
aa(lp1615
I9
aI8
aI6
aI0
aI1
aI7
aI4
aa(lp1616
I3
aa(lp1617
I11
aa(lp1618
I11
aI5
aI3
aa(lp1619
I1
aI9
aI5
aa(lp1620
I1
aI5
aa(lp1621
I6
aI4
aa(lp1622
I8
aI1
aI9
aa(lp1623
I1
aI8
aI4
aI9
aI2
aa(lp1624
I5
aI9
aI4
aI6
aa(lp1625
I1
aI6
aI0
aI9
aa(lp1626
I0
aI6
aI9
aI1
aI8
aI3
aI11
aI10
aI7
aI4
aa(lp1627
I11
aa(lp1628
I3
aa(lp1629
I9
aI6
aa(lp1630
I11
aa(lp1631
I1
aI4
aa(lp1632
I5
aI11
aI1
aI9
aI6
aa(lp1633
I5
aI9
aI1
aa(lp1634
I3
aI5
aI9
aa(lp1635
I8
aI0
aI1
aI3
aa(lp1636
I5
aI11
aI9
aI6
aa(lp1637
I11
aI3
aI5
aI8
aI9
aI7
aa(lp1638
I9
aI8
aI4
aI6
aa(lp1639
I11
aI10
aa(lp1640
I0
aI2
aI3
aI8
aI9
aa(lp1641
I6
aI3
aI8
aa(lp1642
I9
aa(lp1643
I8
aI5
aI1
aI6
aI9
aI11
aI10
aI7
aI4
aI3
aa(lp1644
I9
aI1
aa(lp1645
I11
aa(lp1646
I6
aI0
aa(lp1647
I8
aI9
aI2
aI1
aI4
aI3
aI5
aI11
aI0
aa(lp1648
I8
aa(lp1649
I9
aa(lp1650
a(lp1651
I5
aa(lp1652
I9
aI1
aa(lp1653
I0
aI6
aI8
aa(lp1654
I1
aI8
aI9
aI5
aa(lp1655
I3
aI5
aa(lp1656
I5
aI3
aI9
aa(lp1657
I8
aI1
aI0
aa(lp1658
I3
aI5
aa(lp1659
I0
aI9
aI8
aI4
aI1
aI6
aI3
aI7
aa(lp1660
I9
aI6
aI11
aI5
aa(lp1661
I8
aI0
aI3
aI10
aI6
aI7
aI4
aa(lp1662
I3
aI9
aa(lp1663
I9
aI6
aa(lp1664
I11
aI3
aI5
aa(lp1665
I6
aI9
aI0
aI8
aI1
aI4
aa(lp1666
I6
aI8
aI9
aa(lp1667
I11
aI3
aa(lp1668
I3
aI8
aI1
aa(lp1669
I3
aI11
aa(lp1670
I9
aI1
aa(lp1671
I9
aI6
aI8
aa(lp1672
I8
aI9
aI7
aI1
aI4
aI6
aI0
aI2
aI5
aI3
aa(lp1673
I6
aa(lp1674
I1
aI8
aI9
aa(lp1675
I6
aI8
aa(lp1676
a(lp1677
I6
aI0
aa(lp1678
I9
aI6
aI11
aI3
aa(lp1679
I3
aa(lp1680
I1
aI6
aI8
aI4
aa(lp1681
I1
aa(lp1682
I6
aI0
aa(lp1683
I3
aI5
aI11
aI8
aI0
aI9
aI10
aI6
aa(lp1684
I9
aI8
aI4
aI7
aa(lp1685
I1
aa(lp1686
I5
aI11
aI3
aI0
aa(lp1687
I5
aI3
aI11
aI8
aI0
aI6
aI9
aI10
aa(lp1688
I6
aa(lp1689
I5
aI3
aI8
aa(lp1690
I5
aa(lp1691
I6
aa(lp1692
a(lp1693
I6
aI9
aI8
aI4
aI11
aa(lp1694
I9
aI5
aa(lp1695
I9
aa(lp1696
I5
aa(lp1697
I11
aa(lp1698
I4
aI10
aI5
aa(lp1699
I8
aI0
aI9
aa(lp1700
I3
aI0
aa(lp1701
I1
aa(lp1702
I9
aa(lp1703
I3
aI11
aI5
aa(lp1704
I9
aI8
aI1
aI6
aI7
aI4
aI10
aI11
aI5
aI3
aa(lp1705
a(lp1706
a(lp1707
I8
aI0
aI6
aa(lp1708
I8
aa(lp1709
I9
aI11
aI1
aI8
aI10
aa(lp1710
I11
aa(lp1711
I6
aI0
aI8
aa(lp1712
I8
aI6
aI0
aI1
aa(lp1713
I3
aa(lp1714
I11
aI3
aI5
aI9
aI0
aa(lp1715
I5
aI8
aI3
aI6
aI9
aa(lp1716
I5
aI3
aa(lp1717
I6
aI9
aI8
aI0
aI3
aI5
aI11
aI7
aI1
aI4
aa(lp1718
I3
aI11
aa(lp1719
I9
aI6
aI8
aa(lp1720
I3
aI5
aa(lp1721
I5
aI3
aI11
aa(lp1722
I9
aI8
aI6
aI1
aI4
aI0
aI7
aI5
aI11
aI3
aa(lp1723
I11
aI5
aa(lp1724
I8
aI9
aI4
aa(lp1725
I3
aI9
aI0
aa(lp1726
I6
aI0
aI8
aa(lp1727
I3
aa(lp1728
a(lp1729
I3
aI9
aa(lp1730
I1
aI7
aa(lp1731
I9
aI5
aI11
aI3
aI1
aa(lp1732
I5
aI11
aI3
aI1
aI9
aI8
aI7
aI6
aa(lp1733
I3
aI8
aa(lp1734
I9
aI11
aI4
aa(lp1735
I3
aI11
aI5
aa(lp1736
I5
aI11
aI3
aI2
aa(lp1737
I0
aI1
aa(lp1738
I3
aa(lp1739
I5
aI3
aa(lp1740
I5
aI1
aI3
aI8
aI2
aa(lp1741
I8
aI9
aa(lp1742
I6
aI0
aI8
aI9
aI4
aI1
aI10
aI7
aI3
aI11
aa(lp1743
I5
aI3
aa(lp1744
I6
aI11
aI10
aa(lp1745
I11
aa(lp1746
I9
aa(lp1747
I9
aa(lp1748
I1
aI9
aI8
aa(lp1749
I2
aI9
aI8
aI0
aI4
aI3
aI7
aI11
aI5
aa(lp1750
I3
aI5
aI11
aI1
aI9
aI10
aa(lp1751
I5
aa(lp1752
I1
aa(lp1753
a(lp1754
I9
aI6
aI0
aI3
aI5
aI11
aI8
aI1
aI4
aa(lp1755
I3
aI8
aI11
aI0
aa(lp1756
I6
aI8
aI1
aa(lp1757
I5
aI3
aa(lp1758
I5
aI11
aI2
aI0
aI6
aI7
aI9
aI1
aa(lp1759
I11
aa(lp1760
I1
aI5
aI8
aI3
aI0
aI11
aI9
aI10
aI7
aI6
aa(lp1761
I0
aI4
aa(lp1762
I5
aa(lp1763
I9
aa(lp1764
I1
aa(lp1765
I5
aa(lp1766
I5
aa(lp1767
I6
aI11
aa(lp1768
I11
aI8
aI2
aI9
aI5
aI1
aI6
aI0
aI7
aI4
aa(lp1769
I1
aa(lp1770
I11
aa(lp1771
I8
aI11
aa(lp1772
I9
aI3
aI1
aI4
aI0
aI7
aI10
aI11
aI2
aI6
aa(lp1773
I8
aI11
aI1
aI0
aa(lp1774
I3
aI8
aI1
aa(lp1775
I6
aI0
aa(lp1776
I5
aa(lp1777
I8
aI1
aI2
aI9
aI5
aa(lp1778
I11
aI3
aI5
aI9
aI6
aI0
aI1
aI2
aI4
aI7
aa(lp1779
I5
aI9
aa(lp1780
I3
aa(lp1781
I3
aa(lp1782
I8
aI6
aI0
aI9
aI1
aa(lp1783
I3
aI5
aI9
aI11
aI7
aI8
aI2
aI4
aI1
aI10
aa(lp1784
I11
aI5
aa(lp1785
I1
aI11
aI6
aI5
aI0
aI9
aI4
aI3
aI7
aI8
aa(lp1786
I8
aI6
aI0
aI1
aI4
aa(lp1787
I0
aI6
aI9
aI2
aa(lp1788
I8
aI9
aI1
aI0
aI6
aI7
aI4
aI2
aI10
aI3
aa(lp1789
I10
aI11
aI3
aI8
aa(lp1790
I11
aI3
aI5
aI8
aI9
aI2
aa(lp1791
I8
aI11
aI3
aI9
aI6
aI0
aI10
aI2
aI1
aI5
aa(lp1792
I6
aI0
aI8
aI1
aI9
aI10
aI7
aI5
aa(lp1793
I11
aI3
aI5
aa(lp1794
I3
aa(lp1795
I0
aI6
aa(lp1796
I11
aI5
aa(lp1797
I1
aI11
aI3
aI0
aI9
aI8
aa(lp1798
I3
aa(lp1799
I5
aa(lp1800
I6
aI0
aI8
aI4
aa(lp1801
I3
aI11
aI5
aI9
aa(lp1802
I9
aI8
aI1
aI4
aI2
aI0
aI6
aa(lp1803
I4
aa(lp1804
I4
aa(lp1805
I6
aa(lp1806
I4
aI6
aI0
aI8
aI1
aI5
aa(lp1807
I8
aa(lp1808
I9
aI3
aI2
aI0
aa(lp1809
I8
aI9
aI5
aI0
aI1
aI11
aI4
aI3
aa(lp1810
I5
aI4
aI8
aa(lp1811
I5
aa(lp1812
I0
aa(lp1813
I0
aI9
aI2
aI4
aa(lp1814
I1
aI8
aI6
aa(lp1815
I8
aI9
aI11
aI3
aI5
aI1
aI0
aI6
aI7
aI2
aa(lp1816
I8
aa(lp1817
I8
aa(lp1818
I3
aI9
aa(lp1819
I3
aI11
aI5
aa(lp1820
I8
aa(lp1821
I9
aI6
aI1
aa(lp1822
I9
aa(lp1823
I9
aa(lp1824
I8
aI3
aI6
aa(lp1825
I3
aa(lp1826
I11
aa(lp1827
I8
aI9
aI1
aa(lp1828
I1
aI4
aI5
aa(lp1829
I9
aI8
aa(lp1830
I11
aa(lp1831
I8
aa(lp1832
I3
aI9
aa(lp1833
I1
aa(lp1834
I1
aI8
aa(lp1835
I11
aa(lp1836
I1
aI9
aI4
aI8
aa(lp1837
I11
aI3
aa(lp1838
I3
aI5
aI11
aI8
aI6
aa(lp1839
I8
aa(lp1840
I9
aa(lp1841
I9
aI0
aI11
aI6
aI5
aI3
aa(lp1842
I11
aI5
aI6
aI9
aI3
aa(lp1843
I8
aa(lp1844
I3
aa(lp1845
I1
aI4
aI3
aI9
aa(lp1846
I0
aI6
aI3
aI11
aI8
aI1
aI9
aI7
aI4
aI10
aa(lp1847
I2
aI8
aI4
aI9
aI1
aa(lp1848
I8
aI9
aI1
aI6
aa(lp1849
I4
aI9
aI0
aa(lp1850
I1
aI11
aI9
aa(lp1851
I8
aI1
aI11
aa(lp1852
I3
aI11
aI8
aI5
aa(lp1853
I11
aI8
aa(lp1854
I6
aI0
aa(lp1855
I1
aI3
aI8
aa(lp1856
I6
aa(lp1857
I1
aa(lp1858
I8
aI9
aI0
aa(lp1859
I4
aI9
aI1
aI2
aI7
aa(lp1860
I3
aa(lp1861
a(lp1862
I8
aI9
aa(lp1863
I9
aI1
aI0
aI6
aI8
aI7
aa(lp1864
I11
aa(lp1865
I11
aI3
aI8
aI1
aa(lp1866
I11
aI3
aI0
aI8
aI9
aI5
aI10
aI7
aa(lp1867
I9
aI1
aa(lp1868
I6
aI0
aa(lp1869
I11
aa(lp1870
I8
aa(lp1871
I4
aI5
aI8
aI3
aI1
aI6
aI7
aI9
aa(lp1872
I11
aI5
aI3
aI0
aI1
aa(lp1873
I9
aI8
aI0
aa(lp1874
I2
aI9
aa(lp1875
I1
aI3
aI5
aa(lp1876
I8
aa(lp1877
I11
aI5
aI8
aa(lp1878
I9
aa(lp1879
I1
aI9
aI10
aI8
aI7
aI4
aI11
aI5
aI3
aI2
aa(lp1880
I1
aa(lp1881
I9
aI8
aI6
aa(lp1882
I11
aa(lp1883
I8
aI6
aa(lp1884
I3
aa(lp1885
I9
aI8
aI3
aI5
aI1
aI4
aI6
aI7
aI10
aI11
aa(lp1886
I8
aa(lp1887
I1
aa(lp1888
I5
aa(lp1889
I8
aa(lp1890
I11
aa(lp1891
I3
aI1
aI9
aa(lp1892
I9
aI6
aa(lp1893
I9
aI8
aI6
aI1
aI0
aI5
aa(lp1894
I8
aI9
aI1
aa(lp1895
I3
aa(lp1896
I6
aI8
aI3
aI9
aI11
aI1
aI4
aI5
aI7
aI0
aa(lp1897
I3
aI5
aI9
aI0
aI1
aI6
aa(lp1898
I4
aI8
aI6
aa(lp1899
I3
aa(lp1900
I11
aI3
aa(lp1901
I9
aI5
aI1
aa(lp1902
I11
aI3
aa(lp1903
I3
aa(lp1904
I3
aI5
aI11
aI8
aI9
aa(lp1905
I5
aI11
aa(lp1906
I11
aI6
aI9
aa(lp1907
I11
aI5
aI6
aI4
aa(lp1908
I9
aa(lp1909
I11
aI5
aI9
aI8
aI6
aI1
aI0
aI4
aI7
aa(lp1910
I6
aI8
aI9
aI5
aa(lp1911
I1
aI3
aI5
aI11
aI6
aI8
aI9
aI10
aI0
aI7
aa(lp1912
I9
aa(lp1913
I11
aI6
aI8
aa(lp1914
I11
aI5
aI3
aa(lp1915
I11
aa(lp1916
I3
aI5
aI11
aI1
aI4
aI10
aI7
aI6
aI2
aa(lp1917
I1
aI9
aa(lp1918
I11
aa(lp1919
I3
aa(lp1920
I9
aI8
aI0
aI6
aI3
aI5
aI4
aI1
aI7
aI11
aa(lp1921
I8
aI1
aI5
aI2
aI11
aI3
aI9
aI6
aI10
aI7
aa(lp1922
I3
aa(lp1923
I3
aa(lp1924
I6
aI5
aI0
aI9
aa(lp1925
a(lp1926
I8
aa(lp1927
I11
aa(lp1928
I11
aa(lp1929
I1
aa(lp1930
I11
aI3
aI8
aI6
aI9
aa(lp1931
I8
aI6
aI1
aI9
aI3
aI0
aI11
aI2
aI10
aI5
aa(lp1932
I1
aa(lp1933
I3
aa(lp1934
I6
aI0
aI9
aa(lp1935
I8
aI9
aI3
aI11
aI4
aI2
aI1
aI0
aI5
aI6
aa(lp1936
I8
aI6
aI9
aI5
aa(lp1937
I0
aI6
aa(lp1938
I6
aI9
aa(lp1939
I11
aI5
aa(lp1940
I3
aI5
aI11
aI1
aI4
aI7
aI9
aI8
aI6
aI0
aa(lp1941
I3
aa(lp1942
I5
aI3
aI11
aI1
aa(lp1943
a(lp1944
I8
aI1
aI2
aI11
aa(lp1945
I9
aI8
aI6
aI0
aI5
aI11
aI3
aI4
aI1
aa(lp1946
I4
aI9
aI1
aI8
aI10
aa(lp1947
I3
aI11
aI5
aI8
aa(lp1948
I4
aI6
aI1
aI9
aI0
aa(lp1949
I6
aI0
aI8
aI9
aI1
aa(lp1950
I11
aa(lp1951
I5
aI3
aI11
aa(lp1952
I8
aI3
aI0
aI1
aI4
aI5
aI6
aI7
aI9
aa(lp1953
I3
aa(lp1954
a(lp1955
I6
aa(lp1956
I8
aI5
aI9
aI1
aa(lp1957
I8
aI9
aI0
aa(lp1958
I9
aa(lp1959
I3
aa(lp1960
I11
aa(lp1961
I3
aI1
aI8
aI11
aa(lp1962
I9
aa(lp1963
I0
aI6
aI10
aa(lp1964
I8
aI6
aa(lp1965
I8
aI9
aa(lp1966
I8
aI10
aI6
aI9
aI1
aa(lp1967
I0
aI8
aa(lp1968
I6
aI0
aI1
aa(lp1969
I2
aI3
aI5
aI11
aa(lp1970
I5
aI9
aa(lp1971
I3
aI11
aI5
aI2
aI4
aI1
aI9
aI8
aI10
aI7
aa(lp1972
I3
aI5
aI9
aI8
aa(lp1973
I8
aI9
aI1
aI3
aI4
aI11
aI10
aa(lp1974
I5
aI3
aa(lp1975
I3
aa(lp1976
I9
aI11
aI6
aa(lp1977
I11
aI3
aI5
aI1
aI8
aI9
aI6
aI0
aI2
aI10
aa(lp1978
I3
aI9
aI1
aI8
aI11
aa(lp1979
I9
aI8
aa(lp1980
I11
aI5
aa(lp1981
I9
aa(lp1982
I9
aI8
aa(lp1983
I8
aa(lp1984
I8
aI6
aI2
aI1
aI0
aI9
aI7
aI4
aI3
aa(lp1985
I9
aa(lp1986
I3
aI9
aI11
aI8
aI7
aI5
aI6
aI0
aI1
aI2
aa(lp1987
I6
aa(lp1988
I11
aI5
aI3
aI6
aa(lp1989
I11
aa(lp1990
I11
aa(lp1991
a(lp1992
I2
aI1
aI9
aI0
aI8
aa(lp1993
I3
aa(lp1994
I11
aa(lp1995
I9
aI6
aa(lp1996
I8
aI1
aI9
aI4
aI10
aa(lp1997
I5
aI11
aI3
aa(lp1998
I11
aI5
aI3
aI1
aa(lp1999
I9
aI2
aI7
aa(lp2000
I8
aI9
aI4
aa(lp2001
I11
aa(lp2002
I8
aa(lp2003
I1
aa(lp2004
I7
aI9
aa(lp2005
I11
aa(lp2006
I5
aI2
aI8
aa(lp2007
I6
aI4
aI9
aa(lp2008
I3
aa(lp2009
I9
aI8
aa(lp2010
I9
aa(lp2011
I5
aI3
aI9
aI6
aI11
aI0
aI8
aI4
aI10
aI1
aa(lp2012
I5
aa(lp2013
I3
aa(lp2014
I9
aa(lp2015
I9
aI8
aI0
aa(lp2016
I8
aI9
aI1
aI5
aa(lp2017
I8
aI1
aa(lp2018
I8
aa(lp2019
I5
aI9
aI3
aI8
aa(lp2020
I6
aI9
aI11
aa(lp2021
I8
aI1
aa(lp2022
I11
aI5
aI3
aa(lp2023
I3
aI11
aa(lp2024
I4
aa(lp2025
I3
aI5
aI11
aa(lp2026
I11
aI5
aI9
aI8
aI3
aI1
aI0
aI6
aI4
aI7
aa(lp2027
I9
aI1
aa(lp2028
I5
aI3
aa(lp2029
I1
aa(lp2030
I1
aI8
aI9
aa(lp2031
I5
aI1
aI11
aa(lp2032
a(lp2033
I0
aa(lp2034
I6
aI9
aI0
aI1
aa(lp2035
I8
aI3
aI11
aa(lp2036
I6
aI0
aI9
aI3
aI5
aa(lp2037
I5
aa(lp2038
a(lp2039
I3
aI5
aI11
aa(lp2040
I11
aa(lp2041
I6
aI0
aI8
aI9
aI1
aI3
aI7
aI11
aI5
aI10
aa(lp2042
I1
aI9
aI8
aI7
aI4
aI6
aa(lp2043
a(lp2044
I11
aa(lp2045
I1
aI2
aI9
aI8
aI11
aI0
aI3
aI5
aI7
aI4
aa(lp2046
I3
aa(lp2047
I9
aI8
aa(lp2048
I6
aI8
aI0
aI9
aa(lp2049
a(lp2050
I2
aa(lp2051
I9
aI11
aI5
aI8
aI3
aI4
aa(lp2052
I9
aI8
aI6
aa(lp2053
I8
aI6
aI9
aI11
aI0
aI1
aI3
aI4
aI7
aI10
aa(lp2054
I3
aI5
aa(lp2055
I5
aI3
aI11
aI8
aI0
aI6
aI4
aI1
aI2
aa(lp2056
I8
aa(lp2057
I6
aa(lp2058
I11
aI9
aI5
aI3
aI8
aI1
aI0
aI6
aI7
aI2
aa(lp2059
I5
aI3
aI11
aI2
aa(lp2060
I8
aa(lp2061
a(lp2062
I9
aa(lp2063
I7
aa(lp2064
I1
aI4
aa(lp2065
I11
aa(lp2066
I3
aa(lp2067
I3
aI0
aI8
aI1
aI5
aI9
aa(lp2068
I5
aI9
aI11
aI3
aI0
aa(lp2069
I3
aa(lp2070
I3
aI5
aI0
aI2
aI8
aI9
aa(lp2071
I1
aI9
aI5
aI11
aI3
aa(lp2072
a(lp2073
I5
aa(lp2074
I9
aI0
aI6
aI2
aI3
aa(lp2075
I11
aa(lp2076
I11
aa(lp2077
I3
aI9
aI6
aa(lp2078
I3
aI9
aa(lp2079
I5
aa(lp2080
I1
aa(lp2081
a(lp2082
I5
aI3
aI11
aI8
aI0
aI6
aI4
aI7
aI10
aI9
aa(lp2083
I3
aI11
aa(lp2084
I5
aI8
aI9
aa(lp2085
I11
aa(lp2086
a(lp2087
I1
aI9
aI5
aI10
aI8
aa(lp2088
I3
aa(lp2089
I11
aI9
aI8
aI6
aa(lp2090
I11
aI9
aa(lp2091
I8
aI6
aa(lp2092
I3
aI8
aa(lp2093
I8
aI6
aI9
aa(lp2094
I3
aI0
aI5
aI6
aI7
aI9
aI11
aI10
aI4
aI1
aa(lp2095
I4
aa(lp2096
I9
aa(lp2097
I2
aI1
aI5
aI11
aI3
aI7
aI8
aI9
aa(lp2098
I8
aa(lp2099
I11
aI4
aa(lp2100
I5
aI3
aa(lp2101
a(lp2102
I6
aI8
aI1
aa(lp2103
I1
aI9
aI11
aI3
aI5
aI4
aI6
aa(lp2104
I1
aI7
aI10
aa(lp2105
I6
aI9
aI8
aI4
aI0
aa(lp2106
I6
aI9
aa(lp2107
I3
aa(lp2108
a(lp2109
I3
aa(lp2110
I9
aI3
aI11
aa(lp2111
I1
aI2
aI4
aa(lp2112
I6
aI0
aI8
aa(lp2113
I9
aI1
aI5
aI8
aa(lp2114
I5
aI8
aI11
aI1
aa(lp2115
I9
aI8
aI1
aI10
aa(lp2116
I8
aI9
aI11
aI1
aa(lp2117
I9
aI4
aI1
aa(lp2118
I1
aI8
aI10
aI2
aI7
aI9
aI11
aI6
aI4
aI3
aa(lp2119
I11
aI5
aI3
aI4
aa(lp2120
I4
aI9
aI1
aa(lp2121
I8
aI5
aI11
aa(lp2122
I6
aa(lp2123
I9
aI1
aI6
aI5
aI11
aa(lp2124
I5
aa(lp2125
I0
aI6
aI8
aa(lp2126
I2
aI1
aI9
aI8
aI6
aI4
aI0
aI7
aa(lp2127
I8
aI1
aI4
aI2
aI7
aa(lp2128
I5
aI8
aI9
aa(lp2129
I4
aa(lp2130
I5
aI9
aI3
aa(lp2131
I8
aI1
aI9
aa(lp2132
I11
aI3
aI8
aa(lp2133
I5
aI11
aI3
aI7
aI10
aI4
aI9
aI8
aI0
aI6
aa(lp2134
I8
aI4
aa(lp2135
I6
aa(lp2136
I8
aI9
aI3
aI11
aI0
aI5
aI4
aI1
aI6
aI7
aa(lp2137
I9
aa(lp2138
I3
aI11
aa(lp2139
I1
aa(lp2140
I3
aa(lp2141
I8
aI1
aa(lp2142
I3
aa(lp2143
I11
aI3
aI5
aa(lp2144
I9
aI5
aI11
aa(lp2145
I8
aI9
aa(lp2146
I9
aI0
aI8
aa(lp2147
I0
aI6
aa(lp2148
I11
aa(lp2149
I2
aI9
aa(lp2150
I0
aI6
aI9
aa(lp2151
I4
aa(lp2152
I9
aI11
aa(lp2153
I6
aI8
aa(lp2154
I8
aa(lp2155
I3
aI5
aa(lp2156
I8
aa(lp2157
I5
aa(lp2158
I11
aI5
aI3
aa(lp2159
I8
aI3
aI9
aa(lp2160
I5
aI11
aI3
aI1
aI9
aI0
aI6
aI8
aI7
aI10
aa(lp2161
I6
aI3
aI0
aa(lp2162
I8
aa(lp2163
I11
aI5
aI3
aa(lp2164
I1
aa(lp2165
I2
aa(lp2166
I4
aI11
aI9
aa(lp2167
I8
aI6
aI0
aI5
aI3
aa(lp2168
I5
aI11
aI3
aa(lp2169
I3
aI0
aI11
aI9
aI1
aI4
aI10
aI8
aI6
aI5
aa(lp2170
I9
aI5
aI8
aI11
aI10
aI7
aI6
aI4
aI3
aI1
aa(lp2171
I3
aI11
aa(lp2172
I8
aI9
aI5
aI7
aa(lp2173
I1
aa(lp2174
I6
aa(lp2175
I5
aI11
aI3
aI1
aI6
aa(lp2176
I1
aI3
aI0
aI5
aI8
aa(lp2177
I3
aa(lp2178
I6
aI8
aI5
aa(lp2179
I3
aa(lp2180
I5
aa(lp2181
I8
aI9
aa(lp2182
I1
aI8
aa(lp2183
I1
aI9
aI7
aI11
aI5
aI3
aI0
aa(lp2184
I5
aa(lp2185
I6
aa(lp2186
a(lp2187
I11
aa(lp2188
I8
aI1
aI9
aa(lp2189
I3
aa(lp2190
I5
aI9
aI3
aI8
aa(lp2191
I11
aI5
aI3
aI1
aI9
aI0
aI6
aI8
aI7
aI4
aa(lp2192
I3
aa(lp2193
I1
aa(lp2194
I9
aI0
aa(lp2195
I2
aI3
aa(lp2196
I1
aI9
aI3
aI4
aI7
aI5
aI11
aa(lp2197
I5
aa(lp2198
I8
aI3
aI9
aI6
aa(lp2199
I1
aI8
aI6
aa(lp2200
I11
aa(lp2201
I2
aI5
aI4
aI7
aI1
aI10
aI6
aI0
aI3
aI9
aa(lp2202
I1
aI11
aa(lp2203
I1
aI11
aI8
aa(lp2204
I5
aI8
aI1
aI9
aa(lp2205
I8
aI1
aI6
aI0
aI3
aI5
aI9
aI11
aI7
aI10
aa(lp2206
I6
aa(lp2207
I5
aa(lp2208
I8
aI0
aI6
aa(lp2209
I11
aa(lp2210
I9
aa(lp2211
I8
aI6
aI9
aI0
aI1
aI7
aa(lp2212
a(lp2213
I1
aa(lp2214
I11
aI1
aI5
aI9
aI0
aI6
aa(lp2215
I5
aa(lp2216
I9
aI8
aa(lp2217
I9
aI8
aa(lp2218
I8
aa(lp2219
I1
aI8
aI2
aI0
aI4
aI7
aI10
aI3
aI5
aI6
aa(lp2220
a(lp2221
I3
aI5
aI11
aI8
aa(lp2222
I11
aa(lp2223
I1
aI8
aI6
aa(lp2224
a(lp2225
I9
aI8
aI6
aI3
aI0
aa(lp2226
I8
aa(lp2227
I3
aa(lp2228
I9
aI8
aa(lp2229
I8
aI5
aI11
aa(lp2230
I9
aI4
aI8
aI6
aa(lp2231
I9
aI4
aI1
aa(lp2232
I6
aa(lp2233
I9
aa(lp2234
I1
aa(lp2235
I11
aI3
aI5
aI8
aI1
aI9
aI2
aI0
aI7
aa(lp2236
I9
aI3
aI1
aI6
aI8
aI11
aI10
aI4
aI2
aI0
aa(lp2237
I1
aI8
aI9
aI6
aI0
aI4
aI5
aI11
aI3
aI2
aa(lp2238
I9
aa(lp2239
I11
aI6
aI1
aI8
aa(lp2240
I0
aI6
aI9
aI11
aI5
aI3
aI10
aI7
aI2
aI1
aa(lp2241
I5
aI11
aI3
aa(lp2242
I9
aI2
aI8
aI11
aI4
aI7
aI1
aI0
aI3
aI5
aa(lp2243
I1
aI8
aa(lp2244
I8
aI6
aI0
aI9
aI1
aa(lp2245
I4
aa(lp2246
I5
aa(lp2247
I5
aa(lp2248
a(lp2249
a(lp2250
I9
aI4
aI7
aa(lp2251
I8
aI6
aa(lp2252
I10
aI5
aI2
aI9
aI11
aI4
aI3
aI7
aI1
aI0
aa(lp2253
I2
aI8
aI1
aI7
aI9
aa(lp2254
I11
aa(lp2255
I9
aI8
aI6
aI0
aI1
aI7
aI4
aI10
aI2
aI3
aa(lp2256
I2
aI7
aI9
aI4
aI3
aI11
aa(lp2257
I9
aI8
aI5
aa(lp2258
I3
aa(lp2259
I3
aI4
aI11
aI5
aa(lp2260
I2
aI1
aa(lp2261
I6
aa(lp2262
I11
aI3
aI6
aI5
aa(lp2263
I5
aI3
aI9
aa(lp2264
I8
aI9
aI0
aI6
aa(lp2265
I8
aI9
aI6
aI0
aI1
aa(lp2266
I9
aI2
aa(lp2267
I11
aa(lp2268
I9
aI8
aI2
aa(lp2269
I8
aa(lp2270
I4
aa(lp2271
I11
aI8
aI5
aI1
aa(lp2272
I8
aI9
aI3
aI6
aa(lp2273
I3
aI6
aI11
aI0
aI8
aI2
aa(lp2274
I3
aI11
aI5
aa(lp2275
I1
aI6
aI8
aa(lp2276
I3
aI11
aa(lp2277
I11
aI5
aI3
aa(lp2278
I11
aa(lp2279
I8
aI9
aa(lp2280
I2
aa(lp2281
I2
aI1
aa(lp2282
I8
aI9
aI2
aI1
aI7
aI4
aa(lp2283
I8
aa(lp2284
I6
aa(lp2285
I9
aI1
aa(lp2286
I3
aa(lp2287
I2
aa(lp2288
I1
aa(lp2289
I11
aI1
aI8
aI9
aI3
aa(lp2290
I8
aI9
aI3
aI6
aI4
aa(lp2291
I6
aI11
aI8
aI0
aI3
aI5
aI1
aI4
aa(lp2292
I8
aI3
aI6
aa(lp2293
I1
aI3
aI2
aI0
aI6
aa(lp2294
I11
aI3
aI9
aI6
aI0
aI1
aI4
aa(lp2295
I8
aI6
aa(lp2296
a(lp2297
I5
aI0
aI6
aI9
aI3
aa(lp2298
a(lp2299
I9
aI6
aI8
aI1
aa(lp2300
I11
aa(lp2301
I5
aa(lp2302
I9
aI1
aI8
aI6
aI2
aI10
aI4
aI0
aI7
aI5
aa(lp2303
I8
aI9
aI0
aa(lp2304
I9
aa(lp2305
I1
aI9
aa(lp2306
I8
aa(lp2307
I2
aI5
aI9
aI11
aI1
aa(lp2308
I8
aI5
aa(lp2309
I1
aI9
aI2
aI4
aI7
aI10
aI11
aI0
aa(lp2310
a(lp2311
I5
aI11
aa(lp2312
I5
aI3
aI11
aI8
aa(lp2313
I0
aI6
aI1
aa(lp2314
I8
aI3
aa(lp2315
I1
aa(lp2316
I1
aa(lp2317
I11
aI3
aI5
aa(lp2318
I5
aI1
aI4
aI9
aI0
aI6
aI10
aI11
aI8
aI7
aa(lp2319
I8
aa(lp2320
I8
aa(lp2321
I9
aI1
aI8
aa(lp2322
I9
aI6
aI8
aI0
aI3
aa(lp2323
I1
aI9
aI8
aa(lp2324
I3
aI9
aI6
aI5
aI8
aI4
aI11
aa(lp2325
I11
aI3
aI5
aa(lp2326
I3
aI6
aI8
aa(lp2327
I3
aI11
aI5
aa(lp2328
I3
aI2
aI5
aI9
aI11
aI8
aI1
aa(lp2329
a(lp2330
I9
aI3
aI11
aI5
aI8
aI1
aI2
aI4
aI7
aI10
aa(lp2331
I5
aI8
aa(lp2332
I8
aI0
aa(lp2333
I11
aI5
aa(lp2334
I8
aa(lp2335
I6
aI0
aI1
aa(lp2336
I6
aI0
aI8
aa(lp2337
a(lp2338
I1
aI9
aI4
aI8
aI7
aI10
aI0
aI2
aI6
aI5
aa(lp2339
I4
aa(lp2340
I2
aa(lp2341
I9
aa(lp2342
I5
aI11
aI3
aa(lp2343
I8
aa(lp2344
I6
aI0
aI3
aa(lp2345
a(lp2346
I8
aI9
aI1
aI4
aa(lp2347
I6
aI1
aa(lp2348
I3
aa(lp2349
I11
aa(lp2350
I6
aI11
aI9
aI1
aI0
aa(lp2351
I11
aa(lp2352
I9
aI8
aa(lp2353
I0
aa(lp2354
I3
aI5
aI11
aI0
aa(lp2355
I6
aI9
aI4
aa(lp2356
I2
aa(lp2357
I8
aI6
aI3
aI11
aI9
aa(lp2358
I9
aI1
aI3
aa(lp2359
I11
aI3
aI2
aI5
aa(lp2360
I9
aI6
aa(lp2361
I8
aI3
aa(lp2362
I3
aI5
aa(lp2363
I3
aa(lp2364
I9
aa(lp2365
I7
aI9
aI1
aI2
aI3
aI11
aI5
aI8
aI10
aI4
aa(lp2366
I1
aa(lp2367
I5
aa(lp2368
I6
aI9
aI4
aa(lp2369
I5
aI11
aI3
aa(lp2370
I3
aI2
aa(lp2371
I10
aa(lp2372
I1
aI8
aa(lp2373
I11
aI5
aI3
aI1
aI8
aa(lp2374
I11
aa(lp2375
I3
aI11
aI9
aa(lp2376
I9
aI8
aa(lp2377
I11
aa(lp2378
I8
aI1
aa(lp2379
I11
aa(lp2380
I9
aI8
aI6
aI3
aa(lp2381
I3
aI0
aI11
aI9
aI6
aa(lp2382
I6
aI11
aI9
aI5
aa(lp2383
a(lp2384
a(lp2385
I5
aa(lp2386
I4
aa(lp2387
I9
aI6
aI8
aI5
aI3
aI0
aI4
aI1
aI11
aI10
aa(lp2388
I5
aa(lp2389
I8
aa(lp2390
I11
aI5
aI3
aI8
aI9
aa(lp2391
I3
aI5
aa(lp2392
I3
aI11
aI5
aI9
aI6
aI1
aa(lp2393
I9
aI8
aa(lp2394
I6
aI0
aI8
aI9
aa(lp2395
I1
aI8
aI4
aI7
aI10
aI9
aI0
aI6
aI2
aI11
aa(lp2396
I2
aI8
aI9
aI11
aI5
aI7
aI4
aI10
aI6
aI3
aa(lp2397
I8
aa(lp2398
I8
aI9
aI6
aa(lp2399
I0
aa(lp2400
I9
aa(lp2401
I11
aI9
aI8
aa(lp2402
I3
aI11
aI2
aa(lp2403
a(lp2404
I9
aI1
aa(lp2405
I9
aI11
aa(lp2406
I0
aa(lp2407
a(lp2408
I6
aI0
aa(lp2409
I11
aI5
aI9
aa(lp2410
a(lp2411
a(lp2412
I1
aI8
aI9
aI7
aI0
aa(lp2413
a(lp2414
I6
aI0
aI8
aI9
aI1
aI2
aI4
aI7
aI10
aI11
aa(lp2415
I5
aI11
aa(lp2416
I1
aa(lp2417
I0
aa(lp2418
I9
aa(lp2419
I1
aI5
aa(lp2420
I6
aI9
aI8
aI3
aI0
aI1
aI5
aI7
aI4
aI10
aa(lp2421
I11
aI5
aI3
aI2
aa(lp2422
I8
aI0
aI4
aI9
aI5
aI11
aI1
aI6
aI3
aI2
aa(lp2423
I1
aI6
aI9
aI0
aI4
aI5
aI8
aa(lp2424
I2
aI1
aa(lp2425
I1
aI8
aa(lp2426
I9
aI8
aI6
aI0
aa(lp2427
I8
aI3
aa(lp2428
I5
aI3
aI8
aI9
aI11
aI7
aI4
aI2
aI10
aI6
aa(lp2429
a(lp2430
I2
aI3
aI1
aa(lp2431
I3
aI5
aI11
aa(lp2432
I2
aI9
aa(lp2433
I11
aI3
aI5
aI4
aI7
aa(lp2434
a(lp2435
I8
aI1
aI9
aa(lp2436
I5
aI11
aI3
aa(lp2437
I3
aI8
aI9
aI1
aI0
aI11
aI4
aI6
aI5
aI2
aa(lp2438
I0
aI11
aI5
aI2
aI7
aI4
aI10
aa(lp2439
a(lp2440
I8
aa(lp2441
I5
aI3
aI1
aI9
aI11
aI8
aa(lp2442
I3
aI6
aI0
aI8
aI11
aI9
aI1
aI7
aI10
aI5
aa(lp2443
I1
aI9
aI8
aa(lp2444
I5
aI4
aI8
aa(lp2445
I9
aa(lp2446
I11
aI5
aI3
aI0
aI6
aI10
aI1
aI2
aI4
aI7
aa(lp2447
I9
aI8
aI0
aa(lp2448
I1
aI8
aI9
aI2
aI11
aI5
aI0
aI6
aI7
aI10
aa(lp2449
I1
aI8
aa(lp2450
I1
aa(lp2451
I3
aa(lp2452
I11
aI5
aI0
aa(lp2453
I4
aI8
aI11
aa(lp2454
I6
aI9
aI5
aa(lp2455
I3
aI5
aI11
aI8
aa(lp2456
I11
aI5
aa(lp2457
I5
aI3
aI11
aI8
aI9
aa(lp2458
I1
aI3
aI8
aa(lp2459
I8
aa(lp2460
I1
aI7
aI11
aa(lp2461
I5
aI3
aI11
aI9
aa(lp2462
I3
aa(lp2463
I8
aa(lp2464
I6
aa(lp2465
I6
aI0
aI8
aa(lp2466
I8
aI9
aI11
aI5
aa(lp2467
I6
aI8
aI9
aa(lp2468
I3
aa(lp2469
I9
aI3
aa(lp2470
I8
aI0
aI9
aa(lp2471
I11
aa(lp2472
I9
aa(lp2473
I11
aI3
aI9
aI6
aa(lp2474
I6
aI0
aa(lp2475
I11
aI2
aI3
aI5
aI9
aI10
aI7
aI6
aI4
aI1
aa(lp2476
I5
aa(lp2477
I8
aa(lp2478
I6
aI8
aa(lp2479
I8
aI6
aI1
aI9
aa(lp2480
I9
aI8
aI11
aa(lp2481
I9
aI1
aI2
aI8
aa(lp2482
I4
aI1
aI2
aI6
aI8
aI10
aI9
aI0
aI7
aI11
aa(lp2483
I6
aI0
aI9
aa(lp2484
I3
aa(lp2485
I11
aI9
aI8
aa(lp2486
I11
aa(lp2487
I9
aI2
aI1
aI8
aI7
aI6
aI10
aI11
aI5
aI4
aa(lp2488
I3
aI5
aI11
aI9
aa(lp2489
I11
aI5
aI3
aa(lp2490
I8
aI3
aa(lp2491
I11
aI3
aI5
aI1
aa(lp2492
I5
aI11
aI3
aI8
aI6
aI9
aI0
aI1
aI10
aa(lp2493
I8
aI1
aa(lp2494
I1
aa(lp2495
I3
aa(lp2496
I11
aI5
aI3
aI10
aI9
aI2
aI4
aI7
aI8
aI6
aa(lp2497
I3
aI11
aI5
aI6
aa(lp2498
I11
aI9
aI8
aI6
aa(lp2499
I6
aa(lp2500
I5
aI11
aa(lp2501
I5
aa(lp2502
I3
aI5
aa(lp2503
I6
aI9
aI8
aI0
aa(lp2504
I11
aI3
aI5
aa(lp2505
I5
aI3
aI11
aI6
aa(lp2506
I1
aI2
aa(lp2507
I1
aI6
aI8
aa(lp2508
I9
aa(lp2509
I7
aI4
aI2
aI1
aa(lp2510
I7
aI6
aI9
aI8
aa(lp2511
I4
aI8
aI6
aI9
aI1
aa(lp2512
I1
aI7
aI9
aI6
aa(lp2513
I1
aa(lp2514
I1
aI2
aI11
aa(lp2515
I3
aI8
aI5
aI11
aI0
aa(lp2516
I11
aI3
aI6
aa(lp2517
I0
aI11
aI9
aI5
aI3
aI1
aI6
aI8
aI10
aI7
aa(lp2518
I11
aa(lp2519
I9
aI8
aa(lp2520
I6
aI11
aI9
aI8
aI3
aa(lp2521
I5
aI9
aI11
aa(lp2522
I8
aa(lp2523
I11
aI5
aa(lp2524
a(lp2525
I8
aI9
aI6
aI1
aI0
aI11
aa(lp2526
I5
aa(lp2527
I11
aI3
aI5
aI1
aI7
aI6
aa(lp2528
I11
aa(lp2529
I11
aI5
aI3
aI8
aI9
aI0
aI1
aI6
aI2
aI10
aa(lp2530
I8
aI6
aI0
aI5
aa(lp2531
I2
aI1
aa(lp2532
I5
aa(lp2533
I9
aI1
aa(lp2534
I9
aI1
aI4
aI7
aa(lp2535
I5
aI8
aI9
aI11
aI1
aI0
aI3
aI6
aa(lp2536
I3
aI11
aI9
aI6
aI8
aa(lp2537
I5
aI1
aa(lp2538
I1
aI9
aI2
aI11
aa(lp2539
I6
aI9
aa(lp2540
I3
aa(lp2541
a(lp2542
I2
aI8
aI9
aI5
aI10
aI6
aI0
aI1
aI3
aI4
aa(lp2543
I11
aa(lp2544
I5
aa(lp2545
I8
aa(lp2546
I1
aI2
aI3
aI9
aa(lp2547
I6
aI9
aI1
aI0
aa(lp2548
I5
aI6
aa(lp2549
I8
aI5
aI9
aI1
aI0
aI6
aI11
aI4
aa(lp2550
I0
aa(lp2551
I8
aI9
aI6
aI0
aI11
aI5
aI3
aI1
aI2
aI4
aa(lp2552
I9
aa(lp2553
I8
aI9
aa(lp2554
I6
aa(lp2555
I5
aI3
aI9
aa(lp2556
I8
aI9
aI4
aa(lp2557
I8
aI1
aI9
aI6
aa(lp2558
I1
aI2
aa(lp2559
I8
aI9
aI6
aa(lp2560
I9
aI8
aI0
aI1
aI5
aa(lp2561
I11
aa(lp2562
I0
aI6
aI8
aI9
aI5
aI11
aI3
aI2
aI1
aa(lp2563
I6
aI0
aI1
aa(lp2564
I0
aI1
aI4
aI6
aI7
aa(lp2565
I1
aI9
aI4
aI3
aI5
aI8
aI11
aI10
aI7
aI6
aa(lp2566
I1
aa(lp2567
I9
aI6
aa(lp2568
I8
aa(lp2569
I6
aa(lp2570
I11
aa(lp2571
I8
aa(lp2572
I9
aI8
aI11
aI5
aI4
aI3
aI10
aI7
aI6
aI2
aa(lp2573
I9
aa(lp2574
I6
aa(lp2575
I11
aI9
aI1
aI3
aa(lp2576
I6
aI9
aI1
aI0
aI8
aI10
aI2
aI4
aI7
aI3
aa(lp2577
I9
aI8
aI6
aI3
aI11
aI1
aI0
aI7
aI10
aa(lp2578
I9
aI8
aa(lp2579
I1
aI5
aI3
aI11
aI9
aI8
aI4
aI10
aI7
aI0
aa(lp2580
I1
aI5
aI3
aI2
aI8
aa(lp2581
I11
aa(lp2582
I9
aI6
aI8
aa(lp2583
I8
aa(lp2584
I1
aI2
aI6
aI4
aI7
aa(lp2585
I6
aI0
aa(lp2586
I6
aI11
aI9
aI8
aI1
aI5
aI0
aa(lp2587
I3
aa(lp2588
I9
aI4
aI2
aa(lp2589
I9
aa(lp2590
I6
aI9
aa(lp2591
I4
aI8
aI9
aa(lp2592
I1
aa(lp2593
I5
aI11
aI3
aI1
aI10
aI9
aI7
aI4
aI2
aa(lp2594
I1
aI3
aa(lp2595
I7
aI1
aI2
aa(lp2596
I8
aI4
aI9
aI6
aa(lp2597
I1
aa(lp2598
I3
aI9
aa(lp2599
I6
aI9
aa(lp2600
I5
aI2
aI1
aI11
aI3
aI8
aI6
aI0
aI9
aI10
aa(lp2601
I0
aI3
aI11
aI8
aI9
aI10
aI2
aI5
aa(lp2602
I8
aI5
aI9
aI3
aI6
aI1
aI0
aI11
aI7
aI10
aa(lp2603
I5
aI9
aI11
aa(lp2604
I1
aI9
aI2
aI10
aI8
aI7
aI4
aI3
aI0
aI5
aa(lp2605
I1
aI8
aI9
aI2
aa(lp2606
I5
aa(lp2607
I8
aI9
aa(lp2608
I9
aI0
aI1
aa(lp2609
I10
aI1
aI8
aa(lp2610
I1
aI11
aI8
aI6
aI0
aI4
aa(lp2611
I8
aI9
aI1
aI6
aI0
aa(lp2612
I6
aI0
aI8
aa(lp2613
I5
aI3
aI11
aa(lp2614
I3
aI11
aI9
aa(lp2615
I0
aa(lp2616
I10
aI5
aa(lp2617
I11
aI5
aI8
aa(lp2618
I3
aI9
aa(lp2619
I9
aI3
aI1
aa(lp2620
I9
aI8
aa(lp2621
I5
aa(lp2622
I5
aI11
aa(lp2623
I3
aa(lp2624
I11
aI5
aI3
aI9
aI4
aI6
aI0
aI1
aI2
aI8
aa(lp2625
I9
aI8
aI6
aI0
aI1
aI7
aa(lp2626
I10
aI2
aI11
aI5
aa(lp2627
I0
aI9
aa(lp2628
I3
aI11
aI8
aI9
aa(lp2629
I1
aI6
aa(lp2630
I5
aI11
aI3
aI6
aa(lp2631
I1
aI9
aI2
aI7
aa(lp2632
I6
aa(lp2633
I1
aI0
aa(lp2634
I6
aI0
aI9
aI8
aI1
aI2
aI5
aI7
aa(lp2635
I9
aa(lp2636
I9
aI4
aI10
aI8
aI2
aI6
aI3
aI1
aI11
aa(lp2637
I9
aI5
aI6
aa(lp2638
I3
aI11
aa(lp2639
I8
aa(lp2640
I3
aI8
aa(lp2641
a(lp2642
I3
aa(lp2643
I1
aI8
aa(lp2644
I9
aI8
aa(lp2645
I11
aI2
aI1
aI3
aa(lp2646
I4
aI0
aI8
aI6
aI3
aI9
aI2
aI1
aa(lp2647
I5
aI9
aa(lp2648
I11
aI5
aa(lp2649
I1
aI9
aI4
aa(lp2650
I9
aI8
aI1
aI4
aI2
aI10
aI0
aI6
aI3
aI5
aa(lp2651
I6
aa(lp2652
a(lp2653
I2
aI1
aI6
aI8
aa(lp2654
I1
aa(lp2655
I9
aa(lp2656
I8
aI9
aa(lp2657
I1
aa(lp2658
I9
aI8
aI6
aa(lp2659
I1
aI8
aI4
aa(lp2660
I6
aa(lp2661
I6
aa(lp2662
I5
aI3
aI11
aa(lp2663
I9
aa(lp2664
I8
aa(lp2665
a(lp2666
I5
aI11
aa(lp2667
I3
aI8
aI1
aa(lp2668
I3
aI5
aI11
aI0
aI6
aI8
aI9
aI1
aI7
aI10
aa(lp2669
I11
aa(lp2670
I8
aa(lp2671
I3
aI8
aa(lp2672
I1
aa(lp2673
I9
aI6
aI0
aI8
aI1
aI11
aI3
aa(lp2674
I4
aI2
aa(lp2675
I6
aI8
aI9
aa(lp2676
I9
aI6
aI0
aa(lp2677
I9
aI8
aI4
aI3
aI10
aI7
aI6
aI0
aI1
aa(lp2678
I4
aI9
aI8
aa(lp2679
I8
aI9
aI5
aI6
aI0
aa(lp2680
I8
aI3
aI9
aI10
aa(lp2681
I0
aa(lp2682
I11
aI5
aa(lp2683
I9
aI6
aI4
aa(lp2684
I6
aI0
aI1
aa(lp2685
I5
aa(lp2686
I5
aa(lp2687
I1
aa(lp2688
a(lp2689
I3
aI5
aI11
aa(lp2690
I6
aI8
aa(lp2691
I3
aI5
aI11
aI9
aI7
aI10
aI4
aI0
aa(lp2692
I1
aI2
aI8
aI10
aI7
aa(lp2693
I5
aI3
aI11
aa(lp2694
I5
aa(lp2695
I1
aI8
aI9
aI3
aI6
aI10
aI11
aa(lp2696
I9
aa(lp2697
I8
aI9
aI4
aI0
aI6
aI5
aI3
aI11
aI10
aI1
aa(lp2698
I6
aI0
aa(lp2699
I1
aa(lp2700
I3
aa(lp2701
I5
aI3
aI11
aI9
aI6
aa(lp2702
I8
aI5
aI11
aa(lp2703
I3
aI9
aa(lp2704
I3
aI1
aa(lp2705
I9
aI11
aI5
aI3
aI0
aI6
aI8
aI7
aI4
aI1
aa(lp2706
I5
aa(lp2707
I8
aI0
aI6
aI9
aI4
aI1
aI5
aa(lp2708
a(lp2709
I3
aI9
aa(lp2710
I11
aI6
aI9
aI5
aI3
aa(lp2711
I10
aI9
aI5
aa(lp2712
a(lp2713
I11
aI5
aI3
aI8
aI9
aI10
aI7
aI6
aI2
aI0
aa(lp2714
I1
aa(lp2715
I5
aI11
aI3
aI6
aa(lp2716
I9
aI6
aI8
aI4
aI7
aI1
aa(lp2717
I6
aI0
aI9
aI8
aa(lp2718
I11
aa(lp2719
I5
aa(lp2720
I11
aa(lp2721
I9
aI6
aa(lp2722
I1
aa(lp2723
I7
aa(lp2724
I8
aa(lp2725
I3
aI11
aI5
aa(lp2726
I3
aa(lp2727
I1
aI11
aI3
aI2
aI8
aI9
aI7
aa(lp2728
I1
aI9
aa(lp2729
I5
aI9
aI8
aI3
aI11
aI0
aa(lp2730
I9
aI1
aI4
aI6
aI7
aI10
aI8
aI0
aI2
aI3
aa(lp2731
I3
aI11
aI5
aI0
aI6
aI8
aa(lp2732
I5
aa(lp2733
I0
aI6
aI9
aa(lp2734
I6
aa(lp2735
a(lp2736
I6
aa(lp2737
I9
aI5
aa(lp2738
I4
aa(lp2739
I9
aa(lp2740
I3
aa(lp2741
I8
aI9
aI3
aI11
aI5
aI7
aI4
aI2
aI1
aI0
aa(lp2742
I11
aI5
aa(lp2743
I8
aI9
aa(lp2744
I3
aI5
aI11
aI9
aa(lp2745
I1
aI8
aI3
aI9
aa(lp2746
a(lp2747
I6
aI0
aI9
aI10
aa(lp2748
I11
aa(lp2749
I5
aI11
aI3
aa(lp2750
I3
aI0
aI8
aa(lp2751
I1
aI5
aI3
aa(lp2752
I8
aI9
aI1
aI7
aa(lp2753
I8
aI9
aa(lp2754
I10
aI11
aI5
aI3
aI9
aI4
aI8
aI6
aI0
aI7
aa(lp2755
I3
aa(lp2756
I11
aI5
aI8
aa(lp2757
I8
aI6
aI1
aI0
aa(lp2758
I11
aI6
aI9
aI3
aa(lp2759
I11
aa(lp2760
I5
aI6
aa(lp2761
I9
aI7
aI11
aI3
aI8
aI10
aI5
aI4
aI2
aI1
aa(lp2762
I1
aa(lp2763
a(lp2764
I1
aa(lp2765
a(lp2766
I11
aa(lp2767
I9
aa(lp2768
I3
aa(lp2769
I5
aa(lp2770
I3
aI5
aI11
aI8
aa(lp2771
I3
aa(lp2772
I5
aI11
aI8
aa(lp2773
I11
aI8
aI2
aa(lp2774
I6
aI0
aI8
aI9
aI10
aa(lp2775
I9
aI1
aI4
aI0
aa(lp2776
I1
aa(lp2777
I4
aI9
aa(lp2778
I11
aI9
aI1
aI6
aI7
aI5
aI3
aI2
aI0
aI4
aa(lp2779
I3
aa(lp2780
I11
aI6
aI5
aI3
aa(lp2781
I9
aI6
aa(lp2782
I9
aa(lp2783
I1
aa(lp2784
I9
aa(lp2785
I3
aI11
aI9
aa(lp2786
I8
aI9
aI3
aa(lp2787
I0
aI5
aI1
aI8
aa(lp2788
I5
aa(lp2789
I1
aI2
aa(lp2790
a(lp2791
I11
aa(lp2792
I9
aI2
aI4
aa(lp2793
I11
aa(lp2794
I6
aI0
aa(lp2795
I11
aI1
aI5
aI3
aI8
aI9
aI0
aI2
aI4
aI6
aa(lp2796
I9
aI6
aI0
aI8
aI4
aI10
aI7
aI1
aI3
aa(lp2797
I1
aa(lp2798
I11
aa(lp2799
I11
aI6
aI0
aI1
aa(lp2800
I1
aa(lp2801
I7
aI9
aI8
aI6
aI3
aI0
aI1
aI4
aa(lp2802
I9
aI1
aI10
aa(lp2803
I11
aa(lp2804
I8
aI1
aI9
aa(lp2805
I7
aI4
aI1
aI6
aa(lp2806
I9
aI0
aI1
aa(lp2807
I7
aI11
aa(lp2808
I6
aI0
aI8
aI1
aI4
aa(lp2809
I3
aa(lp2810
I8
aI6
aI0
aa(lp2811
I1
aI8
aI4
aa(lp2812
I3
aa(lp2813
I4
aa(lp2814
I11
aI5
aa(lp2815
I9
aI1
aI11
aa(lp2816
I11
aa(lp2817
I5
aI3
aI11
aI8
aa(lp2818
I9
aI5
aa(lp2819
a(lp2820
I1
aI9
aI8
aI4
aa(lp2821
I9
aI8
aI1
aI6
aI5
aI0
aI11
aI2
aI3
aI4
aa(lp2822
a(lp2823
I3
aI8
aI9
aI6
aI5
aa(lp2824
I3
aI5
aI11
aI1
aI9
aa(lp2825
I5
aa(lp2826
I5
aI11
aI3
aI9
aI8
aI1
aI0
aI2
aa(lp2827
a(lp2828
I8
aa(lp2829
I9
aI6
aa(lp2830
I1
aa(lp2831
I5
aI11
aa(lp2832
I6
aI0
aI8
aa(lp2833
a(lp2834
I4
aI1
aI9
aI8
aI2
aI10
aI7
aI0
aI6
aI3
aa(lp2835
I1
aa(lp2836
I11
aI9
aI8
aI5
aa(lp2837
I2
aa(lp2838
I3
aI11
aa(lp2839
I9
aI8
aI1
aI4
aI7
aI6
aI0
aa(lp2840
I9
aI0
aI1
aI2
aa(lp2841
I9
aI11
aI1
aI8
aa(lp2842
I1
aI3
aa(lp2843
I9
aI4
aI6
aI5
aI0
aa(lp2844
I5
aI8
aa(lp2845
I8
aI5
aa(lp2846
I1
aI3
aI11
aI10
aI9
aI8
aI7
aI6
aI5
aI4
aa(lp2847
I11
aI5
aI1
aI9
aa(lp2848
I11
aI5
aI3
aI1
aa(lp2849
I11
aI5
aa(lp2850
I11
aI5
aI3
aI6
aI0
aI9
aI7
aI8
aa(lp2851
I1
aa(lp2852
a(lp2853
a(lp2854
I9
aI0
aI3
aI4
aI8
aI11
aI6
aI1
aI5
aa(lp2855
a(lp2856
I6
aa(lp2857
I1
aI4
aI8
aI7
aa(lp2858
I9
aI1
aa(lp2859
I9
aI6
aa(lp2860
I5
aI11
aa(lp2861
I1
aa(lp2862
I0
aI9
aI1
aI6
aI8
aa(lp2863
I9
aI8
aa(lp2864
I6
aI0
aI8
aI9
aI3
aI11
aI5
aI4
aI7
aa(lp2865
I4
aI6
aI9
aI8
aI3
aI0
aI5
aI11
aI1
aI2
aa(lp2866
I9
aa(lp2867
I6
aI0
aI9
aa(lp2868
I5
aI8
aI11
aI3
aI9
aI6
aI0
aI10
aI7
aI4
aa(lp2869
I8
aa(lp2870
I8
aI4
aI1
aI9
aI11
aI2
aI3
aa(lp2871
I4
aI1
aI6
aa(lp2872
I11
aa(lp2873
I3
aa(lp2874
I9
aI3
aI8
aI6
aI0
aI1
aI11
aI10
aI7
aI5
aa(lp2875
I1
aa(lp2876
I5
aI3
aI11
aI9
aI7
aa(lp2877
a(lp2878
I5
aI1
aI3
aa(lp2879
I0
aa(lp2880
I8
aa(lp2881
I6
aI8
aI9
aI0
aI1
aI5
aa(lp2882
a(lp2883
I1
aa(lp2884
I9
aI8
aa(lp2885
I5
aa(lp2886
I5
aI1
aI2
aa(lp2887
I6
aI8
aI9
aa(lp2888
I8
aa(lp2889
I11
aa(lp2890
a(lp2891
I3
aa(lp2892
I8
aa(lp2893
I9
aa(lp2894
I9
aa(lp2895
I11
aI5
aI9
aa(lp2896
I3
aI5
aI8
aI9
aa(lp2897
I6
aa(lp2898
a(lp2899
I1
aI4
aI5
aI3
aI11
aI7
aI6
aI10
aI9
aI8
aa(lp2900
a(lp2901
I1
aa(lp2902
I3
aa(lp2903
I9
aI1
aI8
aa(lp2904
I9
aI8
aI7
aI1
aI2
aI11
aI3
aI4
aa(lp2905
I8
aI9
aI3
aa(lp2906
I3
aa(lp2907
I1
aI4
aI7
aa(lp2908
I3
aa(lp2909
I8
aa(lp2910
I9
aI1
aI6
aI10
aa(lp2911
I9
aa(lp2912
I1
aI9
aI10
aI2
aa(lp2913
I6
aI0
aa(lp2914
a(lp2915
I8
aI1
aa(lp2916
I1
aa(lp2917
I1
aI2
aI6
aa(lp2918
I11
aa(lp2919
I5
aI11
aI8
aI3
aI1
aI9
aa(lp2920
I8
aI1
aI6
aI9
aa(lp2921
I1
aa(lp2922
I11
aI5
aI3
aa(lp2923
I9
aI3
aI11
aI5
aI1
aI10
aI8
aI6
aa(lp2924
I9
aa(lp2925
I1
aI3
aa(lp2926
I11
aI3
aI9
aa(lp2927
I5
aa(lp2928
I8
aI6
aI0
aI4
aI5
aI3
aI11
aI1
aI9
aa(lp2929
I5
aI3
aI1
aa(lp2930
I9
aI3
aI8
aI6
aI0
aI5
aI11
aI10
aI1
aI4
aa(lp2931
I9
aI3
aI5
aI0
aI6
aI11
aI4
aI8
aI10
aI1
aa(lp2932
I5
aI6
aa(lp2933
I5
aa(lp2934
I0
aI6
aI8
aI9
aI4
aI10
aI11
aa(lp2935
I11
aI0
aI3
aa(lp2936
I6
aI0
aI8
aa(lp2937
I0
aI6
aa(lp2938
I1
aI8
aa(lp2939
I8
aI9
aI1
aI6
aa(lp2940
I8
aa(lp2941
I3
aI5
aI9
aI6
aa(lp2942
I3
aI11
aI5
aI8
aa(lp2943
a(lp2944
I9
aI6
aI1
aa(lp2945
I3
aI2
aI8
aI9
aa(lp2946
I1
aa(lp2947
I11
aI5
aI3
aI1
aI6
aI8
aa(lp2948
I6
aI0
aa(lp2949
I5
aI8
aI2
aI9
aI1
aI3
aI11
aI7
aI0
aI10
aa(lp2950
I7
aI4
aI10
aa(lp2951
I1
aI4
aI3
aa(lp2952
I5
aI8
aI11
aa(lp2953
I5
aI3
aI11
aI1
aI9
aI8
aI4
aI2
aI6
aI0
aa(lp2954
I9
aa(lp2955
I8
aa(lp2956
I11
aI9
aa(lp2957
I3
aa(lp2958
I2
aI7
aI10
aa(lp2959
I5
aI8
aI1
aa(lp2960
a(lp2961
I3
aI11
aI9
aI5
aI6
aI0
aa(lp2962
I9
aI6
aI8
aI11
aI0
aI7
aI3
aI10
aI5
aI4
aa(lp2963
a(lp2964
I6
aI5
aI0
aI8
aI9
aI11
aI3
aI1
aI10
aI4
aa(lp2965
I3
aa(lp2966
I9
aI4
aI1
aI8
aa(lp2967
I8
aI9
aI6
aI1
aa(lp2968
I9
aI3
aa(lp2969
I9
aI3
aa(lp2970
I1
aI2
aI9
aI8
aI10
aa(lp2971
I2
aa(lp2972
I1
aI9
aI8
aa(lp2973
I4
aI9
aI8
aI6
aI7
aI3
aa(lp2974
I3
aI5
aa(lp2975
I5
aa(lp2976
I8
aI9
aI4
aI6
aI5
aI3
aI0
aI11
aI10
aI7
aa(lp2977
I5
aI8
aI1
aI9
aI10
aa(lp2978
I1
aa(lp2979
I9
aa(lp2980
I11
aI3
aa(lp2981
I9
aa(lp2982
I3
aI11
aI5
aI2
aI1
aI4
aI7
aI8
aI9
aa(lp2983
I8
aI5
aa(lp2984
I9
aa(lp2985
I5
aI8
aI11
aa(lp2986
I5
aI8
aI2
aI9
aI11
aI1
aI3
aI4
aI7
aI10
aa(lp2987
I8
aI6
aI1
aa(lp2988
I8
aI3
aI7
aI6
aI1
aI0
aI4
aI9
aI11
aI10
aa(lp2989
I1
aI8
aI9
aI6
aI0
aa(lp2990
I1
aI4
aI7
aI10
aa(lp2991
I9
aI3
aa(lp2992
I5
aI8
aa(lp2993
I1
aI3
aa(lp2994
I5
aI11
aI3
aI2
aa(lp2995
I8
aa(lp2996
I11
aa(lp2997
I8
aI1
aa(lp2998
I3
aI5
aI8
aa(lp2999
a(lp3000
I3
aI5
aI11
aI1
aa(lp3001
I9
aI11
aI0
aI6
aI8
aa(lp3002
I1
aI9
aI3
aI5
aI0
aI6
aI11
aI10
aI7
aI8
aa(lp3003
I0
aI6
aI8
aa(lp3004
I1
aI5
aa(lp3005
I8
aI5
aI9
aI7
aI10
aI11
aI3
aI2
aI4
aI6
aa(lp3006
I1
aI9
aa(lp3007
I1
aa(lp3008
I5
aa(lp3009
I11
aI5
aa(lp3010
I5
aa(lp3011
I6
aI0
aI9
aI4
aI2
aI8
aI10
aa(lp3012
a(lp3013
I0
aa(lp3014
I8
aI6
aa(lp3015
I5
aI3
aI11
aI8
aI9
aa(lp3016
I4
aa(lp3017
I8
aI0
aI9
aI6
aa(lp3018
I6
aa(lp3019
I6
aI0
aI8
aa(lp3020
I6
aI0
aI9
aI3
aI5
aI11
aI1
aI7
aI8
aa(lp3021
I5
aI3
aI11
aa(lp3022
I5
aI3
aI11
aa(lp3023
I8
aa(lp3024
I8
aI9
aI1
aI2
aa(lp3025
I2
aI8
aI11
aa(lp3026
I8
aa(lp3027
I6
aa(lp3028
I9
aI11
aI2
aI6
aI0
aI7
aI8
aa(lp3029
I5
aI8
aI9
aI1
aI3
aI7
aI10
aI0
aa(lp3030
I8
aI1
aI6
aI10
aI7
aa(lp3031
a(lp3032
I1
aI8
aa(lp3033
I2
aI8
aI11
aI9
aa(lp3034
I3
aa(lp3035
a(lp3036
I5
aI11
aa(lp3037
I3
aa(lp3038
I2
aI1
aI9
aa(lp3039
I8
aI0
aI9
aI3
aI11
aI5
aI4
aI1
aI6
aI2
aa(lp3040
I3
aa(lp3041
I8
aa(lp3042
I6
aI8
aa(lp3043
I1
aI3
aa(lp3044
I6
aI1
aa(lp3045
a(lp3046
I11
aI5
aa(lp3047
I1
aI9
aI8
aa(lp3048
a(lp3049
I3
aI5
aa(lp3050
I8
aI6
aa(lp3051
I11
aI8
aI5
aI4
aI1
aI0
aI2
aI3
aa(lp3052
I3
aI11
aI5
aI9
aI8
aI0
aI6
aI7
aI1
aI4
aa(lp3053
I3
aa(lp3054
I3
aI5
aI11
aI9
aI8
aI6
aI0
aI1
aa(lp3055
I3
aI8
aI9
aI5
aa(lp3056
I8
aa(lp3057
I9
aa(lp3058
I3
aI11
aa(lp3059
I3
aI5
aI11
aI2
aa(lp3060
I9
aI11
aa(lp3061
I2
aI11
aa(lp3062
I8
aa(lp3063
I9
aa(lp3064
I6
aa(lp3065
I5
aa(lp3066
I10
aa(lp3067
I6
aI0
aI3
aa(lp3068
I1
aI8
aI3
aI0
aI2
aI11
aI6
aI4
aa(lp3069
I11
aa(lp3070
I6
aI0
aI8
aI9
aa(lp3071
I6
aI9
aa(lp3072
I6
aI8
aI9
aI0
aI11
aI3
aI5
aI1
aI4
aI7
aa(lp3073
I6
aI9
aI8
aa(lp3074
I9
aI11
aI5
aI3
aa(lp3075
I9
aI4
aI8
aa(lp3076
I0
aI6
aI1
aI8
aI9
aa(lp3077
I6
aI8
aI0
aI9
aI7
aI1
aI10
aI5
aI4
aI3
aa(lp3078
I5
aI3
aI11
aI6
aa(lp3079
I8
aI5
aI3
aI2
aI1
aI0
aI4
aI6
aI7
aI9
aa(lp3080
I11
aI5
aa(lp3081
I3
aa(lp3082
I9
aI8
aI1
aI2
aI7
aI4
aa(lp3083
I9
aI7
aI6
aI1
aI4
aI5
aI0
aI3
aI8
aI10
aa(lp3084
I3
aI9
aI6
aa(lp3085
I8
aI9
aI1
aa(lp3086
I8
aI1
aa(lp3087
a(lp3088
I8
aa(lp3089
I8
aI6
aI0
aI5
aa(lp3090
I5
aa(lp3091
I5
aI11
aI3
aa(lp3092
I1
aa(lp3093
I1
aa(lp3094
I1
aI8
aI2
aI5
aI7
aI9
aI10
aI4
aa(lp3095
I11
aI9
aI0
aI3
aa(lp3096
I11
aI5
aI3
aI1
aa(lp3097
I1
aa(lp3098
I11
aa(lp3099
I9
aI3
aI0
aI11
aa(lp3100
I1
aI9
aI8
aI5
aa(lp3101
I6
aI5
aa(lp3102
a(lp3103
a(lp3104
I11
aI5
aa(lp3105
I1
aI5
aI6
aI8
aI7
aI9
aI10
aI11
aI2
aI3
aa(lp3106
I5
aI3
aI11
aI8
aa(lp3107
I11
aI5
aa(lp3108
I3
aI2
aI8
aa(lp3109
I11
aa(lp3110
I11
aI1
aI3
aI2
aI5
aI8
aI9
aI10
aI7
aI6
aa(lp3111
I2
aI1
aI6
aI0
aI9
aI7
aI10
aI3
aI11
aI8
aa(lp3112
I1
aa(lp3113
I10
aI3
aI5
aI11
aa(lp3114
I5
aa(lp3115
I6
aa(lp3116
I3
aI5
aa(lp3117
I9
aI4
aI6
aI10
aa(lp3118
I11
aI3
aI2
aI1
aI6
aa(lp3119
a(lp3120
I1
aa(lp3121
I1
aI8
aa(lp3122
I9
aI8
aI6
aI0
aa(lp3123
I11
aa(lp3124
I9
aa(lp3125
I9
aI6
aI5
aa(lp3126
a(lp3127
I9
aI4
aI3
aI6
aI0
aI1
aI7
aI8
aI5
aI2
aa(lp3128
I1
aI8
aa(lp3129
I9
aI0
aI4
aI1
aa(lp3130
I11
aI5
aI3
aI9
aI6
aa(lp3131
I9
aa(lp3132
I8
aI1
aI2
aI4
aI7
aa(lp3133
I11
aI5
aI3
aa(lp3134
I3
aa(lp3135
I8
aI9
aa(lp3136
I3
aa(lp3137
I7
aI9
aI1
aI4
aI5
aa(lp3138
I8
aI1
aI9
aI2
aI6
aI7
aI10
aI4
aI11
aa(lp3139
I9
aa(lp3140
a(lp3141
I1
aI2
aa(lp3142
I8
aI4
aI9
aI6
aa(lp3143
I6
aI8
aa(lp3144
I6
aI0
aI9
aI8
aa(lp3145
I3
aa(lp3146
I1
aa(lp3147
a(lp3148
I9
aa(lp3149
I11
aa(lp3150
I9
aI8
aI11
aI6
aI3
aa(lp3151
I9
aa(lp3152
I5
aI11
aa(lp3153
I9
aI3
aI6
aa(lp3154
I1
aI9
aI11
aI5
aa(lp3155
I9
aI11
aI3
aI8
aI0
aI5
aa(lp3156
I0
aI5
aa(lp3157
I1
aa(lp3158
I6
aI0
aa(lp3159
I4
aa(lp3160
I9
aa(lp3161
I5
aI3
aI4
aI1
aa(lp3162
I8
aa(lp3163
I6
aa(lp3164
I8
aI11
aI6
aI3
aI0
aa(lp3165
a(lp3166
I5
aa(lp3167
I1
aI4
aI9
aI8
aI10
aI6
aI0
aI2
aI3
aI7
aa(lp3168
I6
aa(lp3169
I2
aI1
aI5
aI9
aI11
aI3
aa(lp3170
I1
aI8
aI5
aI9
aI11
aI0
aI7
aI10
aI4
aa(lp3171
I6
aI0
aI9
aI1
aI8
aI3
aI4
aI7
aI10
aI5
aa(lp3172
I5
aa(lp3173
I4
aI9
aI10
aI7
aI8
aI6
aI1
aI5
aI3
aI0
aa(lp3174
I5
aI1
aI11
aI9
aI8
aa(lp3175
I1
aI8
aI9
aI11
aI7
aI0
aa(lp3176
I5
aI11
aI3
aI2
aI1
aa(lp3177
I1
aI4
aI2
aa(lp3178
I8
aI9
aI6
aI3
aa(lp3179
I1
aa(lp3180
I9
aa(lp3181
I6
aI8
aI9
aI1
aa(lp3182
a(lp3183
I11
aa(lp3184
I11
aa(lp3185
I2
aa(lp3186
I8
aI1
aI9
aI11
aI5
aa(lp3187
I11
aI1
aI8
aI5
aI3
aI2
aI9
aI7
aI6
aI4
aa(lp3188
I3
aI11
aI8
aa(lp3189
I9
aI6
aa(lp3190
a(lp3191
I3
aa(lp3192
I3
aI5
aa(lp3193
I6
aa(lp3194
I5
aI11
aI1
aI3
aa(lp3195
I4
aa(lp3196
I11
aI9
aI4
aa(lp3197
I8
aI6
aI0
aI4
aI7
aI1
aa(lp3198
I11
aa(lp3199
I6
aI11
aI0
aI9
aa(lp3200
I11
aI5
aI3
aI4
aI2
aI9
aI7
aI8
aI1
aI10
aa(lp3201
I5
aI9
aa(lp3202
I9
aa(lp3203
I8
aI3
aI0
aI1
aI9
aI10
aI11
aI6
aa(lp3204
I3
aI9
aI8
aI6
aI5
aI0
aI11
aI10
aI7
aa(lp3205
I11
aa(lp3206
a(lp3207
I2
aa(lp3208
I8
aI1
aa(lp3209
I5
aI3
aa(lp3210
I3
aI11
aI10
aI6
aI8
aI5
aI9
aI1
aI2
aI0
aa(lp3211
I5
aI6
aa(lp3212
I3
aI9
aa(lp3213
I5
aa(lp3214
I1
aa(lp3215
I11
aa(lp3216
I9
aI6
aI8
aa(lp3217
I5
aI3
aI11
aa(lp3218
I3
aI1
aI0
aI5
aI9
aa(lp3219
I1
aI8
aI9
aa(lp3220
I2
aI1
aI4
aa(lp3221
I5
aa(lp3222
I8
aa(lp3223
I9
aI0
aa(lp3224
I11
aI5
aI3
aI8
aI6
aI0
aI9
aa(lp3225
I3
aa(lp3226
a(lp3227
I9
aI8
aa(lp3228
I9
aa(lp3229
I11
aI3
aI9
aa(lp3230
I1
aI5
aI8
aI11
aI9
aI2
aI0
aI7
aI4
aa(lp3231
I9
aa(lp3232
I1
aI9
aa(lp3233
I5
aI3
aI11
aI6
aI0
aa(lp3234
I0
aI6
aa(lp3235
I11
aa(lp3236
I9
aa(lp3237
I5
aI6
aI8
aI9
aI3
aI11
aa(lp3238
I8
aa(lp3239
I11
aI9
aI2
aa(lp3240
I2
aI3
aI4
aI1
aI11
aI10
aI9
aI8
aI6
aI7
aa(lp3241
I9
aI3
aI5
aI11
aa(lp3242
I6
aI0
aa(lp3243
I9
aI6
aa(lp3244
I8
aI1
aI4
aa(lp3245
I4
aa(lp3246
I9
aI1
aa(lp3247
I3
aa(lp3248
I3
aI8
aa(lp3249
a(lp3250
I9
aI8
aI4
aI2
aI6
aI0
aI7
aI1
aI10
aI3
aa(lp3251
I3
aI11
aI6
aI8
aa(lp3252
I8
aI9
aa(lp3253
I9
aI8
aI0
aa(lp3254
I8
aI1
aa(lp3255
a(lp3256
I6
aI8
aI11
aI0
aa(lp3257
I9
aI3
aa(lp3258
I3
aI1
aI8
aa(lp3259
I11
aI9
aI8
aI1
aI5
aI6
aI0
aI4
aI3
aI2
aa(lp3260
I5
aa(lp3261
I9
aI10
aI0
aa(lp3262
I8
aa(lp3263
I8
aa(lp3264
I6
aI9
aI8
aI1
aI0
aa(lp3265
I3
aI5
aa(lp3266
I3
aI11
aI9
aI8
aI5
aI6
aa(lp3267
I3
aI6
aa(lp3268
a(lp3269
I3
aa(lp3270
I11
aI5
aI3
aI9
aI6
aa(lp3271
I3
aI5
aI11
aa(lp3272
I9
aI8
aI0
aI1
aI4
aI2
aa(lp3273
I5
aI1
aa(lp3274
I11
aI5
aI9
aa(lp3275
I1
aI8
aa(lp3276
I8
aI9
aI0
aa(lp3277
I5
aa(lp3278
I9
aa(lp3279
I2
aI7
aI10
aa(lp3280
I8
aa(lp3281
a(lp3282
I9
aI8
aa(lp3283
I11
aI5
aI3
aa(lp3284
I5
aI11
aI3
aa(lp3285
I11
aI5
aa(lp3286
I9
aI6
aa(lp3287
I0
aI6
aa(lp3288
I5
aa(lp3289
I11
aa(lp3290
I3
aI5
aa(lp3291
I6
aI8
aI9
aI0
aI3
aI5
aI10
aI11
aI1
aI2
aa(lp3292
I3
aI8
aI9
aI6
aI0
aI5
aa(lp3293
I8
aI9
aI5
aI3
aI0
aI6
aI10
aI7
aI2
aI1
aa(lp3294
a(lp3295
I2
aI11
aI5
aI3
aI9
aa(lp3296
I5
aa(lp3297
I5
aI11
aI3
aa(lp3298
I8
aI1
aI9
aa(lp3299
I6
aI9
aI1
aI8
aa(lp3300
I10
aI4
aI9
aI6
aI7
aI8
aI1
aI11
aI0
aa(lp3301
I1
aI9
aI5
aI6
aI11
aI0
aI4
aI8
aI7
aI2
aa(lp3302
I8
aI11
aI5
aa(lp3303
I2
aI11
aa(lp3304
I8
aa(lp3305
I5
aI3
aI11
aa(lp3306
I3
aa(lp3307
I8
aI9
aI1
aa(lp3308
I5
aI3
aa(lp3309
I1
aI6
aI9
aa(lp3310
I9
aI1
aI8
aa(lp3311
I1
aa(lp3312
I6
aI0
aI8
aI9
aI1
aa(lp3313
I11
aa(lp3314
I6
aI3
aI8
aa(lp3315
I1
aa(lp3316
I9
aI1
aI6
aI8
aa(lp3317
I8
aI1
aI5
aI3
aI2
aI6
aI9
aI11
aI10
aI7
aa(lp3318
I9
aa(lp3319
I11
aI6
aI9
aI5
aI1
aa(lp3320
I8
aI1
aI6
aa(lp3321
I8
aI9
aa(lp3322
I1
aa(lp3323
I9
aI1
aI2
aI0
aI5
aI6
aI7
aI8
aa(lp3324
I5
aa(lp3325
I11
aa(lp3326
I3
aI9
aI1
aa(lp3327
I9
aI1
aI3
aI8
aI11
aI0
aI7
aI10
aI4
aI6
aa(lp3328
I9
aI5
aI2
aI6
aa(lp3329
I11
aI5
aa(lp3330
I3
aI8
aI9
aI5
aa(lp3331
I3
aI1
aI8
aI9
aI10
aI11
aI4
aI5
aI6
aI7
aa(lp3332
I8
aI9
aI4
aI6
aa(lp3333
I9
aI3
aa(lp3334
I3
aI5
aI11
aI0
aI6
aa(lp3335
I11
aa(lp3336
I2
aI1
aI9
aa(lp3337
I9
aI3
aI8
aa(lp3338
I8
aI5
aI6
aI11
aI0
aI3
aI9
aI10
aI7
aI4
aa(lp3339
I8
aI9
aa(lp3340
I9
aI0
aI6
aI11
aI3
aa(lp3341
a(lp3342
I11
aI3
aI5
aI1
aI9
aa(lp3343
I1
aa(lp3344
I5
aa(lp3345
I6
aI1
aI8
aI2
aI4
aI7
aI9
aI10
aI11
aI3
aa(lp3346
I6
aa(lp3347
I3
aI8
aI5
aI0
aI6
aI11
aI9
aa(lp3348
I8
aI11
aa(lp3349
I2
aI1
aI3
aI7
aI6
aI9
aI0
aI4
aI5
aI8
aa(lp3350
a(lp3351
I3
aa(lp3352
I9
aa(lp3353
I9
aI11
aI6
aI5
aI3
aI0
aI4
aI8
aa(lp3354
I3
aI6
aI9
aI11
aa(lp3355
I11
aI0
aI5
aI6
aa(lp3356
I6
aI0
aI9
aI1
aI4
aI8
aI11
aI5
aI3
aI2
aa(lp3357
I0
aI9
aI6
aI8
aI2
aI1
aI3
aI11
aI5
aI4
aa(lp3358
I3
aI11
aa(lp3359
I3
aa(lp3360
I1
aa(lp3361
I11
aI2
aI9
aI5
aa(lp3362
I9
aa(lp3363
I11
aa(lp3364
I11
aa(lp3365
I11
aI5
aI3
aI4
aI6
aI2
aI1
aI9
aI10
aa(lp3366
I11
aI5
aI3
aI8
aa(lp3367
I5
aI9
aI11
aa(lp3368
I6
aI0
aI8
aa(lp3369
I2
aI11
aI5
aa(lp3370
I5
aa(lp3371
I3
aa(lp3372
I6
aI0
aI8
aI1
aa(lp3373
I6
aI8
aI9
aI1
aI0
aI11
aI10
aI4
aI3
aI5
aa(lp3374
I5
aI11
aI3
aa(lp3375
a(lp3376
a(lp3377
I3
aa(lp3378
I1
aI9
aI4
aa(lp3379
I1
aI5
aI9
aa(lp3380
I3
aI1
aI0
aI5
aI6
aI8
aI9
aI11
aa(lp3381
I9
aa(lp3382
I1
aa(lp3383
I3
aI4
aI5
aa(lp3384
I3
aI5
aa(lp3385
I11
aI5
aI3
aa(lp3386
I8
aa(lp3387
I8
aI9
aI2
aI1
aI3
aI0
aI5
aa(lp3388
I11
aI3
aa(lp3389
I6
aa(lp3390
I1
aI8
aI2
aa(lp3391
a(lp3392
I11
aa(lp3393
I1
aa(lp3394
I11
aa(lp3395
I0
aI9
aI3
aa(lp3396
I3
aI0
aa(lp3397
I6
aI0
aa(lp3398
I1
aa(lp3399
I6
aI0
aI8
aI9
aa(lp3400
I9
aa(lp3401
I8
aI9
aI6
aI3
aI11
aI1
aI7
aI10
aI5
aa(lp3402
I1
aa(lp3403
I11
aI3
aI5
aa(lp3404
I2
aa(lp3405
I8
aI11
aa(lp3406
I8
aI1
aI9
aI0
aI6
aa(lp3407
I5
aI11
aI3
aa(lp3408
I11
aI5
aa(lp3409
I6
aI9
aI0
aI5
aI1
aa(lp3410
I11
aI5
aI3
aa(lp3411
I2
aI9
aa(lp3412
I6
aI0
aa(lp3413
I1
aI9
aI8
aI10
aa(lp3414
I2
aI3
aI5
aI11
aI1
aI9
aI0
aI10
aI4
aI6
aa(lp3415
a(lp3416
a(lp3417
I1
aI8
aI5
aI6
aI9
aa(lp3418
I8
aI9
aa(lp3419
I1
aI9
aI4
aa(lp3420
I11
aa(lp3421
I3
aI9
aa(lp3422
I5
aa(lp3423
I3
aI5
aI11
aI9
aa(lp3424
I6
aI1
aI9
aa(lp3425
a(lp3426
I9
aI8
aI1
aI10
aI7
aI4
aa(lp3427
I8
aI1
aI9
aI6
aI4
aI0
aI11
aI3
aI5
aI7
aa(lp3428
I4
aa(lp3429
I8
aI9
aI6
aa(lp3430
I6
aI9
aI1
aa(lp3431
I1
aI9
aI11
aI5
aI3
aI0
aI6
aI8
aI10
aI7
aa(lp3432
I8
aI1
aI9
aI6
aI0
aI2
aa(lp3433
I5
aI3
aI1
aI9
aI10
aI11
aI8
aI7
aI6
aI4
aa(lp3434
I9
aa(lp3435
I3
aI9
aI4
aI10
aI8
aI7
aI11
aI5
aI6
aa(lp3436
I8
aI1
aa(lp3437
I11
aa(lp3438
I3
aI5
aI11
aI6
aa(lp3439
I11
aI1
aI8
aa(lp3440
I9
aI8
aI0
aI1
aI6
aa(lp3441
I3
aI5
aI11
aI9
aa(lp3442
I11
aa(lp3443
I11
aI6
aI5
aI9
aa(lp3444
I8
aI5
aI11
aI3
aI9
aI1
aI4
aI7
aI2
aI10
aa(lp3445
a(lp3446
I6
aI8
aa(lp3447
I8
aa(lp3448
a(lp3449
I3
aI5
aI11
aI2
aI1
aI4
aI0
aI7
aI6
aI8
aa(lp3450
I1
aa(lp3451
I5
aI4
aI8
aI9
aI1
aI0
aI3
aI7
aI6
aI10
aa(lp3452
I11
aI5
aI3
aI9
aI7
aI4
aI8
aI10
aI1
aI6
aa(lp3453
I1
aa(lp3454
I5
aI3
aI11
aa(lp3455
I3
aa(lp3456
I9
aI3
aa(lp3457
a(lp3458
a(lp3459
I5
aa(lp3460
I5
aI11
aa(lp3461
I11
aI3
aI5
aI1
aI4
aI9
aI6
aI7
aI8
aI2
aa(lp3462
I2
aI9
aI0
aa(lp3463
I8
aI1
aI9
aa(lp3464
I1
aI8
aI5
aa(lp3465
I1
aI9
aI7
aI8
aI0
aI2
aI3
aI4
aI5
aI6
aa(lp3466
I2
aa(lp3467
I4
aa(lp3468
I4
aI5
aI11
aI3
aa(lp3469
I1
aI6
aI9
aI11
aI3
aI5
aI8
aI0
aI4
aI7
aa(lp3470
I0
aI5
aI6
aa(lp3471
a(lp3472
I6
aI8
aI1
aa(lp3473
I1
aI3
aI11
aI5
aI2
aI8
aI9
aI7
aI10
aa(lp3474
I2
aa(lp3475
I1
aI9
aa(lp3476
I8
aI9
aI3
aI0
aa(lp3477
I9
aI8
aa(lp3478
I5
aa(lp3479
I8
aa(lp3480
I5
aI9
aI8
aI1
aI2
aa(lp3481
I9
aa(lp3482
I11
aI3
aI9
aa(lp3483
I3
aI5
aI8
aI11
aI9
aI6
aI0
aI7
aI4
aI1
aa(lp3484
I9
aI5
aI8
aa(lp3485
I8
aI9
aI1
aa(lp3486
I11
aI3
aI5
aI9
aI2
aI8
aa(lp3487
I0
aI6
aI8
aI9
aI1
aI2
aI7
aI3
aI5
aa(lp3488
I9
aI10
aI1
aI2
aI4
aI5
aa(lp3489
a(lp3490
I8
aI1
aa(lp3491
I11
aI3
aa(lp3492
I1
aI11
aa(lp3493
I11
aI5
aI3
aa(lp3494
I5
aI6
aI11
aa(lp3495
I11
aI3
aI9
aa(lp3496
I8
aI0
aI6
aI9
aI3
aa(lp3497
a(lp3498
I6
aa(lp3499
I9
aI1
aa(lp3500
I9
aa(lp3501
I11
aI5
aI3
aI6
aa(lp3502
I3
aI5
aI9
aI6
aa(lp3503
I3
aI5
aI6
aI0
aI8
aI9
aI1
aI10
aI11
aI7
aa(lp3504
I1
aI9
aI8
aa(lp3505
I3
aI5
aa(lp3506
I9
aI8
aa(lp3507
a(lp3508
a(lp3509
I4
aI9
aI5
aI3
aI6
aI11
aI10
aI8
aa(lp3510
I1
aI2
aI4
aI7
aI9
aI3
aI8
aI5
aI11
aa(lp3511
I1
aI9
aI7
aI4
aI11
aa(lp3512
I8
aI11
aI3
aa(lp3513
I6
aI8
aI3
aI9
aI0
aI11
aa(lp3514
I8
aI3
aI9
aI1
aI2
aI4
aI5
aI6
aI7
aI11
aa(lp3515
I3
aa(lp3516
I1
aI9
aI10
aI11
aa(lp3517
a(lp3518
I8
aI9
aI3
aI11
aa(lp3519
I1
aI9
aI7
aI4
aI0
aI6
aI8
aa(lp3520
I8
aI1
aI9
aI4
aI7
aI10
aI0
aa(lp3521
I8
aa(lp3522
I8
aa(lp3523
I1
aI3
aI9
aI0
aI7
aI5
aI11
aI4
aI6
aI8
aa(lp3524
I7
aI5
aI11
aI3
aI9
aI6
aI0
aI1
aI4
aI8
aa(lp3525
a(lp3526
I1
aI7
aa(lp3527
I3
aa(lp3528
I8
aI11
aI1
aa(lp3529
I1
aI5
aa(lp3530
I9
aI8
aa(lp3531
I2
aa(lp3532
I9
aa(lp3533
I9
aI1
aI8
aI6
aa(lp3534
I9
aI4
aa(lp3535
I8
aI6
aa(lp3536
I3
aa(lp3537
I3
aI9
aa(lp3538
I8
aI9
aI10
aI4
aI2
aa(lp3539
I8
aI7
aI4
aI1
aI10
aI9
aI2
aI6
aI0
aI3
aa(lp3540
I9
aI1
aa(lp3541
I8
aI1
aa(lp3542
I5
aa(lp3543
I2
aI5
aI11
aI8
aI6
aI1
aI7
aI4
aI10
aI3
aa(lp3544
I0
aa(lp3545
I1
aI5
aa(lp3546
I4
aI5
aI3
aI11
aa(lp3547
I1
aI8
aI9
aI2
aI7
aI10
aI5
aI6
aa(lp3548
I5
aI8
aI11
aa(lp3549
I11
aa(lp3550
I6
aa(lp3551
I11
aI9
aa(lp3552
I11
aI3
aI5
aI1
aa(lp3553
a(lp3554
I8
aI9
aa(lp3555
I2
aa(lp3556
I2
aa(lp3557
I9
aI8
aI2
aa(lp3558
I8
aI6
aI9
aa(lp3559
I6
aI8
aI9
aI11
aI0
aI2
aI3
aI4
aI5
aI7
aa(lp3560
I1
aa(lp3561
I4
aI2
aI10
aa(lp3562
I8
aI9
aa(lp3563
I8
aI5
aI3
aI7
aI9
aa(lp3564
a(lp3565
I9
aa(lp3566
I11
aa(lp3567
I1
aI9
aa(lp3568
I0
aa(lp3569
I8
aI5
aI11
aI9
aI1
aI7
aa(lp3570
I8
aI9
aI6
aI0
aI5
aa(lp3571
I9
aa(lp3572
I1
aI6
aI4
aI8
aa(lp3573
I5
aa(lp3574
I1
aI2
aI5
aa(lp3575
I3
aa(lp3576
I5
aa(lp3577
I3
aI5
aI9
aa(lp3578
I8
aI6
aI9
aI0
aa(lp3579
I4
aI3
aa(lp3580
I5
aa(lp3581
I9
aI1
aI2
aa(lp3582
I5
aI11
aa(lp3583
I9
aI3
aI5
aI4
aI11
aI7
aI1
aI2
aI10
aI8
aa(lp3584
a(lp3585
I5
aI7
aI8
aI4
aI1
aI9
aI6
aI10
aI11
aa(lp3586
I11
aI9
aI8
aa(lp3587
I6
aI0
aI9
aa(lp3588
I5
aI11
aI3
aI9
aI0
aa(lp3589
I9
aI4
aI11
aI5
aI3
aI1
aI8
aa(lp3590
I10
aI1
aI6
aI3
aI9
aI8
aI7
aI4
aI0
aa(lp3591
I4
aI9
aI6
aI3
aI7
aI8
aI5
aI11
aI1
aI0
aa(lp3592
I3
aI5
aI11
aa(lp3593
I6
aI0
aa(lp3594
I2
aa(lp3595
I8
aI9
aI1
aa(lp3596
I8
aI9
aI7
aI2
aI1
aI10
aI4
aI0
aI11
aI6
aa(lp3597
I8
aa(lp3598
I5
aa(lp3599
I3
aI8
aI1
aI9
aI11
aI7
aI4
aI2
aI6
aI10
aa(lp3600
I6
aa(lp3601
I3
aI9
aa(lp3602
I3
aI9
aa(lp3603
I1
aI9
aa(lp3604
I9
aI1
aI3
aa(lp3605
I5
aa(lp3606
a(lp3607
I9
aa(lp3608
I8
aI1
aI6
aI0
aI4
aa(lp3609
a(lp3610
I4
aI1
aI9
aI8
aa(lp3611
I8
aI5
aa(lp3612
I9
aa(lp3613
I9
aI8
aI3
aa(lp3614
I6
aI0
aa(lp3615
I9
aa(lp3616
I9
aI1
aI4
aI7
aa(lp3617
I6
aI0
aa(lp3618
I3
aa(lp3619
I6
aI0
aI8
aI4
aI7
aI9
aI11
aI1
aI2
aI3
aa(lp3620
I5
aI3
aI11
aI10
aI7
aa(lp3621
I9
aI4
aa(lp3622
I6
aI0
aI8
aa(lp3623
I8
aa(lp3624
I5
aa(lp3625
I5
aI11
aI3
aI9
aI8
aa(lp3626
I11
aI3
aI5
aI1
aa(lp3627
I8
aI9
aI11
aI6
aa(lp3628
I9
aa(lp3629
I3
aI11
aI6
aI8
aa(lp3630
I8
aI9
aa(lp3631
I8
aI9
aI4
aa(lp3632
a(lp3633
I5
aI3
aa(lp3634
I8
aa(lp3635
I6
aI8
aI9
aI0
aI1
aI4
aa(lp3636
I8
aI9
aI6
aI0
aI1
aI11
aa(lp3637
I8
aI5
aI11
aI3
aI0
aI6
aa(lp3638
I1
aI2
aI8
aI4
aI6
aI10
aI11
aI7
aI0
aI5
aa(lp3639
I5
aa(lp3640
I3
aI5
aI11
aI7
aa(lp3641
I2
aI10
aa(lp3642
I3
aI5
aI4
aa(lp3643
I9
aI6
aI0
aa(lp3644
I3
aI5
aa(lp3645
I6
aa(lp3646
I3
aI5
aI11
aa(lp3647
I6
aI8
aI0
aa(lp3648
I3
aI11
aI5
aI2
aa(lp3649
I1
aI5
aI8
aa(lp3650
I11
aa(lp3651
I9
aI8
aI1
aa(lp3652
I3
aI5
aa(lp3653
I9
aa(lp3654
I9
aa(lp3655
I3
aa(lp3656
I1
aa(lp3657
I1
aI11
aa(lp3658
I11
aa(lp3659
I5
aa(lp3660
I9
aI0
aI6
aI7
aI8
aI10
aI4
aI1
aI2
aI3
aa(lp3661
I11
aa(lp3662
I6
aa(lp3663
I8
aa(lp3664
I9
aI1
aa(lp3665
I1
aI2
aI8
aI9
aI5
aI6
aI11
aI3
aI0
aI4
aa(lp3666
I5
aI3
aa(lp3667
I1
aa(lp3668
I9
aa(lp3669
I9
aI6
aI0
aa(lp3670
I3
aa(lp3671
I8
aa(lp3672
I9
aa(lp3673
I9
aI8
aI1
aI2
aa(lp3674
I8
aI9
aI6
aI0
aa(lp3675
a(lp3676
I8
aI5
aI11
aI6
aI3
aI1
aI9
aI0
aI7
aI4
aa(lp3677
I4
aI9
aa(lp3678
I1
aI9
aI2
aI4
aa(lp3679
I9
aI8
aa(lp3680
I5
aI11
aI8
aI3
aI6
aI1
aI0
aI9
aI10
aI7
aa(lp3681
I1
aI11
aI9
aI6
aI0
aI8
aI5
aI7
aI10
aI3
aa(lp3682
I3
aa(lp3683
I11
aI0
aI8
aI6
aI9
aa(lp3684
I1
aa(lp3685
I3
aI8
aI9
aI11
aa(lp3686
I9
aI3
aa(lp3687
I6
aa(lp3688
I4
aI8
aI9
aI1
aa(lp3689
a(lp3690
I1
aI8
aa(lp3691
I3
aa(lp3692
I5
aI6
aI0
aa(lp3693
I9
aI8
aI1
aI6
aI0
aI4
aI7
aI10
aI5
aI3
aa(lp3694
I3
aa(lp3695
I11
aI3
aI4
aa(lp3696
I9
aa(lp3697
I9
aa(lp3698
I3
aa(lp3699
I1
aa(lp3700
I3
aI5
aI11
aI8
aa(lp3701
I11
aI6
aI0
aI8
aa(lp3702
I11
aI5
aI3
aI1
aI9
aI6
aI8
aI10
aI4
aI2
aa(lp3703
I9
aI0
aI8
aa(lp3704
I5
aa(lp3705
I0
aa(lp3706
I5
aI11
aI3
aa(lp3707
I11
aa(lp3708
I11
aI8
aa(lp3709
I11
aI5
aa(lp3710
I3
aI5
aI11
aI0
aI6
aa(lp3711
I4
aI9
aI1
aa(lp3712
I11
aa(lp3713
I9
aI8
aI5
aI1
aa(lp3714
a(lp3715
I3
aI5
aI11
aI9
aI0
aI6
aI8
aI10
aI1
aa(lp3716
I11
aa(lp3717
I3
aa(lp3718
I8
aI1
aI9
aa(lp3719
a(lp3720
I5
aa(lp3721
I11
aI3
aI5
aa(lp3722
I3
aa(lp3723
I2
aa(lp3724
I5
aa(lp3725
I2
aI9
aI3
aI1
aa(lp3726
I11
aI5
aI4
aa(lp3727
I6
aI0
aa(lp3728
I9
aI0
aa(lp3729
I6
aI8
aI9
aI0
aI3
aa(lp3730
I9
aI1
aI3
aI5
aI11
aI8
aI10
aI2
aI4
aI7
aa(lp3731
I1
aI9
aI11
aI5
aa(lp3732
I9
aI6
aI8
aa(lp3733
I3
aa(lp3734
I11
aI5
aI3
aI6
aI4
aa(lp3735
I9
aI2
aI5
aI11
aI3
aI7
aI8
aI1
aI10
aI0
aa(lp3736
I2
aI1
aa(lp3737
I3
aI8
aI6
aI9
aa(lp3738
I0
aa(lp3739
I8
aa(lp3740
I8
aI9
aI7
aI1
aI3
aI6
aI0
aI11
aa(lp3741
I5
aa(lp3742
I5
aI3
aa(lp3743
I3
aa(lp3744
I9
aI6
aa(lp3745
I9
aa(lp3746
I11
aI5
aI8
aa(lp3747
I5
aa(lp3748
I5
aa(lp3749
I11
aI1
aI6
aI0
aI9
aI3
aI10
aI8
aI2
aI7
aa(lp3750
I11
aI4
aa(lp3751
I9
aI8
aa(lp3752
I5
aa(lp3753
I1
aI5
aI3
aa(lp3754
I8
aI11
aI6
aa(lp3755
I0
aI1
aI6
aI9
aI8
aa(lp3756
I11
aa(lp3757
I11
aa(lp3758
a(lp3759
I3
aa(lp3760
I6
aI8
aa(lp3761
I1
aI9
aa(lp3762
I9
aa(lp3763
I8
aI6
aI4
aI0
aI9
aI10
aI11
aI2
aa(lp3764
I9
aI1
aI3
aI8
aI5
aI7
aI11
aI4
aI10
aI6
aa(lp3765
I8
aI9
aa(lp3766
I9
aI6
aa(lp3767
I0
aI3
aI9
aI6
aI5
aa(lp3768
I9
aI3
aI8
aI6
aI1
aI2
aI4
aI0
aI11
aI5
aa(lp3769
I6
aI8
aI3
aI9
aI0
aa(lp3770
I6
aa(lp3771
I8
aI1
aI0
aI5
aI6
aI3
aI11
aI9
aI10
aI4
aa(lp3772
I5
aa(lp3773
I5
aa(lp3774
a(lp3775
I9
aI8
aI6
aI11
aI5
aa(lp3776
I8
aa(lp3777
I11
aI6
aI9
aI5
aI8
aI7
aI3
aI0
aI10
aI2
aa(lp3778
I11
aI3
aI5
aI1
aI9
aI6
aI7
aa(lp3779
I11
aI6
aI8
aI5
aI0
aa(lp3780
I9
aI8
aI5
aI3
aa(lp3781
I6
aa(lp3782
I11
aI3
aI5
aI0
aI4
aI6
aI7
aa(lp3783
I8
aI5
aa(lp3784
I8
aa(lp3785
I5
aI3
aa(lp3786
I9
aa(lp3787
I11
aI5
aa(lp3788
I8
aI11
aa(lp3789
I8
aa(lp3790
I11
aI3
aa(lp3791
I1
aa(lp3792
I8
aI9
aI1
aa(lp3793
I2
aI11
aa(lp3794
I9
aI8
aI5
aI3
aa(lp3795
I9
aa(lp3796
I1
aI5
aI11
aI3
aI7
aa(lp3797
I11
aa(lp3798
I8
aI9
aI6
aI0
aa(lp3799
I4
aa(lp3800
I1
aa(lp3801
I11
aa(lp3802
I1
aI2
aa(lp3803
I8
aI1
aa(lp3804
I5
aI11
aI3
aI9
aI4
aI6
aI0
aI8
aI10
aI2
aa(lp3805
I11
aa(lp3806
I5
aI3
aa(lp3807
I3
aI5
aI11
aa(lp3808
I4
aI9
aI3
aI11
aI5
aI0
aa(lp3809
I0
aI6
aI8
aI9
aa(lp3810
I8
aI9
aa(lp3811
a(lp3812
I11
aa(lp3813
I1
aa(lp3814
I4
aa(lp3815
I3
aI5
aa(lp3816
I0
aI11
aI6
aI3
aI5
aI1
aI9
aa(lp3817
I8
aI0
aI9
aI6
aI4
aI3
aa(lp3818
I8
aI1
aa(lp3819
I1
aI2
aI4
aa(lp3820
I8
aa(lp3821
a(lp3822
I3
aI11
aI9
aI5
aI1
aI6
aI7
aI10
aa(lp3823
I5
aI11
aI3
aI2
aI1
aI4
aa(lp3824
I6
aI0
aI8
aa(lp3825
I11
aa(lp3826
a(lp3827
I6
aI5
aI9
aa(lp3828
I5
aI11
aI3
aI6
aI9
aI8
aI10
aa(lp3829
I5
aI3
aI11
aI8
aI6
aI0
aa(lp3830
I3
aI8
aI9
aa(lp3831
I5
aI1
aa(lp3832
I1
aa(lp3833
I8
aI1
aa(lp3834
I2
aI1
aI5
aI3
aI11
aI8
aI9
aa(lp3835
I8
aI11
aI6
aI3
aI9
aa(lp3836
a(lp3837
I0
aa(lp3838
I11
aI9
aI5
aI3
aI8
aa(lp3839
I4
aI9
aa(lp3840
I3
aI5
aI11
aI0
aI1
aI2
aI4
aI6
aI8
aI10
aa(lp3841
I9
aI8
aI6
aI1
aI0
aI2
aI11
aa(lp3842
I9
aI1
aI0
aa(lp3843
I1
aI8
aI0
aI3
aI6
aI9
aI11
aI10
aI4
aI2
aa(lp3844
a(lp3845
I3
aa(lp3846
I0
aI3
aI8
aI5
aI1
aI9
aI11
aI6
aI7
aI2
aa(lp3847
I10
aI9
aa(lp3848
I3
aI6
aI8
aI9
aa(lp3849
I11
aa(lp3850
I8
aI1
aI2
aI7
aI9
aI4
aI10
aI6
aI3
aI0
aa(lp3851
I3
aI5
aa(lp3852
I8
aI4
aa(lp3853
I11
aI3
aa(lp3854
I6
aa(lp3855
I8
aa(lp3856
I9
aI8
aI7
aI11
aI3
aI2
aI4
aI5
aa(lp3857
I11
aI5
aa(lp3858
I2
aI11
aa(lp3859
I2
aI8
aI0
aa(lp3860
I11
aa(lp3861
I1
aI8
aI5
aI4
aI9
aI11
aI3
aI0
aI6
aI7
aa(lp3862
I9
aa(lp3863
I5
aI3
aI9
aa(lp3864
a(lp3865
I4
aI7
aI2
aI1
aI9
aa(lp3866
I2
aI1
aa(lp3867
I11
aI5
aI3
aI9
aI1
aI6
aa(lp3868
I1
aa(lp3869
I5
aa(lp3870
a(lp3871
I6
aI9
aI0
aa(lp3872
I9
aa(lp3873
I3
aa(lp3874
I6
aI0
aa(lp3875
I9
aa(lp3876
I2
aa(lp3877
I1
aa(lp3878
I0
aI3
aI8
aI7
aI5
aI11
aI4
aI10
aI9
aI1
aa(lp3879
I9
aa(lp3880
I9
aI11
aI6
aI5
aI0
aI3
aa(lp3881
I8
aI1
aI9
aI6
aI4
aI7
aI10
aI0
aI3
aI5
aa(lp3882
I11
aa(lp3883
I3
aa(lp3884
I5
aI11
aI9
aa(lp3885
I8
aI3
aI9
aI5
aa(lp3886
I1
aI5
aI3
aI2
aI9
aI11
aI0
aI7
aI8
aI10
aa(lp3887
I3
aI11
aI5
aI9
aa(lp3888
I6
aa(lp3889
I1
aI2
aa(lp3890
I11
aa(lp3891
I8
aI9
aI1
aa(lp3892
a(lp3893
I11
aI5
aI3
aI8
aI1
aI9
aI2
aI0
aI7
aI4
aa(lp3894
I1
aI8
aI11
aI3
aI5
aI0
aI2
aI4
aI6
aI7
aa(lp3895
I1
aI9
aI8
aI0
aa(lp3896
I6
aI8
aI9
aa(lp3897
I5
aI9
aa(lp3898
I8
aa(lp3899
I1
aI11
aI5
aa(lp3900
I8
aa(lp3901
I8
aI9
aI3
aI1
aI7
aI6
aI11
aI2
aI4
aa(lp3902
I8
aI9
aI6
aI7
aI10
aI4
aI1
aI0
aI2
aI11
aa(lp3903
a(lp3904
I3
aI9
aI11
aI5
aI1
aa(lp3905
I3
aI11
aa(lp3906
I5
aI9
aI0
aI3
aI1
aI6
aI11
aa(lp3907
I5
aI3
aa(lp3908
I9
aa(lp3909
I5
aI11
aI3
aI6
aI1
aa(lp3910
I6
aI0
aI9
aa(lp3911
I3
aI2
aI11
aa(lp3912
I9
aI3
aI5
aI11
aI1
aa(lp3913
I9
aI0
aI4
aa(lp3914
I8
aI9
aI6
aI5
aI0
aI11
aI3
aI1
aI2
aI4
aa(lp3915
I1
aI7
aI0
aI2
aI6
aI9
aI10
aI11
aI3
aI4
aa(lp3916
a(lp3917
I1
aa(lp3918
I1
aI9
aI11
aI5
aI3
aI6
aI0
aI8
aI2
aI4
aa(lp3919
I4
aa(lp3920
a(lp3921
I6
aI0
aa(lp3922
I1
aa(lp3923
I9
aa(lp3924
I8
aI5
aa(lp3925
a(lp3926
I9
aa(lp3927
I8
aI11
aa(lp3928
I3
aI5
aI11
aa(lp3929
I11
aa(lp3930
I9
aI1
aI0
aI11
aa(lp3931
I3
aI0
aa(lp3932
I2
aa(lp3933
I11
aI5
aa(lp3934
I9
aI8
aI6
aI0
aI4
aI10
aI7
aI1
aI2
aI5
aa(lp3935
I2
aI1
aI9
aa(lp3936
I8
aa(lp3937
I6
aI11
aI9
aI3
aI5
aI10
aI7
aI8
aI4
aI1
aa(lp3938
I1
aa(lp3939
I9
aI6
aI1
aa(lp3940
I5
aI3
aa(lp3941
I11
aI0
aa(lp3942
I6
aa(lp3943
I3
aa(lp3944
I0
aI6
aI1
aI9
aI10
aI7
aI4
aI11
aI5
aI3
aa(lp3945
a(lp3946
I9
aI5
aI8
aI4
aI0
aI3
aI6
aI1
aI11
aI10
aa(lp3947
I3
aI5
aI9
aI11
aI10
aI6
aI0
aI2
aI4
aI7
aa(lp3948
I8
aI6
aI9
aI7
aI1
aI0
aI4
aI10
aI2
aI11
aa(lp3949
I1
aI8
aI9
aI4
aI3
aI5
aI7
aI6
aI11
aI10
aa(lp3950
I1
aI4
aa(lp3951
I11
aa(lp3952
I8
aI0
aI1
aI9
aI5
aI6
aI11
aI3
aI10
aa(lp3953
I3
aI9
aI11
aI8
aI5
aI4
aI1
aI7
aI10
aI2
aa(lp3954
I8
aI1
aI9
aa(lp3955
I6
aa(lp3956
I1
aa(lp3957
I11
aI5
aI3
aa(lp3958
a(lp3959
I5
aI9
aI1
aa(lp3960
I9
aI8
aI0
aI4
aI1
aI2
aI10
aI6
aI7
aI3
aa(lp3961
I11
aa(lp3962
a(lp3963
I6
aI0
aI9
aa(lp3964
I8
aI9
aI3
aI7
aI4
aa(lp3965
I6
aa(lp3966
I8
aI3
aI9
aI11
aI5
aa(lp3967
I5
aa(lp3968
I9
aI8
aI6
aI1
aI0
aI4
aI3
aI5
aI11
aI10
aa(lp3969
I8
aI6
aI7
aI9
aI10
aI11
aI0
aI1
aI2
aI3
aa(lp3970
I11
aa(lp3971
I9
aI3
aa(lp3972
I9
aa(lp3973
I5
aa(lp3974
I6
aa(lp3975
I6
aI0
aI8
aa(lp3976
I8
aI9
aI6
aa(lp3977
I6
aI0
aI8
aI9
aI11
aI5
aI1
aI3
aI7
aI4
aa(lp3978
I3
aI5
aa(lp3979
I0
aI6
aI9
aI10
aI8
aI4
aI3
aI5
aa(lp3980
I5
aI1
aI11
aa(lp3981
a(lp3982
I11
aI5
aa(lp3983
I9
aI8
aa(lp3984
a(lp3985
I8
aa(lp3986
I3
aI5
aI1
aI8
aI9
aa(lp3987
I1
aI8
aa(lp3988
I0
aI11
aa(lp3989
I3
aI8
aI1
aI5
aI11
aa(lp3990
I8
aa(lp3991
I8
aI3
aa(lp3992
I6
aI9
aa(lp3993
I3
aI5
aI11
aa(lp3994
I9
aI2
aa(lp3995
I3
aa(lp3996
I1
aI8
aI7
aa(lp3997
I11
aI5
aI3
aI9
aI10
aI7
aI1
aI8
aI6
aa(lp3998
I8
aI1
aI9
aa(lp3999
I1
aI2
aa(lp4000
I5
aa(lp4001
I5
aI3
aI11
aa(lp4002
I8
aI5
aI2
aI0
aa(lp4003
I11
aI3
aa(lp4004
I8
aa(lp4005
a(lp4006
I6
aI0
aI9
aI3
aI5
aa(lp4007
I8
aa(lp4008
I8
aa(lp4009
a(lp4010
I11
aa(lp4011
I8
aI1
aI9
aI2
aI7
aa(lp4012
I11
aa(lp4013
I5
aa(lp4014
I2
aI9
aI1
aa(lp4015
I2
aa(lp4016
I3
aI5
aI6
aa(lp4017
I6
aI0
aa(lp4018
I6
aa(lp4019
I5
aI11
aI9
aa(lp4020
I4
aI9
aI8
aI11
aI3
aI5
aI0
aI1
aI2
aI6
aa(lp4021
I5
aI11
aI6
aa(lp4022
I3
aI5
aI11
aI2
aa(lp4023
a(lp4024
I5
aI3
aI11
aa(lp4025
I3
aa(lp4026
I1
aI6
aI2
aa(lp4027
I5
aI11
aI8
aa(lp4028
a(lp4029
I3
aI9
aI5
aa(lp4030
I3
aI5
aI1
aI9
aI7
aI8
aI11
aI4
aI0
aI6
aa(lp4031
I9
aI8
aa(lp4032
I11
aa(lp4033
I6
aI9
aI8
aa(lp4034
I3
aa(lp4035
I1
aa(lp4036
I8
aa(lp4037
I3
aa(lp4038
I1
aI3
aI4
aI6
aI8
aa(lp4039
I5
aI9
aI6
aa(lp4040
I5
aa(lp4041
I1
aa(lp4042
I8
aa(lp4043
I11
aI3
aI5
aa(lp4044
I9
aI6
aI4
aI0
aa(lp4045
I1
aa(lp4046
I8
aI6
aa(lp4047
I9
aI3
aI8
aa(lp4048
I9
aI8
aa(lp4049
I8
aI9
aI1
aI6
aI0
aa(lp4050
I8
aa(lp4051
I11
aa(lp4052
I0
aI9
aa(lp4053
I1
aI8
aI11
aI5
aa(lp4054
I9
aa(lp4055
I6
aI1
aI8
aI9
aa(lp4056
a(lp4057
I9
aa(lp4058
I3
aI8
aa(lp4059
I3
aI9
aI0
aI5
aI11
aI10
aI8
aI7
aI6
aI4
aa(lp4060
I3
aa(lp4061
I1
aI9
aI8
aI6
aI0
aI7
aI4
aI10
aI5
aI3
aa(lp4062
I9
aI8
aI4
aI1
aI7
aa(lp4063
I9
aI8
aI6
aa(lp4064
a(lp4065
I5
aa(lp4066
a(lp4067
I11
aI9
aa(lp4068
I3
aa(lp4069
I1
aI8
aI6
aI0
aI2
aI7
aI9
aI10
aI11
aa(lp4070
I8
aI9
aa(lp4071
I3
aI11
aI8
aI5
aa(lp4072
I8
aI9
aI1
aa(lp4073
I8
aa(lp4074
I2
aI1
aI9
aa(lp4075
I1
aI5
aa(lp4076
I0
aI6
aa(lp4077
I9
aI2
aI1
aI0
aa(lp4078
a(lp4079
I11
aI3
aI5
aI2
aa(lp4080
I3
aa(lp4081
I10
aI1
aI8
aI4
aI2
aI7
aI3
aI0
aI9
aI6
aa(lp4082
I9
aa(lp4083
I2
aI8
aa(lp4084
I5
aa(lp4085
I11
aa(lp4086
I8
aa(lp4087
I8
aI1
aI9
aa(lp4088
I0
aa(lp4089
I9
aI1
aa(lp4090
I8
aI5
aI3
aa(lp4091
I1
aI8
aI9
aI0
aI3
aI4
aI5
aa(lp4092
I11
aI8
aI9
aI7
aI10
aI5
aI3
aI1
aa(lp4093
I8
aI4
aI9
aa(lp4094
I9
aI5
aI3
aI0
aI11
aI8
aa(lp4095
I3
aa(lp4096
I5
aa(lp4097
I5
aa(lp4098
a(lp4099
I6
aa(lp4100
I6
aI0
aa(lp4101
I9
aI8
aI11
aI6
aI4
aI0
aI1
aI3
aI7
aa(lp4102
I3
aa(lp4103
I8
aI9
aa(lp4104
I1
aI8
aI3
aI4
aI7
aI9
aI5
aI11
aI0
aI6
aa(lp4105
I11
aI6
aI9
aI3
aI2
aI1
aI7
aI10
aa(lp4106
I4
aa(lp4107
I9
aa(lp4108
I5
aa(lp4109
I9
aI3
aa(lp4110
I9
aI4
aa(lp4111
I2
aa(lp4112
I3
aI9
aI6
aa(lp4113
I9
aI11
aI1
aI8
aI5
aI6
aI4
aI2
aI0
aI7
aa(lp4114
I11
aa(lp4115
I3
aI5
aI6
aa(lp4116
a(lp4117
I11
aI9
aa(lp4118
I9
aa(lp4119
I3
aI5
aI11
aI1
aI9
aI8
aI0
aI6
aI7
aI10
aa(lp4120
I9
aa(lp4121
I10
aI11
aa(lp4122
I9
aI4
aI8
aI3
aI5
aI11
aI6
aI1
aI0
aI7
aa(lp4123
I8
aa(lp4124
I3
aa(lp4125
I8
aa(lp4126
I5
aI11
aI3
aI1
aI6
aI8
aI0
aI7
aI9
aI2
aa(lp4127
I3
aa(lp4128
I8
aI9
aI0
aI6
aa(lp4129
I3
aa(lp4130
I1
aa(lp4131
I11
aI3
aa(lp4132
I5
aI11
aI3
aI9
aI4
aI7
aI1
aI10
aI8
aI6
aa(lp4133
I11
aI5
aI3
aI0
aI9
aa(lp4134
I6
aa(lp4135
I11
aa(lp4136
I0
aa(lp4137
I3
aI5
aI11
aa(lp4138
I5
aI3
aI11
aa(lp4139
I3
aa(lp4140
I8
aa(lp4141
I3
aI5
aI11
aI0
aa(lp4142
a(lp4143
I5
aI8
aa(lp4144
I5
aI11
aa(lp4145
I9
aa(lp4146
I9
aI5
aI4
aI1
aI0
aI7
aI6
aI8
aa(lp4147
I0
aa(lp4148
I3
aa(lp4149
I9
aI8
aI6
aI0
aI3
aI1
aa(lp4150
I4
aI9
aI3
aI6
aa(lp4151
I3
aI11
aI5
aI6
aa(lp4152
I5
aa(lp4153
I8
aI1
aI3
aa(lp4154
I8
aa(lp4155
a(lp4156
I11
aI5
aI3
aa(lp4157
I1
aI9
aI8
aI6
aI4
aI2
aI0
aI10
aa(lp4158
I8
aI1
aI6
aI0
aI9
aI2
aI3
aI11
aI7
aI4
aa(lp4159
I5
aI1
aI3
aa(lp4160
I9
aa(lp4161
a(lp4162
I3
aI6
aa(lp4163
I9
aI1
aa(lp4164
I11
aI5
aa(lp4165
I1
aI3
aI2
aI0
aI4
aI8
aI9
aI10
aI5
aI11
aa(lp4166
I5
aa(lp4167
I8
aI4
aa(lp4168
I8
aa(lp4169
I11
aa(lp4170
I9
aI8
aI4
aa(lp4171
I6
aI8
aI9
aa(lp4172
I11
aI5
aI3
aI9
aa(lp4173
I11
aa(lp4174
I3
aI11
aI5
aa(lp4175
I1
aa(lp4176
I11
aa(lp4177
I8
aI11
aI6
aI9
aI5
aa(lp4178
I1
aa(lp4179
I1
aI3
aI5
aI8
aa(lp4180
a(lp4181
I1
aa(lp4182
I1
aI8
aa(lp4183
a(lp4184
I3
aa(lp4185
I9
aI3
aI4
aa(lp4186
I5
aI11
aa(lp4187
I3
aI5
aI11
aI8
aI0
aI1
aI2
aI4
aI7
aI9
aa(lp4188
I6
aI8
aa(lp4189
I11
aa(lp4190
I9
aa(lp4191
I3
aI5
aa(lp4192
I2
aI1
aI8
aI6
aI0
aI9
aI10
aa(lp4193
I3
aI5
aI11
aI2
aa(lp4194
I11
aI5
aa(lp4195
I5
aa(lp4196
a(lp4197
a(lp4198
I9
aI1
aI6
aI2
aI8
aI10
aI4
aa(lp4199
I6
aa(lp4200
a(lp4201
I9
aa(lp4202
I1
aa(lp4203
a(lp4204
I9
aI11
aI6
aI5
aI1
aI2
aI8
aI0
aI3
aI7
aa(lp4205
I8
aI9
aI5
aI4
aI11
aa(lp4206
I3
aa(lp4207
I6
aI9
aa(lp4208
I8
aa(lp4209
I11
aa(lp4210
I5
aI3
aI2
aI0
aa(lp4211
I1
aa(lp4212
I9
aa(lp4213
I8
aI9
aa(lp4214
I9
aI4
aI8
aI7
aI1
aI0
aI11
aI5
aa(lp4215
I11
aa(lp4216
a(lp4217
I6
aI0
aa(lp4218
I5
aI3
aI11
aI8
aa(lp4219
I3
aI11
aI5
aI6
aI8
aI9
aa(lp4220
I11
aa(lp4221
I9
aa(lp4222
I3
aa(lp4223
I1
aI3
aI2
aI5
aI7
aI6
aa(lp4224
I9
aa(lp4225
a(lp4226
I6
aI9
aI5
aa(lp4227
I9
aI4
aI8
aI2
aI1
aI6
aI5
aI10
aI7
aI11
aa(lp4228
I11
aa(lp4229
I11
aI5
aa(lp4230
I5
aI3
aI11
aa(lp4231
I1
aI8
aa(lp4232
I11
aa(lp4233
I9
aI6
aI11
aI10
aI4
aI0
aI7
aI5
aI3
aI1
aa(lp4234
I11
aI5
aa(lp4235
I9
aI11
aI5
aa(lp4236
I0
aa(lp4237
I8
aI9
aa(lp4238
I6
aa(lp4239
I5
aI8
aI9
aI11
aI3
aI2
aI1
aI7
aI6
aa(lp4240
I9
aI7
aI11
aa(lp4241
I9
aI1
aa(lp4242
I9
aa(lp4243
I1
aI9
aa(lp4244
a(lp4245
I5
aa(lp4246
I8
aI11
aI3
aI5
aa(lp4247
I11
aI5
aI3
aI6
aI9
aI8
aI0
aI1
aI7
aI10
aa(lp4248
I11
aI5
aI3
aa(lp4249
I9
aI5
aI11
aa(lp4250
I3
aI9
aI11
aa(lp4251
I3
aI11
aI5
aI2
aa(lp4252
I9
aa(lp4253
I8
aI9
aI1
aI3
aI2
aI4
aI0
aI7
aI10
aI11
aa(lp4254
I9
aI8
aI1
aI6
aI0
aa(lp4255
I9
aI4
aI6
aI0
aI8
aI7
aI1
aI3
aI2
aI5
aa(lp4256
I3
aI5
aa(lp4257
I9
aI8
aI3
aI5
aI11
aa(lp4258
I5
aI3
aI11
aa(lp4259
I9
aI6
aI3
aI4
aI8
aI1
aI0
aI7
aI2
aI5
aa(lp4260
I0
aI4
aI6
aa(lp4261
I1
aI4
aI11
aI8
aa(lp4262
I8
aI5
aI1
aa(lp4263
I11
aI5
aI9
aI6
aI7
aI2
aI1
aa(lp4264
I1
aI8
aI2
aa(lp4265
I9
aa(lp4266
I8
aa(lp4267
I8
aI6
aa(lp4268
I1
aI4
aI8
aI9
aI3
aI0
aa(lp4269
I1
aI11
aa(lp4270
I9
aa(lp4271
I9
aI8
aI6
aa(lp4272
I10
aI5
aI3
aI11
aI4
aI7
aa(lp4273
I3
aa(lp4274
I11
aa(lp4275
I3
aI1
aa(lp4276
I9
aI8
aI1
aa(lp4277
I2
aa(lp4278
I9
aI1
aI8
aa(lp4279
I9
aa(lp4280
I1
aI9
aI8
aa(lp4281
I9
aa(lp4282
I8
aa(lp4283
I8
aa(lp4284
I9
aI6
aI2
aa(lp4285
a(lp4286
I8
aI1
aa(lp4287
I8
aI4
aI5
aI1
aI7
aI9
aa(lp4288
I8
aa(lp4289
I3
aa(lp4290
I11
aI5
aa(lp4291
I3
aI1
aa(lp4292
I1
aI9
aI8
aI6
aI0
aI4
aI10
aI11
aa(lp4293
I3
aI11
aa(lp4294
I3
aa(lp4295
a(lp4296
I3
aI5
aI11
aa(lp4297
I3
aI8
aa(lp4298
I11
aI1
aI9
aI5
aI6
aI0
aI3
aI8
aI4
aI10
aa(lp4299
I8
aI1
aI2
aI5
aa(lp4300
I11
aa(lp4301
I9
aI4
aI8
aI6
aI1
aI5
aa(lp4302
I1
aI9
aI8
aI6
aa(lp4303
a(lp4304
I1
aa(lp4305
I3
aa(lp4306
I11
aI3
aI5
aI9
aa(lp4307
I2
aI3
aa(lp4308
I0
aI6
aa(lp4309
I9
aI6
aa(lp4310
I8
aa(lp4311
I8
aa(lp4312
I3
aa(lp4313
I5
aI11
aa(lp4314
I6
aI8
aI1
aa(lp4315
I2
aI1
aI4
aI9
aI10
aI5
aI3
aI11
aI0
aa(lp4316
I3
aa(lp4317
I8
aa(lp4318
I6
aI0
aa(lp4319
I3
aI11
aI5
aa(lp4320
a(lp4321
I8
aI1
aI9
aI11
aa(lp4322
I3
aI5
aa(lp4323
I8
aa(lp4324
I3
aa(lp4325
I11
aI3
aI1
aI9
aa(lp4326
a(lp4327
I5
aI3
aa(lp4328
I11
aI8
aa(lp4329
I0
aa(lp4330
I1
aa(lp4331
I11
aa(lp4332
I6
aI0
aa(lp4333
I5
aI8
aI9
aa(lp4334
a(lp4335
I1
aa(lp4336
I3
aa(lp4337
I6
aI0
aI11
aI3
aI9
aI10
aI7
aI4
aI2
aI1
aa(lp4338
I9
aI1
aI10
aI4
aI7
aI11
aI5
aI3
aI0
aI8
aa(lp4339
I4
aI1
aI9
aI8
aI2
aa(lp4340
I9
aI8
aI1
aa(lp4341
I1
aI4
aI7
aI6
aI9
aI10
aI0
aI8
aa(lp4342
I5
aa(lp4343
I9
aa(lp4344
I3
aI11
aI5
aa(lp4345
I1
aa(lp4346
a(lp4347
I9
aI6
aa(lp4348
I1
aI3
aI5
aI11
aI8
aI7
aI6
aI9
aI10
aI0
aa(lp4349
I11
aI5
aa(lp4350
I11
aI5
aI3
aI9
aI1
aI6
aa(lp4351
I8
aa(lp4352
I4
aI3
aa(lp4353
I8
aa(lp4354
I9
aI1
aI8
aI0
aI4
aI5
aI6
aI7
aI10
aI11
aa(lp4355
I6
aI0
aa(lp4356
I6
aI0
aa(lp4357
I8
aI6
aI3
aa(lp4358
I9
aI6
aI8
aa(lp4359
I1
aI5
aI8
aI9
aI2
aa(lp4360
I3
aI1
aI8
aI9
aI2
aI0
aa(lp4361
I11
aI5
aI9
aI8
aI3
aI0
aI6
aI7
aI10
aa(lp4362
I8
aI6
aI4
aI0
aI11
aI7
aI9
aI3
aI5
aI1
aa(lp4363
I5
aI6
aI8
aa(lp4364
I8
aa(lp4365
I3
aI5
aa(lp4366
I11
aI5
aI3
aI10
aa(lp4367
I8
aa(lp4368
I8
aI6
aI0
aI9
aI3
aa(lp4369
I6
aI9
aI8
aI10
aI5
aI1
aI11
aI7
aI4
aa(lp4370
I5
aa(lp4371
I1
aI11
aa(lp4372
I3
aI10
aI11
aI9
aI4
aa(lp4373
I2
aI11
aI3
aI5
aI8
aI9
aI1
aI7
aI0
aI6
aa(lp4374
I5
aI11
aI3
aa(lp4375
I9
aa(lp4376
I9
aa(lp4377
I1
aI2
aI4
aI10
aI7
aI6
aa(lp4378
I3
aI11
aI1
aI7
aI9
aI10
aa(lp4379
I3
aI1
aI9
aI5
aI11
aI6
aI10
aa(lp4380
I3
aI11
aI5
aI8
aI9
aI0
aI1
aI2
aI6
aa(lp4381
I6
aI8
aa(lp4382
I8
aa(lp4383
I11
aI6
aa(lp4384
a(lp4385
I5
aI2
aI9
aI3
aI11
aI8
aI4
aI1
aI0
aI10
aa(lp4386
I3
aI1
aI8
aa(lp4387
I5
aI3
aI11
aI1
aI9
aI8
aI7
aI4
aI6
aI0
aa(lp4388
I1
aa(lp4389
I5
aI3
aI8
aa(lp4390
I1
aI7
aI11
aI3
aI5
aI0
aa(lp4391
I1
aI9
aI0
aI4
aI6
aI5
aI3
aI2
aI10
aI11
aa(lp4392
I8
aI3
aa(lp4393
a(lp4394
I6
aa(lp4395
I5
aa(lp4396
I3
aa(lp4397
I1
aI8
aI9
aa(lp4398
I1
aI6
aa(lp4399
I1
aa(lp4400
I3
aI11
aI8
aI2
aI5
aa(lp4401
I3
aI5
aI11
aI9
aI6
aI7
aa(lp4402
I0
aa(lp4403
I5
aI1
aa(lp4404
I8
aI4
aI9
aI11
aI5
aI3
aI1
aa(lp4405
I9
aI6
aI1
aI8
aI0
aI5
aI11
aI4
aI2
aI3
aa(lp4406
I8
aI1
aa(lp4407
I11
aI6
aI3
aa(lp4408
I1
aa(lp4409
I5
aI11
aI3
aI6
aI0
aI9
aI8
aI2
aI1
aI10
aa(lp4410
a(lp4411
I1
aI9
aI4
aI5
aa(lp4412
I8
aI9
aa(lp4413
I9
aa(lp4414
I8
aI4
aI3
aa(lp4415
I4
aI7
aI8
aI0
aa(lp4416
I11
aI3
aa(lp4417
I9
aI8
aI4
aa(lp4418
I9
aI3
aI6
aI1
aI0
aa(lp4419
I6
aI9
aI4
aa(lp4420
I6
aI8
aa(lp4421
I5
aa(lp4422
I9
aI8
aa(lp4423
I8
aa(lp4424
I1
aa(lp4425
I1
aa(lp4426
I6
aI1
aa(lp4427
I4
aI5
aI6
aa(lp4428
I11
aa(lp4429
I9
aI8
aI1
aI6
aI0
aI4
aI10
aI7
aI11
aI5
aa(lp4430
I0
aI6
aI5
aI3
aI11
aI8
aI9
aI2
aI7
aI4
aa(lp4431
I11
aa(lp4432
I9
aI3
aI8
aa(lp4433
I5
aI11
aI3
aa(lp4434
I5
aI4
aI11
aI3
aI8
aI9
aI10
aI0
aI6
aI1
aa(lp4435
I11
aa(lp4436
I3
aa(lp4437
I5
aa(lp4438
I9
aI6
aa(lp4439
a(lp4440
I5
aI11
aI3
aI2
aa(lp4441
I0
aI6
aI11
aI3
aI5
aI7
aa(lp4442
I6
aa(lp4443
I3
aI9
aI8
aa(lp4444
a(lp4445
I8
aa(lp4446
a(lp4447
I9
aI6
aI1
aI8
aI7
aa(lp4448
a(lp4449
I6
aI0
aa(lp4450
I3
aI5
aI9
aI6
aI8
aI0
aI7
aI10
aI11
aI4
aa(lp4451
I9
aI11
aI5
aa(lp4452
I9
aI1
aa(lp4453
I9
aI8
aa(lp4454
I11
aa(lp4455
I1
aI9
aI3
aI5
aa(lp4456
I8
aa(lp4457
I8
aa(lp4458
I9
aI3
aI5
aa(lp4459
I6
aI0
aa(lp4460
I1
aI9
aI3
aI5
aI6
aI11
aI0
aI7
aI10
aI4
aa(lp4461
I6
aI9
aa(lp4462
I11
aI5
aa(lp4463
I5
aI0
aI1
aI2
aI3
aI4
aI6
aI7
aI8
aI9
aa(lp4464
I0
aI6
aI9
aa(lp4465
I6
aI0
aI4
aI7
aI10
aa(lp4466
I6
aI0
aI8
aI9
aI4
aa(lp4467
I4
aI1
aa(lp4468
I2
aI1
aI9
aI8
aa(lp4469
I9
aI4
aI7
aI8
aI10
aI2
aI6
aI3
aI0
aI1
aa(lp4470
I8
aI5
aI3
aI11
aa(lp4471
I11
aI1
aI8
aI5
aa(lp4472
a(lp4473
I6
aa(lp4474
I1
aI8
aI0
aa(lp4475
I9
aI8
aI5
aI3
aI0
aI11
aI4
aI6
aI7
aI2
aa(lp4476
I3
aI8
aI11
aa(lp4477
I3
aI6
aa(lp4478
I6
aI0
aI9
aI1
aI3
aI5
aI8
aI11
aI10
aI7
aa(lp4479
I3
aI5
aI11
aI1
aa(lp4480
a(lp4481
I2
aI8
aI1
aI9
aI5
aI0
aa(lp4482
I5
aI9
aa(lp4483
I6
aI0
aI5
aI3
aI8
aa(lp4484
I11
aI5
aI3
aI4
aI7
aI10
aI2
aI1
aI0
aa(lp4485
I1
aI9
aa(lp4486
I8
aa(lp4487
I2
aa(lp4488
I11
aa(lp4489
a(lp4490
a(lp4491
I1
aa(lp4492
I8
aI1
aI6
aI9
aa(lp4493
I11
aa(lp4494
I0
aI6
aa(lp4495
I8
aa(lp4496
I3
aI5
aI11
aa(lp4497
I8
aI1
aI6
aI0
aI4
aI2
aI9
aI10
aI5
aa(lp4498
I9
aa(lp4499
I1
aI11
aa(lp4500
I8
aI9
aa(lp4501
I6
aI8
aI9
aI5
aI4
aI0
aI11
aI3
aI7
aI10
aa(lp4502
I11
aa(lp4503
I8
aI9
aI1
aI5
aI11
aI6
aa(lp4504
I9
aI1
aI0
aa(lp4505
I6
aI0
aI1
aa(lp4506
I9
aa(lp4507
I5
aI9
aI1
aI0
aa(lp4508
I11
aa(lp4509
I1
aa(lp4510
I9
aI6
aI8
aI10
aI11
aI7
aI5
aI4
aI3
aI2
aa(lp4511
I4
aa(lp4512
I11
aI5
aI3
aI8
aI9
aI10
aI6
aI0
aI1
aa(lp4513
I2
aa(lp4514
I3
aI5
aa(lp4515
I4
aI6
aI9
aI11
aI3
aI5
aa(lp4516
I5
aa(lp4517
I3
aI11
aI9
aa(lp4518
I11
aI5
aI3
aI10
aI7
aa(lp4519
I0
aI8
aI3
aa(lp4520
I8
aa(lp4521
I3
aI11
aI5
aI1
aa(lp4522
I0
aa(lp4523
I2
aI1
aI8
aa(lp4524
I3
aa(lp4525
I8
aa(lp4526
I5
aa(lp4527
I8
aI9
aa(lp4528
I11
aa(lp4529
I3
aa(lp4530
I1
aI5
aI6
aI3
aI8
aI9
aI11
aI10
aI2
aI0
aa(lp4531
I8
aI9
aa(lp4532
I6
aI8
aI9
aI1
aa(lp4533
I9
aI11
aa(lp4534
I1
aa(lp4535
a(lp4536
I6
aI0
aI9
aI8
aI1
aI4
aI7
aI10
aa(lp4537
I6
aI8
aI9
aI0
aI3
aI10
aI5
aI1
aI7
aI11
aa(lp4538
I11
aa(lp4539
I6
aI1
aa(lp4540
I8
aI1
aI9
aa(lp4541
I2
aI6
aI0
aI8
aa(lp4542
I3
aI5
aa(lp4543
I11
aa(lp4544
I1
aI2
aI7
aI11
aa(lp4545
I0
aI6
aI11
aa(lp4546
I8
aa(lp4547
I5
aI11
aI3
aI10
aa(lp4548
I5
aI11
aI8
aa(lp4549
I2
aI1
aa(lp4550
I1
aa(lp4551
I10
aI5
aI4
aI11
aI9
aI6
aI3
aI0
aI8
aI1
aa(lp4552
I1
aa(lp4553
I9
aa(lp4554
I4
aI9
aa(lp4555
I1
aI6
aa(lp4556
I11
aa(lp4557
I8
aI5
aI11
aI3
aa(lp4558
I1
aI2
aa(lp4559
I4
aI2
aI9
aI8
aI11
aI3
aI5
aI1
aI0
aI6
aa(lp4560
I8
aI6
aI0
aI2
aa(lp4561
I11
aI3
aI5
aI10
aa(lp4562
a(lp4563
I1
aa(lp4564
I4
aI11
aa(lp4565
I5
aI11
aI3
aI4
aI7
aI9
aI0
aI6
aI10
aI1
aa(lp4566
I1
aa(lp4567
I8
aa(lp4568
I11
aa(lp4569
I1
aI8
aI0
aI6
aI2
aI9
aI7
aI4
aI10
aI11
aa(lp4570
I9
aI8
aI0
aa(lp4571
I9
aa(lp4572
I9
aI6
aI7
aI8
aI4
aI1
aI10
aI3
aI5
aI11
aa(lp4573
I1
aa(lp4574
I8
aa(lp4575
I11
aI3
aa(lp4576
I5
aI1
aI4
aI9
aI3
aI7
aI8
aI11
aI10
aI0
aa(lp4577
I3
aI11
aI5
aI6
aa(lp4578
I6
aI0
aa(lp4579
I9
aI8
aI1
aI6
aI0
aa(lp4580
I3
aI6
aI8
aI5
aI11
aa(lp4581
I5
aI6
aI9
aI0
aI3
aI11
aI8
aI10
aa(lp4582
I5
aI3
aI11
aa(lp4583
I1
aI8
aI9
aa(lp4584
I3
aI5
aa(lp4585
I6
aI8
aI9
aI4
aa(lp4586
I0
aI8
aI9
aI1
aI4
aI6
aa(lp4587
I11
aa(lp4588
I7
aI8
aI5
aa(lp4589
I11
aa(lp4590
I8
aI1
aI9
aI10
aI3
aI4
aI2
aI6
aI7
aI0
aa(lp4591
I11
aI5
aa(lp4592
I1
aa(lp4593
I8
aa(lp4594
I9
aI1
aI4
aI7
aI10
aI8
aI11
aI5
aI6
aI2
aa(lp4595
I8
aa(lp4596
I3
aI5
aI11
aI0
aI6
aI8
aI7
aI4
aI9
aI10
aa(lp4597
I5
aa(lp4598
I8
aI3
aI5
aI10
aI9
aI7
aI6
aI4
aI2
aI1
aa(lp4599
I9
aa(lp4600
I9
aI6
aI0
aI4
aa(lp4601
I8
aI6
aI0
aI9
aI1
aI5
aa(lp4602
I11
aI3
aI5
aa(lp4603
I2
aI11
aa(lp4604
I8
aI9
aI1
aa(lp4605
I3
aI8
aa(lp4606
I8
aI5
aI3
aI1
aI11
aI9
aI4
aI7
aI10
aI2
aa(lp4607
I8
aa(lp4608
I2
aa(lp4609
I3
aI5
aI11
aa(lp4610
I11
aI5
aI3
aI1
aI6
aI0
aI9
aI7
aI4
aI2
aa(lp4611
I3
aI11
aI8
aI9
aI5
aa(lp4612
I3
aI11
aI7
aa(lp4613
I3
aI9
aa(lp4614
I5
aa(lp4615
I5
aa(lp4616
I3
aI9
aI5
aa(lp4617
I9
aI0
aI6
aI3
aI8
aa(lp4618
I3
aI5
aI8
aI11
aI9
aI4
aa(lp4619
I5
aI9
aI8
aa(lp4620
I0
aI3
aI6
aI8
aa(lp4621
I8
aI9
aI0
aa(lp4622
a(lp4623
I8
aI1
aI3
aI6
aI4
aI2
aa(lp4624
I3
aa(lp4625
I5
aa(lp4626
I1
aI9
aI3
aa(lp4627
I3
aa(lp4628
I2
aI1
aa(lp4629
I8
aI9
aI1
aI2
aI4
aI7
aa(lp4630
I3
aI5
aI11
aa(lp4631
I9
aa(lp4632
I9
aI8
aI6
aa(lp4633
I11
aa(lp4634
I8
aI9
aI6
aI1
aI5
aa(lp4635
I9
aI1
aI8
aI6
aI7
aa(lp4636
I8
aI3
aa(lp4637
I10
aI11
aa(lp4638
I11
aI5
aa(lp4639
I3
aI9
aI5
aa(lp4640
I6
aI8
aa(lp4641
I1
aI9
aI11
aI3
aI5
aI4
aI7
aa(lp4642
a(lp4643
I2
aI9
aa(lp4644
I6
aI11
aI9
aa(lp4645
I9
aa(lp4646
I6
aI0
aa(lp4647
I3
aI5
aI11
aa(lp4648
I8
aI6
aI9
aI0
aa(lp4649
a(lp4650
I5
aI3
aI1
aa(lp4651
I1
aa(lp4652
I1
aI3
aI11
aI5
aa(lp4653
I9
aI1
aa(lp4654
I11
aI3
aI0
aa(lp4655
I0
aI11
aI6
aa(lp4656
I5
aa(lp4657
I6
aI9
aI0
aI11
aI4
aI8
aI5
aa(lp4658
I9
aI1
aI8
aI0
aI2
aI3
aI4
aI5
aI6
aa(lp4659
I8
aI5
aa(lp4660
I11
aI8
aI9
aI3
aa(lp4661
I1
aa(lp4662
I11
aI5
aI3
aa(lp4663
I3
aa(lp4664
I0
aI3
aI6
aa(lp4665
I5
aa(lp4666
I9
aI6
aI3
aa(lp4667
I8
aI9
aI2
aI1
aI4
aa(lp4668
I11
aI5
aa(lp4669
I2
aI1
aa(lp4670
I1
aI6
aI9
aI8
aI0
aI4
aI7
aI10
aI2
aI3
aa(lp4671
a(lp4672
I11
aa(lp4673
I9
aI8
aI1
aI6
aI4
aI0
aI7
aI3
aI5
aI11
aa(lp4674
I8
aI5
aI11
aI9
aI2
aI7
aI3
aI1
aI0
aI6
aa(lp4675
I8
aI9
aa(lp4676
I1
aI9
aa(lp4677
I8
aI6
aI9
aa(lp4678
I1
aI8
aI11
aI6
aa(lp4679
I11
aI9
aI3
aI5
aI1
aI2
aI6
aI8
aI0
aI4
aa(lp4680
I8
aI1
aI5
aa(lp4681
I6
aI11
aI9
aI5
aI2
aI1
aI0
aI4
aI3
aI7
aa(lp4682
I5
aI1
aa(lp4683
I11
aI8
aI9
aI3
aI5
aI6
aI1
aI0
aI7
aI10
aa(lp4684
I3
aa(lp4685
I3
aa(lp4686
I6
aI0
aI8
aa(lp4687
I9
aI1
aa(lp4688
I3
aa(lp4689
I2
aI11
aI3
aa(lp4690
I0
aI5
aa(lp4691
I11
aI5
aI3
aa(lp4692
I11
aa(lp4693
I1
aa(lp4694
I11
aI9
aI3
aI5
aa(lp4695
I9
aI3
aI5
aI11
aI4
aI7
aI8
aI0
aI6
aI1
aa(lp4696
I5
aI3
aI11
aI6
aI0
aa(lp4697
I11
aI5
aI3
aI1
aa(lp4698
I9
aI8
aI3
aI1
aa(lp4699
I11
aI5
aa(lp4700
I9
aI6
aI0
aa(lp4701
I9
aI1
aI2
aI4
aa(lp4702
I6
aI0
aa(lp4703
I1
aI4
aI9
aI10
aI11
aa(lp4704
I11
aa(lp4705
I2
aI1
aa(lp4706
I1
aI4
aI5
aa(lp4707
a(lp4708
I11
aI5
aa(lp4709
I11
aa(lp4710
I8
aI2
aI4
aa(lp4711
I11
aa(lp4712
I11
aI5
aI3
aI2
aa(lp4713
I8
aI1
aa(lp4714
I3
aa(lp4715
I9
aI8
aI6
aI0
aI5
aI3
aI11
aI2
aI1
aI7
aa(lp4716
I5
aI11
aa(lp4717
I3
aa(lp4718
I3
aa(lp4719
I8
aa(lp4720
I9
aI1
aI4
aI10
aI8
aI7
aI5
aI2
aa(lp4721
I6
aI11
aI0
aI1
aI10
aI9
aI7
aI5
aI4
aa(lp4722
I3
aI6
aa(lp4723
I11
aI8
aI5
aa(lp4724
I5
aI6
aI3
aI8
aI9
aI1
aa(lp4725
I3
aa(lp4726
I1
aI5
aa(lp4727
I5
aI11
aa(lp4728
I11
aI1
aI9
aI8
aI3
aI0
aI6
aI5
aI7
aI10
aa(lp4729
I1
aI5
aI3
aI11
aa(lp4730
I6
aI8
aI9
aI5
aI0
aI2
aI3
aI4
aI7
aI1
aa(lp4731
I6
aI8
aa(lp4732
I3
aa(lp4733
I6
aI8
aI1
aa(lp4734
I11
aI3
aI9
aa(lp4735
I1
aI8
aI9
aa(lp4736
I6
aa(lp4737
I11
aI5
aI3
aI6
aI9
aI8
aI7
aI1
aI2
aI10
aa(lp4738
I11
aa(lp4739
a(lp4740
a(lp4741
I5
aI9
aa(lp4742
I3
aa(lp4743
I8
aI0
aI3
aI5
aI11
aI1
aI4
aI6
aI7
aa(lp4744
I3
aa(lp4745
I11
aa(lp4746
I8
aI3
aa(lp4747
I5
aI11
aI8
aI3
aa(lp4748
I1
aI4
aI6
aa(lp4749
I3
aa(lp4750
I8
aa(lp4751
I9
aI5
aI6
aI11
aa(lp4752
a(lp4753
I5
aa(lp4754
I9
aI11
aI10
aI8
aI5
aI4
aI3
aI1
aI2
aI6
aa(lp4755
I1
aI9
aI8
aI5
aI11
aI3
aa(lp4756
a(lp4757
I2
aI1
aI9
aI5
aI8
aI11
aI4
aI3
aa(lp4758
I9
aI3
aa(lp4759
I8
aa(lp4760
I8
aI6
aI9
aI1
aI0
aI5
aI3
aI7
aI11
aI4
aa(lp4761
I6
aI9
aI4
aI0
aa(lp4762
I5
aI9
aI6
aI1
aI7
aI3
aI11
aI0
aI8
aI2
aa(lp4763
I8
aa(lp4764
I3
aa(lp4765
I3
aa(lp4766
I9
aI8
aI2
aa(lp4767
I3
aI5
aa(lp4768
I4
aI1
aa(lp4769
I0
aI6
aI3
aI8
aa(lp4770
I11
aa(lp4771
I2
aI3
aa(lp4772
I8
aI9
aI0
aI11
aI5
aI3
aI10
aI7
aI6
aI1
aa(lp4773
I3
aa(lp4774
I8
aI9
aI6
aI3
aa(lp4775
I9
aI6
aI8
aa(lp4776
I6
aI8
aI9
aI1
aI0
aI4
aa(lp4777
I9
aa(lp4778
I5
aa(lp4779
I11
aI9
aa(lp4780
I8
aI9
aa(lp4781
I8
aI9
aI1
aI2
aI10
aa(lp4782
a(lp4783
I9
aI0
aI8
aa(lp4784
I8
aa(lp4785
I5
aa(lp4786
I8
aa(lp4787
I9
aI1
aa(lp4788
I5
aI11
aI3
aI8
aI9
aI0
aI6
aa(lp4789
I3
aI8
aa(lp4790
I3
aI5
aI11
aI9
aI4
aI6
aI7
aI8
aI10
aI0
aa(lp4791
a(lp4792
I3
aI5
aI11
aI1
aI7
aI0
aI2
aI4
aI9
aI8
aa(lp4793
I1
aI9
aI8
aa(lp4794
I6
aI9
aI0
aI1
aI3
aI11
aa(lp4795
I6
aI11
aI1
aa(lp4796
I3
aa(lp4797
I6
aI11
aI8
aa(lp4798
I9
aI4
aa(lp4799
I6
aI8
aI9
aa(lp4800
I3
aI5
aa(lp4801
I11
aa(lp4802
I6
aI9
aI11
aI5
aa(lp4803
I11
aa(lp4804
I8
aI2
aI9
aI1
aI11
aI6
aI4
aI5
aI0
aI3
aa(lp4805
I8
aI0
aa(lp4806
I11
aa(lp4807
I3
aI11
aI9
aI4
aI6
aa(lp4808
I1
aa(lp4809
a(lp4810
I11
aa(lp4811
I11
aa(lp4812
I9
aI8
aI0
aI5
aI1
aI3
aI10
aI11
aI7
aI6
aa(lp4813
I1
aI9
aI4
aa(lp4814
I8
aI1
aI9
aI6
aI5
aa(lp4815
I9
aa(lp4816
I8
aa(lp4817
I11
aa(lp4818
I8
aa(lp4819
I5
aa(lp4820
I1
aI8
aI0
aI6
aI4
aI7
aI10
aI3
aI9
aa(lp4821
I1
aI5
aI9
aI8
aI11
aI3
aI4
aI10
aI7
aI6
aa(lp4822
I1
aI3
aa(lp4823
I6
aI9
aI2
aa(lp4824
I3
aa(lp4825
I9
aI8
aI3
aI5
aI11
aI0
aI6
aI1
aI2
aI10
aa(lp4826
I8
aI2
aa(lp4827
I8
aI2
aI11
aa(lp4828
I3
aI0
aa(lp4829
I2
aI5
aI11
aa(lp4830
I6
aI0
aI9
aI7
aa(lp4831
I8
aI1
aI2
aI5
aI6
aI9
aI0
aI3
aI11
aI4
aa(lp4832
I1
aI8
aI9
aI2
aa(lp4833
I2
aI1
aa(lp4834
I8
aI1
aI9
aI11
aI6
aI3
aI7
aI4
aI10
aI0
aa(lp4835
a(lp4836
I1
aa(lp4837
I5
aI3
aI11
aa(lp4838
I9
aa(lp4839
I3
aI11
aa(lp4840
I3
aa(lp4841
I3
aI5
aI9
aI11
aa(lp4842
I11
aI3
aI8
aI9
aI0
aI2
aI1
aI4
aa(lp4843
I5
aa(lp4844
I8
aI1
aI9
aa(lp4845
I6
aI0
aI9
aI8
aI1
aI2
aI4
aa(lp4846
I11
aa(lp4847
I9
aI8
aI11
aa(lp4848
I5
aa(lp4849
I9
aI2
aa(lp4850
I6
aI9
aa(lp4851
I5
aI11
aI8
aI9
aI6
aI4
aa(lp4852
I9
aI1
aI4
aI10
aa(lp4853
I9
aI11
aI1
aa(lp4854
I2
aI9
aa(lp4855
I11
aI3
aI6
aI5
aa(lp4856
I11
aa(lp4857
I2
aI8
aa(lp4858
I9
aI8
aa(lp4859
I5
aI3
aa(lp4860
I6
aI9
aI3
aI5
aI11
aI4
aa(lp4861
I8
aI1
aa(lp4862
I3
aI5
aI11
aa(lp4863
I9
aa(lp4864
I11
aI5
aa(lp4865
I6
aa(lp4866
a(lp4867
I3
aa(lp4868
I11
aI5
aI3
aa(lp4869
I5
aa(lp4870
I1
aa(lp4871
I9
aI5
aI3
aI11
aI8
aI7
aI6
aI0
aI2
aI1
aa(lp4872
I1
aI0
aI9
aI6
aI2
aI8
aI10
aI4
aI7
aI5
aa(lp4873
I8
aI9
aI6
aa(lp4874
I5
aI11
aI3
aa(lp4875
I3
aI11
aI5
aI6
aI8
aI9
aa(lp4876
I3
aa(lp4877
I1
aI9
aI2
aI6
aI8
aI10
aI4
aI7
aI0
aI11
aa(lp4878
I11
aI5
aI8
aa(lp4879
I1
aa(lp4880
I1
aa(lp4881
I9
aI0
aI5
aI6
aI7
aI8
aI11
aI4
aI2
aI1
aa(lp4882
I5
aa(lp4883
I5
aa(lp4884
I3
aa(lp4885
I8
aI9
aa(lp4886
I9
aa(lp4887
I1
aI9
aI8
aI3
aI2
aI10
aI6
aI4
aI0
aI7
aa(lp4888
I9
aI6
aI1
aa(lp4889
I5
aI3
aI1
aa(lp4890
I11
aa(lp4891
I3
aI2
aI1
aa(lp4892
I5
aI9
aI1
aI8
aa(lp4893
I4
aa(lp4894
I8
aI5
aI1
aa(lp4895
I1
aI9
aI8
aI6
aI0
aI5
aI11
aI3
aI4
aI10
aa(lp4896
I8
aI9
aI1
aI6
aI10
aa(lp4897
a(lp4898
I5
aI3
aI11
aI2
aI9
aI10
aI7
aI6
aI4
aI1
aa(lp4899
I9
aI1
aa(lp4900
I5
aI11
aI3
aa(lp4901
I9
aI1
aI8
aa(lp4902
I9
aI3
aa(lp4903
I11
aa(lp4904
I4
aI5
aI9
aI3
aI1
aI10
aI11
aI8
aI0
aa(lp4905
I11
aI9
aa(lp4906
I9
aa(lp4907
I11
aI3
aI5
aI2
aI1
aI9
aI8
aI7
aI4
aI10
aa(lp4908
I1
aI6
aI10
aI11
aa(lp4909
I3
aI5
aI11
aI1
aI8
aa(lp4910
I5
aa(lp4911
I3
aa(lp4912
I2
aa(lp4913
I1
aI2
aI9
aI10
aI7
aI4
aI5
aI8
aI11
aI3
aa(lp4914
I8
aa(lp4915
I9
aI8
aI5
aa(lp4916
I8
aI9
aa(lp4917
I4
aI1
aI9
aI11
aI3
aI8
aI10
aI7
aa(lp4918
I5
aa(lp4919
I8
aI9
aI1
aa(lp4920
I9
aI5
aI11
aa(lp4921
I11
aa(lp4922
I10
aa(lp4923
I11
aa(lp4924
a(lp4925
I1
aI8
aa(lp4926
I3
aI1
aI5
aa(lp4927
I1
aI8
aI9
aI7
aI4
aI2
aI10
aa(lp4928
I0
aI1
aI9
aI7
aI8
aI4
aI2
aI10
aI6
aI3
aa(lp4929
I8
aI6
aI11
aI7
aI10
aI4
aI2
aI0
aI3
aI5
aa(lp4930
I8
aa(lp4931
I9
aI11
aa(lp4932
I11
aa(lp4933
I1
aI7
aI9
aa(lp4934
I3
aa(lp4935
I3
aI9
aI8
aI0
aI1
aI11
aI6
aa(lp4936
I6
aI0
aI9
aI8
aI7
aI4
aI1
aI10
aI5
aa(lp4937
I5
aa(lp4938
I11
aa(lp4939
I9
aa(lp4940
I5
aI11
aI3
aa(lp4941
I8
aa(lp4942
I11
aI3
aI5
aI2
aa(lp4943
a(lp4944
I11
aI5
aI3
aa(lp4945
I11
aI5
aI3
aI9
aI8
aI6
aI0
aI4
aI1
aI2
aa(lp4946
I8
aa(lp4947
I6
aI8
aI9
aI11
aI3
aI5
aI0
aI1
aI10
aI7
aa(lp4948
I6
aI0
aI7
aI10
aI9
aI8
aI4
aI2
aI5
aI11
aa(lp4949
I6
aI0
aI9
aI1
aI8
aI7
aI10
aI3
aI5
aI11
aa(lp4950
I9
aI6
aI1
aa(lp4951
I1
aI11
aI5
aa(lp4952
I3
aI11
aa(lp4953
I9
aI0
aI1
aI8
aa(lp4954
I5
aI3
aI8
aI11
aI9
aa(lp4955
I9
aI8
aI6
aI5
aI3
aI0
aI1
aI4
aI7
aI10
aa(lp4956
I1
aa(lp4957
I5
aI3
aI2
aI1
aI9
aI10
aI11
aI0
aI4
aI6
aa(lp4958
I5
aa(lp4959
I8
aI6
aI1
aI9
aI11
aI5
aI7
aI10
aI4
aI3
aa(lp4960
I5
aI6
aI11
aI9
aI1
aI3
aa(lp4961
I0
aI6
aI5
aI3
aI11
aI9
aI4
aa(lp4962
I1
aI2
aI3
aI5
aI8
aI9
aa(lp4963
I1
aI9
aa(lp4964
I5
aI11
aI3
aI8
aa(lp4965
I8
aI9
aI6
aI0
aI4
aa(lp4966
I8
aI3
aI4
aI9
aI5
aI11
aI1
aa(lp4967
I8
aa(lp4968
I4
aa(lp4969
I11
aa(lp4970
I2
aI11
aI5
aa(lp4971
I3
aa(lp4972
I8
aI11
aa(lp4973
I1
aI8
aI3
aa(lp4974
I2
aa(lp4975
I5
aI11
aI3
aI9
aa(lp4976
I6
aI8
aI0
aI9
aI1
aI7
aa(lp4977
I9
aI11
aa(lp4978
I8
aI3
aI9
aI7
aI11
aI5
aI2
aI4
aI1
aI0
aa(lp4979
I5
aa(lp4980
I6
aa(lp4981
I3
aa(lp4982
I2
aa(lp4983
I5
aa(lp4984
I5
aI11
aa(lp4985
I9
aI8
aI6
aI1
aI0
aI4
aI7
aI10
aI2
aI3
aa(lp4986
I5
aI2
aa(lp4987
I2
aa(lp4988
I8
aI9
aI6
aI0
aI1
aa(lp4989
I11
aI1
aa(lp4990
I4
aI9
aI6
aI8
aI2
aa(lp4991
I5
aa(lp4992
I9
aI8
aa(lp4993
I0
aI11
aI3
aI5
aI9
aI8
aI2
aI7
aI10
aI4
aa(lp4994
I9
aa(lp4995
I9
aI0
aI6
aI5
aI8
aI11
aI3
aI1
aI7
aa(lp4996
a(lp4997
I9
aa(lp4998
I11
aI5
aa(lp4999
I9
aI8
aI11
aI1
aI5
aI3
aI6
aI0
aI10
aI7
aa(lp5000
I1
aI9
aI8
aa(lp5001
I9
aI2
aI1
aI8
aI7
aI3
aI10
aI11
aI5
aI6
aa(lp5002
I9
aa(lp5003
I11
aI3
aI5
aa(lp5004
I9
aI8
aa(lp5005
I8
aI11
aI0
aI6
aI3
aI5
aI10
aI1
aI4
aa(lp5006
I6
aI9
aI3
aI4
aa(lp5007
I9
aa(lp5008
I9
aI8
aI1
aI7
aa(lp5009
I9
aI1
aI2
aa(lp5010
I1
aa(lp5011
I9
aI8
aI4
aI6
aa(lp5012
I9
aa(lp5013
I8
aI9
aa(lp5014
I5
aI3
aI11
aa(lp5015
I4
aa(lp5016
I11
aa(lp5017
I11
aa(lp5018
I8
aI9
aI11
aI5
aI3
aI10
aI7
aI6
aI4
aI2
aa(lp5019
I3
aa(lp5020
I9
aI8
aI10
aI6
aa(lp5021
I11
aa(lp5022
I5
aI8
aa(lp5023
a(lp5024
I3
aI8
aa(lp5025
I1
aa(lp5026
I8
aI11
aI4
aI9
aI5
aI6
aI3
aI0
aI1
aI2
aa(lp5027
I9
aI1
aa(lp5028
I1
aa(lp5029
I6
aI0
aa(lp5030
a(lp5031
I6
aI9
aa(lp5032
I3
aa(lp5033
I9
aI10
aI7
aI8
aa(lp5034
I5
aI11
aI3
aI8
aa(lp5035
I9
aI8
aI6
aa(lp5036
I5
aI8
aI3
aI9
aI11
aa(lp5037
I11
aI6
aI3
aI8
aI9
aI0
aa(lp5038
I10
aI5
aI3
aI9
aa(lp5039
I9
aa(lp5040
I5
aa(lp5041
a(lp5042
I8
aI1
aI9
aa(lp5043
I8
aI0
aa(lp5044
I9
aI6
aa(lp5045
I3
aI9
aI6
aI5
aI11
aI8
aa(lp5046
I8
aI1
aI9
aI7
aI4
aI2
aI10
aI0
aI3
aa(lp5047
I8
aI5
aI9
aI6
aI11
aI3
aa(lp5048
I3
aa(lp5049
I8
aa(lp5050
I1
aI11
aI5
aI3
aI9
aI10
aI8
aI2
aI4
aI7
aa(lp5051
I8
aI0
aI9
aI3
aI6
aI1
aa(lp5052
I8
aa(lp5053
a(lp5054
a(lp5055
a(lp5056
I3
aI5
aa(lp5057
I3
aa(lp5058
I3
aa(lp5059
I6
aI0
aI9
aa(lp5060
I6
aI9
aI8
aI1
aa(lp5061
I8
aa(lp5062
I1
aa(lp5063
I3
aa(lp5064
I9
aI6
aI11
aI5
aI3
aI0
aI1
aI8
aa(lp5065
I5
aI8
aI9
aI1
aI0
aa(lp5066
I5
aI11
aI3
aI9
aI1
aI4
aI2
aI7
aI8
aI0
aa(lp5067
I5
aI3
aI11
aI8
aI0
aI4
aI1
aI7
aa(lp5068
I9
aa(lp5069
I1
aa(lp5070
I9
aI6
aI8
aa(lp5071
I11
aa(lp5072
I3
aa(lp5073
I9
aa(lp5074
I3
aI5
aa(lp5075
I8
aI6
aI0
aI3
aa(lp5076
I8
aI6
aI9
aI4
aa(lp5077
I5
aI3
aI11
aI9
aI4
aa(lp5078
I11
aa(lp5079
I3
aI6
aI9
aa(lp5080
a(lp5081
I8
aI1
aI4
aI9
aI2
aI0
aI3
aI5
aI6
aI7
aa(lp5082
I3
aI11
aI1
aI5
aI4
aa(lp5083
I0
aI6
aI8
aa(lp5084
I9
aI8
aI1
aI0
aa(lp5085
I3
aI9
aI1
aI8
aI11
aI7
aI5
aI10
aI6
aI0
aa(lp5086
I9
aI11
aI3
aa(lp5087
I2
aa(lp5088
I9
aI5
aI6
aI1
aI10
aI0
aI4
aI2
aI8
aI3
aa(lp5089
I11
aa(lp5090
I8
aI1
aI6
aa(lp5091
I1
aI8
aI9
aa(lp5092
I3
aI8
aI11
aa(lp5093
I9
aI1
aI6
aa(lp5094
I9
aa(lp5095
I3
aI8
aI9
aI0
aI11
aI7
aI5
aI4
aI10
aI6
aa(lp5096
I6
aI9
aI3
aI5
aa(lp5097
I2
aI4
aI9
aa(lp5098
I3
aI1
aa(lp5099
I5
aa(lp5100
I9
aa(lp5101
I5
aa(lp5102
I6
aI3
aa(lp5103
I5
aa(lp5104
I5
aI11
aI3
aI0
aI6
aa(lp5105
I8
aa(lp5106
I3
aI5
aa(lp5107
I1
aI2
aa(lp5108
I8
aI6
aa(lp5109
a(lp5110
I6
aa(lp5111
I9
aI1
aI11
aI8
aI5
aa(lp5112
I6
aI5
aa(lp5113
I6
aI0
aI8
aI4
aa(lp5114
I8
aI1
aa(lp5115
I3
aI11
aI5
aa(lp5116
I8
aa(lp5117
I3
aa(lp5118
I9
aa(lp5119
I11
aI5
aI3
aa(lp5120
I9
aI1
aI3
aI8
aa(lp5121
a(lp5122
I11
aa(lp5123
I5
aa(lp5124
I1
aI9
aI8
aa(lp5125
I5
aa(lp5126
I1
aI9
aI8
aI7
aI0
aI2
aI4
aI5
aI6
aI11
aa(lp5127
I9
aI8
aI0
aI6
aI4
aI1
aI7
aI3
aI11
aI5
aa(lp5128
I0
aI8
aI9
aa(lp5129
I8
aa(lp5130
I8
aa(lp5131
a(lp5132
I11
aa(lp5133
I3
aa(lp5134
I5
aa(lp5135
I3
aI5
aa(lp5136
I1
aa(lp5137
I9
aI8
aI11
aa(lp5138
I5
aa(lp5139
I3
aa(lp5140
I1
aa(lp5141
I1
aI2
aI9
aI5
aa(lp5142
I5
aI11
aI3
aa(lp5143
I3
aa(lp5144
a(lp5145
I8
aa(lp5146
I5
aa(lp5147
I3
aa(lp5148
I8
aI9
aI1
aI6
aI0
aI2
aI4
aI7
aI3
aI5
aa(lp5149
I8
aa(lp5150
I5
aa(lp5151
I0
aa(lp5152
I3
aa(lp5153
I2
aI8
aa(lp5154
I9
aI8
aI0
aa(lp5155
I6
aI0
aI8
aa(lp5156
I5
aa(lp5157
I9
aI8
aI1
aa(lp5158
I11
aI3
aI9
aI5
aI8
aI0
aa(lp5159
a(lp5160
I1
aa(lp5161
I8
aI11
aI9
aI7
aa(lp5162
I6
aI3
aa(lp5163
I1
aI8
aI9
aI11
aa(lp5164
I11
aI3
aa(lp5165
I6
aI8
aI9
aa(lp5166
I3
aa(lp5167
I6
aa(lp5168
I8
aI5
aI6
aI9
aI0
aa(lp5169
I1
aI9
aa(lp5170
I1
aI5
aa(lp5171
I3
aI5
aI11
aI8
aI0
aa(lp5172
I3
aa(lp5173
a(lp5174
I1
aI2
aa(lp5175
I8
aI1
aI4
aI9
aI10
aI0
aI3
aI5
aI6
aI11
aa(lp5176
I8
aI5
aI9
aa(lp5177
I1
aa(lp5178
I1
aI8
aa(lp5179
I9
aI2
aI4
aI3
aI7
aI0
aI5
aI1
aI6
aI8
aa(lp5180
I9
aI8
aI6
aI3
aa(lp5181
I3
aa(lp5182
a(lp5183
I3
aI11
aa(lp5184
I1
aI9
aI8
aI4
aI2
aI6
aa(lp5185
I6
aI9
aI8
aa(lp5186
I3
aa(lp5187
I3
aa(lp5188
I8
aI9
aa(lp5189
I11
aa(lp5190
I3
aa(lp5191
I6
aI0
aI8
aI3
aI5
aI11
aI10
aI9
aI7
aI4
aa(lp5192
I3
aI5
aI11
aI9
aa(lp5193
I5
aI11
aa(lp5194
I6
aI0
aa(lp5195
I1
aI9
aI8
aa(lp5196
I1
aa(lp5197
I7
aI0
aI6
aI9
aI10
aI2
aI8
aa(lp5198
I5
aa(lp5199
I8
aI4
aa(lp5200
I1
aI9
aa(lp5201
I9
aI1
aa(lp5202
I9
aI8
aI4
aa(lp5203
I9
aa(lp5204
a(lp5205
I3
aI8
aI9
aI1
aI5
aI2
aI7
aI11
aI10
aa(lp5206
I8
aa(lp5207
I6
aI9
aa(lp5208
I1
aI5
aI8
aI9
aa(lp5209
I8
aI6
aI9
aa(lp5210
a(lp5211
I3
aa(lp5212
I2
aa(lp5213
I9
aa(lp5214
I8
aI6
aa(lp5215
I3
aa(lp5216
I1
aI8
aI9
aI7
aI0
aI6
aI10
aI11
aI3
aI4
aa(lp5217
I11
aI3
aa(lp5218
I1
aI8
aI9
aI6
aI0
aI2
aI4
aI7
aI10
aI5
aa(lp5219
I10
aI9
aa(lp5220
I8
aI6
aI1
aI9
aI4
aa(lp5221
I11
aa(lp5222
I3
aI5
aI11
aa(lp5223
I3
aI0
aa(lp5224
I11
aI5
aI3
aa(lp5225
I1
aI4
aa(lp5226
I5
aa(lp5227
I3
aI11
aI5
aI2
aI8
aI9
aa(lp5228
I11
aI6
aI8
aI5
aI3
aa(lp5229
I9
aI6
aI8
aI1
aa(lp5230
I8
aI9
aI4
aI2
aa(lp5231
I5
aI3
aI11
aI8
aa(lp5232
I5
aa(lp5233
I1
aI9
aI5
aa(lp5234
I3
aa(lp5235
I8
aI9
aI1
aI4
aI11
aa(lp5236
I9
aa(lp5237
I8
aI4
aI9
aI2
aI5
aI7
aI3
aa(lp5238
a(lp5239
I5
aa(lp5240
I3
aI9
aI0
aI6
aa(lp5241
I8
aI9
aI0
aI6
aa(lp5242
I3
aa(lp5243
I8
aI9
aI6
aa(lp5244
I11
aI9
aI5
aa(lp5245
I9
aa(lp5246
I1
aI4
aI8
aI2
aI10
aI9
aI5
aI7
aI6
aI11
aa(lp5247
I1
aa(lp5248
I11
aa(lp5249
I11
aI5
aI9
aI6
aI3
aa(lp5250
I7
aI5
aI9
aI0
aI2
aI3
aI1
aI6
aI8
aI10
aa(lp5251
I4
aa(lp5252
I9
aa(lp5253
I5
aa(lp5254
I11
aI6
aI9
aI5
aI3
aI0
aI1
aI8
aI7
aI4
aa(lp5255
I5
aI3
aI11
aI8
aa(lp5256
I5
aI8
aa(lp5257
I3
aI1
aI8
aa(lp5258
I3
aI5
aa(lp5259
I3
aI8
aI11
aa(lp5260
I9
aI1
aI8
aa(lp5261
a(lp5262
I11
aa(lp5263
I8
aI11
aa(lp5264
I3
aa(lp5265
I8
aI9
aI6
aa(lp5266
I11
aI5
aa(lp5267
I8
aI9
aI4
aI1
aI2
aa(lp5268
I6
aI9
aI0
aa(lp5269
I3
aa(lp5270
I5
aI3
aI11
aa(lp5271
a(lp5272
I6
aI0
aI8
aI9
aI1
aI5
aI3
aI11
aI4
aa(lp5273
I1
aI5
aa(lp5274
I6
aI0
aI9
aI8
aI10
aa(lp5275
I5
aa(lp5276
I5
aI3
aI11
aa(lp5277
I8
aI9
aI10
aI0
aI3
aI2
aI1
aI5
aI6
aa(lp5278
I8
aI6
aa(lp5279
I8
aa(lp5280
I3
aI9
aI4
aI6
aa(lp5281
a(lp5282
I0
aI6
aI8
aI9
aI7
aI10
aI5
aI1
aI11
aI4
aa(lp5283
I6
aa(lp5284
I5
aI9
aa(lp5285
I8
aa(lp5286
I6
aI0
aI4
aa(lp5287
I6
aI1
aa(lp5288
I1
aI3
aa(lp5289
I5
aI11
aI3
aI8
aI6
aI0
aa(lp5290
I9
aa(lp5291
I8
aI3
aI2
aI1
aI11
aI9
aa(lp5292
a(lp5293
I11
aa(lp5294
I5
aI9
aI3
aI2
aa(lp5295
I3
aI11
aI9
aI5
aa(lp5296
I0
aa(lp5297
I8
aI9
aI0
aa(lp5298
I11
aa(lp5299
I3
aI8
aI9
aI11
aa(lp5300
I0
aa(lp5301
I6
aI9
aI10
aa(lp5302
I11
aI5
aI3
aI6
aa(lp5303
I3
aI1
aI5
aI11
aa(lp5304
I5
aa(lp5305
I5
aI11
aI1
aa(lp5306
I3
aa(lp5307
I8
aI9
aa(lp5308
I3
aa(lp5309
I8
aI9
aI1
aI11
aI2
aI0
aI3
aI4
aI5
aI6
aa(lp5310
I11
aI5
aa(lp5311
I6
aI0
aI8
aI1
aI9
aI7
aI10
aI2
aI4
aI11
aa(lp5312
I1
aa(lp5313
I8
aI9
aI1
aa(lp5314
I3
aI8
aI9
aI6
aI5
aI11
aI0
aI1
aI4
aI7
aa(lp5315
I11
aI5
aI3
aa(lp5316
I11
aI9
aI3
aI1
aa(lp5317
I5
aI11
aI3
aI6
aI9
aI8
aI0
aI1
aI10
aI7
aa(lp5318
I6
aI0
aI8
aa(lp5319
I5
aI11
aI3
aI6
aI9
aI1
aI2
aI0
aI8
aI10
aa(lp5320
I1
aI9
aI8
aI4
aI6
aI0
aI2
aI3
aa(lp5321
I1
aI8
aI9
aI6
aI11
aa(lp5322
I1
aI9
aa(lp5323
I3
aa(lp5324
I10
aI4
aI0
aa(lp5325
I3
aI9
aI11
aI6
aa(lp5326
I5
aa(lp5327
I1
aI5
aI8
aI9
aI2
aI0
aI11
aI4
aI10
aI6
aa(lp5328
I3
aI9
aI6
aa(lp5329
I1
aI9
aa(lp5330
I5
aI11
aa(lp5331
I5
aI11
aI3
aI8
aI9
aI1
aI10
aI7
aI4
aI6
aa(lp5332
I2
aa(lp5333
I6
aI5
aI0
aI8
aa(lp5334
I5
aI10
aa(lp5335
I3
aI5
aI11
aI9
aI8
aI6
aI0
aI1
aI4
aI7
aa(lp5336
I9
aa(lp5337
I6
aI0
aI9
aa(lp5338
I6
aI0
aa(lp5339
a(lp5340
I9
aI1
aI5
aa(lp5341
I9
aI1
aI8
aI4
aI2
aa(lp5342
I2
aI3
aI11
aI4
aa(lp5343
I3
aI6
aI0
aI5
aI8
aI9
aI11
aa(lp5344
I3
aI9
aI6
aI1
aI0
aI5
aa(lp5345
I6
aI0
aI8
aI9
aa(lp5346
a(lp5347
I3
aI11
aI9
aa(lp5348
I9
aI3
aI5
aI1
aI11
aI10
aa(lp5349
I3
aa(lp5350
I0
aI3
aI4
aa(lp5351
I5
aI3
aI11
aI8
aI9
aI4
aI6
aI1
aI0
aa(lp5352
I11
aI5
aI3
aI9
aa(lp5353
I8
aa(lp5354
I1
aa(lp5355
I11
aa(lp5356
I9
aI1
aI3
aI6
aI5
aI7
aI10
aa(lp5357
I9
aI1
aI2
aI11
aI8
aI3
aI6
aI0
aI5
aI10
aa(lp5358
I9
aa(lp5359
I8
aa(lp5360
I11
aI5
aI9
aI3
aa(lp5361
I3
aI11
aI8
aa(lp5362
I11
aI3
aI5
aI9
aI1
aI4
aI7
aI10
aI8
aI6
aa(lp5363
I8
aI6
aI0
aI1
aI9
aI10
aI4
aI11
aI2
aa(lp5364
I3
aI5
aI11
aa(lp5365
I11
aI9
aI1
aI2
aI7
aI8
aI10
aI3
aI0
aI6
aa(lp5366
I11
aa(lp5367
I11
aa(lp5368
I1
aI8
aI9
aI7
aa(lp5369
I3
aa(lp5370
I2
aI6
aI0
aI5
aI11
aI9
aa(lp5371
I1
aI11
aI5
aI3
aI0
aa(lp5372
I6
aI0
aI9
aI1
aI5
aI3
aI8
aI11
aI4
aI7
aa(lp5373
I1
aa(lp5374
I8
aI11
aa(lp5375
I5
aI1
aa(lp5376
I5
aI11
aI3
aI9
aI8
aI7
aI1
aI10
aI0
aI6
aa(lp5377
I8
aa(lp5378
I6
aa(lp5379
I11
aI5
aI3
aa(lp5380
I1
aI9
aa(lp5381
I11
aa(lp5382
I8
aa(lp5383
I0
aI11
aa(lp5384
I9
aI6
aI0
aa(lp5385
I3
aI5
aI9
aI11
aI8
aI7
aI1
aI0
aI6
aI10
aa(lp5386
I9
aI6
aI0
aI3
aI11
aI8
aI10
aI7
aI4
aI1
aa(lp5387
I8
aI9
aI1
aa(lp5388
I8
aI6
aa(lp5389
I8
aI9
aI0
aI2
aI6
aI10
aI4
aI5
aa(lp5390
I9
aI4
aI7
aI10
aI2
aI11
aI8
aI6
aI5
aI3
aa(lp5391
I2
aI1
aI8
aI11
aI5
aa(lp5392
I11
aa(lp5393
I9
aa(lp5394
I5
aI3
aa(lp5395
I8
aI5
aa(lp5396
I10
aI6
aI0
aI8
aI9
aI7
aa(lp5397
I1
aa(lp5398
a(lp5399
I3
aI1
aI11
aa(lp5400
I9
aI8
aa(lp5401
a(lp5402
I11
aI3
aa(lp5403
a(lp5404
I9
aI2
aa(lp5405
I1
aa(lp5406
I6
aI0
aI8
aI4
aI11
aI9
aa(lp5407
I4
aI6
aI9
aI8
aa(lp5408
I6
aI0
aI9
aa(lp5409
I1
aI8
aI6
aI2
aI4
aI7
aI9
aI10
aI11
aI3
aa(lp5410
a(lp5411
I9
aI3
aa(lp5412
I8
aI11
aI9
aI1
aa(lp5413
I1
aI4
aI8
aI9
aI10
aI11
aI7
aI2
aI3
aI5
aa(lp5414
I3
aa(lp5415
I11
aa(lp5416
I11
aa(lp5417
a(lp5418
I6
aI0
aI9
aI10
aI7
aI8
aI4
aI1
aI3
aI11
aa(lp5419
I6
aI9
aI3
aI2
aI7
aI4
aI10
aI1
aI5
aI8
aa(lp5420
I6
aI11
aI8
aa(lp5421
I3
aa(lp5422
I9
aI6
aa(lp5423
I9
aa(lp5424
I8
aI1
aI9
aI0
aI2
aI6
aa(lp5425
I9
aa(lp5426
I1
aI4
aI8
aI9
aI2
aI11
aa(lp5427
I1
aa(lp5428
I5
aa(lp5429
I1
aI5
aI2
aa(lp5430
I1
aa(lp5431
I6
aI9
aI1
aa(lp5432
I4
aI1
aI9
aI0
aa(lp5433
I1
aa(lp5434
I3
aI9
aa(lp5435
I2
aa(lp5436
I9
aI8
aa(lp5437
I10
aI4
aI2
aI1
aI7
aI5
aa(lp5438
I11
aI3
aa(lp5439
I8
aI9
aI6
aI0
aI5
aI3
aI1
aa(lp5440
I3
aa(lp5441
I9
aa(lp5442
I1
aa(lp5443
I8
aI9
aI1
aI3
aI11
aI0
aI6
aI7
aI5
aI10
aa(lp5444
I11
aa(lp5445
I0
aI6
aa(lp5446
I9
aI0
aI1
aI6
aI8
aa(lp5447
I6
aI0
aI8
aa(lp5448
I0
aI6
aI3
aa(lp5449
I9
aa(lp5450
a(lp5451
I9
aI1
aI8
aa(lp5452
I6
aI0
aI9
aa(lp5453
I5
aI8
aa(lp5454
I3
aI5
aa(lp5455
I3
aI0
aI6
aI9
aI11
aI5
aI4
aI7
aI1
aI8
aa(lp5456
I3
aI11
aI5
aa(lp5457
I6
aa(lp5458
I11
aa(lp5459
I9
aI8
aa(lp5460
I8
aI2
aa(lp5461
I1
aa(lp5462
I8
aI9
aI1
aI3
aI6
aa(lp5463
I3
aI1
aa(lp5464
I6
aI11
aI8
aI5
aI1
aI9
aa(lp5465
a(lp5466
I5
aI3
aI11
aa(lp5467
I6
aI3
aI9
aI7
aI0
aI1
aI8
aI11
aI10
aI5
aa(lp5468
a(lp5469
I1
aI8
aa(lp5470
I8
aI6
aI1
aI4
aI10
aI11
aI7
aI9
aI0
aI5
aa(lp5471
a(lp5472
a(lp5473
I1
aI5
aI2
aI11
aI10
aI3
aI0
aI4
aI6
aI7
aa(lp5474
I9
aa(lp5475
a(lp5476
I1
aI11
aa(lp5477
I3
aa(lp5478
I6
aa(lp5479
I3
aI10
aI8
aI6
aI9
aI11
aa(lp5480
I1
aa(lp5481
I11
aI3
aI5
aI8
aa(lp5482
I6
aI11
aI9
aI0
aa(lp5483
I5
aI11
aI3
aI0
aa(lp5484
I11
aa(lp5485
a(lp5486
I8
aa(lp5487
I8
aI5
aI3
aI9
aI11
aI6
aI1
aI0
aI4
aI10
aa(lp5488
I1
aI8
aI9
aI4
aI0
aI7
aI2
aI5
aI10
aa(lp5489
I3
aa(lp5490
I11
aa(lp5491
I8
aa(lp5492
I3
aa(lp5493
I2
aI1
aI9
aI11
aa(lp5494
I9
aI6
aI0
aa(lp5495
I8
aI0
aI5
aa(lp5496
a(lp5497
I6
aI11
aa(lp5498
I0
aI6
aI1
aa(lp5499
I3
aa(lp5500
I0
aa(lp5501
I8
aa(lp5502
I9
aI1
aI8
aa(lp5503
I3
aI5
aI8
aa(lp5504
I9
aI3
aI8
aI0
aI4
aI5
aI11
aI2
aI6
aI1
aa(lp5505
I6
aI8
aI9
aI0
aa(lp5506
I5
aa(lp5507
I9
aI1
aa(lp5508
I6
aI9
aI8
aI1
aI0
aI4
aI7
aI10
aI11
aI3
aa(lp5509
I2
aa(lp5510
I5
aI11
aa(lp5511
I9
aI8
aa(lp5512
a(lp5513
I7
aI2
aI4
aI1
aI9
aI8
aI6
aI0
aa(lp5514
I3
aa(lp5515
I1
aa(lp5516
I5
aa(lp5517
I9
aI8
aa(lp5518
I1
aI2
aI8
aI9
aI6
aI7
aa(lp5519
I8
aI9
aI11
aI3
aa(lp5520
a(lp5521
I11
aa(lp5522
I9
aa(lp5523
I5
aI11
aI3
aI9
aI6
aa(lp5524
I6
aI7
aI8
aI10
aI4
aI3
aa(lp5525
a(lp5526
I3
aa(lp5527
I9
aa(lp5528
I5
aI11
aI3
aI6
aa(lp5529
I1
aI9
aI8
aI2
aI3
aa(lp5530
a(lp5531
I11
aI5
aI3
aI1
aa(lp5532
I11
aI5
aI3
aI9
aI0
aa(lp5533
I1
aI6
aI9
aa(lp5534
I11
aI8
aI5
aI3
aI6
aa(lp5535
I9
aI8
aI6
aa(lp5536
I6
aI0
aI9
aa(lp5537
I2
aa(lp5538
a(lp5539
I9
aI11
aa(lp5540
I11
aa(lp5541
I9
aI8
aI6
aI4
aI7
aa(lp5542
I9
aa(lp5543
I9
aI8
aI6
aI0
aI4
aa(lp5544
I11
aI5
aI3
aI9
aI10
aI8
aI7
aI0
aI6
aI1
aa(lp5545
I11
aa(lp5546
I3
aI5
aa(lp5547
I6
aI0
aI8
aI9
aI10
aa(lp5548
I1
aI2
aa(lp5549
I11
aI9
aI3
aa(lp5550
I5
aI11
aa(lp5551
I6
aI0
aI9
aI5
aI8
aI1
aa(lp5552
I0
aI8
aa(lp5553
I11
aa(lp5554
I5
aI11
aI3
aa(lp5555
I9
aI1
aI6
aI0
aI8
aI10
aI11
aa(lp5556
I11
aa(lp5557
I11
aa(lp5558
I9
aI10
aI1
aI4
aa(lp5559
I3
aI6
aI8
aI9
aI7
aI1
aI0
aI4
aI2
aI5
aa(lp5560
I9
aa(lp5561
I11
aI3
aI8
aa(lp5562
I9
aI4
aI3
aI0
aa(lp5563
I6
aI0
aI8
aI11
aI3
aI9
aI10
aI5
aa(lp5564
I9
aI4
aa(lp5565
I9
aI8
aI6
aI0
aI4
aI7
aI1
aI3
aI11
aI5
aa(lp5566
I9
aI8
aI6
aa(lp5567
I11
aI5
aa(lp5568
I5
aa(lp5569
a(lp5570
I1
aI9
aI2
aI3
aI6
aI8
aI10
aI11
aI7
aI0
aa(lp5571
I3
aI8
aa(lp5572
I6
aI1
aI4
aI7
aI3
aI2
aI0
aI10
aI9
aI8
aa(lp5573
I9
aI8
aI1
aa(lp5574
I11
aa(lp5575
I5
aI11
aI9
aI3
aI6
aI0
aa(lp5576
I1
aI10
aI9
aa(lp5577
I5
aI11
aI3
aI1
aI2
aI10
aI7
aI4
aI9
aI8
aa(lp5578
I3
aI5
aI11
aI6
aa(lp5579
a(lp5580
I1
aa(lp5581
I8
aa(lp5582
I3
aa(lp5583
I5
aI11
aI3
aa(lp5584
I5
aI11
aa(lp5585
I8
aI9
aI3
aI0
aI6
aI4
aI7
aI11
aI5
aI1
aa(lp5586
I6
aI0
aI9
aa(lp5587
I0
aI8
aI9
aa(lp5588
I6
aa(lp5589
I11
aa(lp5590
I9
aI6
aa(lp5591
I3
aI8
aI11
aa(lp5592
I8
aI1
aI0
aI3
aI4
aI11
aI6
aI7
aI9
aI10
aa(lp5593
a(lp5594
I3
aI11
aa(lp5595
I5
aI3
aI11
aI9
aa(lp5596
I6
aI11
aI5
aI3
aa(lp5597
I2
aa(lp5598
I2
aa(lp5599
I11
aI3
aa(lp5600
I3
aI11
aa(lp5601
I2
aI11
aI5
aI3
aI1
aI7
aI4
aI9
aa(lp5602
I3
aI5
aa(lp5603
I8
aa(lp5604
a(lp5605
I11
aI5
aa(lp5606
I9
aI8
aI1
aa(lp5607
I6
aa(lp5608
I11
aI5
aI3
aa(lp5609
I11
aa(lp5610
I6
aI5
aa(lp5611
I1
aI8
aa(lp5612
I10
aa(lp5613
a(lp5614
a(lp5615
I9
aI1
aI10
aI6
aa(lp5616
I8
aa(lp5617
I7
aI4
aI8
aI10
aI1
aI2
aI0
aI6
aI9
aa(lp5618
I8
aI9
aI6
aI0
aI1
aI4
aa(lp5619
I9
aI8
aI5
aI3
aI1
aa(lp5620
I9
aI11
aI3
aI6
aI8
aI1
aI0
aI5
aa(lp5621
I11
aI5
aI3
aI1
aI8
aa(lp5622
I9
aI8
aI0
aa(lp5623
I9
aI1
aI8
aa(lp5624
I11
aI8
aI1
aI5
aa(lp5625
I9
aI1
aI11
aI3
aI4
aI8
aI0
aI6
aI5
aI7
aa(lp5626
a(lp5627
I5
aI11
aa(lp5628
I5
aI8
aa(lp5629
I1
aa(lp5630
I2
aI1
aI9
aa(lp5631
I5
aI11
aa(lp5632
I8
aI6
aI0
aa(lp5633
I8
aI3
aI6
aa(lp5634
I8
aa(lp5635
I1
aI8
aa(lp5636
I1
aI9
aI11
aI5
aa(lp5637
I11
aI3
aI1
aa(lp5638
I5
aI3
aI6
aI0
aa(lp5639
I3
aa(lp5640
I11
aI3
aI5
aI8
aI9
aI1
aI6
aI10
aI0
aI2
aa(lp5641
I1
aI5
aa(lp5642
I9
aI5
aI1
aI6
aI3
aa(lp5643
I11
aI5
aI9
aI3
aa(lp5644
I1
aa(lp5645
I1
aI8
aI2
aa(lp5646
I9
aa(lp5647
I3
aa(lp5648
I1
aI5
aa(lp5649
I1
aI9
aI7
aa(lp5650
I9
aa(lp5651
I9
aa(lp5652
I5
aI3
aI11
aa(lp5653
I3
aI5
aI9
aI11
aI7
aI8
aI2
aI4
aI1
aI0
aa(lp5654
I3
aa(lp5655
I5
aI8
aI11
aI3
aI6
aI9
aI4
aI10
aI7
aI0
aa(lp5656
I3
aa(lp5657
I8
aI3
aI5
aI11
aI1
aI4
aI7
aI9
aI10
aa(lp5658
I11
aI5
aI6
aa(lp5659
a(lp5660
I8
aI9
aI1
aI6
aa(lp5661
I1
aI8
aa(lp5662
I9
aI11
aa(lp5663
I8
aI0
aa(lp5664
I3
aa(lp5665
I9
aI8
aI1
aa(lp5666
I5
aI11
aI8
aI9
aa(lp5667
I5
aa(lp5668
I11
aI3
aI5
aI8
aI9
aI10
aa(lp5669
I6
aI9
aa(lp5670
I5
aI3
aI11
aI9
aa(lp5671
I0
aa(lp5672
I3
aI5
aI6
aI0
aI9
aa(lp5673
I5
aa(lp5674
I8
aI5
aI4
aI9
aI0
aI3
aa(lp5675
I11
aI1
aI9
aI8
aI0
aa(lp5676
I5
aI3
aI11
aI9
aa(lp5677
I9
aa(lp5678
I9
aI3
aI6
aa(lp5679
I5
aI11
aI3
aI1
aa(lp5680
a(lp5681
I8
aI9
aa(lp5682
I0
aa(lp5683
a(lp5684
I6
aI9
aI8
aI0
aI3
aI2
aI1
aI5
aI11
aI4
aa(lp5685
I9
aI5
aa(lp5686
I1
aI9
aa(lp5687
I6
aI9
aI1
aI8
aI4
aI2
aa(lp5688
I8
aI9
aI5
aI3
aa(lp5689
I3
aI5
aa(lp5690
I6
aa(lp5691
I6
aI0
aI8
aa(lp5692
I6
aa(lp5693
I9
aI1
aI11
aa(lp5694
I9
aa(lp5695
I9
aI4
aa(lp5696
I8
aI2
aa(lp5697
I5
aI3
aI11
aI9
aI2
aa(lp5698
I3
aI11
aI9
aI6
aa(lp5699
I4
aI2
aI8
aI9
aI1
aI7
aI11
aI5
aa(lp5700
I3
aI8
aI6
aI5
aI11
aI9
aI4
aI1
aI0
aI10
aa(lp5701
I3
aI5
aI11
aI9
aI10
aI0
aI7
aI4
aI6
aI8
aa(lp5702
I9
aa(lp5703
a(lp5704
I8
aI9
aa(lp5705
I4
aI8
aI9
aI6
aI3
aI11
aI1
aa(lp5706
a(lp5707
I1
aa(lp5708
I1
aI8
aI9
aa(lp5709
I3
aa(lp5710
a(lp5711
I3
aa(lp5712
I1
aI8
aI9
aI5
aI2
aI0
aI3
aa(lp5713
I9
aI6
aa(lp5714
I6
aa(lp5715
I3
aa(lp5716
a(lp5717
I9
aI8
aa(lp5718
I0
aI6
aa(lp5719
I5
aI8
aI11
aI7
aI3
aI9
aI1
aI6
aa(lp5720
a(lp5721
I1
aa(lp5722
I8
aI9
aI5
aI11
aa(lp5723
I3
aI5
aI11
aa(lp5724
I6
aI9
aI8
aI0
aa(lp5725
I8
aI9
aI6
aI0
aI11
aI5
aI3
aI1
aI4
aI7
aa(lp5726
I4
aI9
aa(lp5727
I9
aI6
aI8
aI0
aI1
aI10
aa(lp5728
I4
aI9
aI0
aI6
aI5
aI3
aa(lp5729
I8
aI1
aI9
aI6
aI4
aa(lp5730
a(lp5731
I8
aI11
aI3
aI0
aI7
aa(lp5732
I3
aa(lp5733
I6
aI8
aI9
aI3
aI0
aa(lp5734
I5
aa(lp5735
I5
aI3
aI11
aI8
aa(lp5736
I1
aI6
aI8
aa(lp5737
I11
aI5
aI9
aI6
aa(lp5738
I11
aa(lp5739
I6
aI9
aa(lp5740
I3
aa(lp5741
I5
aI3
aa(lp5742
I3
aa(lp5743
I5
aI11
aa(lp5744
I6
aa(lp5745
I8
aI6
aI1
aa(lp5746
I11
aI5
aI3
aa(lp5747
a(lp5748
I3
aa(lp5749
I11
aa(lp5750
I3
aI11
aI5
aI8
aa(lp5751
I0
aI8
aI1
aI4
aI3
aI5
aI2
aI6
aI11
aI7
aa(lp5752
a(lp5753
I11
aI8
aI3
aI0
aI5
aI10
aI7
aa(lp5754
I3
aa(lp5755
I3
aI9
aa(lp5756
I11
aa(lp5757
I11
aI3
aI5
aa(lp5758
I5
aa(lp5759
I1
aI9
aI3
aa(lp5760
a(lp5761
I1
aa(lp5762
a(lp5763
I3
aI11
aI5
aI9
aI1
aI0
aI6
aI4
aI8
aI10
aa(lp5764
I6
aI0
aI5
aa(lp5765
I6
aI8
aI9
aI4
aI7
aI0
aa(lp5766
I9
aI6
aI8
aI11
aa(lp5767
I8
aa(lp5768
I9
aa(lp5769
I1
aI5
aa(lp5770
I1
aI9
aI8
aa(lp5771
I8
aI9
aI0
aI6
aI11
aa(lp5772
I9
aI1
aI8
aa(lp5773
I3
aa(lp5774
I0
aI3
aa(lp5775
I3
aI5
aa(lp5776
I8
aI1
aI6
aa(lp5777
I3
aa(lp5778
I3
aI5
aI8
aI0
aa(lp5779
I9
aa(lp5780
I11
aI2
aI9
aI5
aa(lp5781
I10
aI9
aI5
aI3
aa(lp5782
I9
aI8
aI4
aa(lp5783
I6
aI9
aI0
aa(lp5784
I8
aI1
aI9
aa(lp5785
I8
aI9
aI4
aI1
aI6
aI0
aI5
aa(lp5786
I8
aI3
aI5
aI0
aI9
aa(lp5787
I9
aa(lp5788
I1
aI9
aI3
aI7
aI10
aI11
aI8
aI4
aI5
aI0
aa(lp5789
I10
aI9
aI5
aI1
aa(lp5790
I9
aI0
aI1
aI8
aI3
aI5
aI6
aI11
aI2
aI7
aa(lp5791
I11
aI5
aI3
aa(lp5792
I8
aI6
aI3
aI5
aI9
aI1
aI0
aI7
aI10
aa(lp5793
a(lp5794
I11
aI1
aI9
aa(lp5795
I3
aI11
aI5
aI8
aI9
aa(lp5796
I11
aI5
aI3
aI9
aI6
aa(lp5797
I1
aI9
aI4
aI2
aI11
aI7
aI5
aa(lp5798
I9
aa(lp5799
a(lp5800
I5
aI1
aa(lp5801
I9
aa(lp5802
I6
aI0
aa(lp5803
I5
aI11
aI9
aI8
aI6
aa(lp5804
I1
aa(lp5805
I6
aI0
aa(lp5806
a(lp5807
I9
aI5
aI8
aI11
aI3
aI6
aI1
aa(lp5808
a(lp5809
a(lp5810
I8
aI9
aI5
aI4
aI11
aa(lp5811
I9
aa(lp5812
a(lp5813
I1
aI9
aI6
aI4
aI0
aI2
aI7
aa(lp5814
I3
aa(lp5815
I11
aa(lp5816
I6
aI0
aI8
aI9
aI7
aI4
aa(lp5817
I3
aa(lp5818
I9
aa(lp5819
I5
aI11
aI3
aa(lp5820
I3
aI5
aI8
aI1
aa(lp5821
I5
aI3
aI1
aI9
aI11
aI2
aa(lp5822
I5
aa(lp5823
I8
aa(lp5824
I9
aI6
aa(lp5825
I0
aI9
aa(lp5826
I3
aI5
aa(lp5827
I5
aI11
aI3
aI8
aa(lp5828
I11
aa(lp5829
I5
aa(lp5830
I4
aI6
aI7
aa(lp5831
I3
aI5
aI11
aI1
aI2
aI4
aI6
aI7
aI8
aI10
aa(lp5832
I6
aa(lp5833
I2
aI3
aI8
aI11
aI9
aa(lp5834
I5
aI8
aI6
aI11
aI9
aI1
aI0
aa(lp5835
I2
aI8
aI9
aI7
aI4
aI1
aI0
aI3
aI5
aI6
aa(lp5836
I5
aI9
aa(lp5837
a(lp5838
I9
aa(lp5839
I11
aa(lp5840
I9
aI6
aI8
aa(lp5841
I5
aa(lp5842
I6
aI0
aa(lp5843
I8
aI9
aI6
aI5
aI11
aa(lp5844
I9
aa(lp5845
a(lp5846
I6
aa(lp5847
I5
aI11
aI9
aI6
aI3
aI2
aI0
aI8
aI1
aI7
aa(lp5848
I5
aI8
aI3
aI1
aI2
aI11
aI7
aI9
aI4
aI10
aa(lp5849
I5
aI11
aI3
aI1
aa(lp5850
I8
aI0
aa(lp5851
I5
aI6
aa(lp5852
I3
aa(lp5853
I6
aI3
aI0
aI1
aa(lp5854
I5
aa(lp5855
I1
aa(lp5856
I9
aI8
aI6
aI11
aa(lp5857
I1
aI2
aI4
aa(lp5858
I8
aI0
aa(lp5859
I6
aI9
aI8
aI0
aI1
aa(lp5860
I5
aI11
aI3
aI8
aI0
aI6
aI4
aI7
aI1
aa(lp5861
I1
aI2
aI3
aI5
aI0
aa(lp5862
I1
aa(lp5863
I5
aI3
aI11
aI1
aI7
aI9
aI10
aI4
aI2
aI8
aa(lp5864
I11
aI5
aI3
aa(lp5865
a(lp5866
I4
aI3
aI11
aI5
aI8
aI7
aI10
aI1
aI9
aI2
aa(lp5867
I9
aI5
aI3
aa(lp5868
I3
aI11
aI1
aI4
aI9
aI8
aI6
aI2
aI5
aI7
aa(lp5869
I6
aa(lp5870
I8
aa(lp5871
I5
aI3
aa(lp5872
I5
aa(lp5873
I8
aa(lp5874
I8
aI6
aI9
aa(lp5875
I11
aI1
aI5
aI6
aI0
aI8
aa(lp5876
I3
aa(lp5877
I9
aa(lp5878
I11
aa(lp5879
I8
aI6
aI0
aI9
aI4
aa(lp5880
I11
aa(lp5881
I6
aa(lp5882
I8
aI9
aI11
aI6
aa(lp5883
I11
aI5
aa(lp5884
I8
aa(lp5885
I0
aI4
aI6
aa(lp5886
I8
aI9
aa(lp5887
I9
aa(lp5888
I3
aI0
aI6
aa(lp5889
a(lp5890
I8
aI9
aa(lp5891
I1
aI8
aI3
aa(lp5892
I5
aI9
aI8
aI6
aI1
aI0
aI4
aI7
aI10
aI2
aa(lp5893
I3
aI11
aa(lp5894
I3
aI5
aI11
aI9
aI8
aI7
aI2
aI1
aa(lp5895
I5
aI3
aa(lp5896
I5
aI8
aI6
aI9
aI1
aa(lp5897
I8
aa(lp5898
I5
aa(lp5899
I11
aa(lp5900
I8
aa(lp5901
I8
aI1
aI2
aI11
aI3
aI0
aI5
aI6
aI4
aI7
aa(lp5902
I9
aI0
aa(lp5903
I8
aI1
aa(lp5904
I8
aI11
aI2
aI1
aa(lp5905
I5
aa(lp5906
I9
aI6
aI1
aI8
aI5
aa(lp5907
I6
aI0
aI9
aa(lp5908
I11
aa(lp5909
I1
aI9
aI3
aI6
aI8
aI4
aa(lp5910
I8
aI2
aa(lp5911
I11
aa(lp5912
I8
aa(lp5913
I11
aa(lp5914
I11
aa(lp5915
I11
aI5
aI9
aI3
aI6
aI8
aI2
aI0
aI1
aI4
aa(lp5916
I1
aI9
aI5
aa(lp5917
I9
aI8
aI1
aI7
aI4
aI0
aI6
aI10
aI3
aI5
aa(lp5918
I11
aI5
aa(lp5919
I8
aI9
aI1
aa(lp5920
I5
aI8
aa(lp5921
I6
aI8
aI0
aa(lp5922
I3
aI5
aI11
aa(lp5923
I9
aI11
aa(lp5924
I5
aI1
aI11
aa(lp5925
I1
aI4
aI8
aI6
aI9
aa(lp5926
I9
aI2
aI10
aI11
aa(lp5927
I6
aa(lp5928
I3
aI11
aa(lp5929
I9
aa(lp5930
I8
aI5
aa(lp5931
I1
aI9
aI3
aa(lp5932
I6
aI0
aa(lp5933
I9
aI7
aI4
aI8
aI6
aa(lp5934
I11
aI8
aI5
aI3
aI1
aa(lp5935
I3
aI8
aI11
aI7
aI5
aI6
aI0
aI2
aI4
aI9
aa(lp5936
a(lp5937
I11
aa(lp5938
I5
aa(lp5939
I3
aa(lp5940
I11
aI5
aI3
aI8
aI6
aI0
aI9
aI1
aI4
aI7
aa(lp5941
I3
aI5
aI11
aa(lp5942
I1
aa(lp5943
I3
aa(lp5944
I11
aa(lp5945
I2
aI6
aI8
aa(lp5946
I2
aI1
aa(lp5947
I1
aI9
aa(lp5948
I9
aI4
aI5
aI8
aI6
aI1
aa(lp5949
I11
aI5
aI3
aI8
aI9
aI10
aI7
aI4
aI1
aI6
aa(lp5950
I8
aa(lp5951
I3
aI9
aa(lp5952
I9
aa(lp5953
I5
aa(lp5954
I9
aI11
aI1
aa(lp5955
I8
aI9
aa(lp5956
I8
aa(lp5957
I9
aI6
aI4
aI0
aI8
aI1
aI5
aI3
aI11
aI7
aa(lp5958
I9
aI8
aI6
aI0
aI4
aI1
aI10
aI2
aI3
aI7
aa(lp5959
I5
aa(lp5960
I1
aa(lp5961
I5
aI3
aI8
aa(lp5962
I3
aI5
aI11
aI9
aI0
aI6
aI4
aI10
aI1
aI8
aa(lp5963
I8
aI1
aa(lp5964
I6
aI9
aI1
aI8
aa(lp5965
I8
aI1
aa(lp5966
I8
aI9
aI1
aa(lp5967
I3
aI11
aI5
aa(lp5968
I5
aI9
aa(lp5969
I3
aI5
aI11
aI9
aa(lp5970
I6
aI0
aI9
aI8
aI1
aI4
aI10
aa(lp5971
I8
aI0
aa(lp5972
I11
aI6
aa(lp5973
I3
aa(lp5974
I6
aI9
aI1
aI11
aa(lp5975
I5
aa(lp5976
I6
aa(lp5977
I3
aI11
aI4
aa(lp5978
I0
aI6
aI9
aI8
aI1
aI5
aI11
aI3
aI4
aa(lp5979
I3
aI11
aa(lp5980
I7
aI2
aI1
aI9
aI11
aa(lp5981
I11
aI5
aI3
aI9
aI8
aI0
aI6
aI1
aI4
aI7
aa(lp5982
I8
aI5
aa(lp5983
I8
aa(lp5984
a(lp5985
I9
aa(lp5986
a(lp5987
a(lp5988
a(lp5989
I2
aa(lp5990
I11
aI5
aa(lp5991
I1
aI0
aI4
aI6
aI9
aI10
aI8
aI7
aI2
aI5
aa(lp5992
I11
aI5
aa(lp5993
I11
aI3
aa(lp5994
I8
aI5
aI7
aI9
aI10
aI2
aI11
aI6
aI4
aI3
aa(lp5995
I2
aa(lp5996
I4
aa(lp5997
I11
aI5
aI6
aI0
aI3
aI8
aI9
aI1
aI2
aI10
aa(lp5998
I9
aa(lp5999
I3
aI5
aI8
aI11
aI0
aI2
aI1
aI4
aI6
aa(lp6000
I6
aI11
aI9
aI0
aa(lp6001
I1
aI9
aI8
aI4
aI6
aI0
aI5
aI3
aI11
aI7
aa(lp6002
I8
aI3
aI9
aI11
aI5
aa(lp6003
I6
aI8
aI0
aa(lp6004
I2
aI0
aa(lp6005
I3
aa(lp6006
I8
aI5
aI1
aI11
aa(lp6007
I9
aI8
aa(lp6008
I8
aI6
aI0
aa(lp6009
a(lp6010
a(lp6011
I6
aa(lp6012
I6
aI0
aI8
aI9
aI10
aI1
aa(lp6013
I3
aI5
aI11
aI1
aa(lp6014
I2
aa(lp6015
I3
aI5
aI11
aa(lp6016
I1
aI8
aI9
aI10
aI4
aI6
aa(lp6017
I11
aa(lp6018
I5
aI11
aI3
aa(lp6019
I8
aI11
aI9
aI5
aa(lp6020
I3
aI8
aI9
aI4
aI2
aI1
aI0
aI6
aa(lp6021
I1
aa(lp6022
a(lp6023
I7
aa(lp6024
I0
aI11
aI8
aI5
aI3
aa(lp6025
I5
aI1
aI10
aI9
aI8
aI7
aI2
aI0
aI11
aI6
aa(lp6026
I1
aI8
aI0
aI6
aI9
aI2
aI10
aI4
aa(lp6027
I8
aa(lp6028
I9
aI5
aI0
aI3
aa(lp6029
I3
aa(lp6030
I3
aI11
aI5
aI1
aI9
aI6
aI8
aI10
aI2
aI4
aa(lp6031
I9
aI8
aI11
aI5
aa(lp6032
I5
aa(lp6033
I9
aI8
aa(lp6034
I0
aI8
aI9
aI6
aI10
aI3
aI1
aI11
aI7
aI5
aa(lp6035
I3
aI5
aI11
aa(lp6036
I8
aa(lp6037
I1
aa(lp6038
I11
aI3
aI5
aI9
aI1
aa(lp6039
I5
aI3
aa(lp6040
I0
aa(lp6041
I11
aI5
aa(lp6042
I3
aI5
aI11
aa(lp6043
I11
aa(lp6044
I5
aI11
aI3
aI8
aI9
aI10
aI0
aI2
aa(lp6045
I5
aI3
aI9
aI6
aa(lp6046
I5
aI11
aa(lp6047
I8
aI6
aI1
aI0
aI9
aI10
aI7
aI4
aI2
aI11
aa(lp6048
I3
aI11
aI8
aa(lp6049
I1
aI8
aa(lp6050
I3
aI2
aa(lp6051
I6
aa(lp6052
I4
aa(lp6053
I9
aa(lp6054
I1
aa(lp6055
I9
aI6
aI7
aI4
aa(lp6056
I11
aI2
aI3
aa(lp6057
I5
aa(lp6058
I11
aI5
aa(lp6059
I11
aa(lp6060
I6
aI0
aa(lp6061
I6
aI0
aI9
aI4
aI11
aa(lp6062
I2
aa(lp6063
I11
aI6
aI8
aa(lp6064
I3
aa(lp6065
I11
aa(lp6066
I8
aI9
aI1
aI4
aI6
aI0
aa(lp6067
I9
aI8
aI3
aI6
aI11
aa(lp6068
I8
aI9
aI1
aa(lp6069
I11
aI8
aI6
aa(lp6070
I6
aI0
aa(lp6071
I11
aa(lp6072
I8
aI1
aI0
aI4
aI9
aI6
aI7
aI10
aI11
aI3
aa(lp6073
I5
aI11
aa(lp6074
I11
aa(lp6075
I3
aI1
aI0
aI5
aI6
aI11
aI2
aI4
aI7
aI8
aa(lp6076
I9
aa(lp6077
I1
aa(lp6078
I8
aI4
aI9
aI6
aI0
aI1
aI2
aI3
aa(lp6079
I0
aI6
aa(lp6080
I8
aI9
aI1
aa(lp6081
I1
aa(lp6082
I6
aa(lp6083
I11
aI0
aI9
aI7
aI5
aI3
aa(lp6084
I8
aI4
aI9
aI1
aI5
aa(lp6085
I3
aa(lp6086
I1
aa(lp6087
I9
aI3
aI6
aI0
aI1
aI4
aI7
aI8
aI10
aa(lp6088
I8
aa(lp6089
I1
aa(lp6090
I9
aI6
aI0
aI8
aI11
aa(lp6091
I3
aI8
aa(lp6092
I3
aa(lp6093
I11
aa(lp6094
I1
aI5
aa(lp6095
I8
aI9
aI6
aI0
aI1
aI7
aI2
aI3
aI4
aI5
aa(lp6096
I11
aI5
aa(lp6097
I3
aa(lp6098
I5
aI11
aa(lp6099
I11
aI5
aa(lp6100
I3
aa(lp6101
I8
aa(lp6102
I11
aa(lp6103
I9
aI6
aI8
aI0
aI1
aI2
aI5
aa(lp6104
I9
aI3
aI7
aI0
aa(lp6105
I6
aI11
aI8
aI9
aI5
aa(lp6106
I5
aa(lp6107
I9
aI8
aa(lp6108
a(lp6109
I3
aI0
aI1
aI6
aa(lp6110
I9
aI7
aI3
aI11
aI0
aI4
aI5
aI6
aa(lp6111
I8
aI9
aI4
aI11
aa(lp6112
I9
aI11
aI6
aI5
aI3
aI8
aI7
aa(lp6113
I8
aI1
aa(lp6114
I8
aI3
aI4
aI1
aa(lp6115
I9
aI8
aa(lp6116
I1
aa(lp6117
I5
aI9
aI8
aI2
aI3
aI7
aI10
aI11
aI4
aI6
aa(lp6118
I11
aI5
aI3
aI9
aa(lp6119
I8
aI1
aI5
aI9
aI11
aI2
aI4
aI6
aa(lp6120
I5
aa(lp6121
I5
aI3
aI7
aI6
aI0
aI9
aI8
aI11
aI10
aI1
aa(lp6122
a(lp6123
I9
aI6
aa(lp6124
I8
aI6
aa(lp6125
I8
aI9
aI0
aI1
aa(lp6126
I2
aI9
aI4
aa(lp6127
I11
aa(lp6128
I3
aI5
aa(lp6129
I5
aI1
aI8
aa(lp6130
I8
aI9
aI1
aa(lp6131
I11
aa(lp6132
I1
aI9
aa(lp6133
I1
aI2
aI7
aa(lp6134
a(lp6135
I6
aI3
aI8
aa(lp6136
I5
aI3
aI0
aI8
aI9
aa(lp6137
I11
aI9
aI6
aI5
aa(lp6138
I9
aa(lp6139
a(lp6140
I6
aa(lp6141
I8
aI5
aI9
aI6
aa(lp6142
I11
aI5
aI3
aa(lp6143
I6
aI0
aI8
aI9
aI10
aI4
aI11
aI3
aI7
aI5
aa(lp6144
I1
aI9
aI2
aI8
aa(lp6145
I5
aa(lp6146
I4
aI3
aa(lp6147
I9
aa(lp6148
I2
aI1
aI7
aa(lp6149
I5
aI2
aI8
aI9
aI10
aI11
aa(lp6150
I8
aa(lp6151
I9
aa(lp6152
I1
aa(lp6153
I11
aI8
aI5
aa(lp6154
I5
aI9
aa(lp6155
I9
aI8
aI6
aI5
aI1
aI0
aa(lp6156
I5
aI9
aI8
aI0
aa(lp6157
I3
aa(lp6158
a(lp6159
a(lp6160
I9
aa(lp6161
I9
aa(lp6162
I11
aI6
aI0
aa(lp6163
I0
aI6
aI4
aI8
aI9
aI7
aI1
aI11
aa(lp6164
I1
aI9
aI8
aI7
aI4
aa(lp6165
I5
aa(lp6166
I9
aa(lp6167
I6
aI9
aa(lp6168
I5
aa(lp6169
I4
aI9
aa(lp6170
I11
aI5
aI3
aI9
aI10
aI0
aI4
aI6
aa(lp6171
I5
aa(lp6172
I5
aI3
aa(lp6173
I5
aI3
aa(lp6174
I3
aa(lp6175
I6
aI0
aI9
aI10
aI4
aa(lp6176
I9
aI5
aI4
aI10
aI0
aI3
aI6
aI7
aI11
aa(lp6177
a(lp6178
I1
aI9
aa(lp6179
I3
aa(lp6180
I8
aa(lp6181
I11
aI5
aa(lp6182
I2
aa(lp6183
I5
aI11
aI9
aI3
aI8
aI10
aI7
aI4
aI2
aI1
aa(lp6184
I1
aa(lp6185
I6
aI8
aa(lp6186
I11
aI5
aI3
aa(lp6187
I5
aI3
aI0
aa(lp6188
I8
aa(lp6189
a(lp6190
I6
aI0
aI8
aI9
aI3
aa(lp6191
I4
aa(lp6192
I9
aI11
aI6
aa(lp6193
I0
aI6
aI2
aI7
aI4
aI1
aa(lp6194
I1
aa(lp6195
I6
aI9
aa(lp6196
I9
aa(lp6197
I1
aI2
aI9
aI11
aI5
aI8
aI3
aI0
aI6
aI7
aa(lp6198
I2
aI0
aa(lp6199
I9
aI8
aI5
aa(lp6200
I8
aI9
aa(lp6201
I1
aa(lp6202
I8
aI3
aI9
aI6
aI4
aa(lp6203
I0
aI6
aI8
aI9
aI5
aa(lp6204
I6
aa(lp6205
I6
aa(lp6206
I5
aI1
aI9
aI11
aa(lp6207
I6
aI0
aI8
aI9
aI7
aI4
aI1
aI10
aI2
aI11
aa(lp6208
I8
aa(lp6209
I8
aI9
aI11
aa(lp6210
I8
aI9
aa(lp6211
I11
aI3
aI5
aI1
aa(lp6212
I3
aI9
aI0
aI6
aI1
aI5
aa(lp6213
I5
aa(lp6214
I9
aa(lp6215
I9
aI1
aI2
aa(lp6216
I6
aI0
aI9
aI3
aI5
aa(lp6217
I8
aI1
aI9
aa(lp6218
I3
aI5
aa(lp6219
I9
aa(lp6220
I8
aa(lp6221
a(lp6222
I11
aI5
aa(lp6223
I5
aa(lp6224
I3
aa(lp6225
I3
aa(lp6226
I5
aI1
aI9
aI8
aI3
aI11
aI10
aI7
aI6
aI4
aa(lp6227
I11
aI3
aa(lp6228
I7
aI2
aI6
aI9
aa(lp6229
I8
aI9
aI1
aI3
aa(lp6230
I8
aI1
aa(lp6231
I8
aa(lp6232
I8
aI9
aa(lp6233
I0
aI6
aI3
aI5
aI8
aI2
aI1
aI9
aI11
aI4
aa(lp6234
I5
aI8
aI1
aI11
aI9
aI6
aI0
aI3
aa(lp6235
I8
aI9
aI5
aI11
aI3
aI4
aI6
aI7
aI10
aI1
aa(lp6236
I9
aa(lp6237
I3
aI5
aa(lp6238
I5
aI11
aI8
aI1
aa(lp6239
I1
aI3
aI5
aI11
aa(lp6240
a(lp6241
I0
aI6
aI8
aa(lp6242
I2
aI3
aa(lp6243
I6
aI3
aI8
aI1
aI0
aI5
aI9
aI10
aI4
aI2
aa(lp6244
I8
aI9
aa(lp6245
I5
aI3
aI11
aI9
aI10
aI2
aa(lp6246
I9
aI6
aI4
aa(lp6247
I5
aI11
aI3
aI9
aI2
aa(lp6248
I3
aa(lp6249
I6
aI8
aI0
aI9
aI3
aI1
aa(lp6250
I8
aI9
aI6
aI0
aI11
aI3
aa(lp6251
I3
aa(lp6252
I9
aI1
aI6
aI11
aI5
aa(lp6253
I5
aI11
aa(lp6254
I1
aI8
aI5
aI0
aa(lp6255
I5
aa(lp6256
I9
aa(lp6257
I11
aI5
aI3
aI9
aI1
aI0
aI8
aI4
aI2
aa(lp6258
I6
aI0
aa(lp6259
I8
aa(lp6260
I9
aI8
aa(lp6261
I5
aI11
aI9
aI2
aa(lp6262
I3
aI8
aI9
aI11
aI0
aI6
aa(lp6263
I1
aI11
aI5
aI3
aI8
aI9
aa(lp6264
I11
aa(lp6265
I8
aI3
aI0
aI1
aI4
aI5
aI11
aI6
aa(lp6266
I5
aI11
aI3
aI2
aI8
aa(lp6267
I1
aI5
aI0
aI3
aa(lp6268
I1
aI8
aI2
aI9
aI6
aI7
aI4
aa(lp6269
I3
aI0
aI8
aI9
aI4
aI6
aI5
aI1
aa(lp6270
I1
aI4
aI7
aI9
aI10
aI0
aI8
aI6
aI2
aI11
aa(lp6271
a(lp6272
I1
aI8
aI9
aa(lp6273
I3
aI5
aa(lp6274
I5
aa(lp6275
I3
aa(lp6276
I1
aI9
aI2
aI8
aI4
aI7
aI6
aI0
aI3
aI10
aa(lp6277
I5
aa(lp6278
I3
aa(lp6279
I5
aI8
aI11
aa(lp6280
I11
aI5
aI3
aI9
aI1
aI4
aa(lp6281
I9
aI8
aI11
aI3
aI5
aI0
aI2
aI6
aI10
aI1
aa(lp6282
I9
aI6
aI0
aI1
aI10
aI11
aI5
aa(lp6283
I11
aI6
aI9
aI1
aa(lp6284
I2
aI1
aa(lp6285
I5
aI9
aI3
aI11
aI6
aI8
aI0
aa(lp6286
I11
aa(lp6287
I9
aa(lp6288
I8
aa(lp6289
I8
aI9
aI1
aI6
aI5
aI0
aI4
aI3
aI7
aI2
aa(lp6290
I8
aa(lp6291
I5
aI3
aa(lp6292
I2
aa(lp6293
I5
aI11
aa(lp6294
I0
aa(lp6295
I3
aI5
aI8
aa(lp6296
I2
aI5
aa(lp6297
a(lp6298
I3
aI11
aI5
aa(lp6299
I11
aI8
aI5
aI3
aI2
aa(lp6300
I5
aI1
aI3
aI8
aI11
aI2
aI4
aI7
aI9
aI10
aa(lp6301
I11
aa(lp6302
I9
aI1
aI4
aI2
aa(lp6303
I6
aI8
aI9
aI3
aa(lp6304
I9
aI5
aI6
aI11
aI3
aI1
aI7
aI10
aI8
aa(lp6305
I11
aI8
aI3
aa(lp6306
I2
aa(lp6307
I8
aa(lp6308
I0
aI6
aa(lp6309
I0
aI3
aa(lp6310
I1
aI9
aa(lp6311
I6
aI9
aI3
aI8
aI0
aI10
aa(lp6312
I3
aI4
aa(lp6313
I11
aa(lp6314
I3
aI5
aa(lp6315
I8
aI9
aI2
aI1
aI10
aI4
aI3
aI0
aa(lp6316
I1
aa(lp6317
a(lp6318
I8
aI1
aa(lp6319
I1
aI2
aI4
aI7
aI8
aI9
aI10
aI0
aa(lp6320
I3
aa(lp6321
I3
aa(lp6322
I9
aI8
aI1
aI3
aI5
aI7
aI11
aI4
aa(lp6323
I3
aI9
aI2
aI8
aa(lp6324
a(lp6325
a(lp6326
I11
aI3
aI1
aI6
aa(lp6327
I11
aI5
aI3
aa(lp6328
I6
aI8
aa(lp6329
I3
aI9
aI6
aI0
aa(lp6330
I9
aa(lp6331
I3
aI5
aI8
aI6
aI11
aI10
aI9
aI7
aI4
aI2
aa(lp6332
a(lp6333
I5
aI3
aI11
aI6
aI9
aI0
aa(lp6334
I1
aa(lp6335
I7
aI11
aI6
aI5
aa(lp6336
I5
aa(lp6337
I1
aI8
aI3
aa(lp6338
I9
aI11
aI5
aI3
aa(lp6339
I0
aa(lp6340
I8
aI3
aI0
aa(lp6341
I9
aI3
aa(lp6342
I5
aI3
aI11
aa(lp6343
I11
aa(lp6344
I11
aI5
aI3
aa(lp6345
a(lp6346
I6
aI0
aI1
aI2
aI4
aI7
aI8
aa(lp6347
I9
aI6
aI4
aI11
aa(lp6348
I1
aI8
aa(lp6349
I8
aI6
aI0
aI3
aI7
aa(lp6350
I6
aI9
aI0
aa(lp6351
I10
aI5
aI6
aI8
aa(lp6352
I1
aI8
aI9
aI6
aa(lp6353
I2
aa(lp6354
I2
aI4
aa(lp6355
I3
aI0
aI9
aI6
aI11
aI1
aa(lp6356
I1
aa(lp6357
I9
aa(lp6358
I9
aI0
aI6
aI8
aI4
aI3
aI5
aI11
aI10
aa(lp6359
I6
aI0
aI8
aI9
aI1
aI4
aI11
aI5
aI3
aa(lp6360
I9
aa(lp6361
I3
aI8
aI11
aI9
aI0
aI1
aI6
aI10
aI2
aI5
aa(lp6362
I8
aI9
aI1
aI4
aI7
aa(lp6363
I9
aI1
aa(lp6364
a(lp6365
I2
aa(lp6366
I9
aa(lp6367
I9
aI11
aa(lp6368
I3
aI5
aI9
aI11
aI2
aa(lp6369
I6
aa(lp6370
I3
aa(lp6371
I3
aa(lp6372
I1
aa(lp6373
I8
aI5
aI11
aI3
aI1
aI2
aI0
aI10
aI9
aI7
aa(lp6374
I9
aI8
aI3
aI6
aI11
aI0
aI4
aI5
aI7
aI10
aa(lp6375
I10
aI11
aI5
aa(lp6376
I1
aI2
aa(lp6377
I9
aI11
aa(lp6378
I9
aI6
aa(lp6379
I8
aa(lp6380
I3
aI5
aa(lp6381
I0
aI6
aI8
aa(lp6382
I9
aa(lp6383
I3
aI5
aI11
aI9
aI8
aa(lp6384
I3
aa(lp6385
I1
aa(lp6386
I3
aI6
aI8
aI11
aI9
aI0
aI4
aI5
aI7
aI10
aa(lp6387
I9
aI4
aI1
aa(lp6388
I6
aI0
aI9
aa(lp6389
I5
aI3
aI11
aI6
aI0
aI7
aI8
aI9
aI1
aI4
aa(lp6390
I11
aI6
aa(lp6391
I1
aa(lp6392
I2
aI9
aI8
aI7
aI6
aI1
aI4
aa(lp6393
I1
aI6
aI0
aI9
aI8
aI11
aa(lp6394
I4
aI9
aI8
aa(lp6395
I3
aa(lp6396
I5
aI3
aa(lp6397
I8
aI1
aI2
aI4
aI6
aa(lp6398
I11
aI5
aI3
aa(lp6399
I4
aI7
aa(lp6400
a(lp6401
I8
aI9
aI0
aI1
aI6
aI5
aI4
aI7
aI11
aa(lp6402
I8
aI1
aI0
aI9
aI7
aI6
aI4
aI2
aI3
aI10
aa(lp6403
I11
aI1
aI6
aa(lp6404
a(lp6405
I5
aa(lp6406
I3
aI6
aa(lp6407
I9
aI4
aI11
aa(lp6408
I6
aI0
aI9
aI8
aa(lp6409
I9
aa(lp6410
I8
aI9
aI1
aa(lp6411
I9
aa(lp6412
a(lp6413
I3
aa(lp6414
I11
aI3
aa(lp6415
I3
aa(lp6416
I8
aI9
aI1
aI5
aI6
aI4
aI11
aI3
aa(lp6417
I0
aI8
aa(lp6418
I5
aI3
aI11
aa(lp6419
I1
aa(lp6420
I6
aI8
aI9
aI2
aa(lp6421
I3
aI11
aI5
aI8
aa(lp6422
I3
aI8
aI6
aI11
aI0
aa(lp6423
I11
aI5
aI3
aI4
aI7
aa(lp6424
I8
aI6
aa(lp6425
I8
aI9
aI11
aI0
aI6
aa(lp6426
I9
aI3
aa(lp6427
I10
aI5
aI9
aI11
aI8
aI3
aI1
aI2
aI0
aa(lp6428
I11
aa(lp6429
I2
aI9
aa(lp6430
I5
aa(lp6431
I9
aI8
aa(lp6432
I4
aI1
aa(lp6433
I6
aI8
aI9
aa(lp6434
I5
aI8
aa(lp6435
I8
aI9
aI6
aI0
aI11
aI5
aI1
aI4
aI7
aI10
aa(lp6436
I6
aa(lp6437
I3
aI11
aI5
aI9
aa(lp6438
I2
aI3
aI1
aa(lp6439
I8
aI9
aI4
aI1
aI11
aI3
aI5
aI2
aa(lp6440
I8
aI6
aI9
aI0
aI4
aI7
aa(lp6441
I9
aa(lp6442
I5
aa(lp6443
I1
aI11
aa(lp6444
I11
aa(lp6445
I6
aa(lp6446
I1
aI5
aI3
aa(lp6447
I8
aa(lp6448
I3
aI5
aI11
aI0
aa(lp6449
I9
aa(lp6450
I8
aa(lp6451
I6
aa(lp6452
I8
aI6
aa(lp6453
I11
aI6
aI8
aa(lp6454
I1
aI5
aI8
aI9
aI11
aI6
aI0
aI7
aI2
aI3
aa(lp6455
I1
aa(lp6456
I3
aI5
aI8
aa(lp6457
a(lp6458
I9
aI3
aI5
aI6
aI8
aa(lp6459
I9
aI8
aI6
aa(lp6460
I1
aa(lp6461
I1
aI9
aI8
aa(lp6462
I11
aI3
aI5
aI9
aI4
aI8
aI7
aa(lp6463
I8
aI5
aI3
aa(lp6464
I3
aI11
aa(lp6465
I4
aa(lp6466
I1
aI4
aI7
aa(lp6467
I8
aI1
aa(lp6468
I11
aI5
aa(lp6469
I3
aa(lp6470
I9
aI1
aI3
aa(lp6471
I8
aa(lp6472
I11
aI5
aI3
aa(lp6473
I6
aI5
aI9
aI2
aI3
aI11
aI8
aI1
aa(lp6474
I9
aI5
aI8
aI11
aa(lp6475
I9
aa(lp6476
I1
aI0
aI2
aa(lp6477
I10
aa(lp6478
I3
aI5
aa(lp6479
I6
aI0
aa(lp6480
a(lp6481
I2
aa(lp6482
I0
aI6
aI8
aa(lp6483
I5
aI11
aI3
aa(lp6484
I8
aa(lp6485
I11
aa(lp6486
I9
aI6
aI8
aI1
aa(lp6487
I8
aa(lp6488
I6
aI0
aI8
aI9
aI4
aI7
aI10
aI1
aI11
aI5
aa(lp6489
I1
aa(lp6490
I1
aa(lp6491
a(lp6492
I5
aI8
aa(lp6493
I4
aI9
aI8
aI0
aI6
aI1
aI7
aI10
aI3
aa(lp6494
I3
aI2
aa(lp6495
I11
aa(lp6496
I8
aI9
aI6
aI1
aa(lp6497
I11
aa(lp6498
a(lp6499
I7
aI5
aI3
aI11
aI1
aI4
aI9
aI8
aI10
aI2
aa(lp6500
I8
aI9
aI1
aI6
aI3
aI0
aI11
aI10
aI2
aI7
aa(lp6501
I9
aI6
aI8
aa(lp6502
I9
aI4
aI7
aa(lp6503
I8
aI11
aI3
aa(lp6504
I3
aI11
aI5
aI4
aa(lp6505
I8
aa(lp6506
a(lp6507
I4
aa(lp6508
I3
aI5
aI11
aa(lp6509
I9
aI1
aa(lp6510
I11
aa(lp6511
I4
aa(lp6512
I11
aI2
aa(lp6513
I4
aa(lp6514
I9
aI11
aI5
aI3
aI0
aI10
aI8
aI7
aa(lp6515
I4
aI3
aI5
aI11
aa(lp6516
I8
aa(lp6517
I9
aI11
aa(lp6518
I9
aa(lp6519
I3
aI5
aI11
aa(lp6520
I5
aa(lp6521
I3
aI0
aI9
aI5
aI11
aI8
aI6
aI4
aI7
aI1
aa(lp6522
I8
aa(lp6523
I1
aI2
aa(lp6524
I9
aI8
aa(lp6525
I3
aI5
aI11
aI8
aI1
aI4
aI9
aI7
aI0
aI10
aa(lp6526
I1
aa(lp6527
I3
aa(lp6528
I5
aa(lp6529
I3
aa(lp6530
I9
aI0
aI4
aI1
aI8
aa(lp6531
I11
aa(lp6532
I1
aI11
aI9
aI4
aI7
aI0
aI5
aI2
aI6
aI8
aa(lp6533
I8
aa(lp6534
I11
aa(lp6535
I6
aI9
aI8
aa(lp6536
I8
aI5
aa(lp6537
I1
aa(lp6538
I2
aa(lp6539
I3
aI9
aI8
aI4
aa(lp6540
I11
aI9
aI1
aI2
aI6
aa(lp6541
I1
aa(lp6542
I9
aa(lp6543
I3
aI11
aI5
aI9
aI8
aa(lp6544
I3
aI8
aI11
aI2
aa(lp6545
a(lp6546
I6
aI8
aI0
aI9
aI11
aI5
aa(lp6547
I9
aI1
aI8
aI6
aI0
aI10
aa(lp6548
I8
aa(lp6549
I5
aa(lp6550
I5
aa(lp6551
I0
aI6
aI7
aa(lp6552
I9
aa(lp6553
I3
aI11
aI5
aI0
aI6
aI8
aa(lp6554
I8
aI11
aI5
aa(lp6555
I8
aa(lp6556
I11
aI5
aI3
aa(lp6557
I9
aa(lp6558
I1
aa(lp6559
I1
aI11
aa(lp6560
a(lp6561
I3
aa(lp6562
I3
aI8
aa(lp6563
I8
aa(lp6564
I5
aa(lp6565
I6
aI0
aI5
aI3
aI9
aa(lp6566
I3
aI11
aI8
aI7
aa(lp6567
I8
aa(lp6568
I2
aa(lp6569
I3
aI6
aa(lp6570
I1
aI9
aI4
aa(lp6571
I9
aI0
aI1
aa(lp6572
I1
aa(lp6573
I9
aa(lp6574
I5
aa(lp6575
I8
aa(lp6576
I2
aI9
aI3
aa(lp6577
I8
aI9
aI11
aI3
aI1
aI6
aI0
aI2
aI10
aI5
aa(lp6578
I8
aI0
aI1
aI3
aI9
aa(lp6579
I9
aI6
aI8
aa(lp6580
I6
aI11
aI9
aa(lp6581
I3
aI5
aa(lp6582
I6
aa(lp6583
I11
aa(lp6584
I3
aa(lp6585
I9
aI8
aI6
aI0
aa(lp6586
I5
aa(lp6587
I3
aI9
aI5
aa(lp6588
I3
aa(lp6589
I9
aI2
aI1
aa(lp6590
I9
aI4
aI8
aI6
aa(lp6591
I3
aa(lp6592
I9
aI1
aa(lp6593
I0
aI6
aI8
aI10
aI9
aI1
aI2
aI7
aI4
aI5
aa(lp6594
I3
aI1
aI8
aa(lp6595
I5
aI11
aI3
aI8
aa(lp6596
a(lp6597
I1
aI8
aI9
aI11
aa(lp6598
I3
aa(lp6599
I4
aI2
aa(lp6600
I11
aI5
aI1
aa(lp6601
I9
aI1
aI8
aI3
aI0
aI6
aI10
aI2
aI11
aI5
aa(lp6602
I5
aI3
aI9
aI11
aI0
aI1
aI10
aI8
aa(lp6603
I0
aI6
aI9
aa(lp6604
I11
aa(lp6605
I9
aI1
aI8
aI5
aa(lp6606
I11
aa(lp6607
I9
aI1
aa(lp6608
I9
aI0
aI3
aI6
aI8
aa(lp6609
I11
aI5
aI3
aI1
aa(lp6610
I9
aI8
aI5
aI3
aa(lp6611
I6
aa(lp6612
I1
aI5
aI3
aa(lp6613
I11
aa(lp6614
I5
aI3
aI11
aI8
aI6
aI1
aI0
aa(lp6615
I2
aa(lp6616
I11
aI0
aI10
aa(lp6617
I11
aI8
aI0
aI1
aI3
aa(lp6618
I5
aI0
aI8
aa(lp6619
I6
aI9
aI1
aa(lp6620
a(lp6621
I5
aI9
aa(lp6622
I11
aI3
aI9
aI8
aa(lp6623
I3
aa(lp6624
I3
aI5
aa(lp6625
I6
aI9
aa(lp6626
I1
aI9
aI8
aI6
aI0
aI7
aa(lp6627
I8
aI9
aI1
aI4
aI0
aa(lp6628
I5
aa(lp6629
I5
aI3
aI2
aI8
aI11
aa(lp6630
I5
aI3
aI11
aI1
aI0
aI2
aI7
aI8
aI10
aI6
aa(lp6631
I6
aI8
aI11
aa(lp6632
I9
aI1
aI8
aa(lp6633
I8
aI4
aI9
aI6
aI0
aI2
aa(lp6634
I1
aI8
aI5
aa(lp6635
I1
aa(lp6636
I9
aI3
aa(lp6637
I5
aa(lp6638
I8
aa(lp6639
I10
aI9
aa(lp6640
I8
aI9
aI6
aI4
aI0
aI1
aa(lp6641
I4
aI9
aa(lp6642
I2
aI1
aI5
aI11
aI3
aI9
aa(lp6643
I3
aI5
aI11
aI8
aa(lp6644
I3
aI5
aa(lp6645
I3
aI5
aI11
aa(lp6646
I8
aa(lp6647
a(lp6648
I3
aI8
aa(lp6649
I11
aa(lp6650
I6
aI3
aa(lp6651
I9
aa(lp6652
I9
aI0
aI11
aI4
aa(lp6653
I11
aI2
aa(lp6654
I5
aa(lp6655
I6
aa(lp6656
I6
aI0
aI9
aI4
aI8
aa(lp6657
I9
aI3
aa(lp6658
I1
aa(lp6659
I9
aI11
aI3
aa(lp6660
I1
aI8
aI5
aa(lp6661
I1
aI8
aI9
aI11
aa(lp6662
I11
aa(lp6663
a(lp6664
I9
aI8
aa(lp6665
I3
aI11
aa(lp6666
I9
aI11
aI6
aI1
aI7
aI8
aI5
aa(lp6667
a(lp6668
I4
aI5
aa(lp6669
I9
aI3
aI6
aa(lp6670
I8
aa(lp6671
I5
aI3
aI9
aI1
aI0
aI8
aI11
aI4
aa(lp6672
a(lp6673
I3
aa(lp6674
I1
aI3
aa(lp6675
a(lp6676
a(lp6677
I9
aa(lp6678
I9
aa(lp6679
I1
aI9
aa(lp6680
I3
aI11
aa(lp6681
I5
aI3
aI1
aI0
aa(lp6682
I9
aI8
aI1
aI2
aI4
aI7
aI0
aI6
aI10
aI11
aa(lp6683
I8
aI6
aI0
aa(lp6684
a(lp6685
I9
aI11
aI8
aI6
aI5
aI1
aI3
aI0
aI4
aI7
aa(lp6686
I5
aa(lp6687
I8
aI6
aI1
aI5
aI9
aI0
aI10
aa(lp6688
I11
aI3
aI5
aa(lp6689
I9
aI8
aI1
aa(lp6690
I3
aI5
aa(lp6691
I11
aa(lp6692
I5
aa(lp6693
I3
aI0
aI5
aI11
aI8
aI9
aI10
aI4
aI6
aI7
aa(lp6694
I8
aI9
aa(lp6695
I6
aI8
aI9
aI0
aI1
aI7
aI10
aI11
aa(lp6696
I9
aI11
aI5
aI8
aa(lp6697
I9
aI1
aI11
aa(lp6698
I6
aI0
aI11
aI1
aI3
aI5
aI7
aa(lp6699
I9
aI4
aI6
aa(lp6700
I5
aa(lp6701
I9
aI1
aI11
aI3
aa(lp6702
a(lp6703
I8
aa(lp6704
I8
aI0
aI9
aI6
aI1
aa(lp6705
I1
aI9
aI2
aI5
aa(lp6706
I1
aa(lp6707
I11
aa(lp6708
I5
aa(lp6709
I5
aI11
aa(lp6710
a(lp6711
I6
aI9
aa(lp6712
I9
aI8
aI6
aI1
aI11
aI5
aI3
aa(lp6713
I5
aI8
aa(lp6714
I11
aI5
aa(lp6715
I9
aa(lp6716
I3
aI5
aa(lp6717
I5
aa(lp6718
I11
aa(lp6719
I1
aI9
aI8
aI4
aa(lp6720
I5
aa(lp6721
I9
aa(lp6722
I11
aI5
aI3
aa(lp6723
I3
aa(lp6724
I0
aa(lp6725
I9
aI8
aI3
aI4
aI0
aa(lp6726
I9
aa(lp6727
I3
aI8
aI0
aa(lp6728
I9
aI11
aa(lp6729
I3
aI6
aI9
aa(lp6730
I6
aI3
aI11
aI2
aa(lp6731
I1
aI8
aI4
aa(lp6732
I8
aI9
aa(lp6733
I11
aI5
aI3
aI0
aI6
aa(lp6734
I11
aI0
aI9
aI1
aa(lp6735
I5
aI1
aa(lp6736
I6
aa(lp6737
I8
aI3
aI9
aI11
aI5
aa(lp6738
a(lp6739
I5
aI3
aa(lp6740
I8
aa(lp6741
I1
aa(lp6742
I8
aI9
aI0
aa(lp6743
I9
aI6
aI8
aa(lp6744
I3
aI5
aI0
aI11
aI8
aI9
aI10
aI6
aI7
aI1
aa(lp6745
a(lp6746
I1
aI4
aI8
aa(lp6747
I1
aa(lp6748
I6
aI0
aI9
aI8
aI10
aI7
aI1
aI4
aI11
aI5
aa(lp6749
I5
aI11
aa(lp6750
I9
aI1
aI8
aI4
aI7
aI10
aa(lp6751
I1
aI8
aI4
aI7
aI9
aa(lp6752
I6
aa(lp6753
a(lp6754
I3
aI5
aI11
aa(lp6755
I11
aI5
aI3
aa(lp6756
I11
aI8
aI9
aI6
aa(lp6757
I11
aI3
aI6
aI0
aa(lp6758
I1
aI6
aI9
aI8
aI0
aI4
aI10
aI7
aI11
aI3
aa(lp6759
I11
aI3
aI8
aa(lp6760
I11
aa(lp6761
I11
aI3
aa(lp6762
I8
aa(lp6763
a(lp6764
I11
aI3
aI2
aI9
aa(lp6765
I9
aI8
aI1
aI0
aI6
aI10
aI2
aI7
aI4
aI11
aa(lp6766
I5
aI6
aI11
aa(lp6767
I8
aI5
aI6
aa(lp6768
I9
aI8
aI3
aa(lp6769
I8
aI9
aI1
aa(lp6770
I6
aI5
aI3
aa(lp6771
I9
aI6
aa(lp6772
I11
aI5
aI3
aI9
aI2
aI8
aI1
aI7
aI10
aI4
aa(lp6773
I9
aa(lp6774
I1
aI9
aa(lp6775
I8
aI6
aI9
aI10
aa(lp6776
I3
aI5
aI11
aI9
aa(lp6777
I1
aa(lp6778
a(lp6779
I11
aa(lp6780
I0
aa(lp6781
I2
aI1
aa(lp6782
I9
aI3
aI11
aa(lp6783
I8
aI5
aa(lp6784
I9
aI1
aI2
aI11
aI7
aI4
aI3
aI6
aa(lp6785
I8
aa(lp6786
I10
aI4
aa(lp6787
I5
aI3
aI11
aI4
aI7
aI1
aI9
aI10
aI8
aI0
aa(lp6788
a(lp6789
I8
aa(lp6790
I11
aI5
aI3
aI9
aI8
aI1
aI4
aI2
aI6
aI0
aa(lp6791
I9
aI3
aa(lp6792
I3
aa(lp6793
I9
aI4
aI3
aa(lp6794
a(lp6795
I1
aI9
aI7
aI4
aa(lp6796
I10
aI4
aI6
aI9
aa(lp6797
I6
aI8
aI1
aI0
aI9
aI4
aI7
aa(lp6798
I11
aa(lp6799
I8
aI11
aI9
aI3
aI1
aI7
aI5
aI2
aI4
aI6
aa(lp6800
a(lp6801
I9
aI8
aI4
aI6
aI3
aa(lp6802
I1
aI4
aa(lp6803
I0
aI6
aI8
aa(lp6804
I3
aI9
aa(lp6805
I5
aa(lp6806
I1
aI8
aI9
aI7
aa(lp6807
a(lp6808
I9
aI1
aa(lp6809
I9
aI8
aI0
aa(lp6810
I3
aa(lp6811
I2
aI1
aI9
aI4
aI10
aI8
aI6
aI5
aI11
aI0
aa(lp6812
I1
aa(lp6813
I1
aI11
aI3
aI5
aI7
aI4
aI2
aI8
aI9
aI10
aa(lp6814
I4
aa(lp6815
I1
aI7
aI9
aI8
aI4
aI2
aI0
aI6
aI11
aa(lp6816
I6
aI0
aI8
aI9
aI5
aI3
aI11
aI7
aI10
aI4
aa(lp6817
I5
aI11
aI9
aI1
aI7
aa(lp6818
I9
aa(lp6819
I5
aI1
aI8
aI3
aI4
aa(lp6820
I6
aI8
aa(lp6821
I0
aI6
aa(lp6822
a(lp6823
I8
aI9
aI3
aa(lp6824
I8
aI9
aI11
aI5
aa(lp6825
I6
aI0
aa(lp6826
a(lp6827
I9
aI3
aa(lp6828
I11
aI5
aa(lp6829
a(lp6830
a(lp6831
I11
aI5
aa(lp6832
I2
aI1
aI4
aI6
aI7
aI8
aI11
aa(lp6833
I8
aI5
aI4
aI1
aI9
aI6
aa(lp6834
I3
aa(lp6835
I1
aa(lp6836
I4
aI9
aI8
aI0
aa(lp6837
I2
aa(lp6838
I9
aI8
aI4
aI3
aI0
aI7
aI11
aI5
aI6
aI10
aa(lp6839
I5
aa(lp6840
I9
aa(lp6841
I9
aI6
aI7
aI1
aI3
aI8
aI10
aI4
aI0
aI2
aa(lp6842
I2
aI11
aI5
aI3
aI1
aI6
aa(lp6843
I3
aI1
aa(lp6844
I1
aI6
aa(lp6845
I1
aI8
aI0
aI5
aI9
aI10
aI11
aI6
aI3
aI2
aa(lp6846
I9
aI8
aI5
aI0
aI6
aI4
aI11
aI3
aa(lp6847
I0
aI2
aI1
aa(lp6848
I6
aI0
aa(lp6849
I8
aI9
aI1
aI6
aI0
aI5
aI3
aI2
aI7
aa(lp6850
I2
aI1
aI8
aI5
aI9
aI10
aI11
aI7
aI6
aI4
aa(lp6851
I6
aI0
aa(lp6852
I5
aI11
aa(lp6853
I3
aa(lp6854
I8
aI1
aI4
aI7
aI2
aI0
aI5
aI9
aI11
aI6
aa(lp6855
I11
aa(lp6856
I11
aI5
aI3
aa(lp6857
I3
aI6
aI11
aI5
aa(lp6858
I3
aI11
aI5
aI8
aI4
aa(lp6859
I6
aI1
aI9
aa(lp6860
I6
aI5
aI9
aI11
aI8
aa(lp6861
I8
aa(lp6862
I2
aI5
aI11
aI9
aa(lp6863
I1
aa(lp6864
I11
aI5
aI3
aI2
aI4
aI10
aa(lp6865
I2
aa(lp6866
I6
aI0
aa(lp6867
I8
aa(lp6868
I8
aI9
aa(lp6869
I9
aa(lp6870
I0
aI6
aa(lp6871
a(lp6872
I8
aa(lp6873
I11
aI9
aI1
aa(lp6874
I8
aI3
aI9
aa(lp6875
I11
aa(lp6876
I8
aI0
aI9
aI11
aa(lp6877
I8
aI5
aa(lp6878
I1
aa(lp6879
I8
aI9
aI5
aI0
aI6
aI1
aI11
aI3
aI7
aI10
aa(lp6880
I1
aI8
aa(lp6881
a(lp6882
I1
aI3
aI5
aa(lp6883
I8
aI1
aI7
aI6
aI9
aI4
aI2
aI0
aI11
aI10
aa(lp6884
I6
aI0
aI9
aa(lp6885
I5
aI3
aI6
aa(lp6886
I11
aa(lp6887
I11
aa(lp6888
I6
aI0
aa(lp6889
a(lp6890
I1
aI4
aI8
aa(lp6891
I9
aI4
aI8
aI6
aa(lp6892
I6
aa(lp6893
I5
aI3
aa(lp6894
I6
aa(lp6895
I9
aa(lp6896
a(lp6897
I6
aa(lp6898
I6
aI0
aa(lp6899
I9
aa(lp6900
I9
aI0
aI8
aI10
aI4
aI7
aI2
aI1
aI3
aI6
aa(lp6901
I1
aI5
aa(lp6902
a(lp6903
I8
aI0
aI6
aI9
aI4
aa(lp6904
I5
aI3
aI11
aI9
aa(lp6905
I8
aI5
aa(lp6906
I3
aI5
aa(lp6907
I3
aa(lp6908
I9
aa(lp6909
I3
aI0
aI5
aI8
aI9
aa(lp6910
I11
aI1
aa(lp6911
I5
aI2
aa(lp6912
I1
aI8
aI9
aI4
aI6
aI0
aI2
aI5
aI3
aI11
aa(lp6913
I9
aa(lp6914
I11
aa(lp6915
I5
aI8
aI11
aI3
aa(lp6916
I9
aI6
aI11
aI8
aI0
aI3
aI7
aI4
aI5
aI2
aa(lp6917
I3
aa(lp6918
I9
aI11
aI3
aI8
aa(lp6919
I3
aa(lp6920
I5
aa(lp6921
I5
aI11
aI9
aI3
aa(lp6922
I5
aa(lp6923
I5
aI3
aI11
aI9
aI4
aI2
aI1
aI0
aI10
aa(lp6924
I8
aI7
aI9
aI4
aI1
aa(lp6925
a(lp6926
I5
aI11
aI3
aa(lp6927
I6
aa(lp6928
I11
aI3
aa(lp6929
I3
aa(lp6930
I9
aI1
aI8
aI7
aa(lp6931
I9
aI6
aI5
aI11
aa(lp6932
I8
aI1
aI2
aI3
aI5
aI11
aI4
aI7
aI10
aI9
aa(lp6933
I8
aa(lp6934
I1
aI9
aI2
aa(lp6935
I1
aa(lp6936
I9
aI1
aI8
aa(lp6937
I0
aa(lp6938
I11
aa(lp6939
I1
aa(lp6940
I6
aI8
aI9
aa(lp6941
I9
aI0
aI6
aI11
aI8
aI4
aI1
aa(lp6942
I9
aa(lp6943
a(lp6944
I3
aI9
aI6
aI8
aI11
aI5
aa(lp6945
I3
aI2
aa(lp6946
I11
aI5
aa(lp6947
I1
aa(lp6948
I8
aI9
aa(lp6949
I10
aI9
aI3
aI6
aI8
aa(lp6950
I8
aa(lp6951
I3
aI2
aI1
aa(lp6952
I3
aI5
aI11
aa(lp6953
I3
aI5
aa(lp6954
I3
aI11
aI5
aI4
aI2
aI7
aI9
aI10
aI1
aI8
aa(lp6955
a(lp6956
I1
aI9
aI3
aI7
aa(lp6957
I1
aa(lp6958
I1
aI11
aI9
aI0
aI3
aa(lp6959
I4
aa(lp6960
I5
aI9
aI6
aI1
aI0
aI10
aI8
aa(lp6961
I5
aI9
aI2
aa(lp6962
I5
aI3
aI11
aa(lp6963
I5
aI11
aa(lp6964
I5
aI9
aI10
aI3
aI11
aI0
aI6
aI7
aI8
aI4
aa(lp6965
I5
aI11
aI3
aa(lp6966
a(lp6967
a(lp6968
I2
aI3
aa(lp6969
I11
aI5
aa(lp6970
I3
aI5
aa(lp6971
I1
aI9
aI3
aa(lp6972
I3
aI11
aI5
aI7
aI10
aI8
aI6
aI0
aI1
aI9
aa(lp6973
I9
aI0
aa(lp6974
I3
aa(lp6975
I7
aa(lp6976
I11
aa(lp6977
I3
aI5
aI4
aI0
aI8
aI9
aI10
aI11
aI7
aI6
aa(lp6978
I1
aI8
aI5
aI9
aa(lp6979
I11
aI8
aa(lp6980
I8
aI9
aI6
aI1
aa(lp6981
I1
aI9
aa(lp6982
I3
aI5
aa(lp6983
I0
aa(lp6984
I11
aI5
aa(lp6985
I9
aI8
aI6
aa(lp6986
I9
aa(lp6987
I9
aI11
aa(lp6988
I8
aa(lp6989
a(lp6990
I9
aI6
aI5
aa(lp6991
I8
aa(lp6992
a(lp6993
I8
aI2
aa(lp6994
I11
aI3
aa(lp6995
I3
aa(lp6996
I6
aI3
aI8
aa(lp6997
I9
aI4
aI7
aa(lp6998
I5
aI3
aI11
aI8
aa(lp6999
I11
aa(lp7000
I3
aI5
aI9
aI11
aI7
aa(lp7001
I8
aa(lp7002
I5
aa(lp7003
I1
aI3
aI11
aa(lp7004
I9
aa(lp7005
I5
aI1
aa(lp7006
I1
aI7
aa(lp7007
I8
aI1
aI11
aI5
aa(lp7008
I9
aI8
aa(lp7009
I8
aI1
aa(lp7010
I9
aI6
aI11
aa(lp7011
I3
aa(lp7012
I11
aa(lp7013
I3
aI5
aI11
aa(lp7014
I9
aI8
aI11
aI2
aa(lp7015
I8
aI9
aI1
aI3
aI2
aI5
aI11
aI0
aI7
aI10
aa(lp7016
I5
aI3
aa(lp7017
I5
aI8
aI1
aI11
aI3
aI6
aa(lp7018
I8
aI9
aa(lp7019
I5
aI11
aI3
aI2
aI8
aI1
aI0
aI6
aI9
aI10
aa(lp7020
I1
aI9
aa(lp7021
I3
aI9
aa(lp7022
I5
aa(lp7023
I9
aI2
aI8
aa(lp7024
I4
aI9
aI7
aa(lp7025
I9
aI3
aI0
aI11
aI5
aa(lp7026
I8
aI1
aI9
aI10
aI6
aa(lp7027
I11
aa(lp7028
I11
aa(lp7029
I11
aa(lp7030
I8
aI9
aa(lp7031
I9
aI8
aI0
aI6
aa(lp7032
I9
aI8
aI6
aI1
aI0
aI10
aI4
aI2
aI3
aI7
aa(lp7033
I5
aI1
aI11
aI6
aI8
aI2
aI0
aI3
aI4
aI7
aa(lp7034
I4
aa(lp7035
I6
aI0
aI1
aI8
aa(lp7036
I11
aI5
aI3
aa(lp7037
I8
aI1
aa(lp7038
I1
aI2
aa(lp7039
I9
aI6
aa(lp7040
I1
aI11
aI2
aa(lp7041
I3
aa(lp7042
I8
aI6
aa(lp7043
I3
aa(lp7044
a(lp7045
I1
aI11
aI9
aI5
aa(lp7046
I9
aa(lp7047
I9
aI6
aI8
aI0
aI1
aa(lp7048
I3
aI9
aa(lp7049
I11
aa(lp7050
I11
aa(lp7051
I8
aI6
aa(lp7052
I8
aI7
aa(lp7053
I11
aI5
aI8
aa(lp7054
I1
aI5
aI8
aI9
aI10
aI11
aI6
aI7
aI4
aI3
aa(lp7055
I5
aa(lp7056
I8
aa(lp7057
I6
aI8
aI1
aa(lp7058
I5
aI11
aa(lp7059
I11
aI3
aI5
aI9
aI8
aa(lp7060
I3
aI11
aI5
aI8
aa(lp7061
I2
aa(lp7062
I11
aa(lp7063
I3
aI9
aI0
aI11
aa(lp7064
I11
aI3
aI5
aa(lp7065
I3
aI5
aI11
aI1
aI2
aa(lp7066
I3
aa(lp7067
a(lp7068
I8
aI9
aa(lp7069
I8
aI9
aI6
aI1
aI0
aI4
aI7
aI11
aI5
aI3
aa(lp7070
I9
aI3
aa(lp7071
I0
aI8
aI6
aa(lp7072
I2
aI10
aI4
aI3
aa(lp7073
I1
aa(lp7074
I11
aa(lp7075
I9
aI6
aI4
aa(lp7076
I8
aI5
aI1
aI2
aI9
aI11
aI6
aI0
aa(lp7077
I3
aI11
aI5
aI9
aI8
aa(lp7078
I4
aI1
aI5
aI6
aI3
aI11
aI8
aI9
aI7
aI0
aa(lp7079
I11
aa(lp7080
I1
aa(lp7081
I6
aI8
aI0
aa(lp7082
I8
aI3
aI5
aa(lp7083
I5
aI11
aI1
aa(lp7084
I11
aI5
aI3
aI8
aI9
aI10
aI7
aI6
aI0
aI2
aa(lp7085
I9
aI1
aa(lp7086
I0
aI8
aI6
aI11
aI3
aI1
aI4
aI9
aI10
aI7
aa(lp7087
I11
aa(lp7088
I11
aa(lp7089
I11
aI5
aI3
aI2
aa(lp7090
a(lp7091
I6
aI0
aa(lp7092
I3
aa(lp7093
I3
aI9
aa(lp7094
I9
aI0
aI8
aI4
aI1
aI6
aI3
aI5
aI11
aI7
aa(lp7095
a(lp7096
I5
aI2
aI9
aI11
aa(lp7097
I4
aI3
aI1
aI5
aI9
aI7
aI11
aI8
aI6
aI0
aa(lp7098
I6
aI0
aI10
aI9
aI8
aI4
aI7
aI2
aI11
aI5
aa(lp7099
I0
aa(lp7100
I8
aI6
aI0
aI9
aI11
aI5
aI3
aa(lp7101
a(lp7102
I1
aI9
aI8
aI4
aI5
aI11
aI3
aI2
aI7
aI10
aa(lp7103
I8
aI5
aa(lp7104
I3
aa(lp7105
I3
aI5
aI1
aa(lp7106
I1
aI4
aa(lp7107
I6
aI9
aa(lp7108
I1
aI9
aI3
aa(lp7109
I9
aI0
aa(lp7110
I6
aa(lp7111
I8
aI0
aI1
aI9
aI6
aI4
aI3
aI11
aI10
aI7
aa(lp7112
I11
aI3
aI5
aa(lp7113
I6
aI11
aa(lp7114
I3
aI11
aa(lp7115
I1
aa(lp7116
I11
aI5
aI3
aI6
aa(lp7117
I9
aI6
aI8
aI5
aI11
aI0
aa(lp7118
I6
aI3
aI9
aI8
aa(lp7119
I11
aa(lp7120
a(lp7121
I9
aI6
aI4
aI8
aI2
aI0
aa(lp7122
I11
aI9
aI5
aI3
aI1
aI0
aa(lp7123
I11
aI1
aI8
aI2
aI4
aI7
aI9
aI10
aI6
aI0
aa(lp7124
I5
aI11
aa(lp7125
I8
aI1
aI3
aa(lp7126
I11
aI5
aI3
aI9
aa(lp7127
a(lp7128
I8
aI6
aI9
aI1
aa(lp7129
I6
aa(lp7130
I3
aI4
aa(lp7131
I1
aI3
aa(lp7132
I8
aI9
aI4
aI1
aI2
aI7
aI6
aI0
aI3
aa(lp7133
I1
aI7
aI4
aI10
aI9
aI8
aI0
aI2
aI3
aI5
aa(lp7134
I3
aa(lp7135
I8
aI1
aI4
aa(lp7136
I8
aa(lp7137
I5
aI3
aa(lp7138
I0
aa(lp7139
I5
aI11
aI6
aI9
aa(lp7140
I1
aI9
aI2
aI4
aa(lp7141
I6
aa(lp7142
I9
aa(lp7143
I8
aI6
aI7
aa(lp7144
I5
aa(lp7145
I9
aI8
aI1
aa(lp7146
I9
aI8
aI6
aI4
aI10
aI1
aI0
aI2
aI11
aI3
aa(lp7147
I9
aI6
aI8
aI0
aa(lp7148
I9
aI8
aa(lp7149
I3
aI5
aI8
aa(lp7150
I3
aa(lp7151
I9
aI3
aI5
aI8
aa(lp7152
I5
aI11
aa(lp7153
I8
aa(lp7154
I5
aa(lp7155
I2
aa(lp7156
a(lp7157
I6
aa(lp7158
I9
aa(lp7159
I1
aI8
aI9
aI3
aI4
aI7
aa(lp7160
I5
aa(lp7161
I5
aa(lp7162
I8
aI4
aI9
aa(lp7163
I5
aa(lp7164
I1
aI3
aa(lp7165
I11
aa(lp7166
I11
aI6
aI8
aI5
aI0
aI3
aI4
aI9
aa(lp7167
I5
aa(lp7168
I3
aI5
aI11
aI0
aa(lp7169
I11
aI8
aa(lp7170
I8
aI0
aI6
aI9
aI11
aa(lp7171
I5
aI1
aI11
aa(lp7172
a(lp7173
a(lp7174
I1
aI0
aI9
aI8
aa(lp7175
a(lp7176
I6
aI8
aa(lp7177
I3
aI9
aI5
aa(lp7178
I3
aa(lp7179
I8
aI0
aI4
aI7
aa(lp7180
I9
aI8
aa(lp7181
I9
aa(lp7182
I8
aI3
aI11
aI9
aa(lp7183
I11
aI3
aa(lp7184
I2
aa(lp7185
I1
aI6
aI8
aa(lp7186
I11
aI3
aa(lp7187
I9
aI6
aI8
aI7
aa(lp7188
I11
aa(lp7189
I1
aI9
aa(lp7190
I3
aa(lp7191
I9
aI3
aI1
aI8
aI4
aI6
aa(lp7192
I3
aI11
aI5
aa(lp7193
I1
aI6
aa(lp7194
I9
aI11
aI8
aI1
aI5
aI6
aI2
aa(lp7195
I8
aI5
aI9
aI11
aI3
aI1
aI2
aI6
aI10
aI7
aa(lp7196
I9
aI2
aa(lp7197
I8
aI3
aI11
aI5
aI6
aa(lp7198
I3
aa(lp7199
I3
aI8
aI9
aI6
aa(lp7200
I9
aa(lp7201
I3
aa(lp7202
I1
aI5
aI3
aI9
aI11
aI2
aI6
aI0
aI10
aa(lp7203
I0
aI9
aI6
aa(lp7204
I5
aa(lp7205
I9
aI8
aI6
aI3
aI0
aa(lp7206
a(lp7207
I11
aI1
aI5
aI6
aI0
aI9
aI3
aI7
aI10
aI8
aa(lp7208
I4
aI2
aI1
aI8
aa(lp7209
I1
aI8
aa(lp7210
I4
aa(lp7211
I6
aI9
aa(lp7212
a(lp7213
I2
aI1
aI9
aI3
aI5
aa(lp7214
I7
aI9
aa(lp7215
I4
aI1
aI11
aI9
aI2
aI3
aI5
aI8
aI7
aI10
aa(lp7216
I7
aI10
aa(lp7217
a(lp7218
I1
aa(lp7219
I9
aI6
aI0
aa(lp7220
I11
aI5
aI0
aI9
aI8
aI6
aa(lp7221
I11
aI5
aa(lp7222
I1
aI10
aI2
aI4
aI7
aI8
aI0
aI6
aI9
aI11
aa(lp7223
I9
aI8
aa(lp7224
I11
aI4
aI5
aa(lp7225
I5
aI7
aI3
aI11
aI9
aI8
aI6
aa(lp7226
I3
aa(lp7227
a(lp7228
I10
aI11
aa(lp7229
I11
aI5
aa(lp7230
I9
aa(lp7231
a(lp7232
I6
aI8
aI9
aI11
aa(lp7233
I6
aI0
aa(lp7234
I8
aI9
aI2
aI6
aI0
aI5
aa(lp7235
I11
aI8
aa(lp7236
I8
aa(lp7237
I8
aa(lp7238
I11
aI1
aI3
aI5
aI4
aI7
aI9
aI10
aI2
aI0
aa(lp7239
I11
aa(lp7240
I9
aa(lp7241
I9
aI8
aI4
aI1
aI0
aI6
aI10
aI3
aI7
aI11
aa(lp7242
I8
aI9
aI2
aI1
aa(lp7243
I9
aI0
aI8
aI6
aI7
aI2
aa(lp7244
I3
aI5
aI6
aa(lp7245
I6
aa(lp7246
I3
aa(lp7247
I4
aI8
aa(lp7248
I8
aI6
aI0
aa(lp7249
I3
aI11
aI5
aa(lp7250
I9
aI8
aI3
aa(lp7251
I3
aI5
aI11
aI9
aI1
aI7
aI8
aI10
aa(lp7252
a(lp7253
I5
aa(lp7254
I9
aI4
aI5
aa(lp7255
I1
aI9
aI0
aI6
aI2
aI8
aa(lp7256
I5
aI1
aI11
aI10
aI9
aI8
aI7
aI6
aI4
aI3
aa(lp7257
I3
aI5
aI11
aI9
aI8
aI0
aI10
aI7
aI6
aI4
aa(lp7258
I1
aI5
aa(lp7259
I5
aI3
aI11
aI9
aI8
aI10
aI6
aI4
aI0
aI2
aa(lp7260
I9
aI3
aI8
aa(lp7261
I5
aI2
aI1
aa(lp7262
I9
aI5
aI8
aI3
aI0
aI11
aI6
aI7
aI2
aI10
aa(lp7263
I9
aI8
aI6
aI0
aa(lp7264
I8
aI1
aI3
aI4
aI9
aI11
aI7
aI5
aI2
aI0
aa(lp7265
I9
aa(lp7266
a(lp7267
I8
aa(lp7268
I6
aa(lp7269
I8
aI2
aI9
aa(lp7270
a(lp7271
I1
aI8
aI5
aI0
aI7
aa(lp7272
I6
aI0
aI4
aI3
aI5
aI9
aI11
aI8
aI10
aI7
aa(lp7273
I3
aI11
aa(lp7274
I11
aI5
aa(lp7275
I1
aa(lp7276
I3
aI9
aI8
aa(lp7277
I9
aI8
aI3
aI11
aI5
aI1
aI7
aI0
aI4
aI10
aa(lp7278
I5
aI11
aa(lp7279
I3
aI9
aI6
aI8
aI0
aI1
aa(lp7280
I11
aa(lp7281
I5
aa(lp7282
I1
aa(lp7283
I5
aI3
aI11
aI6
aI8
aa(lp7284
I5
aa(lp7285
I8
aa(lp7286
I8
aI9
aI4
aI1
aa(lp7287
I0
aI6
aa(lp7288
I6
aI0
aI8
aI9
aI1
aI4
aI2
aI10
aI7
aI3
aa(lp7289
I8
aa(lp7290
a(lp7291
I3
aa(lp7292
I8
aa(lp7293
I9
aa(lp7294
I3
aI5
aI11
aa(lp7295
I3
aI6
aI5
aI8
aI9
aI0
aI10
aI11
aI7
aI1
aa(lp7296
I1
aI9
aa(lp7297
I5
aI3
aa(lp7298
I4
aI6
aI8
aI9
aI5
aa(lp7299
I5
aa(lp7300
I5
aa(lp7301
a(lp7302
I3
aI11
aa(lp7303
I3
aI5
aa(lp7304
I6
aI9
aI5
aI0
aI1
aI4
aI8
aI11
aI3
aI7
aa(lp7305
I8
aI9
aI6
aI1
aI4
aI3
aI0
aI5
aI7
aa(lp7306
I0
aI11
aa(lp7307
I1
aa(lp7308
I6
aI5
aI0
aI8
aa(lp7309
I8
aI1
aI6
aI9
aI0
aI11
aI10
aI7
aI5
aI4
aa(lp7310
a(lp7311
I11
aI5
aI3
aI9
aI8
aI1
aI7
aI10
aI4
aI6
aa(lp7312
I6
aI8
aI7
aI9
aI10
aI4
aa(lp7313
I11
aa(lp7314
I8
aI1
aI9
aI10
aI4
aI0
aI6
aI7
aI11
aI5
aa(lp7315
I11
aa(lp7316
I8
aI2
aI9
aa(lp7317
I6
aa(lp7318
I1
aa(lp7319
I11
aI3
aa(lp7320
I9
aa(lp7321
I6
aI3
aI4
aa(lp7322
I1
aI9
aI10
aI7
aI6
aI8
aI4
aa(lp7323
I1
aI9
aI2
aa(lp7324
I3
aa(lp7325
I5
aI11
aa(lp7326
I3
aa(lp7327
I1
aI5
aI11
aa(lp7328
I5
aI1
aa(lp7329
I1
aI9
aa(lp7330
I6
aa(lp7331
I6
aI1
aI3
aa(lp7332
I1
aI2
aI8
aI9
aa(lp7333
I9
aI4
aa(lp7334
I1
aI9
aI2
aI4
aI7
aa(lp7335
I5
aI4
aI1
aI8
aI9
aI3
aI10
aa(lp7336
I5
aI11
aa(lp7337
I8
aI9
aI0
aI4
aa(lp7338
I6
aI0
aI7
aI5
aI4
aI3
aI9
aa(lp7339
I11
aI8
aa(lp7340
I1
aI2
aI11
aa(lp7341
I8
aI5
aI11
aI6
aI1
aI0
aI2
aI3
aI4
aI7
aa(lp7342
I11
aI5
aI6
aa(lp7343
a(lp7344
I3
aa(lp7345
I11
aa(lp7346
I6
aI9
aI0
aI1
aI8
aa(lp7347
I5
aI3
aI11
aI9
aI2
aa(lp7348
I6
aI0
aa(lp7349
I8
aI3
aa(lp7350
I1
aa(lp7351
I8
aa(lp7352
I6
aI0
aI8
aI3
aI5
aa(lp7353
I6
aI0
aa(lp7354
I9
aI8
aI6
aa(lp7355
I3
aI9
aI6
aI8
aI0
aa(lp7356
I11
aa(lp7357
I6
aI3
aI9
aI8
aI5
aI0
aI11
aa(lp7358
I9
aa(lp7359
I1
aa(lp7360
I3
aI5
aI11
aa(lp7361
I5
aI6
aa(lp7362
I1
aI2
aI9
aa(lp7363
I5
aI11
aI3
aI8
aI1
aI0
aI6
aI9
aI4
aI10
aa(lp7364
I9
aI8
aI1
aI6
aI0
aa(lp7365
a(lp7366
I3
aI5
aI6
aI9
aI11
aI1
aI7
aI4
aI8
aI10
aa(lp7367
I3
aI11
aI1
aI0
aa(lp7368
I9
aI5
aI8
aI1
aa(lp7369
I11
aa(lp7370
a(lp7371
I11
aa(lp7372
I6
aI0
aI1
aa(lp7373
I5
aI11
aI8
aa(lp7374
I5
aI11
aI9
aI3
aa(lp7375
I1
aa(lp7376
I11
aI5
aI6
aI9
aa(lp7377
I2
aI1
aI11
aI5
aa(lp7378
a(lp7379
I9
aI8
aI6
aa(lp7380
I11
aI5
aI3
aI1
aI4
aa(lp7381
I3
aI5
aa(lp7382
I5
aI11
aI9
aa(lp7383
I11
aI5
aI3
aa(lp7384
I11
aa(lp7385
I11
aa(lp7386
I9
aI6
aI8
aa(lp7387
I11
aI3
aI5
aI4
aI7
aI10
aI9
aI2
aI1
aI0
aa(lp7388
I9
aI8
aI5
aI4
aI3
aa(lp7389
I8
aI1
aI4
aI7
aI6
aa(lp7390
I3
aI5
aI9
aI11
aI4
aa(lp7391
a(lp7392
I11
aI6
aI0
aa(lp7393
I5
aI11
aI6
aa(lp7394
I3
aI1
aa(lp7395
I0
aa(lp7396
I0
aa(lp7397
I11
aI5
aa(lp7398
I5
aa(lp7399
I8
aI3
aI1
aa(lp7400
I8
aI6
aI3
aI9
aa(lp7401
I0
aI6
aI11
aI9
aI8
aa(lp7402
I4
aa(lp7403
I11
aI1
aI5
aa(lp7404
I1
aI4
aI7
aa(lp7405
I9
aI2
aI11
aI3
aI5
aI8
aI7
aa(lp7406
I11
aa(lp7407
I5
aI3
aI11
aI1
aI9
aI4
aa(lp7408
I6
aI0
aI8
aI9
aI10
aI5
aa(lp7409
I9
aI1
aI5
aa(lp7410
I1
aa(lp7411
I8
aI6
aI0
aI9
aI4
aa(lp7412
I9
aI8
aa(lp7413
I2
aa(lp7414
I9
aI5
aI6
aI11
aa(lp7415
I11
aI8
aI9
aa(lp7416
I1
aa(lp7417
I8
aI1
aa(lp7418
I5
aI1
aI8
aa(lp7419
I11
aI5
aI0
aa(lp7420
I8
aI9
aa(lp7421
I6
aI4
aa(lp7422
I3
aa(lp7423
a(lp7424
I1
aI2
aI8
aa(lp7425
I8
aI9
aI0
aI6
aI7
aI10
aa(lp7426
I6
aI9
aa(lp7427
I8
aI2
aI4
aI1
aa(lp7428
I1
aa(lp7429
I3
aI11
aa(lp7430
I3
aI8
aa(lp7431
I1
aI2
aa(lp7432
I9
aa(lp7433
I11
aI5
aa(lp7434
I8
aI1
aI9
aa(lp7435
a(lp7436
I11
aa(lp7437
I6
aI5
aI3
aa(lp7438
I8
aI9
aI6
aI1
aI3
aI5
aa(lp7439
I5
aI0
aI8
aI11
aa(lp7440
I3
aI8
aI9
aa(lp7441
I1
aa(lp7442
I1
aa(lp7443
I11
aa(lp7444
I9
aI8
aI3
aa(lp7445
I6
aI5
aI8
aa(lp7446
I8
aa(lp7447
I3
aa(lp7448
I3
aI0
aI6
aa(lp7449
I11
aI9
aI5
aa(lp7450
I8
aa(lp7451
I0
aa(lp7452
I9
aI8
aI6
aa(lp7453
I9
aI8
aa(lp7454
I6
aa(lp7455
I3
aI11
aa(lp7456
I1
aI7
aI2
aI4
aa(lp7457
I6
aI8
aI1
aa(lp7458
I8
aa(lp7459
I8
aa(lp7460
I5
aa(lp7461
I9
aI8
aI1
aI0
aa(lp7462
I1
aI5
aI11
aI3
aI4
aa(lp7463
I1
aI9
aI5
aa(lp7464
I3
aa(lp7465
I1
aI3
aa(lp7466
I1
aI2
aI8
aI10
aI9
aI4
aI11
aI7
aI3
aI6
aa(lp7467
a(lp7468
a(lp7469
I6
aI0
aa(lp7470
I8
aI9
aa(lp7471
I1
aa(lp7472
I3
aI11
aI5
aI9
aI1
aI0
aa(lp7473
I9
aI8
aI6
aI0
aI1
aI4
aI3
aI5
aI11
aI7
aa(lp7474
I8
aI3
aI0
aI9
aI11
aI1
aI5
aI6
aI7
aI10
aa(lp7475
I1
aI8
aI11
aI7
aa(lp7476
I5
aa(lp7477
a(lp7478
I8
aI1
aa(lp7479
I9
aa(lp7480
I9
aI1
aa(lp7481
I5
aa(lp7482
I6
aI0
aa(lp7483
I5
aI3
aI11
aI0
aI6
aI9
aI8
aI1
aa(lp7484
I5
aa(lp7485
I3
aa(lp7486
a(lp7487
a(lp7488
I6
aa(lp7489
I1
aa(lp7490
a(lp7491
I5
aI11
aI3
aI9
aI1
aI2
aI7
aa(lp7492
I1
aI2
aa(lp7493
I3
aI9
aa(lp7494
I3
aI8
aI9
aa(lp7495
I8
aI9
aa(lp7496
I9
aI8
aI3
aI5
aI4
aI6
aI7
aI0
aI1
aI2
aa(lp7497
I3
aa(lp7498
I3
aI9
aa(lp7499
I3
aI9
aI11
aI1
aI0
aI4
aI6
aI7
aI8
aI10
aa(lp7500
I8
aI5
aa(lp7501
I9
aI11
aI5
aa(lp7502
I5
aa(lp7503
I1
aa(lp7504
I1
aa(lp7505
I5
aa(lp7506
I8
aI9
aa(lp7507
a(lp7508
I5
aa(lp7509
I3
aI11
aI5
aI8
aa(lp7510
I11
aI6
aa(lp7511
I11
aI5
aI3
aI8
aI0
aI4
aa(lp7512
I6
aI0
aI8
aI9
aa(lp7513
I11
aa(lp7514
I3
aa(lp7515
I6
aI9
aI11
aI2
aI1
aI3
aI5
aI8
aI0
aI10
aa(lp7516
I0
aI6
aa(lp7517
I9
aa(lp7518
I9
aI8
aI4
aa(lp7519
I1
aI2
aa(lp7520
I11
aa(lp7521
I11
aI5
aI3
aI8
aa(lp7522
I3
aI11
aI5
aa(lp7523
a(lp7524
I3
aa(lp7525
I11
aI1
aI3
aI6
aI9
aa(lp7526
I11
aI5
aI3
aI6
aa(lp7527
I8
aI5
aI3
aa(lp7528
I5
aI8
aI9
aI11
aI1
aI4
aa(lp7529
I9
aI11
aI5
aI3
aI8
aa(lp7530
I3
aI5
aa(lp7531
I5
aa(lp7532
I1
aI9
aI8
aa(lp7533
I6
aI0
aI8
aI9
aI1
aa(lp7534
I11
aa(lp7535
I9
aa(lp7536
I4
aI9
aI6
aI8
aI0
aI11
aI1
aa(lp7537
I11
aa(lp7538
I8
aI9
aI0
aa(lp7539
I1
aI8
aI6
aI9
aI0
aI4
aI7
aI2
aI11
aI3
aa(lp7540
I9
aa(lp7541
I8
aa(lp7542
I9
aI11
aI3
aa(lp7543
I6
aI5
aa(lp7544
I11
aa(lp7545
I5
aI8
aI9
aa(lp7546
I0
aI6
aI5
aa(lp7547
I2
aI1
aI4
aI9
aI8
aI7
aI6
aI5
aa(lp7548
I1
aI8
aa(lp7549
I3
aa(lp7550
I5
aa(lp7551
I1
aI0
aI8
aa(lp7552
I10
aI4
aa(lp7553
I8
aI9
aI6
aI11
aI0
aa(lp7554
I9
aa(lp7555
I2
aI8
aI9
aI1
aI4
aI7
aI10
aI0
aI6
aI3
aa(lp7556
I3
aa(lp7557
I1
aa(lp7558
I9
aI4
aI1
aa(lp7559
I8
aI9
aI4
aI1
aa(lp7560
I5
aI9
aI11
aI3
aI7
aI10
aI2
aI4
aI0
aI6
aa(lp7561
I11
aI5
aa(lp7562
I6
aI0
aI8
aI9
aa(lp7563
a(lp7564
I9
aI1
aI8
aI0
aI4
aI6
aI10
aI11
aI7
aI5
aa(lp7565
I6
aa(lp7566
I8
aI5
aI1
aI6
aI9
aa(lp7567
I6
aI0
aI8
aI9
aa(lp7568
I11
aa(lp7569
I1
aI8
aI10
aI5
aI2
aa(lp7570
I0
aa(lp7571
I8
aI9
aa(lp7572
a(lp7573
I11
aa(lp7574
I3
aI5
aI11
aI7
aa(lp7575
I9
aI1
aI8
aI7
aI6
aa(lp7576
I11
aI5
aa(lp7577
I6
aI9
aI8
aa(lp7578
I1
aI8
aI9
aI5
aI6
aI7
aI3
aI0
aI10
aI11
aa(lp7579
I8
aI9
aI6
aI0
aa(lp7580
I5
aa(lp7581
I6
aI0
aI8
aI9
aI5
aa(lp7582
I8
aa(lp7583
I0
aI6
aa(lp7584
I3
aI11
aa(lp7585
I11
aI3
aI1
aI10
aa(lp7586
I1
aa(lp7587
a(lp7588
I8
aI6
aI0
aI1
aa(lp7589
a(lp7590
I9
aa(lp7591
I8
aI6
aa(lp7592
I2
aI1
aI4
aI7
aI10
aI9
aI8
aI0
aI3
aI6
aa(lp7593
I11
aI3
aI5
aI0
aI6
aI8
aa(lp7594
I1
aI5
aa(lp7595
I2
aI5
aI9
aI0
aa(lp7596
I9
aI11
aI1
aa(lp7597
I6
aI0
aI8
aI9
aa(lp7598
I9
aI8
aa(lp7599
I3
aI5
aI11
aI0
aa(lp7600
I9
aI6
aI1
aa(lp7601
I8
aa(lp7602
I5
aI2
aa(lp7603
I5
aI11
aI3
aa(lp7604
I1
aa(lp7605
I9
aI3
aI5
aa(lp7606
I6
aI0
aa(lp7607
I3
aI6
aI8
aI11
aI9
aa(lp7608
I3
aI9
aa(lp7609
I1
aI8
aa(lp7610
I1
aI2
aI9
aI8
aa(lp7611
I3
aI5
aI8
aI9
aI11
aa(lp7612
I3
aI5
aI11
aa(lp7613
I3
aa(lp7614
I11
aI2
aI9
aa(lp7615
I6
aa(lp7616
I1
aI2
aI9
aa(lp7617
a(lp7618
I11
aI5
aa(lp7619
I8
aI1
aI6
aI0
aI4
aI9
aI3
aI5
aI10
aI11
aa(lp7620
I9
aI8
aI6
aI4
aI1
aa(lp7621
I3
aI8
aI1
aa(lp7622
I1
aI8
aI9
aa(lp7623
I11
aa(lp7624
I11
aI1
aI3
aI5
aI8
aI9
aa(lp7625
I11
aI3
aI5
aI7
aI9
aI10
aI6
aI0
aI1
aI2
aa(lp7626
I11
aI5
aI3
aI0
aI7
aI9
aI8
aI10
aI4
aI2
aa(lp7627
I1
aI8
aI9
aI4
aI2
aI6
aI0
aI7
aI10
aI11
aa(lp7628
I9
aI8
aa(lp7629
I5
aI3
aa(lp7630
a(lp7631
I3
aa(lp7632
I3
aa(lp7633
I3
aa(lp7634
I3
aI5
aI11
aa(lp7635
I3
aa(lp7636
I5
aa(lp7637
I9
aa(lp7638
I6
aI9
aI0
aa(lp7639
I9
aa(lp7640
I2
aI1
aI4
aI8
aI9
aI7
aI6
aa(lp7641
I8
aa(lp7642
I5
aI8
aI11
aI9
aI3
aa(lp7643
I5
aI2
aa(lp7644
I6
aI0
aI9
aI8
aa(lp7645
I2
aI7
aa(lp7646
I1
aa(lp7647
I11
aI3
aI1
aI8
aa(lp7648
I6
aI0
aI8
aa(lp7649
I0
aI6
aI5
aI8
aa(lp7650
I11
aa(lp7651
I3
aa(lp7652
I11
aI5
aa(lp7653
I5
aI11
aa(lp7654
I5
aI11
aI1
aa(lp7655
I6
aI9
aa(lp7656
I8
aa(lp7657
I10
aI2
aI11
aI9
aI5
aI3
aI6
aI0
aa(lp7658
I1
aI2
aI8
aI9
aI10
aI4
aI7
aI6
aI0
aI3
aa(lp7659
I6
aI0
aI9
aa(lp7660
I3
aa(lp7661
I1
aI8
aI3
aa(lp7662
I8
aa(lp7663
I8
aa(lp7664
I11
aa(lp7665
I0
aa(lp7666
I9
aa(lp7667
I9
aI6
aI8
aa(lp7668
I5
aI3
aI9
aI6
aa(lp7669
I3
aI11
aa(lp7670
I3
aI6
aI11
aa(lp7671
I8
aI9
aI0
aa(lp7672
I6
aI0
aa(lp7673
I1
aa(lp7674
I11
aI9
aa(lp7675
I1
aI6
aI9
aI3
aI0
aI8
aI11
aa(lp7676
I1
aI8
aI9
aI6
aI10
aI4
aa(lp7677
I11
aI5
aI3
aI2
aI4
aI7
aI10
aI8
aI1
aI0
aa(lp7678
I11
aa(lp7679
I11
aa(lp7680
I11
aI5
aI3
aa(lp7681
I9
aI1
aa(lp7682
I6
aI8
aI9
aI3
aa(lp7683
I1
aI0
aa(lp7684
I3
aI9
aI8
aI6
aI1
aI0
aI11
aI5
aI4
aI10
aa(lp7685
I3
aa(lp7686
I8
aI9
aa(lp7687
a(lp7688
I9
aa(lp7689
a(lp7690
I11
aa(lp7691
I3
aa(lp7692
I6
aa(lp7693
I1
aI8
aa(lp7694
a(lp7695
I5
aI11
aI3
aI2
aI1
aI4
aI9
aI10
aa(lp7696
I8
aI0
aa(lp7697
I3
aI5
aI11
aI8
aI1
aI2
aI4
aI9
aI10
aI7
aa(lp7698
I8
aI9
aa(lp7699
I11
aI5
aI3
aI2
aI4
aI7
aI9
aa(lp7700
I10
aI3
aI5
aa(lp7701
I9
aI0
aI3
aa(lp7702
I8
aa(lp7703
I9
aI4
aI3
aI10
aI5
aI11
aI1
aI8
aa(lp7704
I6
aa(lp7705
I7
aI2
aI11
aI5
aI3
aI9
aI8
aI1
aI4
aa(lp7706
I3
aI9
aI11
aI6
aI5
aI0
aI8
aI1
aa(lp7707
I5
aI11
aI3
aI1
aI9
aI7
aI10
aI8
aI4
aI2
aa(lp7708
I11
aa(lp7709
I6
aa(lp7710
I7
aI8
aI9
aI6
aI0
aI1
aI3
aI10
aI4
aI11
aa(lp7711
I2
aI11
aI3
aa(lp7712
I5
aa(lp7713
I11
aI5
aI3
aI1
aI4
aI7
aI8
aI9
aI10
aI0
aa(lp7714
I1
aa(lp7715
I8
aI9
aI1
aI11
aI5
aI3
aa(lp7716
I9
aI5
aI3
aI4
aI7
aI1
aI8
aa(lp7717
I9
aa(lp7718
I3
aI5
aa(lp7719
a(lp7720
I6
aI0
aa(lp7721
I6
aI8
aI1
aI0
aa(lp7722
I1
aa(lp7723
I3
aI5
aI11
aI8
aI9
aa(lp7724
I11
aa(lp7725
I6
aI0
aI9
aa(lp7726
I9
aa(lp7727
I8
aI1
aI9
aI6
aI0
aa(lp7728
I6
aI0
aI1
aa(lp7729
I1
aa(lp7730
I1
aI0
aa(lp7731
I5
aa(lp7732
a(lp7733
I4
aa(lp7734
I6
aI11
aa(lp7735
I5
aa(lp7736
I9
aa(lp7737
I8
aI6
aa(lp7738
I9
aa(lp7739
I1
aa(lp7740
I5
aI8
aI9
aI1
aI11
aI0
aa(lp7741
I9
aa(lp7742
I3
aI11
aI5
aI8
aI1
aI9
aI4
aI2
aI6
aI0
aa(lp7743
I9
aI1
aI3
aI11
aa(lp7744
I3
aI11
aa(lp7745
I9
aI1
aI4
aa(lp7746
I9
aa(lp7747
I6
aI9
aa(lp7748
I1
aI11
aI5
aI3
aI6
aI0
aa(lp7749
I6
aI3
aI0
aI8
aI9
aI11
aI5
aI2
aI1
aI10
aa(lp7750
I3
aI5
aa(lp7751
I5
aI11
aI1
aa(lp7752
I6
aa(lp7753
I3
aI11
aI1
aI9
aI5
aI7
aa(lp7754
a(lp7755
I9
aI11
aa(lp7756
I3
aa(lp7757
I8
aI9
aI1
aa(lp7758
I8
aI1
aI4
aa(lp7759
I9
aI8
aI5
aI11
aI7
aI6
aI3
aa(lp7760
I3
aa(lp7761
a(lp7762
I3
aa(lp7763
I11
aI9
aI6
aI0
aa(lp7764
I9
aa(lp7765
I9
aI5
aI3
aI11
aI8
aI1
aI6
aI0
aI2
aI10
aa(lp7766
I11
aa(lp7767
I3
aa(lp7768
I11
aa(lp7769
I5
aI9
aa(lp7770
I6
aI8
aI1
aa(lp7771
I5
aI3
aa(lp7772
a(lp7773
I5
aa(lp7774
I1
aa(lp7775
I5
aI0
aI3
aa(lp7776
I3
aa(lp7777
I3
aa(lp7778
I3
aI8
aa(lp7779
I6
aa(lp7780
I9
aI4
aI0
aa(lp7781
I8
aa(lp7782
I9
aI1
aI8
aI4
aI6
aa(lp7783
I5
aa(lp7784
I1
aI5
aa(lp7785
I8
aa(lp7786
I4
aI6
aI9
aI8
aI0
aI1
aI3
aI7
aa(lp7787
I1
aa(lp7788
I9
aI6
aI0
aI3
aI4
aI11
aa(lp7789
I6
aI9
aI8
aI0
aa(lp7790
I9
aI5
aI6
aI8
aI7
aI4
aI11
aI0
aI3
aa(lp7791
I11
aI1
aI6
aa(lp7792
I2
aI1
aa(lp7793
I3
aI8
aI6
aI11
aI5
aa(lp7794
I11
aa(lp7795
I8
aI6
aa(lp7796
I11
aI5
aa(lp7797
I0
aI9
aI11
aa(lp7798
I9
aI5
aI3
aa(lp7799
I5
aa(lp7800
I3
aa(lp7801
I9
aa(lp7802
I9
aa(lp7803
I1
aI9
aa(lp7804
I9
aI6
aI1
aI0
aI8
aI2
aa(lp7805
I1
aI10
aI4
aI7
aI6
aI8
aI9
aI0
aI5
aI3
aa(lp7806
I6
aI11
aa(lp7807
I9
aI3
aa(lp7808
I6
aa(lp7809
a(lp7810
I8
aI5
aI9
aa(lp7811
a(lp7812
I11
aI5
aI3
aI6
aa(lp7813
I3
aI9
aI0
aa(lp7814
I5
aI8
aI10
aa(lp7815
I6
aa(lp7816
I5
aI3
aa(lp7817
I3
aa(lp7818
I9
aI6
aI0
aa(lp7819
I8
aa(lp7820
I6
aI8
aa(lp7821
I4
aa(lp7822
I8
aI6
aI1
aI9
aI0
aI2
aa(lp7823
I11
aI3
aa(lp7824
I8
aa(lp7825
I8
aI11
aI5
aI3
aI1
aI9
aI2
aI0
aI4
aI6
aa(lp7826
I5
aa(lp7827
I9
aa(lp7828
I9
aI8
aI4
aI5
aa(lp7829
I6
aI0
aI8
aI1
aa(lp7830
a(lp7831
I3
aa(lp7832
I6
aa(lp7833
I9
aI8
aI3
aI1
aI0
aI2
aI4
aI5
aI6
aI7
aa(lp7834
I9
aa(lp7835
I9
aI1
aI4
aI8
aa(lp7836
I8
aI0
aI6
aI2
aI4
aI7
aI9
aI10
aI5
aa(lp7837
I9
aa(lp7838
I3
aI5
aI11
aI6
aa(lp7839
a(lp7840
I3
aI9
aI1
aI6
aI0
aI8
aI4
aI7
aa(lp7841
I8
aI9
aa(lp7842
I5
aI8
aa(lp7843
I5
aa(lp7844
I1
aa(lp7845
I11
aa(lp7846
I0
aI8
aI2
aa(lp7847
I11
aI5
aa(lp7848
I1
aI8
aI3
aI6
aa(lp7849
I6
aa(lp7850
I8
aI1
aI11
aa(lp7851
I8
aI6
aa(lp7852
I11
aa(lp7853
I2
aI3
aI5
aI1
aI9
aI4
aI7
aa(lp7854
I4
aI1
aa(lp7855
I1
aI8
aI9
aa(lp7856
I9
aI3
aa(lp7857
I3
aa(lp7858
I9
aa(lp7859
I11
aa(lp7860
I5
aa(lp7861
a(lp7862
I8
aI9
aa(lp7863
a(lp7864
I1
aa(lp7865
I6
aa(lp7866
I8
aa(lp7867
I11
aI5
aI1
aa(lp7868
I5
aI11
aI3
aI7
aI10
aI9
aI4
aI0
aI6
aI8
aa(lp7869
I9
aI8
aI1
aI0
aa(lp7870
I3
aI5
aa(lp7871
I1
aI5
aI3
aa(lp7872
I11
aa(lp7873
a(lp7874
I3
aI5
aa(lp7875
I8
aI0
aI6
aI10
aI9
aI1
aI4
aa(lp7876
I3
aI5
aa(lp7877
I3
aI11
aa(lp7878
I8
aI9
aI0
aI3
aI1
aI6
aI10
aI11
aa(lp7879
a(lp7880
I9
aa(lp7881
I5
aa(lp7882
I6
aI9
aa(lp7883
I11
aa(lp7884
I3
aI5
aI11
aI2
aa(lp7885
I5
aa(lp7886
I9
aa(lp7887
I9
aI6
aI3
aI1
aI0
aI4
aI5
aI8
aa(lp7888
I8
aI9
aI1
aa(lp7889
I3
aI5
aI11
aI1
aI7
aI8
aa(lp7890
I2
aa(lp7891
I6
aI0
aI8
aI5
aI3
aI1
aa(lp7892
I0
aI5
aa(lp7893
I11
aI5
aa(lp7894
I9
aI8
aI1
aI2
aI4
aa(lp7895
I5
aa(lp7896
I0
aa(lp7897
I3
aI5
aa(lp7898
I6
aa(lp7899
I2
aI4
aa(lp7900
I9
aa(lp7901
I1
aI2
aI9
aI11
aI4
aI10
aI7
aI3
aI0
aI8
aa(lp7902
I1
aI8
aI9
aI10
aI4
aI6
aa(lp7903
I11
aa(lp7904
I9
aI5
aI6
aa(lp7905
I8
aI7
aa(lp7906
I1
aa(lp7907
I3
aa(lp7908
a(lp7909
I0
aI6
aI5
aI9
aI8
aI11
aI3
aI1
aI10
aa(lp7910
I9
aI4
aI8
aa(lp7911
I8
aI11
aI3
aI0
aI5
aa(lp7912
I9
aI8
aI5
aI0
aI1
aI2
aI3
aI6
aI7
aI11
aa(lp7913
a(lp7914
I6
aa(lp7915
I5
aa(lp7916
I11
aa(lp7917
I11
aI3
aI6
aI0
aI4
aI7
aI9
aI8
aI5
aI2
aa(lp7918
I2
aa(lp7919
I1
aa(lp7920
I1
aI9
aI8
aa(lp7921
I7
aa(lp7922
I11
aa(lp7923
I0
aI3
aI8
aI6
aI9
aI11
aI5
aI4
aI1
aI7
aa(lp7924
I9
aa(lp7925
I6
aI9
aa(lp7926
I5
aI6
aI3
aI11
aI9
aI8
aI1
aI10
aI7
aI2
aa(lp7927
I8
aI4
aI9
aa(lp7928
I1
aa(lp7929
I5
aa(lp7930
a(lp7931
I2
aa(lp7932
I8
aI6
aa(lp7933
I9
aI6
aI0
aI8
aI11
aa(lp7934
I11
aa(lp7935
I3
aa(lp7936
I8
aa(lp7937
I6
aI9
aI0
aI3
aI8
aI1
aI2
aI11
aI10
aI7
aa(lp7938
I8
aa(lp7939
I5
aI7
aa(lp7940
I11
aI3
aI5
aI6
aI0
aI8
aI7
aI4
aI10
aI9
aa(lp7941
I4
aI7
aI1
aI8
aI6
aI9
aI5
aa(lp7942
I3
aa(lp7943
I11
aI3
aa(lp7944
I0
aI9
aa(lp7945
I11
aI5
aa(lp7946
I1
aI3
aI2
aa(lp7947
I5
aa(lp7948
I11
aI0
aI3
aI5
aI6
aI4
aa(lp7949
a(lp7950
a(lp7951
I3
aI5
aa(lp7952
I6
aI2
aI8
aI11
aa(lp7953
I5
aa(lp7954
I8
aI9
aI1
aI7
aa(lp7955
I0
aI6
aI9
aI11
aI3
aI5
aI7
aI8
aa(lp7956
I2
aa(lp7957
I6
aa(lp7958
a(lp7959
I6
aI8
aa(lp7960
a(lp7961
I9
aI8
aI6
aI1
aI5
aI3
aI10
aa(lp7962
I1
aa(lp7963
I3
aa(lp7964
I1
aI9
aI2
aI8
aI4
aI10
aI7
aI11
aI5
aI6
aa(lp7965
I7
aI1
aI9
aI2
aI4
aI8
aI5
aI3
aI10
aI6
aa(lp7966
I6
aa(lp7967
I6
aI9
aI8
aa(lp7968
I9
aI1
aI11
aI3
aI5
aI6
aI0
aa(lp7969
I5
aa(lp7970
I9
aa(lp7971
I3
aI8
aI9
aI11
aa(lp7972
I6
aI5
aI8
aa(lp7973
I8
aa(lp7974
I8
aI5
aI3
aI11
aI6
aa(lp7975
I11
aa(lp7976
a(lp7977
I9
aa(lp7978
I6
aI0
aI9
aI8
aI1
aI7
aa(lp7979
I0
aI6
aI8
aa(lp7980
I11
aa(lp7981
I4
aI8
aI9
aI5
aa(lp7982
I6
aa(lp7983
I3
aI1
aI11
aI2
aI5
aI9
aa(lp7984
I9
aI6
aa(lp7985
I8
aI1
aI9
aI6
aI2
aa(lp7986
I3
aa(lp7987
I3
aI5
aI11
aI1
aI10
aI9
aI4
aI2
aI0
aI6
aa(lp7988
I6
aI0
aI8
aa(lp7989
I5
aI9
aI1
aI4
aI11
aa(lp7990
I1
aI9
aI3
aI5
aI8
aI10
aa(lp7991
I1
aa(lp7992
I11
aI3
aI0
aa(lp7993
I11
aa(lp7994
I6
aI0
aa(lp7995
I5
aI3
aI8
aI9
aI1
aI11
aI0
aa(lp7996
I9
aa(lp7997
I0
aa(lp7998
I1
aI2
aI8
aa(lp7999
a(lp8000
I8
aa(lp8001
I11
aa(lp8002
I3
aa(lp8003
I6
aI8
aa(lp8004
I9
aI3
aa(lp8005
a(lp8006
I5
aI3
aI11
aI6
aI2
aa(lp8007
I6
aI0
aI9
aa(lp8008
I3
aI5
aI11
aa(lp8009
I6
aa(lp8010
I8
aa(lp8011
I3
aI5
aI11
aI8
aI4
aI0
aa(lp8012
a(lp8013
I1
aI5
aI6
aI8
aI9
aI11
aI0
aI3
aI10
aI7
aa(lp8014
I9
aa(lp8015
I8
aI9
aI1
aa(lp8016
I9
aI11
aI6
aI5
aI3
aI1
aI0
aI2
aI4
aI7
aa(lp8017
I1
aI5
aa(lp8018
I3
aa(lp8019
I8
aa(lp8020
I6
aI0
aI8
aI9
aI4
aa(lp8021
I1
aa(lp8022
I9
aI3
aa(lp8023
I9
aI11
aa(lp8024
I6
aI9
aI8
aa(lp8025
I3
aa(lp8026
I9
aI2
aI1
aI0
aI8
aI10
aI11
aI3
aI4
aI5
aa(lp8027
I8
aI9
aa(lp8028
I6
aI9
aI8
aI1
aa(lp8029
I1
aa(lp8030
I9
aI1
aa(lp8031
I8
aa(lp8032
I2
aI1
aI9
aa(lp8033
I11
aI9
aa(lp8034
I11
aa(lp8035
I1
aI0
aI6
aI8
aI10
aI9
aI4
aI3
aI5
aa(lp8036
a(lp8037
I9
aI1
aI8
aI6
aI4
aI3
aa(lp8038
I9
aI6
aa(lp8039
I3
aI9
aI6
aI8
aI5
aI0
aI4
aI10
aI11
aa(lp8040
I9
aI5
aa(lp8041
I11
aI8
aI5
aa(lp8042
I1
aI8
aI2
aI6
aa(lp8043
I11
aI9
aI6
aI5
aI3
aI1
aI7
aa(lp8044
I8
aI9
aa(lp8045
I8
aI1
aI9
aI6
aI4
aa(lp8046
I4
aI1
aa(lp8047
I5
aI3
aa(lp8048
I1
aI4
aI6
aI8
aI2
aI9
aI5
aI7
aI10
aI3
aa(lp8049
I3
aa(lp8050
I11
aa(lp8051
I3
aI8
aI9
aI5
aI11
aI4
aa(lp8052
I3
aI5
aI11
aI1
aI8
aI4
aa(lp8053
I1
aI9
aa(lp8054
I1
aa(lp8055
I8
aI6
aI0
aI9
aI1
aI5
aI3
aa(lp8056
I6
aI0
aa(lp8057
I11
aa(lp8058
I5
aa(lp8059
I11
aI5
aa(lp8060
I8
aI9
aa(lp8061
I1
aa(lp8062
I8
aI9
aa(lp8063
I8
aa(lp8064
I9
aI6
aI0
aI4
aa(lp8065
I8
aI9
aI6
aI11
aI1
aI3
aI0
aI5
aI7
aI10
aa(lp8066
I3
aa(lp8067
I5
aa(lp8068
I2
aa(lp8069
I8
aI5
aI11
aa(lp8070
I1
aI4
aa(lp8071
I6
aI9
aa(lp8072
I11
aa(lp8073
I10
aI4
aI9
aI8
aa(lp8074
I9
aa(lp8075
I1
aa(lp8076
I1
aI3
aI5
aI6
aI0
aa(lp8077
I4
aa(lp8078
I8
aa(lp8079
I5
aI6
aI8
aI11
aI1
aI0
aI9
aI4
aI10
aI3
aa(lp8080
I6
aI0
aa(lp8081
I11
aa(lp8082
I0
aa(lp8083
I9
aI8
aI4
aI1
aa(lp8084
I11
aI5
aa(lp8085
I11
aI3
aa(lp8086
I8
aI4
aI9
aI6
aI1
aa(lp8087
I5
aI9
aI11
aI0
aa(lp8088
I3
aI5
aI9
aI6
aa(lp8089
I6
aI0
aI9
aI1
aI8
aI10
aI4
aI2
aI5
aa(lp8090
I8
aI9
aI6
aI7
aI4
aI0
aI11
aI5
aI1
aa(lp8091
I8
aI9
aI6
aI1
aI7
aa(lp8092
I1
aI8
aa(lp8093
I6
aI0
aa(lp8094
I3
aa(lp8095
I4
aI8
aa(lp8096
I11
aI3
aI9
aI7
aI5
aa(lp8097
I1
aa(lp8098
I11
aI3
aI8
aI6
aa(lp8099
I6
aI0
aI8
aI9
aI10
aa(lp8100
I4
aa(lp8101
I8
aa(lp8102
I8
aI9
aI6
aI0
aa(lp8103
I9
aI6
aI8
aI1
aa(lp8104
I3
aI9
aI6
aI11
aa(lp8105
I3
aI5
aI11
aI8
aI1
aI9
aI0
aI4
aI6
aI7
aa(lp8106
I9
aI6
aI0
aa(lp8107
a(lp8108
I3
aa(lp8109
I0
aI6
aI8
aI9
aI1
aa(lp8110
I3
aI5
aa(lp8111
I3
aI2
aa(lp8112
I1
aI8
aa(lp8113
I11
aa(lp8114
a(lp8115
I9
aI4
aa(lp8116
I2
aI1
aI4
aa(lp8117
I8
aa(lp8118
I8
aI5
aI1
aI9
aI11
aI2
aI0
aa(lp8119
I11
aI5
aI3
aa(lp8120
I11
aa(lp8121
I5
aa(lp8122
a(lp8123
I9
aa(lp8124
I5
aI11
aI3
aI8
aa(lp8125
a(lp8126
a(lp8127
I11
aI9
aI5
aa(lp8128
I6
aI0
aa(lp8129
a(lp8130
a(lp8131
I3
aa(lp8132
I1
aa(lp8133
a(lp8134
I6
aI7
aI0
aa(lp8135
I1
aI8
aI9
aa(lp8136
I9
aa(lp8137
I8
aI9
aI6
aI0
aI11
aI5
aI3
aI1
aI2
aI7
aa(lp8138
I9
aa(lp8139
I11
aI5
aa(lp8140
I3
aa(lp8141
I5
aI3
aI11
aI2
aI4
aI7
aI10
aI1
aI8
aI6
aa(lp8142
I5
aI9
aI11
aI3
aI2
aa(lp8143
I3
aI5
aa(lp8144
I5
aI9
aI8
aI4
aI11
aI1
aI0
aI2
aI3
aa(lp8145
I8
aa(lp8146
I9
aI7
aI4
aI8
aI11
aI5
aI3
aI1
aI6
aI0
aa(lp8147
a(lp8148
I8
aI2
aI9
aI10
aa(lp8149
I6
aa(lp8150
I9
aI1
aa(lp8151
I1
aI3
aI8
aa(lp8152
I8
aI9
aI0
aI2
aI6
aI3
aI7
aI10
aI1
aI4
aa(lp8153
I8
aa(lp8154
I9
aI1
aa(lp8155
I3
aa(lp8156
I6
aI8
aI9
aI4
aa(lp8157
I1
aa(lp8158
I8
aI1
aa(lp8159
I5
aI3
aI11
aa(lp8160
I8
aI1
aI9
aI5
aI11
aI3
aI0
aI4
aI6
aI7
aa(lp8161
I9
aI0
aI8
aI6
aI1
aI7
aI10
aI4
aI11
aI5
aa(lp8162
a(lp8163
a(lp8164
I1
aI3
aI11
aI7
aI2
aI5
aI10
aI8
aI9
aI6
aa(lp8165
I11
aI5
aI3
aa(lp8166
I6
aI0
aI11
aI5
aI3
aI9
aI7
aI4
aI10
aI8
aa(lp8167
I5
aI3
aI11
aI9
aI1
aI0
aI8
aI6
aI4
aa(lp8168
I9
aI8
aa(lp8169
I8
aa(lp8170
I9
aa(lp8171
I11
aI3
aa(lp8172
I6
aI9
aa(lp8173
I2
aI9
aa(lp8174
I2
aI1
aI9
aI4
aI0
aI3
aa(lp8175
I9
aI0
aI3
aa(lp8176
I5
aI11
aa(lp8177
I5
aI3
aI1
aa(lp8178
I9
aI1
aa(lp8179
I5
aI3
aa(lp8180
I6
aI0
aa(lp8181
I6
aI9
aa(lp8182
I5
aI9
aa(lp8183
I5
aI11
aI3
aa(lp8184
I5
aa(lp8185
I9
aI1
aa(lp8186
I5
aI3
aI11
aI2
aa(lp8187
I0
aI3
aa(lp8188
I8
aI9
aI6
aI1
aI3
aa(lp8189
I11
aI9
aa(lp8190
I11
aa(lp8191
I11
aI3
aa(lp8192
I2
aa(lp8193
I6
aI0
aI8
aI9
aI11
aI3
aI5
aI4
aI7
aI10
aa(lp8194
a(lp8195
I9
aa(lp8196
I5
aa(lp8197
I8
aI9
aI1
aa(lp8198
I9
aI1
aI8
aI6
aa(lp8199
I6
aa(lp8200
I11
aI5
aI3
aa(lp8201
I9
aI4
aI1
aI0
aI3
aI11
aI5
aI6
aa(lp8202
I8
aI9
aa(lp8203
I1
aa(lp8204
I11
aI3
aI9
aI4
aI10
aI7
aI0
aI1
aI2
aI8
aa(lp8205
I1
aI9
aI8
aI5
aa(lp8206
I3
aI7
aI9
aa(lp8207
I1
aI11
aa(lp8208
I1
aa(lp8209
I5
aI1
aa(lp8210
I11
aI5
aI3
aI9
aI8
aI7
aI10
aI6
aI0
aI1
aa(lp8211
I1
aI9
aI8
aI6
aI0
aa(lp8212
I9
aI5
aI11
aI8
aa(lp8213
I6
aa(lp8214
I3
aI5
aI11
aI1
aI0
aI6
aa(lp8215
I9
aI6
aI0
aI2
aI8
aI1
aI7
aI4
aI3
aI11
aa(lp8216
I11
aa(lp8217
I1
aI9
aI4
aa(lp8218
I6
aI11
aa(lp8219
I8
aI9
aI3
aa(lp8220
I5
aa(lp8221
I11
aI3
aI5
aI6
aa(lp8222
I8
aI1
aa(lp8223
I11
aI5
aI3
aI8
aI6
aa(lp8224
I5
aI3
aa(lp8225
I3
aa(lp8226
I1
aI5
aI9
aa(lp8227
I8
aI6
aI0
aI9
aa(lp8228
I8
aa(lp8229
I1
aI2
aI8
aI9
aa(lp8230
I3
aI9
aI0
aa(lp8231
I3
aI8
aa(lp8232
I9
aa(lp8233
I8
aI5
aa(lp8234
I11
aa(lp8235
I8
aa(lp8236
I3
aI5
aa(lp8237
I5
aa(lp8238
I9
aa(lp8239
I6
aa(lp8240
I8
aI6
aI9
aa(lp8241
I11
aI5
aI3
aI0
aI6
aI9
aI8
aI7
aI10
aI4
aa(lp8242
I9
aI1
aI4
aa(lp8243
I3
aI6
aI8
aI0
aa(lp8244
I11
aI5
aI3
aa(lp8245
I3
aI9
aI5
aa(lp8246
I1
aI2
aI9
aa(lp8247
I3
aa(lp8248
I11
aI5
aI9
aI3
aa(lp8249
I3
aa(lp8250
I8
aI11
aa(lp8251
I1
aa(lp8252
I8
aI6
aa(lp8253
I5
aa(lp8254
I1
aa(lp8255
I8
aa(lp8256
I1
aI5
aI11
aI8
aI9
aI4
aa(lp8257
I11
aI5
aI3
aI1
aI8
aI9
aI6
aI4
aI0
aI2
aa(lp8258
I8
aI11
aa(lp8259
a(lp8260
I9
aa(lp8261
a(lp8262
I3
aa(lp8263
I3
aI4
aI2
aI1
aI9
aI11
aI10
aa(lp8264
a(lp8265
I11
aa(lp8266
I10
aI0
aa(lp8267
I3
aI5
aI11
aI4
aI8
aI9
aa(lp8268
I5
aI3
aa(lp8269
I8
aI3
aI11
aI9
aI1
aI4
aa(lp8270
I3
aa(lp8271
I6
aa(lp8272
I3
aI9
aI11
aa(lp8273
I11
aa(lp8274
I8
aa(lp8275
I6
aI9
aI5
aI1
aa(lp8276
I11
aI5
aI3
aa(lp8277
I6
aI11
aa(lp8278
I9
aI7
aa(lp8279
I1
aa(lp8280
I6
aa(lp8281
I3
aa(lp8282
I9
aI3
aI5
aI11
aI10
aI8
aI0
aI6
aa(lp8283
I9
aI10
aa(lp8284
I11
aI3
aI5
aI9
aI8
aa(lp8285
I4
aa(lp8286
I9
aI1
aI5
aa(lp8287
I11
aa(lp8288
I5
aa(lp8289
I3
aI11
aI9
aI8
aI5
aI0
aI6
aI7
aI4
aI1
aa(lp8290
I5
aI11
aa(lp8291
I3
aI5
aa(lp8292
I9
aI5
aI7
aI3
aI11
aI2
aI1
aa(lp8293
I5
aI7
aI11
aa(lp8294
I5
aI9
aI1
aI8
aI3
aI11
aI6
aa(lp8295
I8
aI6
aa(lp8296
I6
aI9
aa(lp8297
I9
aI4
aI1
aI7
aI8
aI6
aI2
aI0
aI11
aI10
aa(lp8298
I8
aa(lp8299
a(lp8300
I0
aI4
aI10
aa(lp8301
I3
aI1
aI5
aI11
aI9
aI8
aI4
aa(lp8302
I3
aI11
aI5
aI6
aI0
aa(lp8303
I9
aI5
aI3
aI11
aa(lp8304
I8
aa(lp8305
I8
aI3
aI9
aI11
aI6
aa(lp8306
I3
aa(lp8307
a(lp8308
I10
aI4
aa(lp8309
I11
aI5
aa(lp8310
I3
aa(lp8311
I8
aa(lp8312
a(lp8313
I3
aa(lp8314
I9
aI0
aa(lp8315
I2
aa(lp8316
a(lp8317
I6
aI0
aa(lp8318
I8
aI9
aI6
aa(lp8319
I8
aI9
aI1
aI10
aI7
aI2
aI4
aI11
aI3
aI5
aa(lp8320
I9
aI11
aa(lp8321
a(lp8322
I5
aa(lp8323
I11
aa(lp8324
I1
aI9
aa(lp8325
I6
aI3
aI11
aI0
aI5
aI1
aI9
aa(lp8326
I4
aI11
aI5
aI3
aI10
aI9
aI8
aI7
aI6
aI1
aa(lp8327
I8
aa(lp8328
a(lp8329
I9
aI0
aI4
aI3
aI5
aI8
aI11
aI1
aa(lp8330
I3
aI9
aa(lp8331
I11
aI3
aI5
aI1
aI2
aI8
aI9
aI10
aI0
aI6
aa(lp8332
I3
aI11
aa(lp8333
I9
aI8
aI6
aI0
aI1
aI3
aI4
aI5
aI7
aI2
aa(lp8334
I8
aI9
aI2
aI1
aa(lp8335
a(lp8336
I3
aa(lp8337
I2
aI1
aI9
aI3
aI5
aI8
aI11
aI10
aI0
aI4
aa(lp8338
I8
aI9
aI6
aI4
aI0
aI10
aI3
aI2
aI5
aI7
aa(lp8339
I6
aI9
aI8
aI1
aI0
aI2
aI7
aa(lp8340
I5
aa(lp8341
I1
aI4
aI8
aa(lp8342
I8
aI6
aI9
aI11
aI5
aI3
aI7
aI10
aI0
aI1
aa(lp8343
a(lp8344
I9
aI6
aI1
aI0
aI8
aa(lp8345
I3
aa(lp8346
a(lp8347
a(lp8348
I11
aI6
aa(lp8349
I8
aI1
aI6
aa(lp8350
I11
aI5
aa(lp8351
a(lp8352
I6
aI9
aa(lp8353
I9
aI10
aI4
aa(lp8354
I1
aa(lp8355
I1
aI11
aI9
aa(lp8356
I9
aI8
aI4
aI0
aI6
aa(lp8357
I5
aI3
aa(lp8358
I1
aI9
aI5
aa(lp8359
I11
aa(lp8360
I11
aI5
aI3
aa(lp8361
I5
aI3
aI4
aI1
aa(lp8362
I1
aa(lp8363
I9
aI5
aa(lp8364
I3
aI8
aI9
aI11
aa(lp8365
I3
aI8
aa(lp8366
I8
aa(lp8367
I3
aI5
aa(lp8368
I2
aI1
aI9
aI10
aI7
aI4
aI8
aI6
aI0
aI3
aa(lp8369
I11
aI5
aI3
aa(lp8370
I5
aI8
aI9
aa(lp8371
I11
aI5
aI3
aI9
aa(lp8372
I0
aI3
aI6
aa(lp8373
I5
aa(lp8374
I9
aI1
aa(lp8375
I11
aI3
aI9
aa(lp8376
I8
aI1
aI4
aI9
aI7
aI0
aI6
aI3
aI11
aI10
aa(lp8377
I11
aI1
aI6
aI8
aa(lp8378
I6
aI0
aI8
aI3
aa(lp8379
I5
aI11
aa(lp8380
I3
aI5
aa(lp8381
I8
aa(lp8382
a(lp8383
I5
aI3
aa(lp8384
I9
aI1
aa(lp8385
I6
aI8
aI5
aI4
aa(lp8386
I1
aa(lp8387
I10
aI6
aa(lp8388
I5
aI3
aa(lp8389
I3
aI11
aI5
aa(lp8390
I6
aI9
aa(lp8391
I5
aa(lp8392
I1
aa(lp8393
I9
aa(lp8394
I11
aa(lp8395
I3
aa(lp8396
I9
aI0
aI5
aI3
aa(lp8397
I5
aI9
aa(lp8398
I6
aI8
aa(lp8399
I3
aI9
aa(lp8400
I5
aI3
aI8
aI9
aI0
aI6
aI11
aI10
aI7
aI4
aa(lp8401
a(lp8402
I5
aa(lp8403
I11
aI2
aa(lp8404
I9
aI4
aa(lp8405
a(lp8406
I9
aI3
aI2
aa(lp8407
I6
aI5
aI3
aa(lp8408
I1
aa(lp8409
I5
aI8
aI6
aI0
aa(lp8410
I1
aa(lp8411
I3
aI9
aI5
aI11
aa(lp8412
I6
aI0
aa(lp8413
I8
aI3
aa(lp8414
I11
aa(lp8415
I6
aI0
aI8
aI9
aI1
aI3
aI7
aa(lp8416
I5
aa(lp8417
I6
aa(lp8418
I1
aa(lp8419
I3
aa(lp8420
I11
aI2
aI3
aI5
aa(lp8421
I0
aa(lp8422
I9
aI4
aI0
aI5
aa(lp8423
I8
aI0
aI6
aI1
aa(lp8424
I3
aI5
aI11
aa(lp8425
I0
aI6
aI9
aI3
aI1
aa(lp8426
I8
aa(lp8427
I5
aI3
aa(lp8428
I1
aa(lp8429
I11
aa(lp8430
I9
aI7
aI5
aI8
aI0
aI4
aI6
aI3
aI10
aI11
aa(lp8431
I1
aI11
aI5
aa(lp8432
I9
aa(lp8433
I1
aI6
aI8
aa(lp8434
I9
aI1
aI6
aI8
aI0
aI11
aI5
aa(lp8435
I1
aI4
aI8
aI7
aI9
aI10
aa(lp8436
I9
aI1
aI8
aa(lp8437
I1
aI3
aI5
aa(lp8438
I3
aI5
aa(lp8439
I8
aa(lp8440
a(lp8441
I8
aI9
aI1
aI0
aa(lp8442
I3
aa(lp8443
I5
aI3
aI11
aI1
aI7
aa(lp8444
I5
aI11
aI3
aa(lp8445
I11
aa(lp8446
a(lp8447
I6
aI0
aI4
aa(lp8448
I8
aI9
aI5
aI3
aa(lp8449
I1
aI9
aI11
aI5
aI3
aI10
aI8
aI7
aI6
aI4
aa(lp8450
I5
aa(lp8451
I5
aI11
aa(lp8452
I1
aI10
aI7
aI2
aI4
aI9
aa(lp8453
I5
aI4
aI2
aI11
aI3
aa(lp8454
I0
aI6
aI9
aI10
aI1
aI8
aI7
aI4
aI3
aI5
aa(lp8455
I9
aI8
aI6
aa(lp8456
I8
aI2
aI7
aI9
aI4
aI1
aI10
aI6
aI0
aI11
aa(lp8457
I5
aI3
aI8
aI11
aa(lp8458
a(lp8459
I9
aI11
aa(lp8460
I3
aI6
aI9
aI8
aa(lp8461
I8
aI11
aa(lp8462
I11
aa(lp8463
I9
aI1
aI3
aa(lp8464
I8
aa(lp8465
I5
aI9
aa(lp8466
I8
aI6
aI0
aa(lp8467
I3
aa(lp8468
I1
aa(lp8469
I11
aI3
aI5
aa(lp8470
I5
aa(lp8471
I3
aI1
aI9
aI11
aI7
aI0
aI2
aI4
aI5
aI6
aa(lp8472
I5
aa(lp8473
I0
aI5
aI8
aI9
aa(lp8474
I11
aa(lp8475
I11
aa(lp8476
I11
aasS'PCMC'
p8477
g16
(g17
(I0
tp8478
g19
tp8479
Rp8480
(I1
(I132
tp8481
g8
I00
S'\xfc\xa9\xf1\xd2MbP?\xd6\xb8\xcb}F2\x8e?\xb8\xbc\x8c"\xc5\x11t?\xeas\x95\xd4\x13\xfdn?_\xaf\xd2\x86\t\x17b?(`@q\x04\xdb\xe9?\xcd\xca\x0e~\xecO\x80?29S*\xfc\xb3q?\x15w\x15\x9b\x165\xa6?\xa3\x08Z\x00\x942\x9a?1\xc2\xfaO2\xb2t?~\xb2#5^4k?\x99\xec\x1f\x86~\x0f\xab?\xb7\xea\xf9\xa0\x11\xfb\xa8?~\x8c\xd9Z\xdb\xf4\xb8?*^\x85\xd1\x8f\xcb\xa5?\xac\xd2\xca\xd2R\xb8\xc9?i\xc0\x8a\x9dk\xbb\xa3?\xe5k\x0e\xe0\x8d,\xcf?_\x93=M\x06T\xd0?\x9cl\x03\x93\x808\xb4?\x1f\xe4d\xcb]\x9f\xd7?.\x87Y\xccD\xd4\xab?\xf8r-C\x1cY\xd6?\xefk\xb4\xc0z\xf0\xa5?\xa6\xa4}\x16"_\xc4?\x1c9.%\x84+\xb0?\x96\x95\xe9$X\xf6\xce?\x06\xe0\x08\xce\x08-\xc3?\xbc7\x81\x9a[J\xd2?x.\x01EGG\xda?P>\x9a\xab\x9b7\xce?\x8b\xb10\xc7\xc8Q\xcc?T\x18\x8d\'y0k?\xfc\xa9\xf1\xd2MbP?\x82&\xab\xaep\xd3q?\xda\xe7:g\xc1\x19{?\x13\xdaV]\x03\xf5\xb5?\x99\xe9s2\x1a\x0ci?\xdf\xe5\x93\xed\x8e\'\x84?\xbe\x981\xd6I\x89x?\xd1F\xc9=\xeeER?wH\xed\xf1\rju?\xf5$\xbf\xd48r\xe0?,R\xb7f=\xa3^?\x15\xa8\x13\xf5\xdc>\xd7?\x1a\x1c\x83\\\x01\xf5\xba?\x8f\xb2\xf2\xa4\xafV\x8b?\x91\xe8O\x11\xbd\xeb\x96?\xc0\x8d9\xa1s\xb8\xc3?oV\xed,`\x18\xb9?G\xd3%\xf8\x94\xf4\xd0?S\x03\x88/\xff\xc6\xe2?\xe5q\x07\x014\xef\xba?\x06\x13\x90\xd7\xce2\xa3?\x80\xe30!\xe6\xc9f?\x9d\xb9\xbd\x14\xda\xa5d?\xba~\xa9V\x91O\x97?d)\xa9\xf4\x11{\xa0?\xef\xdf\x92\xf7N\x0e\x92?{{\xc7"\xd8\xa9q?\xd3(W\xdb\xda\x17\x8e?\xf2\x93i\xcf\x1e\x18R?k\xf9k\xcc\xec\x89\x91?\xc6\xc1\xc4\xcb\x93:n?W\xfb\xa0e\xff\xe8\xe2?[\xb5\xa93\xa3\x1e\xc9?\xfd\x97a\x93r\xd0\xcf?\xc8\xb5\xf5\xbd\xf5x\xc3?\xa0\x02\xd1 \x97\xd9\\?\xb7\x86\xa8\x12\x82\xd9\xb9?\xa6$%\xc4ws\x83?\r- ]\xc6_\xbc?#m4\xf2\x98y\xd1?N\x12d\x00\x89\xc3\xd7?~\xda\xba\x9b\x01\xdc\xaf?O\x05\t\xaf!\xb5\xdf?\xe3>B\xa6C\x8c\xb5?2\x1b7\xd6p/\xd7?\xf1*kj\xdb\x05\xb5?\x14\xb2\x88\x86F\xb1\x80?\xa3\xdf\xb2J\x1f\x0c\xc5?>\xfa\xb2\x07\x01\xca\x84?\xdc\xf0\xa5zD1\xd2?\xf2\xb6\xa8\x82& \xc8?(\xe53x4\xb5\xdf?a9\xa1`yk\xb5?\xb11\x96p\x16\xc6\xc4?\xa2\x13\x08\xa8?\x83\x8f?\xfeW|\xe2\xf9Y\xb5?nB\xff\xad\xc2\xe8\xa2?;@Aa\xa6\x07\xba?\x9fs\xe7\xf9#Y\xb4?\xdem\xf9e\xd8N\xb9?\x8c\xae\x07\x8a\x1fv\xc3?-=\x86\x9b\x93w\x96?\xc4\xeb\xa9\x19\xa5\x08\xce?\xf4(_\xb4kD\x9f?\xa9\xcc\nt\xad\x19\xd4?X\x1a\xa4b7\xf5\xb2?\xa6(\xefy\xc6N\xc3?\x8f\x7f\xe8R\x10\xfc\xb7?\x83o\x1b%\xe1\x14\x9c?\xa9\xcb\x00\x00C\xb3\xac?\xe0\x0f\xbf\xfa\xe9I\xb5?%D\r\xc2+\x9f\xc3?\xf5\x82\xeb\xbc\xad"\x9a?W\x05\x1b,\x07m\xce?\x08\xb6z\xf2\xa6\xa5[?\x97\x11\x13l\x8a\xf1\xd3?\xe1\x07E\x01\xc3\xf2\xc7?\xef\xee|\xa8|\xff\xd5?\xa6d\xa2\xf96.\xaf?\xc7\xd5\x8b\x92WXs?A^\xdf\xdfk\xe1\xc7?\xfc\xc7\xf8Y\xf3\x18Z?\xde\xc2F\x16\xfep\xd4?U\x8d\xbe\xdc\x8e\xbb\xc9?d`\x92\xee\x9bg\xde?\x7fE\x13\xe4\xceS\xe4?\xb6\xd8\x98F\xd82\xc4?\xb5\xd0\xbc\r\xdb\x8b\x8e?\xd0\xbf\x84\xf0\xf5\x9d\xd9?}\x0b\xd8k\xdf\xd7\xbc?\x95\xf5\xabA\x88\xfb\xd8?\xe9\xffg_\xd3\\\xae?)\x92\x9b\xb9\xd09\xd4?\xad\'T\x1d\x07\xf9\xd6?\x95wR\xbe\xa7|\xa1?\xbe\xc4\x94f\x9fM\xe4?Y\xd7\xfbt~%\xe8?g\xaf\xb0\xa6\xdb\xb6\xb5?'
p8482
tp8483
bsS'PL'
p8484
g16
(g17
(I0
tp8485
g19
tp8486
Rp8487
(I1
(I12
tp8488
g8
I00
S'\x17\x82Joq~\xad?\x1d\x9d\xd4g\xa6(\xb9?3\xdb\x83\x06\xa0\xa6\x9d?\x0f.\x9b\xd7 \xa8\xbc?y\x1f\xa1\xb4\xc78\xa4?c\x0bR\x94\xa4\xd6\xbb?\x0eg\xf7\xbf:\xb2\xb6?\xce\x93q\x93v\x8e\x9b?\xcc#@\xc2\xc6h\xc2?\xc8Y\x13\xe3\xac\x04\xc6?\xde\x98\xb8\x16\xf8D\x95?ot~\xe3QQ\xba?'
p8489
tp8490
bs.