(dp0
S'N'
p1
I3
sS'Mallows-greedy'
p2
((lp3
I2
aI0
aI1
acnumpy.core.multiarray
scalar
p4
(cnumpy
dtype
p5
(S'f8'
p6
I0
I1
tp7
Rp8
(I3
S'<'
p9
NNNI-1
I-1
I0
tp10
bS'Z\xfd\xd4\xa2\xc87\xf0?'
p11
tp12
Rp13
tp14
sS'MMNL'
p15
cnumpy.core.multiarray
_reconstruct
p16
(cnumpy
ndarray
p17
(I0
tp18
S'b'
p19
tp20
Rp21
(I1
(I4
tp22
g8
I00
S'\x00\x00\x00\x00\x00\x00\xf0?K\x81>F\x80\x18\xef?\xe3\xbf\xe5\xa4K7\xdb?\xdb\x0f\xab.\x9b\xd0\xf1?'
p23
tp24
bsS'test-lists'
p25
(lp26
(lp27
I0
aa(lp28
I2
aa(lp29
I0
aa(lp30
I0
aa(lp31
I2
aa(lp32
I1
aa(lp33
I2
aa(lp34
I0
aa(lp35
I0
aa(lp36
I0
aa(lp37
I0
aa(lp38
I2
aa(lp39
I0
aa(lp40
I0
aa(lp41
I2
aa(lp42
I2
aa(lp43
I0
aa(lp44
I2
aa(lp45
I2
aa(lp46
I0
aa(lp47
I1
aa(lp48
I0
aa(lp49
I2
aa(lp50
I0
aa(lp51
I0
aa(lp52
I0
aa(lp53
I0
aa(lp54
I2
aa(lp55
I1
aa(lp56
I0
aa(lp57
I0
aasS'PCMC'
p58
g16
(g17
(I0
tp59
g19
tp60
Rp61
(I1
(I6
tp62
g8
I00
S'\x80b\xd4\xc1k\xab\xe0?\x91)\x0c\xc5R{\xe1?X\n\xee.\xe2\xbd\xf0?v\x86BNh@\xe1?;=\xc7uj\x04\xe1?y5w\xa2\xc2P\xc3?'
p63
tp64
bsS'PL'
p65
g16
(g17
(I0
tp66
g19
tp67
Rp68
(I1
(I3
tp69
g8
I00
S'#\xa7\x8d\xfc\xfa\xc5\xd8?\xe1\x1e@\x17\xb8\xae\xc5?nI\xd2\xf7\xa8b\xdc?'
p70
tp71
bs.