(dp0
S'N'
p1
I4
sS'Mallows-greedy'
p2
((lp3
I0
aI3
aI2
aI1
acnumpy.core.multiarray
scalar
p4
(cnumpy
dtype
p5
(S'f8'
p6
I0
I1
tp7
Rp8
(I3
S'<'
p9
NNNI-1
I-1
I0
tp10
bS'x"V\xe2\xe6\xfe\xe8?'
p11
tp12
Rp13
tp14
sS'MMNL'
p15
cnumpy.core.multiarray
_reconstruct
p16
(cnumpy
ndarray
p17
(I0
tp18
S'b'
p19
tp20
Rp21
(I1
(I10
tp22
g8
I00
S'\x8eG\xa6+h\x00\xd6?9\xdc,\xea\xcb\xff\xe4?O,\x9f$e|\x04@\x95\xd6&\xe8\x0b.\x11>^\xec\r(\x10\xc2\x83?\x19\x8a\xaf\x852\x95\xf5?.\xed\x12?+\x9c\xcf?\xd7\x843<\x13\x99\xf1?\x1b<QRuU\x92?\x90f\xe5\xde2\xcf\xfc?'
p23
tp24
bsS'test-lists'
p25
(lp26
(lp27
a(lp28
a(lp29
I3
aI2
aa(lp30
I1
aI2
aa(lp31
I3
aI2
aa(lp32
I3
aI1
aa(lp33
a(lp34
a(lp35
I2
aI3
aa(lp36
a(lp37
I2
aI3
aa(lp38
I0
aI2
aa(lp39
I2
aI0
aa(lp40
I3
aI0
aa(lp41
a(lp42
a(lp43
I0
aI2
aa(lp44
I0
aI1
aa(lp45
I1
aI2
aa(lp46
a(lp47
I0
aI1
aa(lp48
a(lp49
I3
aI2
aa(lp50
I0
aI2
aa(lp51
I3
aI2
aa(lp52
a(lp53
I0
aI3
aa(lp54
I0
aI3
aa(lp55
a(lp56
I3
aI2
aa(lp57
I1
aI3
aa(lp58
I3
aI0
aa(lp59
I3
aI0
aa(lp60
I3
aI0
aa(lp61
I0
aI3
aa(lp62
I0
aI1
aa(lp63
I1
aI3
aa(lp64
a(lp65
a(lp66
I2
aI0
aa(lp67
I0
aI3
aa(lp68
I3
aI1
aa(lp69
a(lp70
I3
aI1
aa(lp71
a(lp72
I1
aI0
aa(lp73
a(lp74
a(lp75
a(lp76
a(lp77
I0
aI2
aa(lp78
I1
aI2
aa(lp79
a(lp80
I2
aI1
aa(lp81
I3
aI0
aa(lp82
I2
aI0
aa(lp83
I0
aI3
aa(lp84
a(lp85
a(lp86
I2
aI1
aa(lp87
I0
aI2
aa(lp88
a(lp89
a(lp90
I2
aI3
aa(lp91
a(lp92
a(lp93
a(lp94
a(lp95
a(lp96
I0
aI2
aa(lp97
I3
aI2
aa(lp98
I0
aI2
aa(lp99
a(lp100
I0
aI1
aa(lp101
I0
aI2
aa(lp102
I2
aI3
aa(lp103
I2
aI0
aa(lp104
a(lp105
I2
aI3
aa(lp106
I3
aI2
aa(lp107
I2
aI3
aa(lp108
a(lp109
I0
aI1
aa(lp110
I1
aI3
aa(lp111
a(lp112
I3
aI0
aa(lp113
a(lp114
a(lp115
I1
aI0
aasS'PCMC'
p116
g16
(g17
(I0
tp117
g19
tp118
Rp119
(I1
(I12
tp120
g8
I00
S'\xd9\x98\xa4\x03D\x12\xb9?]3t%\\\xc3\xe3?\x1f\t\x8aN\xb0\xeb\xe6?\x0e\xcek\xa7\t\x04\xb8?\xfc\xa9\xf1\xd2MbP?\x0f<\x82R\xa2*\xd5?\xa3A\xbbI\xdf-\xea?dP\xc6r\xbc\xbfj?\xdc\x97#]\x99\xe4P??\xb5\xf5fAl\xe8?0\x03\xa5\xe2\xc7\xf4\xcb?A\xa4\r\x9a8Ww?'
p121
tp122
bsS'PL'
p123
g16
(g17
(I0
tp124
g19
tp125
Rp126
(I1
(I4
tp127
g8
I00
S';\xa4\xe2\xfc\xba\xd2\xd1?iK\x84\xdc`\xfb\xca?\x80\xeb[\xfa?\xd8\xce?S@\xad\x97tC\xd1?'
p128
tp129
bs.