(dp0
S'N'
p1
I11
sS'Mallows-greedy'
p2
((lp3
I5
aI2
aI3
aI0
aI1
aI6
aI7
aI8
aI9
aI10
aI4
acnumpy.core.multiarray
scalar
p4
(cnumpy
dtype
p5
(S'f8'
p6
I0
I1
tp7
Rp8
(I3
S'<'
p9
NNNI-1
I-1
I0
tp10
bS'\xdc>\xb3\x10j\\\xf3?'
p11
tp12
Rp13
tp14
sS'MMNL'
p15
cnumpy.core.multiarray
_reconstruct
p16
(cnumpy
ndarray
p17
(I0
tp18
S'b'
p19
tp20
Rp21
(I1
(I108
tp22
g8
I00
S'Ve1\xc4\xf8\xea\xe4=\xef&\xeb\x07eu}?\xc4\x86^\xd7\xbe^\xe7=\x0b\nX\xeeF7\xec=\xa3\xfb\x9efy\r\xf6=1\xd6\x07\x9a\xb2s\xf7=\xca63\xa8J]\x10>\xb6X\xd3\xb0\xf2\xff\xe2?\xa2\xc6\xec\x07E\x8a\xd9?\x8c\xb4}\x81L\xc6\xca?\xc3\xe6mT\xc7\xe0\xe3?\x8a\xd4\x18G\x9c\xde\xe6?\x8cS\xd2E\'\x03\xf1?\xa4uB\xf5\xb5\xb3\xf1?\xdc\xea\x05\xf2\x84)\xd1?\xd5s\x85\xb1\x0e\x10\xed?\x86\x0f\x98\xde\xf9\xd6\xf7?O\xa8N\xd78\xdb\x89?\xae\x1bUP\xc3t\xdf?\xc2a\x02-\xabx\xe2?\xda\xcc\xa5\xb8\x03\x07\xe6?\x10\xd3;\xb1\xde\x1b\xb9?\xf0\xbc\xda\x9e\xf3\x9a\xbe?\xa1\x8c\x9f\x11\x85\xd5\xe3?\xa0d\xa6!\xb4\x8c\xe3?\xc1$\x1d\x06B\x00\xc5?\xf0\xab\xc3k\xe5e\xeb?\xedN\x03\xa1\x89\xb4\xf3?X\x91\xa7\x7f\x14\xc7\xe7?\\\xa7\x02\x90\x96\xb6\xf2?\xb9\xf8\xa4b\x7f\xba\xdc?^H\xec\xf5B\xad\xe9?\xb8:tW\xe2\xdf\xf0?\xfcV\xb8\x01\xc7\xe8\xe8?\x882C\x14\x1e\xde\xff?\x95\xd6&\xe8\x0b.\x11>\xed\x8b}H\xd5\xa7\xea?\x011\xf3\xa2\x87x\xe5?\xd4|\xbe\xc8\x90\xff\xeb?{\xeb\xd9\x8a\xead\xeb?\x05\xf3\xdfc\xb8\x1b\xe4?iG&\xd7b\\\xf1?\xa5\x9a\xd1\xb1\xa8\xab\xee?\xa3Z,^\x97\x14\xf5?\x8dG\x89\xf5\x1f\x89\xd3?\xee7\x81\xdb\xf4\xd4\xe1?\xfd\x8f\xbfA\x19\xdb\xe9?w?\xfe\xca\xeb\xa7\xcd?\xe3j\'8#\xcf\xcb?\xb2\x9a{\x1cI\xbd\xe8?\x14PP\x02\xe7\xda\xce?\xbb;\x04\xce\xbe\xb3\xb5?\t\xc2\xdf\x93\xb5=\xbf?\x7f\xdd\x9deO<\xcd?\x1d\xf8}\xaeY)\xcb?F\x1cE\xc9TQ\xee?m\xfa\xdc\x1a\xb3_\xcd?ChXM\xad\xfa\xee?\xeeA\xd9\x05\x802\xf4?g\x98T\xbe\xd8\x0b\xe8?\xef\x11\xc2;\xd9\x19\xdc?\xef\xa5\xaf\x9cH\xad\xe7?bF\x95\x07R4\xf2?\xf5E\xd1i/\x8e\xb8?\x18k\xcb\xa1\xaaC\xe6?\x94\n\x02i\xaf>\xec?3rh\xae\'\xd5\xd6?"\x1c\x13V>\x9d\xa0?\xc3\x0f\x9e\xcf\x11\x0f\xe5?\x8e8m\\\xbb\xe6\xea?\x15\'\xb0:\x8e\xae\xb3?D\x035$\x9f\xf5\xf2?v\xd4\xcdo\xcbx\xe4?\xa5\xb8\x91\xb0\xb4\xc2\xee?\xdd\x03\x7fe\x1f\x7f\xa9?\xc5\xb2\xb2\xac\x8f\x7f\xe1??\xca\x9f\xbd\x82\x13\xdc?\xd7I\xa8j5z\xef?\x8cA)\x01\x1dS\xdb?\x00\x83K\xcd\xd3\xd1\x95? @\x8b\xf4\xd0\x8f\xf2?8\x9a\xcd\x96\x17]\xdb?~\xfe6l^\xb7\xd1?\xcd\xef4I\x85\xe6\xd2?\xb6W\x17\x1brN\xe5?\xba\x9d\xae\x14\xde\x0b\xe0?)\xe0\xdfs\xc5\xc0\xd8?Z\x9e\xa22\xaf\x14\xe1?\xa2\xcfB\x1f\xe2/\x98?\x05$\x86\x8e\xf0\x02\xea?\xbd\'\x96\x16\xdeS\xe7?)\x12P\xf8l\xfb\x98?zy\xdf\xfd\x94i\xc8?\xae4\x1c\x933U\xf0?\xdcCqf\xb4\x86\xb0?\xfd\'\xb4\x83/\xea\xdb?j\xe0\x9d\xe6\xe7;\xd9?%\xae>\x1a\x9ey\x80?\xa8\x808P\x0c\xd8\xe9?A\xca\xe8\x04<\x06\xeb?Pwf\xb7\xa70\xdb?\x0el\x9d\xfe\x0bl\xdc?\x10%\xd1s\xee\xc6\xe6?\x1e\xa7\xeb\xd9\xf3\xa3\xd9?S@H\x00\t\xea\xe7?ya\x9b\x0et2\xd6? ^5\x15\xa2\xfe~?\xf0\x85\x8c\x140=\xe3?'
p23
tp24
bsS'test-lists'
p25
(lp26
(lp27
I2
aI3
aa(lp28
I5
aa(lp29
a(lp30
I5
aI7
aI0
aI2
aa(lp31
I3
aa(lp32
I0
aa(lp33
I6
aa(lp34
I6
aa(lp35
a(lp36
a(lp37
I7
aa(lp38
I5
aI6
aI9
aI7
aI10
aI1
aI4
aI8
aI0
aa(lp39
I1
aI2
aa(lp40
a(lp41
I2
aa(lp42
I5
aI2
aa(lp43
I2
aa(lp44
I10
aa(lp45
I5
aa(lp46
I2
aI0
aa(lp47
a(lp48
a(lp49
a(lp50
I5
aI1
aa(lp51
I5
aa(lp52
I5
aI2
aa(lp53
I0
aa(lp54
a(lp55
I0
aa(lp56
I3
aI2
aa(lp57
I0
aa(lp58
I9
aa(lp59
a(lp60
a(lp61
I6
aI10
aI7
aI1
aI0
aI2
aI3
aI8
aI5
aa(lp62
I0
aI3
aa(lp63
I3
aI5
aI8
aI9
aI0
aI2
aI1
aI6
aI7
aa(lp64
I7
aa(lp65
I2
aa(lp66
I6
aa(lp67
I0
aI2
aI3
aI5
aI4
aI1
aI6
aI7
aI8
aa(lp68
I2
aa(lp69
I5
aa(lp70
I3
aa(lp71
a(lp72
I7
aa(lp73
I5
aI1
aa(lp74
I1
aa(lp75
I2
aa(lp76
a(lp77
I3
aa(lp78
a(lp79
I3
aI2
aI0
aa(lp80
I0
aa(lp81
I5
aI0
aI9
aI10
aI8
aI7
aI1
aa(lp82
I2
aa(lp83
I5
aa(lp84
I0
aa(lp85
a(lp86
a(lp87
I2
aa(lp88
I2
aI3
aa(lp89
a(lp90
a(lp91
a(lp92
I5
aa(lp93
I2
aa(lp94
I6
aa(lp95
I2
aI3
aa(lp96
a(lp97
I5
aI0
aa(lp98
I3
aI2
aa(lp99
I5
aa(lp100
I2
aa(lp101
a(lp102
I5
aa(lp103
I5
aI6
aI1
aI0
aI2
aa(lp104
I5
aI6
aI10
aa(lp105
I3
aa(lp106
a(lp107
a(lp108
a(lp109
I0
aI2
aa(lp110
I6
aI9
aa(lp111
I6
aI5
aa(lp112
I7
aI5
aa(lp113
I3
aI0
aa(lp114
I3
aa(lp115
I2
aa(lp116
I3
aa(lp117
I7
aI5
aa(lp118
I2
aa(lp119
I6
aI0
aa(lp120
I5
aa(lp121
I8
aa(lp122
a(lp123
a(lp124
a(lp125
I5
aI3
aI6
aI2
aI10
aI0
aI1
aI4
aI9
aa(lp126
I3
aa(lp127
I2
aa(lp128
I5
aI3
aI0
aI1
aI6
aI8
aI7
aI2
aI9
aa(lp129
I5
aa(lp130
a(lp131
I2
aa(lp132
a(lp133
a(lp134
I5
aI6
aI8
aI9
aI1
aI0
aa(lp135
I3
aa(lp136
I3
aa(lp137
I3
aa(lp138
a(lp139
I0
aa(lp140
I5
aI2
aa(lp141
I3
aa(lp142
I1
aa(lp143
I2
aa(lp144
I9
aa(lp145
I2
aI3
aa(lp146
a(lp147
I5
aa(lp148
I0
aa(lp149
a(lp150
a(lp151
a(lp152
a(lp153
a(lp154
I0
aa(lp155
a(lp156
a(lp157
I1
aa(lp158
I0
aa(lp159
a(lp160
I3
aa(lp161
I4
aa(lp162
I2
aI3
aa(lp163
I5
aa(lp164
I7
aa(lp165
a(lp166
I3
aa(lp167
a(lp168
I2
aa(lp169
I6
aa(lp170
I5
aa(lp171
I2
aI3
aa(lp172
I5
aI0
aa(lp173
I5
aa(lp174
I4
aa(lp175
I5
aI1
aa(lp176
I3
aa(lp177
I3
aa(lp178
a(lp179
I5
aa(lp180
a(lp181
I5
aa(lp182
I9
aa(lp183
a(lp184
I9
aI1
aa(lp185
I8
aa(lp186
I5
aI7
aI10
aI8
aI9
aI6
aa(lp187
a(lp188
I5
aI7
aI6
aI9
aa(lp189
I3
aI2
aI5
aa(lp190
I3
aa(lp191
I3
aa(lp192
I5
aa(lp193
a(lp194
I5
aa(lp195
I0
aI3
aa(lp196
I3
aa(lp197
a(lp198
I2
aI5
aI10
aI3
aI1
aI0
aI4
aI7
aI6
aa(lp199
I5
aa(lp200
I7
aa(lp201
I3
aa(lp202
I3
aI2
aa(lp203
a(lp204
I5
aI7
aI3
aa(lp205
I0
aa(lp206
I5
aI4
aI1
aa(lp207
I3
aI8
aI5
aa(lp208
a(lp209
I2
aa(lp210
a(lp211
I2
aI3
aa(lp212
I2
aa(lp213
a(lp214
a(lp215
I2
aa(lp216
I0
aa(lp217
I5
aI7
aa(lp218
I5
aa(lp219
I6
aa(lp220
I5
aa(lp221
I7
aa(lp222
a(lp223
I0
aI5
aI7
aa(lp224
a(lp225
I5
aa(lp226
a(lp227
I5
aI3
aa(lp228
a(lp229
I3
aI2
aI0
aa(lp230
I6
aI3
aa(lp231
I6
aa(lp232
I0
aI9
aI6
aI4
aa(lp233
I2
aI3
aa(lp234
I2
aa(lp235
I2
aI3
aI0
aI1
aa(lp236
I3
aa(lp237
I5
aI7
aa(lp238
a(lp239
I0
aa(lp240
I0
aa(lp241
I7
aI10
aa(lp242
I5
aa(lp243
a(lp244
I5
aI10
aa(lp245
a(lp246
I0
aI7
aa(lp247
I3
aa(lp248
I5
aa(lp249
I3
aa(lp250
I3
aa(lp251
a(lp252
I7
aI3
aa(lp253
I3
aa(lp254
I0
aI5
aI1
aI3
aI2
aI7
aI9
aI10
aI8
aa(lp255
a(lp256
I0
aI5
aI2
aI1
aI3
aI4
aI7
aI6
aI8
aa(lp257
I5
aa(lp258
I0
aa(lp259
I5
aa(lp260
I2
aI6
aI3
aI7
aI1
aI0
aI5
aI10
aI9
aa(lp261
I3
aa(lp262
a(lp263
I2
aI0
aa(lp264
I3
aa(lp265
I5
aa(lp266
I2
aI3
aa(lp267
I3
aI2
aa(lp268
I5
aI2
aa(lp269
I9
aI6
aa(lp270
I5
aI9
aa(lp271
I8
aa(lp272
a(lp273
a(lp274
a(lp275
I5
aI6
aa(lp276
I2
aa(lp277
I10
aI7
aa(lp278
I1
aI6
aI9
aI0
aI2
aI3
aI5
aI4
aI8
aa(lp279
I2
aI3
aa(lp280
I2
aa(lp281
a(lp282
I0
aa(lp283
I2
aa(lp284
I5
aI6
aa(lp285
I1
aI0
aa(lp286
a(lp287
a(lp288
a(lp289
a(lp290
a(lp291
I3
aI0
aa(lp292
I3
aa(lp293
I3
aI2
aa(lp294
I0
aa(lp295
I5
aI6
aa(lp296
a(lp297
I3
aa(lp298
I0
aa(lp299
a(lp300
I2
aa(lp301
I0
aa(lp302
a(lp303
I2
aa(lp304
I2
aI4
aa(lp305
I2
aa(lp306
I5
aI0
aI7
aI1
aI6
aI4
aI8
aI9
aI10
aa(lp307
I1
aI2
aI0
aI3
aa(lp308
a(lp309
I2
aa(lp310
I5
aI7
aI6
aI10
aI1
aI8
aI9
aI4
aa(lp311
I8
aI4
aI6
aI1
aa(lp312
a(lp313
a(lp314
I3
aa(lp315
I1
aI0
aa(lp316
I5
aa(lp317
I0
aI3
aI2
aI1
aa(lp318
I5
aI4
aI8
aI1
aI9
aI6
aI2
aI3
aI0
aa(lp319
I8
aI4
aI6
aI9
aI1
aI7
aI10
aI5
aI3
aa(lp320
I0
aI3
aa(lp321
I5
aa(lp322
a(lp323
a(lp324
I3
aa(lp325
I2
aa(lp326
I0
aI5
aa(lp327
I5
aI7
aa(lp328
I2
aa(lp329
I5
aI8
aa(lp330
I2
aa(lp331
I3
aa(lp332
I0
aa(lp333
I2
aI3
aa(lp334
I5
aI3
aa(lp335
I5
aI6
aa(lp336
I2
aI3
aI0
aI7
aa(lp337
a(lp338
a(lp339
a(lp340
I0
aI1
aI2
aI3
aI4
aI5
aI6
aI7
aI8
aa(lp341
I1
aI6
aa(lp342
I5
aI1
aI2
aa(lp343
I0
aa(lp344
I7
aI4
aa(lp345
a(lp346
a(lp347
I1
aI2
aa(lp348
I5
aI6
aa(lp349
a(lp350
I5
aa(lp351
a(lp352
a(lp353
I0
aa(lp354
I0
aa(lp355
a(lp356
I3
aa(lp357
I5
aI8
aI1
aI4
aa(lp358
I2
aa(lp359
I3
aa(lp360
I0
aa(lp361
a(lp362
I0
aa(lp363
a(lp364
I3
aa(lp365
I5
aI6
aa(lp366
I0
aa(lp367
a(lp368
I5
aI7
aa(lp369
I2
aI3
aI5
aI0
aI4
aI1
aI6
aI7
aI9
aa(lp370
I7
aI10
aI0
aI2
aI3
aI1
aa(lp371
a(lp372
I2
aa(lp373
I2
aI3
aa(lp374
I5
aI3
aI2
aI7
aI9
aI10
aI4
aI1
aI6
aa(lp375
I2
aa(lp376
a(lp377
a(lp378
I5
aa(lp379
I1
aa(lp380
a(lp381
I1
aa(lp382
I2
aI3
aI0
aa(lp383
a(lp384
a(lp385
I5
aI2
aa(lp386
I2
aI5
aI0
aI3
aI7
aI1
aI6
aI9
aI10
aa(lp387
a(lp388
I0
aI2
aI3
aa(lp389
I6
aI3
aa(lp390
a(lp391
I2
aI3
aI0
aa(lp392
I6
aI3
aa(lp393
I5
aI10
aa(lp394
I4
aI8
aa(lp395
I2
aa(lp396
I2
aI3
aI5
aI8
aI1
aI6
aI7
aI9
aa(lp397
I5
aI6
aI2
aI3
aI0
aI1
aI4
aI7
aI8
aa(lp398
I5
aI7
aa(lp399
a(lp400
I3
aI2
aa(lp401
I0
aa(lp402
I3
aa(lp403
I5
aa(lp404
I2
aI3
aI0
aa(lp405
I10
aa(lp406
I5
aa(lp407
I0
aa(lp408
a(lp409
I0
aa(lp410
a(lp411
I2
aa(lp412
I2
aI3
aI0
aI7
aa(lp413
I2
aa(lp414
I5
aa(lp415
a(lp416
a(lp417
I3
aI5
aI0
aa(lp418
I3
aa(lp419
I5
aa(lp420
I5
aI1
aI8
aI9
aI2
aI0
aI3
aI4
aI6
aa(lp421
I0
aI2
aa(lp422
a(lp423
a(lp424
a(lp425
I3
aI2
aI0
aa(lp426
a(lp427
a(lp428
I0
aa(lp429
a(lp430
a(lp431
I0
aI2
aI3
aa(lp432
a(lp433
a(lp434
I5
aa(lp435
a(lp436
I0
aa(lp437
I5
aa(lp438
I0
aa(lp439
I6
aa(lp440
a(lp441
I9
aI0
aa(lp442
a(lp443
I7
aI10
aa(lp444
I0
aa(lp445
I3
aa(lp446
a(lp447
I2
aa(lp448
a(lp449
I5
aa(lp450
I0
aa(lp451
I5
aI6
aI10
aI4
aI1
aI0
aI2
aI3
aa(lp452
I0
aI6
aa(lp453
I3
aI0
aI2
aa(lp454
I3
aa(lp455
I0
aI2
aa(lp456
I0
aa(lp457
a(lp458
a(lp459
I2
aa(lp460
a(lp461
a(lp462
I0
aI6
aa(lp463
I2
aa(lp464
a(lp465
I5
aa(lp466
a(lp467
I2
aa(lp468
I5
aI6
aa(lp469
I5
aI1
aI6
aI7
aI10
aI3
aI2
aI0
aa(lp470
I3
aI2
aa(lp471
a(lp472
I4
aa(lp473
I9
aa(lp474
I0
aa(lp475
I2
aa(lp476
I5
aI8
aa(lp477
a(lp478
I0
aa(lp479
I7
aa(lp480
I8
aI5
aa(lp481
I10
aI1
aa(lp482
I2
aI3
aI0
aI7
aa(lp483
I5
aI6
aa(lp484
I9
aa(lp485
a(lp486
I0
aa(lp487
I0
aa(lp488
I2
aI3
aa(lp489
I5
aI1
aa(lp490
I2
aI3
aI0
aI5
aI7
aa(lp491
I3
aI7
aa(lp492
I3
aa(lp493
I5
aI8
aa(lp494
I2
aI3
aa(lp495
I5
aI0
aI6
aI1
aa(lp496
I3
aI5
aa(lp497
I0
aI8
aI1
aa(lp498
I9
aI4
aa(lp499
a(lp500
a(lp501
I5
aa(lp502
I7
aI3
aI2
aa(lp503
I3
aI2
aI7
aI9
aa(lp504
a(lp505
I5
aa(lp506
I4
aI3
aI2
aa(lp507
I5
aI1
aa(lp508
I5
aI3
aa(lp509
I1
aa(lp510
a(lp511
I5
aI2
aI0
aI3
aI4
aI7
aI8
aI6
aI1
aa(lp512
I0
aa(lp513
I9
aa(lp514
I5
aI7
aI0
aI1
aI9
aI10
aI8
aI6
aI4
aa(lp515
I3
aa(lp516
a(lp517
I5
aI1
aa(lp518
a(lp519
I6
aI1
aa(lp520
a(lp521
I5
aa(lp522
I9
aa(lp523
I0
aa(lp524
a(lp525
I1
aa(lp526
a(lp527
I3
aa(lp528
a(lp529
I5
aa(lp530
I5
aa(lp531
I3
aI9
aa(lp532
I2
aa(lp533
a(lp534
a(lp535
I2
aa(lp536
a(lp537
I0
aI3
aI5
aI2
aI1
aI4
aI6
aI7
aI8
aa(lp538
a(lp539
I0
aa(lp540
a(lp541
I0
aa(lp542
I5
aI7
aI10
aa(lp543
I2
aa(lp544
I3
aI2
aa(lp545
I5
aa(lp546
I3
aa(lp547
a(lp548
I0
aI6
aa(lp549
I9
aa(lp550
a(lp551
I2
aI0
aI3
aI5
aI1
aI4
aI7
aI6
aI9
aa(lp552
I5
aI1
aI8
aa(lp553
I5
aa(lp554
I5
aI2
aa(lp555
I9
aI8
aI4
aI6
aI1
aI0
aI2
aI3
aI7
aa(lp556
I0
aa(lp557
I5
aI0
aI2
aa(lp558
I10
aI6
aI9
aa(lp559
I0
aI2
aa(lp560
I3
aI2
aa(lp561
a(lp562
I3
aa(lp563
I0
aI9
aI3
aa(lp564
I0
aa(lp565
I9
aI2
aa(lp566
I5
aa(lp567
I2
aa(lp568
a(lp569
I2
aI1
aa(lp570
I0
aa(lp571
I5
aI7
aI6
aa(lp572
I2
aI3
aa(lp573
I0
aa(lp574
a(lp575
a(lp576
I3
aI7
aa(lp577
a(lp578
I4
aI7
aa(lp579
a(lp580
I3
aI2
aa(lp581
I3
aa(lp582
I5
aI6
aI7
aa(lp583
I2
aI0
aa(lp584
I5
aI0
aa(lp585
I9
aI2
aI8
aa(lp586
I2
aI0
aa(lp587
I5
aa(lp588
I8
aa(lp589
I9
aI0
aa(lp590
I3
aI2
aa(lp591
I3
aa(lp592
I2
aI3
aa(lp593
a(lp594
a(lp595
I0
aa(lp596
I6
aa(lp597
I0
aa(lp598
I5
aa(lp599
I3
aa(lp600
I5
aI7
aI10
aI2
aI3
aI6
aI1
aI9
aI0
aa(lp601
I5
aI6
aI1
aI7
aI10
aI0
aI2
aa(lp602
I5
aI10
aa(lp603
a(lp604
a(lp605
I2
aa(lp606
I5
aI6
aI7
aa(lp607
I0
aa(lp608
a(lp609
a(lp610
I0
aa(lp611
a(lp612
a(lp613
I10
aI7
aa(lp614
I5
aI8
aI9
aI10
aI4
aI7
aI6
aI0
aI2
aa(lp615
I1
aI4
aa(lp616
I3
aa(lp617
I2
aa(lp618
I8
aa(lp619
a(lp620
I2
aa(lp621
I0
aa(lp622
I5
aI9
aI4
aI1
aI6
aI10
aI8
aI7
aI0
aa(lp623
I3
aI8
aa(lp624
I5
aI6
aI9
aI10
aI1
aI4
aI7
aI8
aI2
aa(lp625
I10
aI5
aa(lp626
a(lp627
I7
aa(lp628
a(lp629
I0
aa(lp630
a(lp631
I3
aa(lp632
I6
aa(lp633
a(lp634
I3
aa(lp635
a(lp636
a(lp637
a(lp638
I0
aa(lp639
a(lp640
I2
aa(lp641
I2
aI3
aa(lp642
I2
aa(lp643
I0
aI2
aa(lp644
a(lp645
I5
aa(lp646
I3
aa(lp647
I3
aa(lp648
I3
aa(lp649
I0
aI5
aI2
aa(lp650
I0
aa(lp651
I0
aa(lp652
I5
aI1
aI9
aI6
aa(lp653
I9
aa(lp654
I7
aI2
aa(lp655
I1
aI2
aa(lp656
I2
aa(lp657
a(lp658
I8
aa(lp659
I6
aI9
aI10
aa(lp660
I3
aI0
aa(lp661
I1
aI3
aI5
aI0
aI2
aI8
aI4
aI6
aI7
aa(lp662
I10
aI7
aa(lp663
I5
aI10
aI8
aI7
aI6
aI4
aI3
aI2
aa(lp664
a(lp665
I2
aI3
aa(lp666
a(lp667
I3
aa(lp668
a(lp669
a(lp670
I5
aI6
aa(lp671
I5
aI10
aI7
aI3
aI2
aI1
aI0
aI6
aI8
aa(lp672
I2
aa(lp673
a(lp674
I0
aa(lp675
I5
aa(lp676
a(lp677
a(lp678
a(lp679
I5
aa(lp680
I0
aa(lp681
a(lp682
I3
aa(lp683
I8
aa(lp684
I10
aI7
aa(lp685
I5
aI2
aI0
aI7
aI3
aI1
aI4
aI9
aI8
aa(lp686
I3
aI5
aa(lp687
I5
aa(lp688
I0
aa(lp689
I0
aI2
aa(lp690
I2
aI3
aa(lp691
I4
aI10
aa(lp692
I6
aI1
aI8
aa(lp693
I9
aa(lp694
I5
aI3
aa(lp695
I0
aI2
aa(lp696
I2
aI7
aI5
aI3
aI0
aI4
aI1
aI9
aI6
aa(lp697
I7
aa(lp698
a(lp699
I3
aI2
aa(lp700
I3
aa(lp701
a(lp702
a(lp703
I5
aI10
aa(lp704
a(lp705
I3
aa(lp706
a(lp707
I5
aI0
aI1
aI2
aI3
aI4
aI6
aI7
aI8
aa(lp708
I0
aa(lp709
I3
aa(lp710
I2
aa(lp711
a(lp712
I5
aI3
aa(lp713
I0
aa(lp714
a(lp715
I6
aI1
aa(lp716
I7
aI10
aa(lp717
I8
aa(lp718
I6
aa(lp719
I2
aI10
aI3
aI5
aI6
aa(lp720
a(lp721
I5
aI7
aa(lp722
I0
aI7
aI9
aI3
aI2
aI6
aI5
aI8
aI1
aa(lp723
I5
aa(lp724
a(lp725
a(lp726
I4
aa(lp727
a(lp728
I2
aI3
aa(lp729
I5
aa(lp730
a(lp731
a(lp732
a(lp733
I2
aI5
aa(lp734
I2
aa(lp735
I0
aa(lp736
I5
aI1
aI0
aI7
aI8
aI2
aI3
aI4
aI6
aa(lp737
a(lp738
a(lp739
I3
aa(lp740
a(lp741
I1
aI5
aa(lp742
I5
aa(lp743
I2
aa(lp744
I5
aa(lp745
I1
aI0
aI4
aI6
aI2
aI3
aI9
aI8
aI10
aa(lp746
I3
aa(lp747
I8
aa(lp748
a(lp749
a(lp750
I8
aI9
aa(lp751
I5
aI1
aa(lp752
I2
aI4
aI8
aI10
aI3
aI0
aI1
aI6
aa(lp753
I0
aI1
aI7
aa(lp754
a(lp755
I1
aI2
aa(lp756
a(lp757
I6
aI10
aI3
aI2
aI0
aI1
aI4
aI5
aI7
aa(lp758
a(lp759
I7
aa(lp760
I1
aa(lp761
I5
aI9
aI0
aI4
aI6
aI1
aI2
aI3
aI7
aa(lp762
I8
aa(lp763
a(lp764
I0
aI5
aa(lp765
I0
aI2
aI1
aI6
aI7
aI8
aI9
aI10
aI5
aa(lp766
a(lp767
I2
aa(lp768
I3
aa(lp769
a(lp770
I2
aa(lp771
I3
aI0
aI2
aa(lp772
I2
aa(lp773
a(lp774
a(lp775
I9
aa(lp776
I5
aa(lp777
I6
aI1
aa(lp778
I0
aa(lp779
I2
aa(lp780
I8
aa(lp781
I8
aI2
aI0
aa(lp782
I2
aa(lp783
I3
aa(lp784
a(lp785
I5
aa(lp786
a(lp787
a(lp788
I8
aa(lp789
I5
aI9
aa(lp790
I3
aa(lp791
I0
aa(lp792
a(lp793
I7
aI2
aa(lp794
I0
aa(lp795
I3
aa(lp796
I1
aa(lp797
I1
aa(lp798
I3
aa(lp799
a(lp800
I2
aa(lp801
a(lp802
a(lp803
I3
aI5
aa(lp804
I1
aa(lp805
a(lp806
I5
aI6
aa(lp807
a(lp808
I2
aa(lp809
I2
aI3
aI0
aI6
aa(lp810
I4
aI7
aa(lp811
I3
aa(lp812
a(lp813
a(lp814
I5
aI10
aI1
aI7
aa(lp815
I3
aa(lp816
I9
aI4
aa(lp817
I5
aI7
aa(lp818
I6
aI5
aa(lp819
I5
aa(lp820
I2
aa(lp821
a(lp822
a(lp823
I2
aa(lp824
I5
aa(lp825
I0
aI1
aa(lp826
I2
aa(lp827
I0
aa(lp828
a(lp829
I0
aa(lp830
I3
aI7
aa(lp831
I5
aI6
aI1
aI0
aI3
aI2
aI7
aI8
aI9
aa(lp832
I7
aa(lp833
I3
aI5
aa(lp834
I0
aa(lp835
I0
aa(lp836
I5
aa(lp837
a(lp838
I2
aI0
aa(lp839
I5
aI8
aI2
aa(lp840
I3
aI2
aa(lp841
a(lp842
I2
aI3
aa(lp843
I5
aI0
aI1
aI10
aI2
aI3
aI4
aI6
aI7
aa(lp844
I9
aa(lp845
a(lp846
I5
aa(lp847
a(lp848
I7
aI10
aa(lp849
I3
aa(lp850
I5
aa(lp851
a(lp852
a(lp853
I2
aa(lp854
I0
aa(lp855
a(lp856
I5
aI0
aa(lp857
a(lp858
I2
aI3
aI5
aa(lp859
I2
aI0
aI3
aI5
aI1
aI9
aI6
aI8
aI7
aa(lp860
I5
aa(lp861
I2
aa(lp862
I0
aa(lp863
I6
aa(lp864
I0
aI5
aa(lp865
I0
aI1
aI2
aI3
aI4
aI5
aI6
aI7
aI8
aa(lp866
a(lp867
I2
aa(lp868
a(lp869
I9
aa(lp870
I6
aI1
aI9
aI8
aI5
aI0
aI2
aI3
aI4
aa(lp871
a(lp872
I5
aa(lp873
I3
aI0
aI5
aI6
aI8
aa(lp874
I8
aa(lp875
I0
aa(lp876
I1
aa(lp877
I5
aa(lp878
a(lp879
I3
aI2
aa(lp880
a(lp881
I3
aa(lp882
a(lp883
a(lp884
I5
aa(lp885
a(lp886
I5
aI2
aI3
aa(lp887
I5
aI6
aa(lp888
a(lp889
I5
aI10
aa(lp890
I5
aa(lp891
a(lp892
I7
aI6
aa(lp893
a(lp894
I3
aa(lp895
a(lp896
I5
aa(lp897
a(lp898
I4
aI8
aa(lp899
a(lp900
I2
aI3
aa(lp901
I1
aI8
aa(lp902
a(lp903
I2
aa(lp904
I5
aa(lp905
I5
aI3
aa(lp906
I5
aa(lp907
I2
aa(lp908
a(lp909
I0
aI2
aa(lp910
I5
aa(lp911
I6
aa(lp912
a(lp913
I3
aa(lp914
I0
aa(lp915
a(lp916
I5
aa(lp917
I5
aa(lp918
I6
aI7
aa(lp919
I5
aa(lp920
a(lp921
I8
aI2
aa(lp922
I5
aI7
aa(lp923
I5
aI1
aI10
aI7
aI2
aI0
aI3
aI6
aI4
aa(lp924
I0
aI2
aI3
aI6
aa(lp925
I7
aa(lp926
I5
aa(lp927
I8
aa(lp928
I3
aI2
aa(lp929
I0
aa(lp930
I2
aI3
aa(lp931
I3
aI2
aI0
aa(lp932
I5
aa(lp933
a(lp934
I5
aI1
aI0
aI2
aI3
aI4
aI7
aI8
aa(lp935
I2
aa(lp936
a(lp937
a(lp938
I0
aI2
aI3
aa(lp939
I2
aI3
aa(lp940
I9
aa(lp941
I9
aa(lp942
a(lp943
I5
aa(lp944
a(lp945
I5
aa(lp946
I9
aI8
aa(lp947
I7
aI10
aa(lp948
I9
aI8
aa(lp949
a(lp950
I3
aa(lp951
a(lp952
I2
aI3
aa(lp953
I7
aI5
aa(lp954
I6
aI0
aa(lp955
I2
aa(lp956
a(lp957
I5
aa(lp958
a(lp959
I7
aa(lp960
I2
aa(lp961
I3
aa(lp962
I5
aa(lp963
I3
aa(lp964
a(lp965
I6
aI10
aa(lp966
I2
aa(lp967
I3
aI2
aa(lp968
I8
aa(lp969
I5
aI0
aa(lp970
a(lp971
a(lp972
I5
aa(lp973
I7
aa(lp974
I2
aa(lp975
I1
aa(lp976
I0
aa(lp977
I2
aI3
aa(lp978
I2
aI3
aI0
aI7
aa(lp979
a(lp980
I10
aI7
aI2
aI4
aI5
aI6
aI8
aI9
aI3
aa(lp981
I7
aa(lp982
I5
aa(lp983
I5
aI7
aa(lp984
I6
aI4
aI8
aI9
aI7
aa(lp985
I3
aa(lp986
I0
aI2
aI3
aI8
aI6
aa(lp987
a(lp988
I2
aa(lp989
I5
aa(lp990
I7
aI3
aI0
aI5
aI2
aI1
aI4
aI6
aI10
aa(lp991
I8
aa(lp992
a(lp993
a(lp994
I3
aa(lp995
I1
aa(lp996
I3
aa(lp997
a(lp998
I5
aI3
aa(lp999
I2
aI3
aa(lp1000
I10
aI7
aa(lp1001
I5
aI1
aa(lp1002
a(lp1003
I8
aI5
aI4
aI1
aI6
aI0
aI2
aI3
aI9
aa(lp1004
a(lp1005
I3
aa(lp1006
I0
aI1
aI10
aa(lp1007
I6
aI1
aa(lp1008
a(lp1009
I0
aa(lp1010
I3
aa(lp1011
a(lp1012
a(lp1013
I3
aa(lp1014
I5
aa(lp1015
I0
aa(lp1016
a(lp1017
I5
aa(lp1018
I3
aI0
aa(lp1019
I0
aI5
aa(lp1020
I0
aI2
aa(lp1021
I0
aa(lp1022
I6
aI0
aa(lp1023
a(lp1024
I5
aa(lp1025
a(lp1026
I7
aI10
aa(lp1027
I2
aa(lp1028
I5
aI2
aa(lp1029
I3
aI4
aI2
aa(lp1030
I3
aa(lp1031
I4
aI5
aI7
aI2
aI1
aa(lp1032
I3
aa(lp1033
I1
aI4
aI6
aa(lp1034
I0
aa(lp1035
a(lp1036
I2
aI1
aa(lp1037
I5
aa(lp1038
I1
aI6
aI2
aa(lp1039
I0
aa(lp1040
I5
aa(lp1041
a(lp1042
I0
aa(lp1043
I0
aa(lp1044
I5
aI6
aa(lp1045
a(lp1046
I2
aI3
aa(lp1047
I5
aI2
aI3
aa(lp1048
a(lp1049
I2
aa(lp1050
I5
aI9
aI7
aa(lp1051
I5
aa(lp1052
I0
aI8
aa(lp1053
I5
aa(lp1054
a(lp1055
I5
aI1
aa(lp1056
I3
aI1
aa(lp1057
I5
aa(lp1058
I5
aI9
aI4
aa(lp1059
I0
aI2
aa(lp1060
I8
aa(lp1061
I9
aI4
aa(lp1062
I0
aa(lp1063
a(lp1064
a(lp1065
I5
aa(lp1066
I3
aa(lp1067
I2
aI3
aa(lp1068
I5
aa(lp1069
a(lp1070
a(lp1071
I5
aa(lp1072
I5
aa(lp1073
I3
aa(lp1074
a(lp1075
I8
aa(lp1076
I0
aI3
aa(lp1077
I6
aa(lp1078
I7
aI2
aa(lp1079
a(lp1080
I3
aI0
aa(lp1081
a(lp1082
I1
aa(lp1083
I3
aa(lp1084
I0
aI1
aa(lp1085
a(lp1086
a(lp1087
a(lp1088
I3
aa(lp1089
I5
aa(lp1090
I3
aI2
aa(lp1091
I6
aI0
aI7
aa(lp1092
a(lp1093
a(lp1094
I5
aa(lp1095
I2
aI3
aa(lp1096
I5
aI7
aI10
aI6
aI1
aI9
aI2
aa(lp1097
I3
aI5
aa(lp1098
I9
aa(lp1099
a(lp1100
I3
aI2
aa(lp1101
I0
aI3
aa(lp1102
a(lp1103
I5
aI8
aI6
aI2
aI3
aI1
aI0
aI4
aI7
aa(lp1104
a(lp1105
I5
aa(lp1106
I1
aa(lp1107
I7
aa(lp1108
I9
aa(lp1109
I1
aa(lp1110
I0
aa(lp1111
I5
aa(lp1112
I0
aa(lp1113
a(lp1114
I0
aa(lp1115
I0
aa(lp1116
I5
aa(lp1117
I2
aI3
aa(lp1118
I0
aa(lp1119
a(lp1120
a(lp1121
I5
aI2
aa(lp1122
I9
aa(lp1123
I7
aa(lp1124
a(lp1125
I1
aI4
aa(lp1126
I5
aa(lp1127
a(lp1128
a(lp1129
I0
aa(lp1130
I3
aI0
aa(lp1131
I0
aI2
aa(lp1132
I5
aI1
aI6
aa(lp1133
I1
aI6
aI2
aa(lp1134
I9
aI2
aa(lp1135
I1
aI6
aI5
aI3
aI0
aI2
aI9
aI7
aI4
aa(lp1136
I1
aI6
aI9
aI5
aa(lp1137
I1
aI5
aI8
aI9
aa(lp1138
I5
aI7
aI1
aI9
aI10
aa(lp1139
I6
aI0
aa(lp1140
I7
aa(lp1141
I3
aa(lp1142
I6
aa(lp1143
I9
aa(lp1144
I3
aa(lp1145
I2
aI1
aa(lp1146
I1
aI6
aa(lp1147
I2
aa(lp1148
I0
aa(lp1149
I5
aa(lp1150
I5
aI3
aI2
aI0
aI7
aI10
aa(lp1151
I0
aa(lp1152
a(lp1153
I3
aa(lp1154
I0
aa(lp1155
I1
aa(lp1156
I6
aI0
aa(lp1157
I1
aI3
aa(lp1158
I5
aI1
aI6
aI3
aa(lp1159
I4
aa(lp1160
I9
aI0
aI5
aI7
aI10
aI1
aI3
aI6
aI8
aa(lp1161
I7
aI10
aI1
aa(lp1162
a(lp1163
I0
aI1
aI2
aI3
aI6
aI7
aI9
aI10
aI8
aa(lp1164
I2
aa(lp1165
I5
aI2
aI1
aI7
aa(lp1166
I2
aa(lp1167
a(lp1168
I6
aI0
aa(lp1169
I0
aa(lp1170
I3
aI2
aa(lp1171
I0
aa(lp1172
I4
aI8
aa(lp1173
a(lp1174
a(lp1175
I2
aI3
aa(lp1176
I3
aI2
aI1
aI0
aI10
aI8
aI7
aI6
aa(lp1177
I2
aa(lp1178
a(lp1179
I3
aa(lp1180
a(lp1181
I5
aa(lp1182
I3
aa(lp1183
I3
aa(lp1184
I6
aa(lp1185
a(lp1186
I2
aI1
aI3
aI5
aI6
aI0
aI4
aI7
aI10
aa(lp1187
I3
aa(lp1188
a(lp1189
I8
aI7
aa(lp1190
I2
aI3
aI0
aI5
aI1
aI10
aI4
aI9
aI8
aa(lp1191
I3
aa(lp1192
I6
aa(lp1193
I3
aa(lp1194
I7
aI3
aa(lp1195
I8
aa(lp1196
I3
aa(lp1197
I0
aa(lp1198
I2
aI5
aa(lp1199
I5
aI0
aa(lp1200
I0
aI2
aI3
aI7
aa(lp1201
I6
aI1
aa(lp1202
a(lp1203
I3
aI2
aa(lp1204
I5
aI1
aa(lp1205
I0
aI1
aa(lp1206
I2
aI3
aa(lp1207
I3
aI2
aa(lp1208
I2
aI4
aa(lp1209
a(lp1210
I3
aI2
aa(lp1211
I5
aI7
aI10
aa(lp1212
I5
aa(lp1213
a(lp1214
I2
aa(lp1215
a(lp1216
I2
aa(lp1217
a(lp1218
I5
aI2
aI3
aa(lp1219
I5
aI1
aI6
aa(lp1220
I0
aa(lp1221
I4
aI2
aa(lp1222
a(lp1223
I5
aI9
aa(lp1224
I8
aI1
aI4
aI9
aa(lp1225
a(lp1226
I2
aa(lp1227
a(lp1228
a(lp1229
a(lp1230
I8
aI1
aa(lp1231
I3
aa(lp1232
a(lp1233
I5
aI1
aI6
aI8
aI9
aI10
aI4
aI3
aa(lp1234
I2
aI0
aI8
aI3
aI7
aI6
aI10
aI4
aI9
aa(lp1235
I6
aI3
aa(lp1236
I6
aI7
aa(lp1237
I9
aa(lp1238
I6
aI3
aI0
aI10
aa(lp1239
a(lp1240
I5
aI7
aa(lp1241
a(lp1242
I2
aa(lp1243
a(lp1244
I2
aI3
aa(lp1245
a(lp1246
I5
aI7
aI9
aI10
aI4
aI1
aI6
aI8
aI2
aa(lp1247
I2
aI8
aa(lp1248
I5
aI6
aI9
aI0
aI1
aI2
aI3
aI4
aI7
aa(lp1249
a(lp1250
I3
aI2
aa(lp1251
a(lp1252
I5
aI10
aa(lp1253
I0
aa(lp1254
a(lp1255
I5
aI7
aa(lp1256
I0
aa(lp1257
I2
aa(lp1258
I2
aa(lp1259
I5
aa(lp1260
I3
aa(lp1261
I5
aa(lp1262
I2
aa(lp1263
I4
aI0
aI2
aI3
aa(lp1264
I2
aa(lp1265
I5
aI7
aa(lp1266
I9
aI2
aI3
aI1
aI5
aI4
aI7
aI8
aa(lp1267
I5
aa(lp1268
a(lp1269
I5
aI9
aa(lp1270
a(lp1271
I3
aI5
aI10
aa(lp1272
I0
aa(lp1273
a(lp1274
a(lp1275
I3
aI2
aI4
aI1
aI5
aa(lp1276
I9
aa(lp1277
I2
aa(lp1278
I0
aI2
aI3
aI9
aI4
aI1
aI8
aI6
aI5
aa(lp1279
I7
aa(lp1280
a(lp1281
I2
aI3
aa(lp1282
I9
aa(lp1283
I4
aa(lp1284
I2
aa(lp1285
I5
aa(lp1286
I0
aa(lp1287
a(lp1288
I5
aI6
aI1
aa(lp1289
a(lp1290
I3
aI5
aa(lp1291
I0
aa(lp1292
I9
aa(lp1293
I0
aa(lp1294
I0
aI10
aI3
aI2
aI5
aI1
aI7
aI6
aI8
aa(lp1295
I0
aa(lp1296
I4
aI8
aI6
aa(lp1297
I2
aa(lp1298
I5
aI2
aa(lp1299
I9
aa(lp1300
I10
aI5
aa(lp1301
I2
aa(lp1302
I5
aI7
aa(lp1303
I5
aa(lp1304
a(lp1305
I5
aI7
aI2
aI0
aI1
aI8
aI9
aI10
aa(lp1306
I2
aa(lp1307
a(lp1308
I0
aa(lp1309
a(lp1310
I2
aI3
aa(lp1311
a(lp1312
I0
aa(lp1313
I5
aa(lp1314
a(lp1315
I2
aa(lp1316
I2
aa(lp1317
a(lp1318
I5
aI3
aa(lp1319
I2
aa(lp1320
I3
aI2
aa(lp1321
a(lp1322
I5
aI7
aI6
aI9
aa(lp1323
I5
aI7
aa(lp1324
I5
aa(lp1325
I5
aI4
aa(lp1326
a(lp1327
a(lp1328
a(lp1329
I3
aI2
aa(lp1330
I10
aI3
aa(lp1331
I3
aa(lp1332
I5
aa(lp1333
I5
aI3
aa(lp1334
I3
aa(lp1335
I0
aa(lp1336
a(lp1337
I3
aa(lp1338
a(lp1339
a(lp1340
I2
aa(lp1341
a(lp1342
I2
aa(lp1343
I0
aa(lp1344
I2
aI1
aa(lp1345
I1
aI2
aI3
aI0
aI5
aI6
aI9
aI10
aI7
aa(lp1346
I1
aa(lp1347
a(lp1348
I2
aa(lp1349
a(lp1350
I9
aI6
aa(lp1351
I5
aI7
aa(lp1352
I2
aa(lp1353
I3
aI2
aI0
aa(lp1354
I0
aa(lp1355
I3
aI2
aI0
aa(lp1356
I1
aa(lp1357
a(lp1358
I3
aa(lp1359
I2
aa(lp1360
I1
aa(lp1361
I5
aI8
aa(lp1362
I1
aI6
aa(lp1363
I3
aa(lp1364
I0
aI5
aa(lp1365
I5
aa(lp1366
I3
aa(lp1367
I3
aa(lp1368
a(lp1369
I5
aI3
aa(lp1370
I0
aI2
aa(lp1371
I5
aI3
aI2
aI0
aI1
aI7
aI8
aI10
aI9
aa(lp1372
I5
aa(lp1373
I5
aI1
aa(lp1374
I2
aa(lp1375
I0
aI5
aI2
aa(lp1376
I8
aa(lp1377
I2
aa(lp1378
a(lp1379
I2
aa(lp1380
I9
aI7
aI0
aI2
aI1
aI3
aI5
aI4
aI6
aa(lp1381
I3
aa(lp1382
I3
aI2
aa(lp1383
I5
aI10
aa(lp1384
I3
aa(lp1385
a(lp1386
a(lp1387
I3
aI2
aa(lp1388
I6
aa(lp1389
I2
aa(lp1390
I2
aa(lp1391
I0
aa(lp1392
I2
aa(lp1393
a(lp1394
a(lp1395
a(lp1396
I3
aa(lp1397
I2
aa(lp1398
I3
aa(lp1399
I9
aI6
aI2
aI0
aI3
aI1
aI5
aI8
aI10
aa(lp1400
I2
aasS'PCMC'
p1401
g16
(g17
(I0
tp1402
g19
tp1403
Rp1404
(I1
(I110
tp1405
g8
I00
S'\xa1\x87\xc0\xe5\xed\xb5\xb6?\x96\xe8\x04\x1f\xd5&\xe9?C\xb6|\x8e\xa1\xca\xdf?V\\5\x86\x93\xdf\xb0?\x12\xa8\xa24\xfe\xa9\x80?\x08\xb4Ul?q\xa8?"\xa7\x16\x02\xa0E\x9e?\x833tf*\xc1\x87?2\x93\xb9\xbc\x8b\xddp?j\x07@\x10R\xda\x9f?\xcf\xb6\xa36\xc2\x99\xe1?J*\\DQ\xe9\xee?\x0f6\xfb\xe4\x00#\xe0?e\xee\xe0\x16\x14\xa1\xbc?\xfc\xa9\xf1\xd2MbP?\xd0s\xf6\xc81\xd6\xc1?wl\xfao\xd2\x1d\xb3?\xd8\x05X\xecR\x1c\xad?\xd6E\x89M1g\xb3?A\x94z\x1c\xce\x0f\xc3?\x94\xa5\xc6>~x\xd3?q\x8f\xf9Q\xe6\xbf\xda?\xb4\xc9\x00\xff\xb3\xac\xe0?\xc6\x1d%\xe7\xcd\xb7\xd1?\x05N\x98\xc1U\xfa\xe9?O\xe9=\x1e\n\xcc\xd7?\xd6DA[\xf5e\xd0?\x93\xde3?&\x7f\xcb?\x98v7\x82\xd2\xd6\xcb?J\x96\x8d\xe2rn\xcf?\x02{}\x82\x8d\x9c\xcf?\x94\xa0\x14\x12k\xb4\xb1?\x9cF\x17\xc9\xcbv\xfa?\xc8\x96\x166s\xe8\xa4?\xf4xS\xcc\xfa\xc7n?\x9aY\xdb<Bo\x8b?\xf0J%\xf7\xb6\xb9a?s@|$\xc9\x99\x97?ANw\xffX\x9f\x92?\xc8pe\x9b\xa9\x11{?\xf21\x90\xc6\xb9V\xe8?+\xfdP\x7f\xca\x8a\xe6??\xe9\xe1\n\xe9\xe8\xf2?\x8d\xfc;\x1df6\xee?\xfc\xa9\xf1\xd2MbP?\xd8\xd8n\xf6\xe0\xac\xa6?\x12N\xdb\rj\xfc\x83?\xfb\xf5c/2(\xaf?R\x90\x8eF\xacI\x9e?WT\xf0\x04\x9dh\xad?\x8a\x7fo[\xe5\x9b\xd1?k\x00X\xcaV\xe3\xa7?\xc3\xa9\xe7<\x18\xb8\xdc?\xa8\x04\xf6NZ\xb7\xc8?\xcf\xec\xd9:r\'\xbc?\xf0y3\x9b[\xb2\xab?\xda-\xd6[<*\xad?\x06\x1a\x0e|\x14v\xa5?\xbb\xfd$q\xacc\xac?-\xf5\x00\xaa\xa0-\xb2?\x8d\xda96\xa7#\x92?]\x1f\x1c\xbd41\xd8?\x9e\xaf\x85\xd6\xd2\x19\xe3?x\xe0\xdd\tVp\xb4?\x94#\x05\xc5H|\xc7?Q_\xe2*\xa0$\xe6?e\xd7\x86\x8c\xc8\xb1\xb5?\xdc\x84!W\xc3f\x96?\xc9\x16\x9dp<\\\xad?\x17\x15\xaa\x16z\xb1\xb8?g<\x19HA;\xa5?\xbf\x9f\x0c\xb5\xbf\xd6\xbf?\xf5xn\x81\x17K\xdc?\xfc\xa9\xf1\xd2MbP?\xcf\xbb\xf7\x97\xf8\x99\xac?\x04\x83\x82\x11\x91y\xe5?|\x15\x08\xfc4\x1d\xcc?)S\x02\xef@\xfa\xaa?~\xed\x955\x1cQ\xaf?d\xc2B\xe5\x83|\xc2?jTl\xc9\xe0|\x94?\xa7\x9fV\x90\xa8\xc1\xd1?$0\x11\xe1\xba^\xe3?\xf5\xf8\xe9\x15\x89\x0e\xc7?\rl@\xbb0\xab\xa8?J\x06W\x1e\xdc\xe7\xcf?.\x84\xa4QXh\xb2?[\xe1\xfbd\x122\xac?\xe5h\xef\x0eV\xc0\xcd?\xf2\x8c_\x1c\xca\xce\xaf?\xfc\xa9\xf1\xd2MbP?\x96\x9d\x8e\x86\xeb\xb1\xa6?\xb8\xc1\xe5;\x9b\xce\xe1?fxj\x1f\x1c\x9c\xc9?\xf8\x1c\xc5\xfbI\x8e\xa0?\x86yqu\xb3\xbc\xb9?Q\x17\r`\xcb\x91\xe1?\x03c\xcd\x1bT\x17\xd5?\xee\xc6c\x8e5,\xd5?\x99n\x9de\xbf}\x98?\xeb}\xc3\xf7\x93\x8d\xb1?\xc4\xfb\xed~/\r\xd1?\xd0\xbdF\xf5\x86i\xe2?\xd5\x863\xa6er\xd1?:\xa9\xf5\xd2\x10[\x90?\xeeaD\x96\xa5\xec\xae?\t\xd6L\x8d\x8e\xe7\xde?7\xeb\xaa\xcfF\xff\xda?E\x99\xf62O\x84m?C\x05JO18\xd6?'
p1406
tp1407
bsS'PL'
p1408
g16
(g17
(I0
tp1409
g19
tp1410
Rp1411
(I1
(I11
tp1412
g8
I00
S"(\x95\xf6\x18\xb4\xef\xc1?\xa0\x96\x93\xd4\x14\xb1\xb3?\x99\xbd\xbd\xd9\xdb\x1d\xc7?\xd8PZ\xd1\xd7\x84\xc5?\x15+\x8b>\xa5\xe6\xa0?\x95p\x0f\xa9\xd4\xf8\xc4?l'\xb0\xb1\x8d\xab\xb1?\xc9\xe9\x9e\xab\x06\xed\xad?\xaa\xccL\xffO\xa5\xa4?\xcd\\J\x90\xc2!\xa3?\xb4\xf4>\xc5\n\x7f\xa0?"
p1413
tp1414
bs.