(dp0
S'N'
p1
I3
sS'Mallows-greedy'
p2
((lp3
I1
aI2
aI0
acnumpy.core.multiarray
scalar
p4
(cnumpy
dtype
p5
(S'f8'
p6
I0
I1
tp7
Rp8
(I3
S'<'
p9
NNNI-1
I-1
I0
tp10
bS'\x9c\x98F\xd6\xce]\xf7?'
p11
tp12
Rp13
tp14
sS'MMNL'
p15
cnumpy.core.multiarray
_reconstruct
p16
(cnumpy
ndarray
p17
(I0
tp18
S'b'
p19
tp20
Rp21
(I1
(I4
tp22
g8
I00
S'\x00\x00\x00\x00\x00\x00\xf0?L\x12\xcd0hz\xd7?\xa9\xafm\xb2\xc1\x92\xfa?|\x1d\xa8\x9c\xb6\xdb\xd8?'
p23
tp24
bsS'test-lists'
p25
(lp26
(lp27
I2
aa(lp28
I2
aa(lp29
I1
aa(lp30
I1
aa(lp31
I1
aa(lp32
I1
aa(lp33
I1
aa(lp34
I1
aa(lp35
I1
aa(lp36
I1
aa(lp37
I1
aa(lp38
I1
aa(lp39
I1
aa(lp40
I2
aa(lp41
I0
aa(lp42
I1
aa(lp43
I1
aa(lp44
I1
aa(lp45
I0
aa(lp46
I2
aa(lp47
I0
aa(lp48
I2
aa(lp49
I1
aa(lp50
I1
aa(lp51
I1
aa(lp52
I1
aa(lp53
I1
aasS'PCMC'
p54
g16
(g17
(I0
tp55
g19
tp56
Rp57
(I1
(I6
tp58
g8
I00
S'j+\xfci\xbfP\xf1?\x84\x9f\x12\xfdZ\x02\xe0?8\x1fB0\x1d\x05\xc4?U\xe0T\xb0\x9d=\xd4?\x01\xddq\x17Xm\xea?\x04\x1f\xab6\xa3\xf7\xef?'
p59
tp60
bsS'PL'
p61
g16
(g17
(I0
tp62
g19
tp63
Rp64
(I1
(I3
tp65
g8
I00
S'\xea\xbb\x99\xb4No\xc3?\xd2qk\x129\xff\xe5?\xd0|\xb8\x01\xcd\x93\xc4?'
p66
tp67
bs.