(dp0
S'N'
p1
I4
sS'Mallows-greedy'
p2
((lp3
I0
aI3
aI2
aI1
acnumpy.core.multiarray
scalar
p4
(cnumpy
dtype
p5
(S'f8'
p6
I0
I1
tp7
Rp8
(I3
S'<'
p9
NNNI-1
I-1
I0
tp10
bS'rql\xc2V\x01\xec?'
p11
tp12
Rp13
tp14
sS'MMNL'
p15
cnumpy.core.multiarray
_reconstruct
p16
(cnumpy
ndarray
p17
(I0
tp18
S'b'
p19
tp20
Rp21
(I1
(I10
tp22
g8
I00
S'\xce\x01\x03#\x9c5\xe5?c\xfc\xf9\xb9\xc7\x94\xd5?Y_m\x1a^\x15\xfb?\x95\xd6&\xe8\x0b.\x11>U\xaa\xb2pj\x16\xe7?\x95\xd6&\xe8\x0b.\x11>\xc8\xcf\x1aK1\x12\xdb?v\xfc\xe3\x01$\xa9\xf5?\x95\xd6&\xe8\x0b.\x11>\x0f\x1aU\xdd\xc8U\x08@'
p23
tp24
bsS'test-lists'
p25
(lp26
(lp27
I2
aI3
aa(lp28
I1
aI0
aa(lp29
I0
aI3
aa(lp30
I3
aI2
aa(lp31
I3
aI0
aa(lp32
a(lp33
I3
aI2
aa(lp34
I3
aI2
aa(lp35
I0
aI1
aa(lp36
I3
aI0
aa(lp37
I1
aI3
aa(lp38
I2
aI3
aa(lp39
I1
aI0
aa(lp40
I0
aI3
aa(lp41
I3
aI0
aa(lp42
I0
aI1
aa(lp43
I3
aI1
aa(lp44
I3
aI2
aa(lp45
I0
aI2
aa(lp46
I0
aI1
aa(lp47
I3
aI1
aa(lp48
a(lp49
I3
aI2
aa(lp50
I1
aI3
aa(lp51
I0
aI1
aa(lp52
I3
aI2
aa(lp53
I2
aI0
aa(lp54
I3
aI2
aa(lp55
I0
aI1
aa(lp56
I0
aI3
aa(lp57
I3
aI1
aa(lp58
I1
aI2
aa(lp59
I0
aI2
aa(lp60
I0
aI3
aa(lp61
I1
aI0
aa(lp62
I0
aI2
aa(lp63
I3
aI2
aa(lp64
I0
aI3
aa(lp65
I0
aI2
aa(lp66
I0
aI1
aa(lp67
I3
aI2
aa(lp68
I2
aI3
aa(lp69
I1
aI2
aa(lp70
I0
aI1
aa(lp71
I3
aI2
aa(lp72
I2
aI3
aa(lp73
I3
aI2
aa(lp74
I0
aI3
aa(lp75
I0
aI1
aa(lp76
I1
aI2
aa(lp77
I0
aI1
aa(lp78
I0
aI3
aa(lp79
I3
aI2
aa(lp80
I3
aI1
aa(lp81
I2
aI0
aa(lp82
I0
aI2
aa(lp83
I0
aI3
aa(lp84
I2
aI3
aa(lp85
I1
aI0
aa(lp86
I0
aI2
aa(lp87
I3
aI2
aa(lp88
I0
aI2
aa(lp89
I1
aI2
aa(lp90
I0
aI2
aa(lp91
I3
aI2
aa(lp92
I3
aI2
aasS'PCMC'
p93
g16
(g17
(I0
tp94
g19
tp95
Rp96
(I1
(I12
tp97
g8
I00
S'u^\xc6nU\x8c\xdc?/\xb7 [\xab\xf8\xe1?\x1f;\x7f\x81"\xcb\xe2?\x94\xde\x95\x99^\x04\xf0?K,x"\x1c\x7f\xbe?\xe3/\xbd\x1f\xd7\xce\xb4?\r[\x01S\xeeU\xf1?\\Q;\x80\x1b\xec\xb5?\xc1\xfeH\xf0/\xf8n?`l/\x84\xa4^\xea?\xfe\x1dt7B\xe2\xc4?\xfc\xa9\xf1\xd2MbP?'
p98
tp99
bsS'PL'
p100
g16
(g17
(I0
tp101
g19
tp102
Rp103
(I1
(I4
tp104
g8
I00
S'.$\xc3\xb6\xc1\xd2\xd7?\x9a\x90y\xe4\xa2\xd0\xc8?\x97[\x14\xea\xcd\xf5\xcd?t\xcb\xeb\xc3\x0b\x94\xc9?'
p105
tp106
bs.