(dp0
S'train-choices'
p1
(dp2
(I0
I3
I4
tp3
cnumpy.core.multiarray
_reconstruct
p4
(cnumpy
ndarray
p5
(I0
tp6
S'b'
p7
tp8
Rp9
(I1
(I3
tp10
cnumpy
dtype
p11
(S'f8'
p12
I0
I1
tp13
Rp14
(I3
S'<'
p15
NNNI-1
I-1
I0
tp16
bI00
S'\x00\x00\x00\x00\x00\x00\x08@\x00\x00\x00\x00\x00\x00\x10@\x00\x00\x00\x00\x00\x00\x00\x00'
p17
tp18
bs(I1
I2
I3
I4
tp19
g4
(g5
(I0
tp20
g7
tp21
Rp22
(I1
(I4
tp23
g14
I00
S'\x00\x00\x00\x00\x00\xc0W@\x00\x00\x00\x00\x00\x00\x14@\x00\x00\x00\x00\x00\x00R@\x00\x00\x00\x00\x00\x00\x18@'
p24
tp25
bs(I0
I2
I3
tp26
g4
(g5
(I0
tp27
g7
tp28
Rp29
(I1
(I3
tp30
g14
I00
S'\x00\x00\x00\x00\x00\x00\xf0?\x00\x00\x00\x00\x00\x00\x00\x00\x00\x00\x00\x00\x00\x00\x00\x00'
p31
tp32
bs(I0
I1
I2
I4
tp33
g4
(g5
(I0
tp34
g7
tp35
Rp36
(I1
(I4
tp37
g14
I00
S'\x00\x00\x00\x00\x00\x00D@\x00\x00\x00\x00\x00\x006@\x00\x00\x00\x00\x00\x00\x10@\x00\x00\x00\x00\x00\x00\x18@'
p38
tp39
bs(I1
I2
I3
tp40
g4
(g5
(I0
tp41
g7
tp42
Rp43
(I1
(I3
tp44
g14
I00
S'\x00\x00\x00\x00\x00\x00\x00@\x00\x00\x00\x00\x00\x00\x00@\x00\x00\x00\x00\x00\x00\x00@'
p45
tp46
bs(I0
I1
I2
tp47
g4
(g5
(I0
tp48
g7
tp49
Rp50
(I1
(I3
tp51
g14
I00
S'\x00\x00\x00\x00\x00\x00\x14@\x00\x00\x00\x00\x00\x00\xf0?\x00\x00\x00\x00\x00\x00\xf0?'
p52
tp53
bs(I0
I2
I3
I4
tp54
g4
(g5
(I0
tp55
g7
tp56
Rp57
(I1
(I4
tp58
g14
I00
S'\x00\x00\x00\x00\x00\x009@\x00\x00\x00\x00\x00\x00\x10@\x00\x00\x00\x00\x00\x00&@\x00\x00\x00\x00\x00\x00\x00@'
p59
tp60
bs(I0
I1
I2
I3
I4
tp61
g4
(g5
(I0
tp62
g7
tp63
Rp64
(I1
(I5
tp65
g14
I00
S'\xb8\x1e\x85\xebQ\x80g@\xe1z\x14\xaeG\x01G@\x85\xebQ\xb8\x1e\x05"@p=\n\xd7\xa3\x00S@\x14\xaeG\xe1z\x14\x00@'
p66
tp67
bs(I1
I2
I4
tp68
g4
(g5
(I0
tp69
g7
tp70
Rp71
(I1
(I3
tp72
g14
I00
S'\x00\x00\x00\x00\x00\x80R@\x00\x00\x00\x00\x00\x00$@\x00\x00\x00\x00\x00\x00\x1c@'
p73
tp74
bs(I1
I3
I4
tp75
g4
(g5
(I0
tp76
g7
tp77
Rp78
(I1
(I3
tp79
g14
I00
S'\x00\x00\x00\x00\x00\x00\x08@\x00\x00\x00\x00\x00\x00\x08@\x00\x00\x00\x00\x00\x00\xf0?'
p80
tp81
bs(I2
I3
I4
tp82
g4
(g5
(I0
tp83
g7
tp84
Rp85
(I1
(I3
tp86
g14
I00
S'\x00\x00\x00\x00\x00\x005@\x00\x00\x00\x00\x00\x80N@\x00\x00\x00\x00\x00\x00,@'
p87
tp88
bs(I0
I1
I2
I3
tp89
g4
(g5
(I0
tp90
g7
tp91
Rp92
(I1
(I4
tp93
g14
I00
S'\x00\x00\x00\x00\x00\x00\xf0?\x00\x00\x00\x00\x00\x00\x00\x00\x00\x00\x00\x00\x00\x00\x00\x00\x00\x00\x00\x00\x00\x00\xf0?'
p94
tp95
bs(I0
I2
I4
tp96
g4
(g5
(I0
tp97
g7
tp98
Rp99
(I1
(I3
tp100
g14
I00
S'\x00\x00\x00\x00\x00\x009@\x00\x00\x00\x00\x00\x00\x00@\x00\x00\x00\x00\x00\x00\x00@'
p101
tp102
bs(I0
I1
I4
tp103
g4
(g5
(I0
tp104
g7
tp105
Rp106
(I1
(I3
tp107
g14
I00
S'\x00\x00\x00\x00\x00\x00\xf0?\x00\x00\x00\x00\x00\x00\x08@\x00\x00\x00\x00\x00\x00\xf0?'
p108
tp109
bs(I0
I1
I3
I4
tp110
g4
(g5
(I0
tp111
g7
tp112
Rp113
(I1
(I4
tp114
g14
I00
S'\x00\x00\x00\x00\x00\x00\x08@\x00\x00\x00\x00\x00\x00\x10@\x00\x00\x00\x00\x00\x00\x00@\x00\x00\x00\x00\x00\x00\x00\x00'
p115
tp116
bssS'train-lists'
p117
(lp118
(lp119
I0
aI1
aI3
aa(lp120
I0
aI1
aI3
aa(lp121
I0
aI1
aI3
aa(lp122
I0
aI1
aI3
aa(lp123
I0
aI1
aI3
aa(lp124
I0
aI1
aI3
aa(lp125
I0
aI1
aI3
aa(lp126
I0
aI1
aI3
aa(lp127
I0
aI1
aI3
aa(lp128
I0
aI1
aI3
aa(lp129
I0
aI1
aI3
aa(lp130
I0
aI1
aI3
aa(lp131
I0
aI1
aI3
aa(lp132
I0
aI1
aI3
aa(lp133
I0
aI1
aI3
aa(lp134
I0
aI1
aI3
aa(lp135
I0
aI1
aI3
aa(lp136
I0
aI1
aI3
aa(lp137
I0
aI1
aI3
aa(lp138
I0
aI1
aI3
aa(lp139
I0
aI1
aI3
aa(lp140
I0
aI1
aI3
aa(lp141
I0
aI1
aI3
aa(lp142
I0
aI1
aI3
aa(lp143
I0
aI1
aI3
aa(lp144
I0
aI1
aI3
aa(lp145
I0
aI1
aI3
aa(lp146
I0
aI1
aI3
aa(lp147
I0
aI1
aI3
aa(lp148
I0
aI3
aI1
aa(lp149
I0
aI3
aI1
aa(lp150
I0
aI3
aI1
aa(lp151
I0
aI3
aI1
aa(lp152
I0
aI3
aI1
aa(lp153
I0
aI3
aI1
aa(lp154
I0
aI3
aI1
aa(lp155
I0
aI3
aI1
aa(lp156
I0
aI3
aI1
aa(lp157
I0
aI3
aI1
aa(lp158
I0
aI3
aI1
aa(lp159
I0
aI3
aI1
aa(lp160
I0
aI3
aI1
aa(lp161
I0
aI3
aI1
aa(lp162
I0
aI3
aI1
aa(lp163
I0
aI3
aI1
aa(lp164
I0
aI3
aI1
aa(lp165
I0
aI3
aI1
aa(lp166
I0
aI3
aI1
aa(lp167
I0
aI3
aI1
aa(lp168
I0
aI3
aI1
aa(lp169
I0
aI3
aI1
aa(lp170
I0
aI3
aI1
aa(lp171
I0
aI3
aI1
aa(lp172
I0
aI1
aI3
aa(lp173
I0
aI1
aI3
aa(lp174
I0
aI1
aI3
aa(lp175
I0
aI1
aI3
aa(lp176
I0
aI1
aI3
aa(lp177
I0
aI1
aI3
aa(lp178
I0
aI1
aI3
aa(lp179
I0
aI1
aI3
aa(lp180
I0
aI1
aI3
aa(lp181
I0
aI1
aI3
aa(lp182
I0
aI1
aI3
aa(lp183
I0
aI1
aI3
aa(lp184
I0
aI1
aI3
aa(lp185
I0
aI1
aI3
aa(lp186
I0
aI1
aI3
aa(lp187
I0
aI1
aI3
aa(lp188
I0
aI1
aI3
aa(lp189
I0
aI1
aI3
aa(lp190
I0
aI3
aI1
aa(lp191
I0
aI3
aI1
aa(lp192
I0
aI3
aI1
aa(lp193
I0
aI3
aI1
aa(lp194
I0
aI3
aI1
aa(lp195
I0
aI3
aI1
aa(lp196
I0
aI3
aI1
aa(lp197
I0
aI3
aI1
aa(lp198
I0
aI3
aI1
aa(lp199
I0
aI3
aI1
aa(lp200
I0
aI3
aI1
aa(lp201
I0
aI3
aI1
aa(lp202
I0
aI3
aI1
aa(lp203
I0
aI3
aI1
aa(lp204
I0
aI3
aI1
aa(lp205
I0
aI3
aI1
aa(lp206
I0
aI3
aI1
aa(lp207
I0
aI3
aI1
aa(lp208
I0
aI3
aI1
aa(lp209
I0
aI3
aI1
aa(lp210
I3
aI0
aI1
aa(lp211
I3
aI0
aI1
aa(lp212
I3
aI0
aI1
aa(lp213
I3
aI0
aI1
aa(lp214
I3
aI0
aI1
aa(lp215
I3
aI0
aI1
aa(lp216
I3
aI0
aI1
aa(lp217
I3
aI0
aI1
aa(lp218
I3
aI0
aI1
aa(lp219
I3
aI0
aI1
aa(lp220
I3
aI0
aI1
aa(lp221
I3
aI0
aI1
aa(lp222
I3
aI0
aI1
aa(lp223
I3
aI0
aI1
aa(lp224
I3
aI0
aI1
aa(lp225
I3
aI0
aI1
aa(lp226
I3
aI0
aI1
aa(lp227
I3
aI0
aI1
aa(lp228
I3
aI0
aI1
aa(lp229
I3
aI0
aI1
aa(lp230
I3
aI0
aI1
aa(lp231
I3
aI0
aI1
aa(lp232
I3
aI0
aI1
aa(lp233
I3
aI0
aI1
aa(lp234
I3
aI0
aI1
aa(lp235
I3
aI0
aI1
aa(lp236
I3
aI0
aI1
aa(lp237
I3
aI0
aI1
aa(lp238
I3
aI0
aI1
aa(lp239
I3
aI0
aI1
aa(lp240
I0
aI1
aa(lp241
I0
aI1
aa(lp242
I0
aI1
aa(lp243
I0
aI1
aa(lp244
I0
aI1
aa(lp245
I0
aI1
aa(lp246
I0
aI1
aa(lp247
I0
aI1
aa(lp248
I0
aI1
aa(lp249
I0
aI1
aa(lp250
I0
aI1
aa(lp251
I0
aI1
aa(lp252
I0
aI1
aa(lp253
I0
aI1
aI2
aa(lp254
I0
aI1
aI2
aa(lp255
I0
aI1
aI2
aa(lp256
I0
aI1
aI2
aa(lp257
I0
aI1
aI2
aa(lp258
I0
aI1
aI2
aa(lp259
I0
aI1
aI2
aa(lp260
I0
aI1
aI2
aa(lp261
I0
aI1
aI2
aa(lp262
I0
aI1
aI2
aa(lp263
I0
aI1
aI2
aa(lp264
I0
aI1
aI2
aa(lp265
I0
aI3
aa(lp266
I0
aI3
aa(lp267
I0
aI3
aa(lp268
I0
aI3
aa(lp269
I0
aI3
aa(lp270
I0
aI3
aa(lp271
I0
aI3
aa(lp272
I0
aI3
aa(lp273
I0
aI1
aa(lp274
I0
aI1
aa(lp275
I0
aI1
aa(lp276
I0
aI1
aa(lp277
I0
aI1
aa(lp278
I0
aI1
aa(lp279
I0
aI1
aa(lp280
I0
aI1
aa(lp281
I0
aI1
aa(lp282
I0
aI3
aI2
aa(lp283
I0
aI3
aI2
aa(lp284
I0
aI3
aI2
aa(lp285
I0
aI3
aI2
aa(lp286
I0
aI3
aI2
aa(lp287
I0
aI3
aI2
aa(lp288
I0
aI3
aI2
aa(lp289
I0
aI3
aI2
aa(lp290
I0
aI3
aI2
aa(lp291
I1
aI0
aI3
aa(lp292
I1
aI0
aI3
aa(lp293
I1
aI0
aI3
aa(lp294
I1
aI0
aI3
aa(lp295
I1
aI0
aI3
aa(lp296
I1
aI0
aI3
aa(lp297
I1
aI0
aI3
aa(lp298
I1
aI0
aI3
aa(lp299
I3
aI1
aI0
aa(lp300
I3
aI1
aI0
aa(lp301
I3
aI1
aI0
aa(lp302
I3
aI1
aI0
aa(lp303
I3
aI1
aI0
aa(lp304
I3
aI1
aI0
aa(lp305
I3
aI1
aI0
aa(lp306
I3
aI1
aI0
aa(lp307
I3
aI1
aI0
aa(lp308
I1
aI0
aI3
aa(lp309
I1
aI0
aI3
aa(lp310
I1
aI0
aI3
aa(lp311
I1
aI0
aI3
aa(lp312
I1
aI0
aI3
aa(lp313
I1
aI0
aI3
aa(lp314
I0
aI1
aI4
aa(lp315
I0
aI1
aI4
aa(lp316
I0
aI1
aI4
aa(lp317
I0
aI1
aI4
aa(lp318
I0
aI1
aI4
aa(lp319
I0
aI1
aI4
aa(lp320
I0
aI1
aI4
aa(lp321
I1
aI0
aI2
aa(lp322
I1
aI0
aI2
aa(lp323
I1
aI0
aI2
aa(lp324
I1
aI0
aI2
aa(lp325
I1
aI0
aI2
aa(lp326
I1
aI3
aI0
aa(lp327
I1
aI3
aI0
aa(lp328
I1
aI3
aI0
aa(lp329
I1
aI3
aI0
aa(lp330
I1
aI3
aI0
aa(lp331
I1
aI3
aI0
aa(lp332
I1
aI3
aI0
aa(lp333
I3
aI1
aI0
aa(lp334
I3
aI1
aI0
aa(lp335
I3
aI1
aI0
aa(lp336
I3
aI1
aI0
aa(lp337
I3
aI1
aI0
aa(lp338
I3
aI1
aI0
aa(lp339
I3
aI1
aI0
aa(lp340
I0
aI1
aI4
aa(lp341
I0
aI1
aI4
aa(lp342
I0
aI1
aI4
aa(lp343
a(lp344
a(lp345
a(lp346
a(lp347
I3
aI4
aI0
aa(lp348
I3
aI4
aI0
aa(lp349
I3
aI4
aI0
aa(lp350
I3
aI4
aI0
aa(lp351
I3
aI4
aI0
aa(lp352
I0
aI3
aI4
aa(lp353
I0
aI3
aI4
aa(lp354
I0
aI3
aI4
aa(lp355
I0
aI3
aI4
aa(lp356
I0
aI3
aI4
aa(lp357
I3
aI0
aa(lp358
I3
aI0
aa(lp359
I3
aI0
aa(lp360
I3
aI0
aa(lp361
a(lp362
a(lp363
a(lp364
I0
aI3
aa(lp365
I0
aI3
aa(lp366
I0
aI3
aa(lp367
I0
aI3
aa(lp368
I0
aa(lp369
I0
aa(lp370
I3
aI1
aa(lp371
I3
aI1
aa(lp372
I3
aI1
aa(lp373
I3
aI0
aI4
aa(lp374
I3
aI0
aI4
aa(lp375
I0
aa(lp376
I0
aa(lp377
I0
aa(lp378
I1
aI2
aI3
aa(lp379
a(lp380
a(lp381
a(lp382
I0
aI1
aI2
aa(lp383
I0
aI1
aI2
aa(lp384
I0
aI1
aI2
aa(lp385
I1
aa(lp386
I1
aa(lp387
I1
aa(lp388
I0
aI2
aI1
aa(lp389
I0
aI2
aI1
aa(lp390
a(lp391
a(lp392
I0
aI3
aa(lp393
I0
aI3
aa(lp394
I2
aI0
aI3
aa(lp395
I2
aI0
aI3
aa(lp396
I1
aI0
aI4
aa(lp397
I1
aI0
aI4
aa(lp398
I0
aI2
aa(lp399
I2
aI1
aI3
aa(lp400
I2
aI1
aI3
aa(lp401
I3
aI2
aI1
aa(lp402
I3
aI2
aI1
aa(lp403
I3
aa(lp404
I3
aa(lp405
I3
aa(lp406
I1
aI0
aI4
aa(lp407
I1
aI0
aI4
aa(lp408
a(lp409
I0
aa(lp410
I0
aa(lp411
I1
aI3
aI0
aa(lp412
I1
aI3
aI0
aa(lp413
I2
aI3
aI0
aa(lp414
I0
aI4
aI1
aa(lp415
I3
aI0
aa(lp416
I3
aI0
aa(lp417
I1
aI2
aI0
aa(lp418
I1
aI2
aI0
aa(lp419
I0
aa(lp420
I0
aa(lp421
I0
aI4
aI2
aa(lp422
I0
aI4
aI2
aa(lp423
I3
aI1
aa(lp424
I1
aI2
aa(lp425
I3
aI4
aI1
aa(lp426
I1
aI4
aa(lp427
I0
aI4
aa(lp428
I0
aI2
aI3
aa(lp429
I3
aI1
aI4
aa(lp430
I2
aI1
aI0
aa(lp431
I1
aI3
aI2
aa(lp432
I1
aa(lp433
I0
aI4
aI3
aa(lp434
a(lp435
I3
aI0
aa(lp436
I1
aI0
aI2
aa(lp437
I3
aI0
aI2
aa(lp438
I4
aI0
aI1
aa(lp439
I3
aI2
aI4
aa(lp440
a(lp441
I0
aI4
aI3
aa(lp442
I2
aI0
aI1
aa(lp443
I0
aa(lp444
I2
aI1
aI3
aa(lp445
I2
aI3
aI1
aa(lp446
I3
aa(lp447
I1
aI3
aI4
aa(lp448
I1
aI0
aa(lp449
I0
aI1
aa(lp450
I4
aI3
aI2
aa(lp451
I3
aI1
aI2
aa(lp452
a(lp453
I0
aI2
aI4
aa(lp454
I3
aI2
aa(lp455
I1
aI4
aI0
aasS'test-lists'
p456
(lp457
(lp458
a(lp459
I0
aI2
aa(lp460
I0
aI3
aI1
aa(lp461
I0
aI1
aa(lp462
I3
aI4
aI2
aa(lp463
I0
aI1
aI2
aa(lp464
I0
aa(lp465
I1
aI0
aI3
aa(lp466
I1
aI0
aI2
aa(lp467
I0
aI1
aI3
aa(lp468
I0
aI3
aI1
aa(lp469
I3
aI0
aI1
aa(lp470
I0
aI1
aI3
aa(lp471
I0
aI3
aI1
aa(lp472
I0
aI3
aa(lp473
a(lp474
I0
aI1
aI4
aa(lp475
I0
aI3
aa(lp476
I3
aI1
aa(lp477
I0
aI1
aI3
aa(lp478
I3
aI0
aI1
aa(lp479
I1
aI0
aI3
aa(lp480
I0
aI1
aI3
aa(lp481
I2
aI0
aI3
aa(lp482
I0
aI1
aI2
aa(lp483
I0
aI1
aI3
aa(lp484
I1
aI3
aa(lp485
I0
aI3
aI1
aa(lp486
I1
aI0
aa(lp487
I1
aI0
aI3
aa(lp488
I0
aI1
aa(lp489
I3
aI0
aI1
aa(lp490
I0
aa(lp491
I0
aI1
aI2
aa(lp492
I0
aI1
aI4
aa(lp493
I0
aI1
aI3
aa(lp494
I0
aI3
aI1
aa(lp495
I0
aa(lp496
I1
aI0
aI4
aa(lp497
a(lp498
I0
aI3
aa(lp499
a(lp500
I0
aI1
aI3
aa(lp501
I0
aI4
aI1
aa(lp502
I3
aI1
aI4
aa(lp503
I3
aI1
aa(lp504
I0
aI4
aI1
aa(lp505
I1
aI0
aa(lp506
I3
aI0
aa(lp507
I0
aI1
aI3
aa(lp508
I0
aI3
aa(lp509
I1
aI2
aI3
aa(lp510
I0
aI1
aI3
aa(lp511
I0
aI3
aI1
aa(lp512
I0
aI1
aI4
aa(lp513
I3
aa(lp514
I0
aI1
aI3
aa(lp515
I0
aI1
aI4
aa(lp516
I0
aI1
aa(lp517
I0
aI2
aI1
aa(lp518
I3
aI0
aI4
aa(lp519
I2
aI3
aI0
aa(lp520
I0
aI1
aI3
aa(lp521
I0
aI1
aI3
aa(lp522
I0
aa(lp523
I0
aI1
aI3
aa(lp524
I0
aI1
aa(lp525
I0
aI1
aI2
aa(lp526
I0
aI1
aI3
aa(lp527
I1
aI2
aI3
aa(lp528
I1
aI0
aI2
aa(lp529
I0
aI3
aI2
aa(lp530
I1
aI0
aI3
aa(lp531
I0
aI3
aI1
aa(lp532
I3
aI0
aI4
aa(lp533
I3
aI0
aI1
aa(lp534
I0
aI3
aI1
aa(lp535
I3
aI0
aI1
aa(lp536
I0
aI1
aI3
aa(lp537
I0
aI1
aI3
aa(lp538
a(lp539
I0
aI3
aI1
aa(lp540
I0
aI3
aa(lp541
I0
aI1
aI3
aasS'N'
p542
I5
s.