(dp0
S'train-choices'
p1
(dp2
(I0
I1
I2
tp3
cnumpy.core.multiarray
_reconstruct
p4
(cnumpy
ndarray
p5
(I0
tp6
S'b'
p7
tp8
Rp9
(I1
(I3
tp10
cnumpy
dtype
p11
(S'f8'
p12
I0
I1
tp13
Rp14
(I3
S'<'
p15
NNNI-1
I-1
I0
tp16
bI00
S'\xe1z\x14\xaeG\x01I@\x14\xaeG\xe1z\x14\x08@\n\xd7\xa3p=\n\x1c@'
p17
tp18
bssS'train-lists'
p19
(lp20
(lp21
I0
aa(lp22
I0
aa(lp23
I0
aa(lp24
I0
aa(lp25
I0
aa(lp26
I0
aa(lp27
I0
aa(lp28
I0
aa(lp29
I0
aa(lp30
I0
aa(lp31
I0
aa(lp32
I0
aa(lp33
I0
aa(lp34
I0
aa(lp35
I0
aa(lp36
I0
aa(lp37
I0
aa(lp38
I0
aa(lp39
I0
aa(lp40
I0
aa(lp41
I0
aa(lp42
I0
aa(lp43
I0
aa(lp44
I0
aa(lp45
I0
aa(lp46
I0
aa(lp47
I0
aa(lp48
I0
aa(lp49
I0
aa(lp50
I0
aa(lp51
I0
aa(lp52
I0
aa(lp53
I0
aa(lp54
I0
aa(lp55
I0
aa(lp56
I0
aa(lp57
I0
aa(lp58
I0
aa(lp59
I0
aa(lp60
I0
aa(lp61
I0
aa(lp62
I0
aa(lp63
I0
aa(lp64
I0
aa(lp65
I0
aa(lp66
I0
aa(lp67
I0
aa(lp68
I0
aa(lp69
I0
aa(lp70
I0
aa(lp71
I2
aa(lp72
I2
aa(lp73
I2
aa(lp74
I2
aa(lp75
I2
aa(lp76
I2
aa(lp77
I2
aa(lp78
I1
aa(lp79
I1
aa(lp80
I1
aasS'test-lists'
p81
(lp82
(lp83
I0
aa(lp84
I0
aa(lp85
I0
aa(lp86
I0
aa(lp87
I0
aa(lp88
I0
aa(lp89
I0
aa(lp90
I0
aa(lp91
I0
aa(lp92
I2
aa(lp93
I0
aa(lp94
I0
aa(lp95
I0
aa(lp96
I0
aa(lp97
I2
aasS'N'
p98
I3
s.