(dp0
S'train-choices'
p1
(dp2
(I0
I1
I2
tp3
cnumpy.core.multiarray
_reconstruct
p4
(cnumpy
ndarray
p5
(I0
tp6
S'b'
p7
tp8
Rp9
(I1
(I3
tp10
cnumpy
dtype
p11
(S'f8'
p12
I0
I1
tp13
Rp14
(I3
S'<'
p15
NNNI-1
I-1
I0
tp16
bI00
S'\x00\x00\x00\x00\x00\x00 @\x00\x00\x00\x00\x00\x00A@\x00\x00\x00\x00\x00\x00\x08@'
p17
tp18
bs(I0
I2
I3
tp19
g4
(g5
(I0
tp20
g7
tp21
Rp22
(I1
(I3
tp23
g14
I00
S'\x00\x00\x00\x00\x00\x00\x14@\x00\x00\x00\x00\x00\x00\x00@\x00\x00\x00\x00\x00\x005@'
p24
tp25
bs(I1
I2
I3
tp26
g4
(g5
(I0
tp27
g7
tp28
Rp29
(I1
(I3
tp30
g14
I00
S'\x00\x00\x00\x00\x00\x00"@\x00\x00\x00\x00\x00\x00\xf0?\x00\x00\x00\x00\x00\x00"@'
p31
tp32
bs(I0
I1
I3
tp33
g4
(g5
(I0
tp34
g7
tp35
Rp36
(I1
(I3
tp37
g14
I00
S'\x00\x00\x00\x00\x00\x00\x00\x00\x00\x00\x00\x00\x00\x00\x00\x00\x00\x00\x00\x00\x00\x00\xf0?'
p38
tp39
bs(I0
I1
I2
I3
tp40
g4
(g5
(I0
tp41
g7
tp42
Rp43
(I1
(I4
tp44
g14
I00
S'\xc2\xf5(\\\x8f\x023@\xc2\xf5(\\\x8f\x02<@)\\\x8f\xc2\xf5(\xf0?\xe1z\x14\xaeG\x81F@'
p45
tp46
bssS'train-lists'
p47
(lp48
(lp49
I3
aI1
aa(lp50
I3
aI1
aa(lp51
I3
aI1
aa(lp52
I3
aI1
aa(lp53
I3
aI1
aa(lp54
I3
aI1
aa(lp55
I3
aI1
aa(lp56
I3
aI1
aa(lp57
I3
aI1
aa(lp58
I3
aI1
aa(lp59
I3
aI1
aa(lp60
I3
aI1
aa(lp61
I3
aI1
aa(lp62
I3
aI1
aa(lp63
I3
aI1
aa(lp64
I3
aI1
aa(lp65
I3
aI1
aa(lp66
I3
aI1
aa(lp67
I3
aI1
aa(lp68
I3
aI1
aa(lp69
I3
aI1
aa(lp70
I3
aI1
aa(lp71
I3
aI1
aa(lp72
I3
aI1
aa(lp73
I3
aI1
aa(lp74
I3
aI1
aa(lp75
I3
aI1
aa(lp76
I3
aI1
aa(lp77
I3
aI1
aa(lp78
I3
aI1
aa(lp79
I3
aI1
aa(lp80
I3
aI1
aa(lp81
I3
aI1
aa(lp82
I3
aI1
aa(lp83
I1
aI3
aa(lp84
I1
aI3
aa(lp85
I1
aI3
aa(lp86
I1
aI3
aa(lp87
I1
aI3
aa(lp88
I1
aI3
aa(lp89
I1
aI3
aa(lp90
I1
aI3
aa(lp91
I1
aI3
aa(lp92
I1
aI3
aa(lp93
I1
aI3
aa(lp94
I1
aI3
aa(lp95
I1
aI3
aa(lp96
I1
aI3
aa(lp97
I1
aI3
aa(lp98
I1
aI3
aa(lp99
I1
aI3
aa(lp100
I1
aI3
aa(lp101
I1
aI3
aa(lp102
I1
aI3
aa(lp103
I1
aI3
aa(lp104
I0
aI1
aa(lp105
I0
aI1
aa(lp106
I0
aI1
aa(lp107
I0
aI1
aa(lp108
I0
aI1
aa(lp109
I0
aI1
aa(lp110
I0
aI1
aa(lp111
I0
aI1
aa(lp112
I0
aI3
aa(lp113
I0
aI3
aa(lp114
I0
aI3
aa(lp115
I0
aI3
aa(lp116
I0
aI3
aa(lp117
I0
aI3
aa(lp118
I0
aI3
aa(lp119
I0
aI3
aa(lp120
I1
aI0
aa(lp121
I1
aI0
aa(lp122
I1
aI0
aa(lp123
I1
aI0
aa(lp124
I1
aI0
aa(lp125
I3
aI0
aa(lp126
I3
aI0
aa(lp127
I3
aI0
aa(lp128
I3
aI0
aa(lp129
I3
aI0
aa(lp130
I3
aI0
aa(lp131
I3
aI2
aa(lp132
I3
aI2
aa(lp133
I3
aI2
aa(lp134
I1
aI2
aa(lp135
I1
aI2
aa(lp136
I0
aI3
aa(lp137
I3
aI0
aa(lp138
I3
aI0
aa(lp139
I0
aI2
aa(lp140
I0
aI1
aa(lp141
I2
aI3
aa(lp142
asS'test-lists'
p143
(lp144
(lp145
I3
aI1
aa(lp146
I1
aI0
aa(lp147
I0
aI1
aa(lp148
I3
aI2
aa(lp149
I3
aI1
aa(lp150
I1
aI2
aa(lp151
I3
aI1
aa(lp152
I0
aI3
aa(lp153
I3
aI1
aa(lp154
I0
aI3
aa(lp155
I0
aI2
aa(lp156
I3
aI1
aa(lp157
I0
aI1
aa(lp158
I1
aI0
aa(lp159
I1
aI0
aa(lp160
I0
aI3
aa(lp161
I0
aI1
aa(lp162
I3
aI2
aa(lp163
I0
aI3
aa(lp164
I1
aI3
aa(lp165
I0
aI1
aa(lp166
I1
aI3
aa(lp167
I3
aI0
aasS'N'
p168
I4
s.