(dp0
S'train-choices'
p1
(dp2
(I0
I1
I2
tp3
cnumpy.core.multiarray
_reconstruct
p4
(cnumpy
ndarray
p5
(I0
tp6
S'b'
p7
tp8
Rp9
(I1
(I3
tp10
cnumpy
dtype
p11
(S'f8'
p12
I0
I1
tp13
Rp14
(I3
S'<'
p15
NNNI-1
I-1
I0
tp16
bI00
S'\xc2\xf5(\\\x8f\x021@\n\xd7\xa3p=\n\x1c@\x85\xebQ\xb8\x1e\x05(@'
p17
tp18
bssS'train-lists'
p19
(lp20
(lp21
I0
aa(lp22
I0
aa(lp23
I0
aa(lp24
I0
aa(lp25
I0
aa(lp26
I0
aa(lp27
I0
aa(lp28
I0
aa(lp29
I0
aa(lp30
I0
aa(lp31
I0
aa(lp32
I0
aa(lp33
I0
aa(lp34
I0
aa(lp35
I0
aa(lp36
I2
aa(lp37
I2
aa(lp38
I2
aa(lp39
I2
aa(lp40
I2
aa(lp41
I2
aa(lp42
I2
aa(lp43
I2
aa(lp44
I1
aa(lp45
I1
aa(lp46
I1
aa(lp47
I1
aa(lp48
I1
aa(lp49
I1
aa(lp50
I2
aa(lp51
I2
aa(lp52
I2
aa(lp53
I2
aa(lp54
I0
aa(lp55
I0
aa(lp56
I1
aasS'test-lists'
p57
(lp58
(lp59
I0
aa(lp60
I0
aa(lp61
I1
aa(lp62
I0
aa(lp63
I1
aa(lp64
I1
aa(lp65
I0
aa(lp66
I2
aasS'N'
p67
I3
s.