(dp0
S'train-choices'
p1
(dp2
(I0
I1
tp3
cnumpy.core.multiarray
_reconstruct
p4
(cnumpy
ndarray
p5
(I0
tp6
S'b'
p7
tp8
Rp9
(I1
(I2
tp10
cnumpy
dtype
p11
(S'f8'
p12
I0
I1
tp13
Rp14
(I3
S'<'
p15
NNNI-1
I-1
I0
tp16
bI00
S'\x14\xaeG\xe1z\x14\x00@\n\xd7\xa3p=\n\x10@'
p17
tp18
bssS'train-lists'
p19
(lp20
(lp21
a(lp22
I1
aa(lp23
I1
aa(lp24
I1
aa(lp25
I0
aa(lp26
a(lp27
a(lp28
a(lp29
a(lp30
a(lp31
I0
aa(lp32
a(lp33
I1
aa(lp34
asS'test-lists'
p35
(lp36
(lp37
I0
aa(lp38
a(lp39
asS'N'
p40
I2
s.