(dp0
S'train-choices'
p1
(dp2
(I0
I1
tp3
cnumpy.core.multiarray
_reconstruct
p4
(cnumpy
ndarray
p5
(I0
tp6
S'b'
p7
tp8
Rp9
(I1
(I2
tp10
cnumpy
dtype
p11
(S'f8'
p12
I0
I1
tp13
Rp14
(I3
S'<'
p15
NNNI-1
I-1
I0
tp16
bI00
S'\x14\xaeG\xe1z\x14\x08@)\\\x8f\xc2\xf5(\xf0?'
p17
tp18
bssS'train-lists'
p19
(lp20
(lp21
I0
aa(lp22
I0
aa(lp23
I0
aa(lp24
I1
aa(lp25
asS'test-lists'
p26
(lp27
(lp28
I1
aasS'N'
p29
I2
s.