(dp0
S'train-choices'
p1
(dp2
(I0
I2
I3
tp3
cnumpy.core.multiarray
_reconstruct
p4
(cnumpy
ndarray
p5
(I0
tp6
S'b'
p7
tp8
Rp9
(I1
(I3
tp10
cnumpy
dtype
p11
(S'f8'
p12
I0
I1
tp13
Rp14
(I3
S'<'
p15
NNNI-1
I-1
I0
tp16
bI00
S'\x00\x00\x00\x00\x00\x00\xf0?\x00\x00\x00\x00\x00\x00\x00@\x00\x00\x00\x00\x00\x00\x00\x00'
p17
tp18
bs(I0
I1
I2
I3
tp19
g4
(g5
(I0
tp20
g7
tp21
Rp22
(I1
(I4
tp23
g14
I00
S')\\\x8f\xc2\xf5(\xf0?\n\xd7\xa3p=\n\x18@{\x14\xaeG\xe1z\x84?\x14\xaeG\xe1z\x14\x00@'
p24
tp25
bssS'train-lists'
p26
(lp27
(lp28
I1
aa(lp29
I3
aa(lp30
I1
aa(lp31
a(lp32
I1
aI2
aa(lp33
a(lp34
I3
aa(lp35
I1
aI2
aa(lp36
a(lp37
a(lp38
I0
aa(lp39
I1
aa(lp40
I1
aI0
aasS'test-lists'
p41
(lp42
(lp43
a(lp44
a(lp45
asS'N'
p46
I4
s.