(dp0
S'train-choices'
p1
(dp2
(I0
I2
I3
tp3
cnumpy.core.multiarray
_reconstruct
p4
(cnumpy
ndarray
p5
(I0
tp6
S'b'
p7
tp8
Rp9
(I1
(I3
tp10
cnumpy
dtype
p11
(S'f8'
p12
I0
I1
tp13
Rp14
(I3
S'<'
p15
NNNI-1
I-1
I0
tp16
bI00
S'\x00\x00\x00\x00\x00\x00\x00@\x00\x00\x00\x00\x00\x00\xf0?\x00\x00\x00\x00\x00\x00\x00@'
p17
tp18
bs(I0
I1
I2
I3
tp19
g4
(g5
(I0
tp20
g7
tp21
Rp22
(I1
(I4
tp23
g14
I00
S'{\x14\xaeG\xe1z\x84?\n\xd7\xa3p=\n\x1c@\x14\xaeG\xe1z\x14\x00@{\x14\xaeG\xe1z\x84?'
p24
tp25
bssS'train-lists'
p26
(lp27
(lp28
a(lp29
a(lp30
I1
aI3
aa(lp31
I2
aa(lp32
I2
aa(lp33
I1
aa(lp34
a(lp35
a(lp36
I1
aa(lp37
I1
aI0
aa(lp38
I1
aI2
aa(lp39
a(lp40
I1
aI0
aa(lp41
a(lp42
I1
aI3
aasS'test-lists'
p43
(lp44
(lp45
a(lp46
a(lp47
I0
aasS'N'
p48
I4
s.