(dp0
S'train-choices'
p1
(dp2
(I0
I1
tp3
cnumpy.core.multiarray
_reconstruct
p4
(cnumpy
ndarray
p5
(I0
tp6
S'b'
p7
tp8
Rp9
(I1
(I2
tp10
cnumpy
dtype
p11
(S'f8'
p12
I0
I1
tp13
Rp14
(I3
S'<'
p15
NNNI-1
I-1
I0
tp16
bI00
S'\n\xd7\xa3p=\n\x14@)\\\x8f\xc2\xf5(\xf0?'
p17
tp18
bssS'train-lists'
p19
(lp20
(lp21
a(lp22
a(lp23
a(lp24
a(lp25
a(lp26
I0
aa(lp27
I0
aa(lp28
I0
aa(lp29
I0
aa(lp30
I1
aa(lp31
a(lp32
a(lp33
a(lp34
a(lp35
I0
aasS'test-lists'
p36
(lp37
(lp38
I0
aa(lp39
I0
aa(lp40
I0
aasS'N'
p41
I2
s.