(dp0
S'train-choices'
p1
(dp2
(I0
I1
I2
tp3
cnumpy.core.multiarray
_reconstruct
p4
(cnumpy
ndarray
p5
(I0
tp6
S'b'
p7
tp8
Rp9
(I1
(I3
tp10
cnumpy
dtype
p11
(S'f8'
p12
I0
I1
tp13
Rp14
(I3
S'<'
p15
NNNI-1
I-1
I0
tp16
bI00
S')\\\x8f\xc2\xf5(\xf0?{\x14\xaeG\xe1z\x84?)\\\x8f\xc2\xf5(\xf0?'
p17
tp18
bs(I1
I2
tp19
g4
(g5
(I0
tp20
g7
tp21
Rp22
(I1
(I2
tp23
g14
I00
S'\x00\x00\x00\x00\x00\x00\xf0?\x00\x00\x00\x00\x00\x00\x00\x00'
p24
tp25
bs(I0
I1
tp26
g4
(g5
(I0
tp27
g7
tp28
Rp29
(I1
(I2
tp30
g14
I00
S'\x00\x00\x00\x00\x00\x00\x00\x00\x00\x00\x00\x00\x00\x00\xf0?'
p31
tp32
bssS'train-lists'
p33
(lp34
(lp35
a(lp36
a(lp37
a(lp38
a(lp39
a(lp40
a(lp41
a(lp42
a(lp43
a(lp44
I0
aI1
aa(lp45
I2
aI1
aa(lp46
asS'test-lists'
p47
(lp48
(lp49
I2
aa(lp50
a(lp51
I2
aI1
aasS'N'
p52
I3
s.