(dp0
S'train-choices'
p1
(dp2
(I0
tp3
cnumpy.core.multiarray
_reconstruct
p4
(cnumpy
ndarray
p5
(I0
tp6
S'b'
p7
tp8
Rp9
(I1
(I1
tp10
cnumpy
dtype
p11
(S'f8'
p12
I0
I1
tp13
Rp14
(I3
S'<'
p15
NNNI-1
I-1
I0
tp16
bI00
S'{\x14\xaeG\xe1z\x84?'
p17
tp18
bssS'train-lists'
p19
(lp20
(lp21
a(lp22
a(lp23
a(lp24
asS'test-lists'
p25
(lp26
sS'N'
p27
I1
s.