(dp0
S'train-choices'
p1
(dp2
(I0
I1
I2
tp3
cnumpy.core.multiarray
_reconstruct
p4
(cnumpy
ndarray
p5
(I0
tp6
S'b'
p7
tp8
Rp9
(I1
(I3
tp10
cnumpy
dtype
p11
(S'f8'
p12
I0
I1
tp13
Rp14
(I3
S'<'
p15
NNNI-1
I-1
I0
tp16
bI00
S'\n\xd7\xa3p=\n\x10@\n\xd7\xa3p=\n\x18@{\x14\xaeG\xe1z\x84?'
p17
tp18
bs(I0
I2
tp19
g4
(g5
(I0
tp20
g7
tp21
Rp22
(I1
(I2
tp23
g14
I00
S'\x00\x00\x00\x00\x00\x00\x00\x00\x00\x00\x00\x00\x00\x00\x10@'
p24
tp25
bssS'train-lists'
p26
(lp27
(lp28
a(lp29
I1
aa(lp30
I1
aI2
aa(lp31
a(lp32
a(lp33
I0
aa(lp34
I1
aI2
aa(lp35
I0
aa(lp36
a(lp37
I1
aI2
aa(lp38
I0
aa(lp39
a(lp40
I1
aI2
aa(lp41
I0
aa(lp42
I1
aasS'test-lists'
p43
(lp44
(lp45
I0
aa(lp46
I0
aa(lp47
I0
aasS'N'
p48
I3
s.