(dp0
S'train-choices'
p1
(dp2
(I0
I1
I3
tp3
cnumpy.core.multiarray
_reconstruct
p4
(cnumpy
ndarray
p5
(I0
tp6
S'b'
p7
tp8
Rp9
(I1
(I3
tp10
cnumpy
dtype
p11
(S'f8'
p12
I0
I1
tp13
Rp14
(I3
S'<'
p15
NNNI-1
I-1
I0
tp16
bI00
S'\x00\x00\x00\x00\x00\x00\xf0?\x00\x00\x00\x00\x00\x00\xf0?\x00\x00\x00\x00\x00\x00\xf0?'
p17
tp18
bs(I0
I1
I2
I3
tp19
g4
(g5
(I0
tp20
g7
tp21
Rp22
(I1
(I4
tp23
g14
I00
S'{\x14\xaeG\xe1z\x84?)\\\x8f\xc2\xf5(\xf0?\n\xd7\xa3p=\n\x10@\n\xd7\xa3p=\n\x10@'
p24
tp25
bssS'train-lists'
p26
(lp27
(lp28
I2
aa(lp29
I2
aI0
aa(lp30
a(lp31
I3
aa(lp32
I3
aa(lp33
I3
aa(lp34
I2
aI3
aa(lp35
a(lp36
I1
aa(lp37
a(lp38
a(lp39
I2
aI1
aa(lp40
a(lp41
I3
aa(lp42
asS'test-lists'
p43
(lp44
(lp45
a(lp46
I2
aa(lp47
I3
aasS'N'
p48
I4
s.