(dp0
S'train-choices'
p1
(dp2
(I0
I1
I2
tp3
cnumpy.core.multiarray
_reconstruct
p4
(cnumpy
ndarray
p5
(I0
tp6
S'b'
p7
tp8
Rp9
(I1
(I3
tp10
cnumpy
dtype
p11
(S'f8'
p12
I0
I1
tp13
Rp14
(I3
S'<'
p15
NNNI-1
I-1
I0
tp16
bI00
S'\n\xd7\xa3p=\n\x14@\x14\xaeG\xe1z\x14\x00@{\x14\xaeG\xe1z\x84?'
p17
tp18
bs(I1
I2
tp19
g4
(g5
(I0
tp20
g7
tp21
Rp22
(I1
(I2
tp23
g14
I00
S'\x00\x00\x00\x00\x00\x00\xf0?\x00\x00\x00\x00\x00\x00\xf0?'
p24
tp25
bssS'train-lists'
p26
(lp27
(lp28
I1
aa(lp29
I0
aI1
aa(lp30
I0
aI2
aa(lp31
a(lp32
a(lp33
I0
aa(lp34
a(lp35
a(lp36
I0
aa(lp37
a(lp38
I1
aa(lp39
a(lp40
a(lp41
a(lp42
I0
aa(lp43
asS'test-lists'
p44
(lp45
(lp46
a(lp47
I0
aa(lp48
a(lp49
asS'N'
p50
I3
s.