(dp0
S'train-choices'
p1
(dp2
(I0
I1
I2
tp3
cnumpy.core.multiarray
_reconstruct
p4
(cnumpy
ndarray
p5
(I0
tp6
S'b'
p7
tp8
Rp9
(I1
(I3
tp10
cnumpy
dtype
p11
(S'f8'
p12
I0
I1
tp13
Rp14
(I3
S'<'
p15
NNNI-1
I-1
I0
tp16
bI00
S'\x14\xaeG\xe1z\x14\x08@\x14\xaeG\xe1z\x14\x00@\n\xd7\xa3p=\n\x10@'
p17
tp18
bssS'train-lists'
p19
(lp20
(lp21
I1
aa(lp22
a(lp23
I0
aa(lp24
I0
aa(lp25
I2
aa(lp26
I2
aa(lp27
I2
aa(lp28
I2
aa(lp29
I1
aa(lp30
I0
aa(lp31
a(lp32
asS'test-lists'
p33
(lp34
(lp35
I2
aa(lp36
I2
aa(lp37
I2
aasS'N'
p38
I3
s.