(dp0
S'train-choices'
p1
(dp2
(I0
I1
tp3
cnumpy.core.multiarray
_reconstruct
p4
(cnumpy
ndarray
p5
(I0
tp6
S'b'
p7
tp8
Rp9
(I1
(I2
tp10
cnumpy
dtype
p11
(S'f8'
p12
I0
I1
tp13
Rp14
(I3
S'<'
p15
NNNI-1
I-1
I0
tp16
bI00
S'\x00\x00\x00\x00\x00@W@\x00\x00\x00\x00\x00\x00O@'
p17
tp18
bs(I1
I2
tp19
g4
(g5
(I0
tp20
g7
tp21
Rp22
(I1
(I2
tp23
g14
I00
S'\x00\x00\x00\x00\x00\x002@\x00\x00\x00\x00\x00\x00M@'
p24
tp25
bs(I0
tp26
g4
(g5
(I0
tp27
g7
tp28
Rp29
(I1
(I1
tp30
g14
I00
S'\x00\x00\x00\x00\x00\x00l@'
p31
tp32
bs(I1
tp33
g4
(g5
(I0
tp34
g7
tp35
Rp36
(I1
(I1
tp37
g14
I00
S'\x00\x00\x00\x00\x00\xe0b@'
p38
tp39
bs(I0
I1
I2
tp40
g4
(g5
(I0
tp41
g7
tp42
Rp43
(I1
(I3
tp44
g14
I00
S'p=\n\xd7\xa3\x00S@\\\x8f\xc2\xf5(pt@\xb8\x1e\x85\xebQ`c@'
p45
tp46
bs(I2
tp47
g4
(g5
(I0
tp48
g7
tp49
Rp50
(I1
(I1
tp51
g14
I00
S'\x00\x00\x00\x00\x00\xe0f@'
p52
tp53
bs(I0
I2
tp54
g4
(g5
(I0
tp55
g7
tp56
Rp57
(I1
(I2
tp58
g14
I00
S'\x00\x00\x00\x00\x00\xa0d@\x00\x00\x00\x00\x00@d@'
p59
tp60
bssS'train-lists'
p61
(lp62
(lp63
I1
aI2
aI0
aa(lp64
I1
aI2
aI0
aa(lp65
I1
aI2
aI0
aa(lp66
I1
aI2
aI0
aa(lp67
I1
aI2
aI0
aa(lp68
I1
aI2
aI0
aa(lp69
I1
aI2
aI0
aa(lp70
I1
aI2
aI0
aa(lp71
I1
aI2
aI0
aa(lp72
I1
aI2
aI0
aa(lp73
I1
aI2
aI0
aa(lp74
I1
aI2
aI0
aa(lp75
I1
aI2
aI0
aa(lp76
I1
aI2
aI0
aa(lp77
I1
aI2
aI0
aa(lp78
I1
aI2
aI0
aa(lp79
I1
aI2
aI0
aa(lp80
I1
aI2
aI0
aa(lp81
I1
aI2
aI0
aa(lp82
I1
aI2
aI0
aa(lp83
I1
aI2
aI0
aa(lp84
I1
aI2
aI0
aa(lp85
I1
aI2
aI0
aa(lp86
I1
aI2
aI0
aa(lp87
I1
aI2
aI0
aa(lp88
I1
aI2
aI0
aa(lp89
I1
aI2
aI0
aa(lp90
I1
aI2
aI0
aa(lp91
I1
aI2
aI0
aa(lp92
I1
aI2
aI0
aa(lp93
I1
aI2
aI0
aa(lp94
I1
aI2
aI0
aa(lp95
I1
aI2
aI0
aa(lp96
I1
aI2
aI0
aa(lp97
I1
aI2
aI0
aa(lp98
I1
aI2
aI0
aa(lp99
I1
aI2
aI0
aa(lp100
I1
aI2
aI0
aa(lp101
I1
aI2
aI0
aa(lp102
I1
aI2
aI0
aa(lp103
I1
aI2
aI0
aa(lp104
I1
aI2
aI0
aa(lp105
I1
aI2
aI0
aa(lp106
I1
aI2
aI0
aa(lp107
I1
aI2
aI0
aa(lp108
I1
aI2
aI0
aa(lp109
I1
aI2
aI0
aa(lp110
I1
aI2
aI0
aa(lp111
I1
aI2
aI0
aa(lp112
I1
aI2
aI0
aa(lp113
I1
aI2
aI0
aa(lp114
I1
aI2
aI0
aa(lp115
I1
aI2
aI0
aa(lp116
I1
aI2
aI0
aa(lp117
I1
aI2
aI0
aa(lp118
I1
aI2
aI0
aa(lp119
I1
aI2
aI0
aa(lp120
I1
aI2
aI0
aa(lp121
I1
aI2
aI0
aa(lp122
I1
aI2
aI0
aa(lp123
I1
aI2
aI0
aa(lp124
I1
aI2
aI0
aa(lp125
I1
aI2
aI0
aa(lp126
I1
aI2
aI0
aa(lp127
I1
aI2
aI0
aa(lp128
I1
aI2
aI0
aa(lp129
I1
aI2
aI0
aa(lp130
I1
aI2
aI0
aa(lp131
I1
aI2
aI0
aa(lp132
I1
aI2
aI0
aa(lp133
I1
aI2
aI0
aa(lp134
I1
aI2
aI0
aa(lp135
I1
aI2
aI0
aa(lp136
I1
aI2
aI0
aa(lp137
I1
aI2
aI0
aa(lp138
I1
aI2
aI0
aa(lp139
I1
aI2
aI0
aa(lp140
I1
aI2
aI0
aa(lp141
I1
aI2
aI0
aa(lp142
I1
aI2
aI0
aa(lp143
I1
aI2
aI0
aa(lp144
I1
aI2
aI0
aa(lp145
I1
aI2
aI0
aa(lp146
I1
aI2
aI0
aa(lp147
I1
aI2
aI0
aa(lp148
I1
aI2
aI0
aa(lp149
I1
aI2
aI0
aa(lp150
I1
aI2
aI0
aa(lp151
I1
aI2
aI0
aa(lp152
I1
aI2
aI0
aa(lp153
I1
aI2
aI0
aa(lp154
I1
aI2
aI0
aa(lp155
I1
aI2
aI0
aa(lp156
I1
aI2
aI0
aa(lp157
I1
aI2
aI0
aa(lp158
I1
aI2
aI0
aa(lp159
I1
aI2
aI0
aa(lp160
I1
aI2
aI0
aa(lp161
I1
aI2
aI0
aa(lp162
I1
aI2
aI0
aa(lp163
I1
aI2
aI0
aa(lp164
I1
aI2
aI0
aa(lp165
I1
aI2
aI0
aa(lp166
I1
aI2
aI0
aa(lp167
I1
aI2
aI0
aa(lp168
I1
aI2
aI0
aa(lp169
I1
aI2
aI0
aa(lp170
I1
aI2
aI0
aa(lp171
I1
aI2
aI0
aa(lp172
I1
aI2
aI0
aa(lp173
I1
aI2
aI0
aa(lp174
I1
aI2
aI0
aa(lp175
I1
aI2
aI0
aa(lp176
I1
aI2
aI0
aa(lp177
I1
aI2
aI0
aa(lp178
I1
aI2
aI0
aa(lp179
I1
aI2
aI0
aa(lp180
I1
aI2
aI0
aa(lp181
I1
aI2
aI0
aa(lp182
I1
aI2
aI0
aa(lp183
I1
aI2
aI0
aa(lp184
I1
aI2
aI0
aa(lp185
I1
aI2
aI0
aa(lp186
I1
aI2
aI0
aa(lp187
I1
aI2
aI0
aa(lp188
I1
aI2
aI0
aa(lp189
I1
aI2
aI0
aa(lp190
I1
aI2
aI0
aa(lp191
I1
aI2
aI0
aa(lp192
I1
aI2
aI0
aa(lp193
I1
aI2
aI0
aa(lp194
I1
aI2
aI0
aa(lp195
I1
aI2
aI0
aa(lp196
I1
aI2
aI0
aa(lp197
I1
aI2
aI0
aa(lp198
I1
aI2
aI0
aa(lp199
I1
aI2
aI0
aa(lp200
I1
aI2
aI0
aa(lp201
I1
aI2
aI0
aa(lp202
I1
aI2
aI0
aa(lp203
I1
aI2
aI0
aa(lp204
I1
aI2
aI0
aa(lp205
I1
aI2
aI0
aa(lp206
I1
aI2
aI0
aa(lp207
I1
aI2
aI0
aa(lp208
I1
aI2
aI0
aa(lp209
I1
aI2
aI0
aa(lp210
I1
aI2
aI0
aa(lp211
I1
aI2
aI0
aa(lp212
I1
aI2
aI0
aa(lp213
I1
aI2
aI0
aa(lp214
I1
aI2
aI0
aa(lp215
I1
aI2
aI0
aa(lp216
I1
aI2
aI0
aa(lp217
I1
aI2
aI0
aa(lp218
I1
aI2
aI0
aa(lp219
I1
aI2
aI0
aa(lp220
I1
aI2
aI0
aa(lp221
I1
aI2
aI0
aa(lp222
I1
aI2
aI0
aa(lp223
I1
aI2
aI0
aa(lp224
I1
aI2
aI0
aa(lp225
I1
aI0
aI2
aa(lp226
I1
aI0
aI2
aa(lp227
I1
aI0
aI2
aa(lp228
I1
aI0
aI2
aa(lp229
I1
aI0
aI2
aa(lp230
I1
aI0
aI2
aa(lp231
I1
aI0
aI2
aa(lp232
I1
aI0
aI2
aa(lp233
I1
aI0
aI2
aa(lp234
I1
aI0
aI2
aa(lp235
I1
aI0
aI2
aa(lp236
I1
aI0
aI2
aa(lp237
I1
aI0
aI2
aa(lp238
I1
aI0
aI2
aa(lp239
I1
aI0
aI2
aa(lp240
I1
aI0
aI2
aa(lp241
I1
aI0
aI2
aa(lp242
I1
aI0
aI2
aa(lp243
I1
aI0
aI2
aa(lp244
I1
aI0
aI2
aa(lp245
I1
aI0
aI2
aa(lp246
I1
aI0
aI2
aa(lp247
I1
aI0
aI2
aa(lp248
I1
aI0
aI2
aa(lp249
I1
aI0
aI2
aa(lp250
I1
aI0
aI2
aa(lp251
I1
aI0
aI2
aa(lp252
I1
aI0
aI2
aa(lp253
I1
aI0
aI2
aa(lp254
I1
aI0
aI2
aa(lp255
I1
aI0
aI2
aa(lp256
I1
aI0
aI2
aa(lp257
I1
aI0
aI2
aa(lp258
I1
aI0
aI2
aa(lp259
I1
aI0
aI2
aa(lp260
I1
aI0
aI2
aa(lp261
I1
aI0
aI2
aa(lp262
I1
aI0
aI2
aa(lp263
I1
aI0
aI2
aa(lp264
I1
aI0
aI2
aa(lp265
I1
aI0
aI2
aa(lp266
I1
aI0
aI2
aa(lp267
I1
aI0
aI2
aa(lp268
I1
aI0
aI2
aa(lp269
I1
aI0
aI2
aa(lp270
I1
aI0
aI2
aa(lp271
I1
aI0
aI2
aa(lp272
I1
aI0
aI2
aa(lp273
I1
aI0
aI2
aa(lp274
I1
aI0
aI2
aa(lp275
I1
aI0
aI2
aa(lp276
I1
aI0
aI2
aa(lp277
I1
aI0
aI2
aa(lp278
I1
aI0
aI2
aa(lp279
I1
aI0
aI2
aa(lp280
I1
aI0
aI2
aa(lp281
I1
aI0
aI2
aa(lp282
I1
aI0
aI2
aa(lp283
I1
aI0
aI2
aa(lp284
I1
aI0
aI2
aa(lp285
I1
aI0
aI2
aa(lp286
I1
aI0
aI2
aa(lp287
I1
aI0
aI2
aa(lp288
I1
aI0
aI2
aa(lp289
I1
aI0
aI2
aa(lp290
I1
aI0
aI2
aa(lp291
I1
aI0
aI2
aa(lp292
I1
aI0
aI2
aa(lp293
I1
aI0
aI2
aa(lp294
I1
aI0
aI2
aa(lp295
I1
aI0
aI2
aa(lp296
I1
aI0
aI2
aa(lp297
I1
aI0
aI2
aa(lp298
I1
aI0
aI2
aa(lp299
I1
aI0
aI2
aa(lp300
I1
aI0
aI2
aa(lp301
I1
aI0
aI2
aa(lp302
I1
aI0
aI2
aa(lp303
I1
aI0
aI2
aa(lp304
I1
aI0
aI2
aa(lp305
I1
aI0
aI2
aa(lp306
I1
aI0
aI2
aa(lp307
I1
aI0
aI2
aa(lp308
I1
aI0
aI2
aa(lp309
I1
aI0
aI2
aa(lp310
I1
aI0
aI2
aa(lp311
I1
aI0
aI2
aa(lp312
I1
aI0
aI2
aa(lp313
I1
aI0
aI2
aa(lp314
I1
aI0
aI2
aa(lp315
I1
aI0
aI2
aa(lp316
I1
aI0
aI2
aa(lp317
I1
aI0
aI2
aa(lp318
I1
aI0
aI2
aa(lp319
I1
aI0
aI2
aa(lp320
I1
aI0
aI2
aa(lp321
I1
aI0
aI2
aa(lp322
I1
aI0
aI2
aa(lp323
I1
aI0
aI2
aa(lp324
I1
aI0
aI2
aa(lp325
I1
aI0
aI2
aa(lp326
I1
aI0
aI2
aa(lp327
I1
aI0
aI2
aa(lp328
I1
aI0
aI2
aa(lp329
I1
aI0
aI2
aa(lp330
I1
aI0
aI2
aa(lp331
I1
aI0
aI2
aa(lp332
I1
aI0
aI2
aa(lp333
I1
aI0
aI2
aa(lp334
I1
aI0
aI2
aa(lp335
I1
aI0
aI2
aa(lp336
I1
aI0
aI2
aa(lp337
I1
aI0
aI2
aa(lp338
I1
aI0
aI2
aa(lp339
I1
aI0
aI2
aa(lp340
I1
aI0
aI2
aa(lp341
I1
aI0
aI2
aa(lp342
I1
aI0
aI2
aa(lp343
I1
aI0
aI2
aa(lp344
I1
aI0
aI2
aa(lp345
I1
aI0
aI2
aa(lp346
I1
aI0
aI2
aa(lp347
I1
aI0
aI2
aa(lp348
I1
aI0
aI2
aa(lp349
I1
aI0
aI2
aa(lp350
I1
aI0
aI2
aa(lp351
I1
aI0
aI2
aa(lp352
I1
aI0
aI2
aa(lp353
I1
aI0
aI2
aa(lp354
I1
aI0
aI2
aa(lp355
I1
aI0
aI2
aa(lp356
I1
aI0
aI2
aa(lp357
I1
aI0
aI2
aa(lp358
I1
aI0
aI2
aa(lp359
I1
aI0
aI2
aa(lp360
I1
aI0
aI2
aa(lp361
I1
aI0
aI2
aa(lp362
I1
aI0
aI2
aa(lp363
I1
aI0
aI2
aa(lp364
I1
aI0
aI2
aa(lp365
I1
aI0
aI2
aa(lp366
I1
aI0
aI2
aa(lp367
I1
aI0
aI2
aa(lp368
I1
aI0
aI2
aa(lp369
I1
aI0
aI2
aa(lp370
I1
aI0
aI2
aa(lp371
I1
aI0
aI2
aa(lp372
I1
aI0
aI2
aa(lp373
I1
aI0
aI2
aa(lp374
I1
aI0
aI2
aa(lp375
I1
aI0
aI2
aa(lp376
I1
aI0
aI2
aa(lp377
I1
aI0
aI2
aa(lp378
I1
aI0
aI2
aa(lp379
I1
aI0
aI2
aa(lp380
I1
aI0
aI2
aa(lp381
I1
aI0
aI2
aa(lp382
I1
aI0
aI2
aa(lp383
I1
aI0
aI2
aa(lp384
I1
aI0
aI2
aa(lp385
I1
aI0
aI2
aa(lp386
I1
aI0
aI2
aa(lp387
I1
aI0
aI2
aa(lp388
I1
aI0
aI2
aa(lp389
I1
aI0
aI2
aa(lp390
I2
aI0
aI1
aa(lp391
I2
aI0
aI1
aa(lp392
I2
aI0
aI1
aa(lp393
I2
aI0
aI1
aa(lp394
I2
aI0
aI1
aa(lp395
I2
aI0
aI1
aa(lp396
I2
aI0
aI1
aa(lp397
I2
aI0
aI1
aa(lp398
I2
aI0
aI1
aa(lp399
I2
aI0
aI1
aa(lp400
I2
aI0
aI1
aa(lp401
I2
aI0
aI1
aa(lp402
I2
aI0
aI1
aa(lp403
I2
aI0
aI1
aa(lp404
I2
aI0
aI1
aa(lp405
I2
aI0
aI1
aa(lp406
I2
aI0
aI1
aa(lp407
I2
aI0
aI1
aa(lp408
I2
aI0
aI1
aa(lp409
I2
aI0
aI1
aa(lp410
I2
aI0
aI1
aa(lp411
I2
aI0
aI1
aa(lp412
I2
aI0
aI1
aa(lp413
I2
aI0
aI1
aa(lp414
I2
aI0
aI1
aa(lp415
I2
aI0
aI1
aa(lp416
I2
aI0
aI1
aa(lp417
I2
aI0
aI1
aa(lp418
I2
aI0
aI1
aa(lp419
I2
aI0
aI1
aa(lp420
I2
aI0
aI1
aa(lp421
I2
aI0
aI1
aa(lp422
I2
aI0
aI1
aa(lp423
I2
aI0
aI1
aa(lp424
I2
aI0
aI1
aa(lp425
I2
aI0
aI1
aa(lp426
I2
aI0
aI1
aa(lp427
I2
aI0
aI1
aa(lp428
I2
aI0
aI1
aa(lp429
I2
aI0
aI1
aa(lp430
I2
aI0
aI1
aa(lp431
I2
aI0
aI1
aa(lp432
I2
aI0
aI1
aa(lp433
I2
aI0
aI1
aa(lp434
I2
aI0
aI1
aa(lp435
I2
aI0
aI1
aa(lp436
I2
aI0
aI1
aa(lp437
I2
aI0
aI1
aa(lp438
I2
aI0
aI1
aa(lp439
I2
aI0
aI1
aa(lp440
I2
aI0
aI1
aa(lp441
I2
aI0
aI1
aa(lp442
I2
aI0
aI1
aa(lp443
I2
aI0
aI1
aa(lp444
I2
aI0
aI1
aa(lp445
I2
aI0
aI1
aa(lp446
I2
aI0
aI1
aa(lp447
I2
aI0
aI1
aa(lp448
I2
aI0
aI1
aa(lp449
I2
aI0
aI1
aa(lp450
I2
aI0
aI1
aa(lp451
I2
aI0
aI1
aa(lp452
I2
aI0
aI1
aa(lp453
I2
aI0
aI1
aa(lp454
I2
aI0
aI1
aa(lp455
I2
aI0
aI1
aa(lp456
I2
aI0
aI1
aa(lp457
I2
aI0
aI1
aa(lp458
I2
aI0
aI1
aa(lp459
I2
aI0
aI1
aa(lp460
I2
aI0
aI1
aa(lp461
I2
aI0
aI1
aa(lp462
I2
aI0
aI1
aa(lp463
I2
aI0
aI1
aa(lp464
I2
aI0
aI1
aa(lp465
I2
aI0
aI1
aa(lp466
I2
aI0
aI1
aa(lp467
I2
aI0
aI1
aa(lp468
I2
aI0
aI1
aa(lp469
I2
aI0
aI1
aa(lp470
I2
aI0
aI1
aa(lp471
I2
aI0
aI1
aa(lp472
I2
aI0
aI1
aa(lp473
I2
aI0
aI1
aa(lp474
I2
aI0
aI1
aa(lp475
I2
aI0
aI1
aa(lp476
I2
aI0
aI1
aa(lp477
I2
aI0
aI1
aa(lp478
I2
aI0
aI1
aa(lp479
I2
aI0
aI1
aa(lp480
I2
aI0
aI1
aa(lp481
I2
aI0
aI1
aa(lp482
I2
aI0
aI1
aa(lp483
I2
aI1
aI0
aa(lp484
I2
aI1
aI0
aa(lp485
I2
aI1
aI0
aa(lp486
I2
aI1
aI0
aa(lp487
I2
aI1
aI0
aa(lp488
I2
aI1
aI0
aa(lp489
I2
aI1
aI0
aa(lp490
I2
aI1
aI0
aa(lp491
I2
aI1
aI0
aa(lp492
I2
aI1
aI0
aa(lp493
I2
aI1
aI0
aa(lp494
I2
aI1
aI0
aa(lp495
I2
aI1
aI0
aa(lp496
I2
aI1
aI0
aa(lp497
I2
aI1
aI0
aa(lp498
I2
aI1
aI0
aa(lp499
I2
aI1
aI0
aa(lp500
I2
aI1
aI0
aa(lp501
I2
aI1
aI0
aa(lp502
I2
aI1
aI0
aa(lp503
I2
aI1
aI0
aa(lp504
I2
aI1
aI0
aa(lp505
I2
aI1
aI0
aa(lp506
I2
aI1
aI0
aa(lp507
I2
aI1
aI0
aa(lp508
I2
aI1
aI0
aa(lp509
I2
aI1
aI0
aa(lp510
I2
aI1
aI0
aa(lp511
I2
aI1
aI0
aa(lp512
I2
aI1
aI0
aa(lp513
I2
aI1
aI0
aa(lp514
I2
aI1
aI0
aa(lp515
I2
aI1
aI0
aa(lp516
I2
aI1
aI0
aa(lp517
I2
aI1
aI0
aa(lp518
I2
aI1
aI0
aa(lp519
I2
aI1
aI0
aa(lp520
I2
aI1
aI0
aa(lp521
I2
aI1
aI0
aa(lp522
I2
aI1
aI0
aa(lp523
I2
aI1
aI0
aa(lp524
I2
aI1
aI0
aa(lp525
I2
aI1
aI0
aa(lp526
I2
aI1
aI0
aa(lp527
I2
aI1
aI0
aa(lp528
I2
aI1
aI0
aa(lp529
I2
aI1
aI0
aa(lp530
I2
aI1
aI0
aa(lp531
I2
aI1
aI0
aa(lp532
I2
aI1
aI0
aa(lp533
I2
aI1
aI0
aa(lp534
I2
aI1
aI0
aa(lp535
I2
aI1
aI0
aa(lp536
I2
aI1
aI0
aa(lp537
I2
aI1
aI0
aa(lp538
I2
aI1
aI0
aa(lp539
I2
aI1
aI0
aa(lp540
I2
aI1
aI0
aa(lp541
I2
aI1
aI0
aa(lp542
I2
aI1
aI0
aa(lp543
I2
aI1
aI0
aa(lp544
I2
aI1
aI0
aa(lp545
I0
aI2
aI1
aa(lp546
I0
aI2
aI1
aa(lp547
I0
aI2
aI1
aa(lp548
I0
aI2
aI1
aa(lp549
I0
aI2
aI1
aa(lp550
I0
aI2
aI1
aa(lp551
I0
aI2
aI1
aa(lp552
I0
aI2
aI1
aa(lp553
I0
aI2
aI1
aa(lp554
I0
aI2
aI1
aa(lp555
I0
aI2
aI1
aa(lp556
I0
aI2
aI1
aa(lp557
I0
aI2
aI1
aa(lp558
I0
aI2
aI1
aa(lp559
I0
aI2
aI1
aa(lp560
I0
aI2
aI1
aa(lp561
I0
aI2
aI1
aa(lp562
I0
aI2
aI1
aa(lp563
I0
aI2
aI1
aa(lp564
I0
aI2
aI1
aa(lp565
I0
aI2
aI1
aa(lp566
I0
aI2
aI1
aa(lp567
I0
aI2
aI1
aa(lp568
I0
aI2
aI1
aa(lp569
I0
aI2
aI1
aa(lp570
I0
aI2
aI1
aa(lp571
I0
aI2
aI1
aa(lp572
I0
aI2
aI1
aa(lp573
I0
aI2
aI1
aa(lp574
I0
aI2
aI1
aa(lp575
I0
aI2
aI1
aa(lp576
I0
aI2
aI1
aa(lp577
I0
aI2
aI1
aa(lp578
I0
aI2
aI1
aa(lp579
I0
aI2
aI1
aa(lp580
I0
aI2
aI1
aa(lp581
I0
aI2
aI1
aa(lp582
I0
aI2
aI1
aa(lp583
I0
aI2
aI1
aa(lp584
I0
aI2
aI1
aa(lp585
I0
aI2
aI1
aa(lp586
I0
aI2
aI1
aa(lp587
I0
aI2
aI1
aa(lp588
I0
aI2
aI1
aa(lp589
I0
aI2
aI1
aa(lp590
I0
aI2
aI1
aa(lp591
I0
aI2
aI1
aa(lp592
I0
aI2
aI1
aa(lp593
I0
aI2
aI1
aa(lp594
I0
aI2
aI1
aa(lp595
I0
aI2
aI1
aa(lp596
I0
aI2
aI1
aa(lp597
I0
aI2
aI1
aa(lp598
I0
aI2
aI1
aa(lp599
I0
aI2
aI1
aa(lp600
I0
aI2
aI1
aa(lp601
I0
aI2
aI1
aa(lp602
I0
aI2
aI1
aa(lp603
I0
aI1
aI2
aa(lp604
I0
aI1
aI2
aa(lp605
I0
aI1
aI2
aa(lp606
I0
aI1
aI2
aa(lp607
I0
aI1
aI2
aa(lp608
I0
aI1
aI2
aa(lp609
I0
aI1
aI2
aa(lp610
I0
aI1
aI2
aa(lp611
I0
aI1
aI2
aa(lp612
I0
aI1
aI2
aa(lp613
I0
aI1
aI2
aa(lp614
I0
aI1
aI2
aa(lp615
I0
aI1
aI2
aa(lp616
I0
aI1
aI2
aa(lp617
I0
aI1
aI2
aa(lp618
I0
aI1
aI2
aa(lp619
I0
aI1
aI2
aa(lp620
I0
aI1
aI2
aasS'test-lists'
p621
(lp622
(lp623
I1
aI0
aI2
aa(lp624
I1
aI2
aI0
aa(lp625
I2
aI0
aI1
aa(lp626
I1
aI0
aI2
aa(lp627
I1
aI2
aI0
aa(lp628
I2
aI0
aI1
aa(lp629
I2
aI1
aI0
aa(lp630
I1
aI2
aI0
aa(lp631
I1
aI2
aI0
aa(lp632
I1
aI2
aI0
aa(lp633
I1
aI2
aI0
aa(lp634
I0
aI2
aI1
aa(lp635
I1
aI2
aI0
aa(lp636
I1
aI0
aI2
aa(lp637
I1
aI0
aI2
aa(lp638
I1
aI2
aI0
aa(lp639
I1
aI2
aI0
aa(lp640
I1
aI2
aI0
aa(lp641
I1
aI2
aI0
aa(lp642
I1
aI2
aI0
aa(lp643
I0
aI2
aI1
aa(lp644
I1
aI2
aI0
aa(lp645
I2
aI0
aI1
aa(lp646
I0
aI1
aI2
aa(lp647
I0
aI2
aI1
aa(lp648
I1
aI2
aI0
aa(lp649
I1
aI2
aI0
aa(lp650
I1
aI2
aI0
aa(lp651
I1
aI2
aI0
aa(lp652
I1
aI0
aI2
aa(lp653
I2
aI1
aI0
aa(lp654
I1
aI2
aI0
aa(lp655
I1
aI0
aI2
aa(lp656
I1
aI0
aI2
aa(lp657
I1
aI0
aI2
aa(lp658
I1
aI0
aI2
aa(lp659
I1
aI0
aI2
aa(lp660
I1
aI2
aI0
aa(lp661
I1
aI2
aI0
aa(lp662
I0
aI1
aI2
aa(lp663
I1
aI2
aI0
aa(lp664
I1
aI2
aI0
aa(lp665
I1
aI2
aI0
aa(lp666
I1
aI0
aI2
aa(lp667
I2
aI0
aI1
aa(lp668
I2
aI0
aI1
aa(lp669
I1
aI2
aI0
aa(lp670
I1
aI2
aI0
aa(lp671
I1
aI2
aI0
aa(lp672
I2
aI1
aI0
aa(lp673
I2
aI1
aI0
aa(lp674
I1
aI0
aI2
aa(lp675
I2
aI0
aI1
aa(lp676
I1
aI0
aI2
aa(lp677
I2
aI0
aI1
aa(lp678
I1
aI2
aI0
aa(lp679
I1
aI2
aI0
aa(lp680
I2
aI0
aI1
aa(lp681
I1
aI0
aI2
aa(lp682
I2
aI0
aI1
aa(lp683
I1
aI2
aI0
aa(lp684
I1
aI0
aI2
aa(lp685
I1
aI0
aI2
aa(lp686
I1
aI0
aI2
aa(lp687
I1
aI0
aI2
aa(lp688
I1
aI0
aI2
aa(lp689
I2
aI0
aI1
aa(lp690
I1
aI2
aI0
aa(lp691
I1
aI2
aI0
aa(lp692
I2
aI0
aI1
aa(lp693
I1
aI0
aI2
aa(lp694
I1
aI0
aI2
aa(lp695
I2
aI0
aI1
aa(lp696
I1
aI2
aI0
aa(lp697
I2
aI0
aI1
aa(lp698
I1
aI0
aI2
aa(lp699
I2
aI0
aI1
aa(lp700
I2
aI1
aI0
aa(lp701
I1
aI2
aI0
aa(lp702
I2
aI1
aI0
aa(lp703
I1
aI2
aI0
aa(lp704
I1
aI2
aI0
aa(lp705
I1
aI2
aI0
aa(lp706
I0
aI2
aI1
aa(lp707
I0
aI2
aI1
aa(lp708
I1
aI2
aI0
aa(lp709
I1
aI0
aI2
aa(lp710
I1
aI0
aI2
aa(lp711
I1
aI2
aI0
aa(lp712
I1
aI2
aI0
aa(lp713
I1
aI0
aI2
aa(lp714
I1
aI0
aI2
aa(lp715
I1
aI0
aI2
aa(lp716
I0
aI2
aI1
aa(lp717
I0
aI1
aI2
aa(lp718
I1
aI2
aI0
aa(lp719
I2
aI0
aI1
aa(lp720
I0
aI1
aI2
aa(lp721
I2
aI1
aI0
aa(lp722
I2
aI0
aI1
aa(lp723
I1
aI0
aI2
aa(lp724
I1
aI0
aI2
aa(lp725
I1
aI2
aI0
aa(lp726
I1
aI0
aI2
aa(lp727
I1
aI0
aI2
aa(lp728
I1
aI0
aI2
aa(lp729
I2
aI1
aI0
aa(lp730
I2
aI0
aI1
aa(lp731
I2
aI0
aI1
aa(lp732
I2
aI0
aI1
aa(lp733
I0
aI2
aI1
aa(lp734
I2
aI1
aI0
aa(lp735
I0
aI1
aI2
aa(lp736
I1
aI0
aI2
aa(lp737
I1
aI2
aI0
aa(lp738
I1
aI2
aI0
aa(lp739
I1
aI2
aI0
aa(lp740
I1
aI2
aI0
aa(lp741
I1
aI2
aI0
aa(lp742
I1
aI2
aI0
aa(lp743
I1
aI0
aI2
aa(lp744
I0
aI2
aI1
aa(lp745
I1
aI2
aI0
aa(lp746
I2
aI0
aI1
aa(lp747
I1
aI2
aI0
aa(lp748
I1
aI0
aI2
aa(lp749
I1
aI0
aI2
aa(lp750
I1
aI0
aI2
aa(lp751
I1
aI0
aI2
aa(lp752
I1
aI2
aI0
aa(lp753
I1
aI0
aI2
aa(lp754
I1
aI0
aI2
aa(lp755
I1
aI0
aI2
aa(lp756
I1
aI0
aI2
aa(lp757
I1
aI2
aI0
aa(lp758
I0
aI1
aI2
aa(lp759
I1
aI0
aI2
aa(lp760
I2
aI1
aI0
aa(lp761
I1
aI2
aI0
aasS'RE-train-choices'
p762
(dp763
(I1
I2
tp764
g4
(g5
(I0
tp765
g7
tp766
Rp767
(I1
(I2
tp768
g14
I00
S'\x00\x00\x00\x00\x00\x00O@\x00\x00\x00\x00\x00@d@'
p769
tp770
bs(I0
I1
tp771
g4
(g5
(I0
tp772
g7
tp773
Rp774
(I1
(I2
tp775
g14
I00
S'\x00\x00\x00\x00\x00\xa0d@\x00\x00\x00\x00\x00\x002@'
p776
tp777
bs(I0
tp778
g4
(g5
(I0
tp779
g7
tp780
Rp781
(I1
(I1
tp782
g14
I00
S'\x00\x00\x00\x00\x00\x00S@'
p783
tp784
bs(I1
tp785
g4
(g5
(I0
tp786
g7
tp787
Rp788
(I1
(I1
tp789
g14
I00
S'\x00\x00\x00\x00\x00pt@'
p790
tp791
bs(I0
I1
I2
tp792
g4
(g5
(I0
tp793
g7
tp794
Rp795
(I1
(I3
tp796
g14
I00
S'\xb8\x1e\x85\xebQ\x00l@\xb8\x1e\x85\xebQ\xe0b@\xb8\x1e\x85\xebQ\xe0f@'
p797
tp798
bs(I2
tp799
g4
(g5
(I0
tp800
g7
tp801
Rp802
(I1
(I1
tp803
g14
I00
S'\x00\x00\x00\x00\x00`c@'
p804
tp805
bs(I0
I2
tp806
g4
(g5
(I0
tp807
g7
tp808
Rp809
(I1
(I2
tp810
g14
I00
S'\x00\x00\x00\x00\x00@W@\x00\x00\x00\x00\x00\x00M@'
p811
tp812
bssS'N'
p813
I3
s.