(dp0
S'train-choices'
p1
(dp2
(I0
I1
tp3
cnumpy.core.multiarray
_reconstruct
p4
(cnumpy
ndarray
p5
(I0
tp6
S'b'
p7
tp8
Rp9
(I1
(I2
tp10
cnumpy
dtype
p11
(S'f8'
p12
I0
I1
tp13
Rp14
(I3
S'<'
p15
NNNI-1
I-1
I0
tp16
bI00
S'\x00\x00\x00\x00\x00\x00J@\x00\x00\x00\x00\x00@T@'
p17
tp18
bs(I1
I2
tp19
g4
(g5
(I0
tp20
g7
tp21
Rp22
(I1
(I2
tp23
g14
I00
S'\x00\x00\x00\x00\x00\x00?@\x00\x00\x00\x00\x00\x80J@'
p24
tp25
bs(I0
tp26
g4
(g5
(I0
tp27
g7
tp28
Rp29
(I1
(I1
tp30
g14
I00
S'\x00\x00\x00\x00\x00\x00`@'
p31
tp32
bs(I1
tp33
g4
(g5
(I0
tp34
g7
tp35
Rp36
(I1
(I1
tp37
g14
I00
S'\x00\x00\x00\x00\x00@Z@'
p38
tp39
bs(I0
I1
I2
tp40
g4
(g5
(I0
tp41
g7
tp42
Rp43
(I1
(I3
tp44
g14
I00
S'p=\n\xd7\xa3\x00U@p=\n\xd7\xa3\xc0S@\xb8\x1e\x85\xebQ\xa0`@'
p45
tp46
bs(I2
tp47
g4
(g5
(I0
tp48
g7
tp49
Rp50
(I1
(I1
tp51
g14
I00
S'\x00\x00\x00\x00\x00\x80O@'
p52
tp53
bs(I0
I2
tp54
g4
(g5
(I0
tp55
g7
tp56
Rp57
(I1
(I2
tp58
g14
I00
S'\x00\x00\x00\x00\x00\x00@@\x00\x00\x00\x00\x00\x80G@'
p59
tp60
bssS'train-lists'
p61
(lp62
(lp63
I2
aI1
aI0
aa(lp64
I2
aI1
aI0
aa(lp65
I2
aI1
aI0
aa(lp66
I2
aI1
aI0
aa(lp67
I2
aI1
aI0
aa(lp68
I2
aI1
aI0
aa(lp69
I2
aI1
aI0
aa(lp70
I2
aI1
aI0
aa(lp71
I2
aI1
aI0
aa(lp72
I2
aI1
aI0
aa(lp73
I2
aI1
aI0
aa(lp74
I2
aI1
aI0
aa(lp75
I2
aI1
aI0
aa(lp76
I2
aI1
aI0
aa(lp77
I2
aI1
aI0
aa(lp78
I2
aI1
aI0
aa(lp79
I2
aI1
aI0
aa(lp80
I2
aI1
aI0
aa(lp81
I2
aI1
aI0
aa(lp82
I2
aI1
aI0
aa(lp83
I2
aI1
aI0
aa(lp84
I2
aI1
aI0
aa(lp85
I2
aI1
aI0
aa(lp86
I2
aI1
aI0
aa(lp87
I2
aI1
aI0
aa(lp88
I2
aI1
aI0
aa(lp89
I2
aI1
aI0
aa(lp90
I2
aI1
aI0
aa(lp91
I2
aI1
aI0
aa(lp92
I2
aI1
aI0
aa(lp93
I2
aI1
aI0
aa(lp94
I2
aI1
aI0
aa(lp95
I2
aI1
aI0
aa(lp96
I2
aI1
aI0
aa(lp97
I2
aI1
aI0
aa(lp98
I2
aI1
aI0
aa(lp99
I2
aI1
aI0
aa(lp100
I2
aI1
aI0
aa(lp101
I2
aI1
aI0
aa(lp102
I2
aI1
aI0
aa(lp103
I2
aI1
aI0
aa(lp104
I2
aI1
aI0
aa(lp105
I2
aI1
aI0
aa(lp106
I2
aI1
aI0
aa(lp107
I2
aI1
aI0
aa(lp108
I2
aI1
aI0
aa(lp109
I2
aI1
aI0
aa(lp110
I2
aI1
aI0
aa(lp111
I2
aI1
aI0
aa(lp112
I2
aI1
aI0
aa(lp113
I2
aI1
aI0
aa(lp114
I2
aI1
aI0
aa(lp115
I2
aI1
aI0
aa(lp116
I2
aI1
aI0
aa(lp117
I2
aI1
aI0
aa(lp118
I2
aI1
aI0
aa(lp119
I2
aI1
aI0
aa(lp120
I2
aI1
aI0
aa(lp121
I2
aI1
aI0
aa(lp122
I2
aI1
aI0
aa(lp123
I2
aI1
aI0
aa(lp124
I2
aI1
aI0
aa(lp125
I2
aI1
aI0
aa(lp126
I2
aI1
aI0
aa(lp127
I2
aI1
aI0
aa(lp128
I2
aI1
aI0
aa(lp129
I2
aI1
aI0
aa(lp130
I2
aI1
aI0
aa(lp131
I2
aI1
aI0
aa(lp132
I2
aI1
aI0
aa(lp133
I2
aI1
aI0
aa(lp134
I2
aI1
aI0
aa(lp135
I2
aI1
aI0
aa(lp136
I2
aI1
aI0
aa(lp137
I2
aI1
aI0
aa(lp138
I2
aI1
aI0
aa(lp139
I2
aI1
aI0
aa(lp140
I2
aI1
aI0
aa(lp141
I2
aI1
aI0
aa(lp142
I2
aI1
aI0
aa(lp143
I2
aI1
aI0
aa(lp144
I2
aI0
aI1
aa(lp145
I2
aI0
aI1
aa(lp146
I2
aI0
aI1
aa(lp147
I2
aI0
aI1
aa(lp148
I2
aI0
aI1
aa(lp149
I2
aI0
aI1
aa(lp150
I2
aI0
aI1
aa(lp151
I2
aI0
aI1
aa(lp152
I2
aI0
aI1
aa(lp153
I2
aI0
aI1
aa(lp154
I2
aI0
aI1
aa(lp155
I2
aI0
aI1
aa(lp156
I2
aI0
aI1
aa(lp157
I2
aI0
aI1
aa(lp158
I2
aI0
aI1
aa(lp159
I2
aI0
aI1
aa(lp160
I2
aI0
aI1
aa(lp161
I2
aI0
aI1
aa(lp162
I2
aI0
aI1
aa(lp163
I2
aI0
aI1
aa(lp164
I2
aI0
aI1
aa(lp165
I2
aI0
aI1
aa(lp166
I2
aI0
aI1
aa(lp167
I2
aI0
aI1
aa(lp168
I2
aI0
aI1
aa(lp169
I2
aI0
aI1
aa(lp170
I2
aI0
aI1
aa(lp171
I2
aI0
aI1
aa(lp172
I2
aI0
aI1
aa(lp173
I2
aI0
aI1
aa(lp174
I2
aI0
aI1
aa(lp175
I2
aI0
aI1
aa(lp176
I2
aI0
aI1
aa(lp177
I2
aI0
aI1
aa(lp178
I2
aI0
aI1
aa(lp179
I2
aI0
aI1
aa(lp180
I2
aI0
aI1
aa(lp181
I2
aI0
aI1
aa(lp182
I2
aI0
aI1
aa(lp183
I2
aI0
aI1
aa(lp184
I2
aI0
aI1
aa(lp185
I2
aI0
aI1
aa(lp186
I2
aI0
aI1
aa(lp187
I2
aI0
aI1
aa(lp188
I2
aI0
aI1
aa(lp189
I2
aI0
aI1
aa(lp190
I2
aI0
aI1
aa(lp191
I2
aI0
aI1
aa(lp192
I2
aI0
aI1
aa(lp193
I2
aI0
aI1
aa(lp194
I2
aI0
aI1
aa(lp195
I2
aI0
aI1
aa(lp196
I0
aI2
aI1
aa(lp197
I0
aI2
aI1
aa(lp198
I0
aI2
aI1
aa(lp199
I0
aI2
aI1
aa(lp200
I0
aI2
aI1
aa(lp201
I0
aI2
aI1
aa(lp202
I0
aI2
aI1
aa(lp203
I0
aI2
aI1
aa(lp204
I0
aI2
aI1
aa(lp205
I0
aI2
aI1
aa(lp206
I0
aI2
aI1
aa(lp207
I0
aI2
aI1
aa(lp208
I0
aI2
aI1
aa(lp209
I0
aI2
aI1
aa(lp210
I0
aI2
aI1
aa(lp211
I0
aI2
aI1
aa(lp212
I0
aI2
aI1
aa(lp213
I0
aI2
aI1
aa(lp214
I0
aI2
aI1
aa(lp215
I0
aI2
aI1
aa(lp216
I0
aI2
aI1
aa(lp217
I0
aI2
aI1
aa(lp218
I0
aI2
aI1
aa(lp219
I0
aI2
aI1
aa(lp220
I0
aI2
aI1
aa(lp221
I0
aI2
aI1
aa(lp222
I0
aI2
aI1
aa(lp223
I0
aI2
aI1
aa(lp224
I0
aI2
aI1
aa(lp225
I0
aI2
aI1
aa(lp226
I0
aI2
aI1
aa(lp227
I0
aI2
aI1
aa(lp228
I0
aI2
aI1
aa(lp229
I0
aI2
aI1
aa(lp230
I0
aI2
aI1
aa(lp231
I0
aI2
aI1
aa(lp232
I0
aI2
aI1
aa(lp233
I0
aI2
aI1
aa(lp234
I0
aI2
aI1
aa(lp235
I0
aI2
aI1
aa(lp236
I0
aI2
aI1
aa(lp237
I0
aI2
aI1
aa(lp238
I0
aI2
aI1
aa(lp239
I0
aI2
aI1
aa(lp240
I0
aI2
aI1
aa(lp241
I0
aI2
aI1
aa(lp242
I0
aI2
aI1
aa(lp243
I0
aI2
aI1
aa(lp244
I0
aI2
aI1
aa(lp245
I0
aI2
aI1
aa(lp246
I0
aI2
aI1
aa(lp247
I0
aI2
aI1
aa(lp248
I0
aI2
aI1
aa(lp249
I1
aI2
aI0
aa(lp250
I1
aI2
aI0
aa(lp251
I1
aI2
aI0
aa(lp252
I1
aI2
aI0
aa(lp253
I1
aI2
aI0
aa(lp254
I1
aI2
aI0
aa(lp255
I1
aI2
aI0
aa(lp256
I1
aI2
aI0
aa(lp257
I1
aI2
aI0
aa(lp258
I1
aI2
aI0
aa(lp259
I1
aI2
aI0
aa(lp260
I1
aI2
aI0
aa(lp261
I1
aI2
aI0
aa(lp262
I1
aI2
aI0
aa(lp263
I1
aI2
aI0
aa(lp264
I1
aI2
aI0
aa(lp265
I1
aI2
aI0
aa(lp266
I1
aI2
aI0
aa(lp267
I1
aI2
aI0
aa(lp268
I1
aI2
aI0
aa(lp269
I1
aI2
aI0
aa(lp270
I1
aI2
aI0
aa(lp271
I1
aI2
aI0
aa(lp272
I1
aI2
aI0
aa(lp273
I1
aI2
aI0
aa(lp274
I1
aI2
aI0
aa(lp275
I1
aI2
aI0
aa(lp276
I1
aI2
aI0
aa(lp277
I1
aI2
aI0
aa(lp278
I1
aI2
aI0
aa(lp279
I1
aI2
aI0
aa(lp280
I1
aI2
aI0
aa(lp281
I1
aI2
aI0
aa(lp282
I1
aI2
aI0
aa(lp283
I1
aI2
aI0
aa(lp284
I1
aI2
aI0
aa(lp285
I1
aI2
aI0
aa(lp286
I1
aI2
aI0
aa(lp287
I1
aI2
aI0
aa(lp288
I1
aI2
aI0
aa(lp289
I1
aI2
aI0
aa(lp290
I1
aI2
aI0
aa(lp291
I1
aI2
aI0
aa(lp292
I1
aI2
aI0
aa(lp293
I1
aI2
aI0
aa(lp294
I1
aI2
aI0
aa(lp295
I1
aI2
aI0
aa(lp296
I0
aI1
aI2
aa(lp297
I0
aI1
aI2
aa(lp298
I0
aI1
aI2
aa(lp299
I0
aI1
aI2
aa(lp300
I0
aI1
aI2
aa(lp301
I0
aI1
aI2
aa(lp302
I0
aI1
aI2
aa(lp303
I0
aI1
aI2
aa(lp304
I0
aI1
aI2
aa(lp305
I0
aI1
aI2
aa(lp306
I0
aI1
aI2
aa(lp307
I0
aI1
aI2
aa(lp308
I0
aI1
aI2
aa(lp309
I0
aI1
aI2
aa(lp310
I0
aI1
aI2
aa(lp311
I0
aI1
aI2
aa(lp312
I0
aI1
aI2
aa(lp313
I0
aI1
aI2
aa(lp314
I0
aI1
aI2
aa(lp315
I0
aI1
aI2
aa(lp316
I0
aI1
aI2
aa(lp317
I0
aI1
aI2
aa(lp318
I0
aI1
aI2
aa(lp319
I0
aI1
aI2
aa(lp320
I0
aI1
aI2
aa(lp321
I0
aI1
aI2
aa(lp322
I0
aI1
aI2
aa(lp323
I0
aI1
aI2
aa(lp324
I0
aI1
aI2
aa(lp325
I0
aI1
aI2
aa(lp326
I0
aI1
aI2
aa(lp327
I1
aI0
aI2
aa(lp328
I1
aI0
aI2
aa(lp329
I1
aI0
aI2
aa(lp330
I1
aI0
aI2
aa(lp331
I1
aI0
aI2
aa(lp332
I1
aI0
aI2
aa(lp333
I1
aI0
aI2
aa(lp334
I1
aI0
aI2
aa(lp335
I1
aI0
aI2
aa(lp336
I1
aI0
aI2
aa(lp337
I1
aI0
aI2
aa(lp338
I1
aI0
aI2
aa(lp339
I1
aI0
aI2
aa(lp340
I1
aI0
aI2
aa(lp341
I1
aI0
aI2
aa(lp342
I1
aI0
aI2
aa(lp343
I1
aI0
aI2
aa(lp344
I1
aI0
aI2
aa(lp345
I1
aI0
aI2
aa(lp346
I1
aI0
aI2
aa(lp347
I1
aI0
aI2
aa(lp348
I1
aI0
aI2
aa(lp349
I1
aI0
aI2
aa(lp350
I1
aI0
aI2
aa(lp351
I1
aI0
aI2
aa(lp352
I1
aI0
aI2
aa(lp353
I1
aI0
aI2
aa(lp354
I1
aI0
aI2
aa(lp355
I1
aI0
aI2
aa(lp356
I1
aI0
aI2
aa(lp357
I1
aI0
aI2
aa(lp358
I1
aI0
aI2
aasS'test-lists'
p359
(lp360
(lp361
I2
aI0
aI1
aa(lp362
I1
aI2
aI0
aa(lp363
I2
aI0
aI1
aa(lp364
I2
aI0
aI1
aa(lp365
I1
aI0
aI2
aa(lp366
I2
aI0
aI1
aa(lp367
I2
aI0
aI1
aa(lp368
I0
aI2
aI1
aa(lp369
I1
aI2
aI0
aa(lp370
I0
aI2
aI1
aa(lp371
I0
aI1
aI2
aa(lp372
I2
aI1
aI0
aa(lp373
I0
aI2
aI1
aa(lp374
I2
aI0
aI1
aa(lp375
I1
aI2
aI0
aa(lp376
I0
aI1
aI2
aa(lp377
I2
aI1
aI0
aa(lp378
I0
aI1
aI2
aa(lp379
I0
aI2
aI1
aa(lp380
I1
aI2
aI0
aa(lp381
I2
aI1
aI0
aa(lp382
I2
aI0
aI1
aa(lp383
I1
aI2
aI0
aa(lp384
I0
aI1
aI2
aa(lp385
I0
aI2
aI1
aa(lp386
I0
aI2
aI1
aa(lp387
I1
aI2
aI0
aa(lp388
I2
aI0
aI1
aa(lp389
I1
aI2
aI0
aa(lp390
I0
aI2
aI1
aa(lp391
I0
aI2
aI1
aa(lp392
I0
aI2
aI1
aa(lp393
I1
aI0
aI2
aa(lp394
I2
aI1
aI0
aa(lp395
I2
aI1
aI0
aa(lp396
I1
aI2
aI0
aa(lp397
I0
aI1
aI2
aa(lp398
I2
aI1
aI0
aa(lp399
I1
aI2
aI0
aa(lp400
I2
aI0
aI1
aa(lp401
I2
aI1
aI0
aa(lp402
I2
aI1
aI0
aa(lp403
I2
aI1
aI0
aa(lp404
I2
aI0
aI1
aa(lp405
I0
aI1
aI2
aa(lp406
I2
aI1
aI0
aa(lp407
I1
aI0
aI2
aa(lp408
I2
aI1
aI0
aa(lp409
I1
aI2
aI0
aa(lp410
I2
aI1
aI0
aa(lp411
I0
aI2
aI1
aa(lp412
I2
aI0
aI1
aa(lp413
I2
aI1
aI0
aa(lp414
I2
aI0
aI1
aa(lp415
I1
aI0
aI2
aa(lp416
I1
aI0
aI2
aa(lp417
I2
aI1
aI0
aa(lp418
I1
aI0
aI2
aa(lp419
I0
aI1
aI2
aa(lp420
I2
aI0
aI1
aa(lp421
I0
aI2
aI1
aa(lp422
I0
aI1
aI2
aa(lp423
I1
aI0
aI2
aa(lp424
I2
aI0
aI1
aa(lp425
I2
aI1
aI0
aa(lp426
I2
aI0
aI1
aa(lp427
I1
aI2
aI0
aa(lp428
I2
aI1
aI0
aa(lp429
I1
aI2
aI0
aa(lp430
I2
aI1
aI0
aa(lp431
I1
aI2
aI0
aa(lp432
I2
aI1
aI0
aa(lp433
I2
aI0
aI1
aasS'RE-train-choices'
p434
(dp435
(I1
I2
tp436
g4
(g5
(I0
tp437
g7
tp438
Rp439
(I1
(I2
tp440
g14
I00
S'\x00\x00\x00\x00\x00@T@\x00\x00\x00\x00\x00\x80G@'
p441
tp442
bs(I0
I1
tp443
g4
(g5
(I0
tp444
g7
tp445
Rp446
(I1
(I2
tp447
g14
I00
S'\x00\x00\x00\x00\x00\x00@@\x00\x00\x00\x00\x00\x00?@'
p448
tp449
bs(I0
tp450
g4
(g5
(I0
tp451
g7
tp452
Rp453
(I1
(I1
tp454
g14
I00
S'\x00\x00\x00\x00\x00\x00U@'
p455
tp456
bs(I1
tp457
g4
(g5
(I0
tp458
g7
tp459
Rp460
(I1
(I1
tp461
g14
I00
S'\x00\x00\x00\x00\x00\xc0S@'
p462
tp463
bs(I0
I1
I2
tp464
g4
(g5
(I0
tp465
g7
tp466
Rp467
(I1
(I3
tp468
g14
I00
S'\xb8\x1e\x85\xebQ\x00`@p=\n\xd7\xa3@Z@\xe1z\x14\xaeG\x81O@'
p469
tp470
bs(I2
tp471
g4
(g5
(I0
tp472
g7
tp473
Rp474
(I1
(I1
tp475
g14
I00
S'\x00\x00\x00\x00\x00\xa0`@'
p476
tp477
bs(I0
I2
tp478
g4
(g5
(I0
tp479
g7
tp480
Rp481
(I1
(I2
tp482
g14
I00
S'\x00\x00\x00\x00\x00\x00J@\x00\x00\x00\x00\x00\x80J@'
p483
tp484
bssS'N'
p485
I3
s.