(dp0
S'train-choices'
p1
(dp2
(I1
I2
tp3
cnumpy.core.multiarray
_reconstruct
p4
(cnumpy
ndarray
p5
(I0
tp6
S'b'
p7
tp8
Rp9
(I1
(I2
tp10
cnumpy
dtype
p11
(S'f8'
p12
I0
I1
tp13
Rp14
(I3
S'<'
p15
NNNI-1
I-1
I0
tp16
bI00
S'\x00\x00\x00\x00\x00\x00i@\x00\x00\x00\x00\x00\x00B@'
p17
tp18
bs(I0
I1
tp19
g4
(g5
(I0
tp20
g7
tp21
Rp22
(I1
(I2
tp23
g14
I00
S'\x00\x00\x00\x00\x00\x009@\x00\x00\x00\x00\x00\x80H@'
p24
tp25
bs(I0
tp26
g4
(g5
(I0
tp27
g7
tp28
Rp29
(I1
(I1
tp30
g14
I00
S'\x00\x00\x00\x00\x00\xe0c@'
p31
tp32
bs(I1
tp33
g4
(g5
(I0
tp34
g7
tp35
Rp36
(I1
(I1
tp37
g14
I00
S'\x00\x00\x00\x00\x00\x80N@'
p38
tp39
bs(I0
I1
I2
tp40
g4
(g5
(I0
tp41
g7
tp42
Rp43
(I1
(I3
tp44
g14
I00
S'\xb8\x1e\x85\xebQ\x80m@\\\x8f\xc2\xf5(\x00q@p=\n\xd7\xa3\x80R@'
p45
tp46
bs(I2
tp47
g4
(g5
(I0
tp48
g7
tp49
Rp50
(I1
(I1
tp51
g14
I00
S'\x00\x00\x00\x00\x00\xa0v@'
p52
tp53
bs(I0
I2
tp54
g4
(g5
(I0
tp55
g7
tp56
Rp57
(I1
(I2
tp58
g14
I00
S'\x00\x00\x00\x00\x00@d@\x00\x00\x00\x00\x00\x80[@'
p59
tp60
bssS'train-lists'
p61
(lp62
(lp63
I0
aI1
aI2
aa(lp64
I0
aI1
aI2
aa(lp65
I0
aI1
aI2
aa(lp66
I0
aI1
aI2
aa(lp67
I0
aI1
aI2
aa(lp68
I0
aI1
aI2
aa(lp69
I0
aI1
aI2
aa(lp70
I0
aI1
aI2
aa(lp71
I0
aI1
aI2
aa(lp72
I0
aI1
aI2
aa(lp73
I0
aI1
aI2
aa(lp74
I0
aI1
aI2
aa(lp75
I0
aI1
aI2
aa(lp76
I0
aI1
aI2
aa(lp77
I0
aI1
aI2
aa(lp78
I0
aI1
aI2
aa(lp79
I0
aI1
aI2
aa(lp80
I0
aI1
aI2
aa(lp81
I0
aI1
aI2
aa(lp82
I0
aI1
aI2
aa(lp83
I0
aI1
aI2
aa(lp84
I0
aI1
aI2
aa(lp85
I0
aI1
aI2
aa(lp86
I0
aI1
aI2
aa(lp87
I0
aI1
aI2
aa(lp88
I0
aI1
aI2
aa(lp89
I0
aI1
aI2
aa(lp90
I0
aI1
aI2
aa(lp91
I0
aI1
aI2
aa(lp92
I0
aI1
aI2
aa(lp93
I0
aI1
aI2
aa(lp94
I0
aI1
aI2
aa(lp95
I0
aI1
aI2
aa(lp96
I0
aI1
aI2
aa(lp97
I0
aI1
aI2
aa(lp98
I0
aI1
aI2
aa(lp99
I0
aI1
aI2
aa(lp100
I0
aI1
aI2
aa(lp101
I0
aI1
aI2
aa(lp102
I0
aI1
aI2
aa(lp103
I0
aI1
aI2
aa(lp104
I0
aI1
aI2
aa(lp105
I0
aI1
aI2
aa(lp106
I0
aI1
aI2
aa(lp107
I0
aI1
aI2
aa(lp108
I0
aI1
aI2
aa(lp109
I0
aI1
aI2
aa(lp110
I0
aI1
aI2
aa(lp111
I0
aI1
aI2
aa(lp112
I0
aI1
aI2
aa(lp113
I0
aI1
aI2
aa(lp114
I0
aI1
aI2
aa(lp115
I0
aI1
aI2
aa(lp116
I0
aI1
aI2
aa(lp117
I0
aI1
aI2
aa(lp118
I0
aI1
aI2
aa(lp119
I0
aI1
aI2
aa(lp120
I0
aI1
aI2
aa(lp121
I0
aI1
aI2
aa(lp122
I0
aI1
aI2
aa(lp123
I0
aI1
aI2
aa(lp124
I0
aI1
aI2
aa(lp125
I0
aI1
aI2
aa(lp126
I0
aI1
aI2
aa(lp127
I0
aI1
aI2
aa(lp128
I0
aI1
aI2
aa(lp129
I0
aI1
aI2
aa(lp130
I0
aI1
aI2
aa(lp131
I0
aI1
aI2
aa(lp132
I0
aI1
aI2
aa(lp133
I0
aI1
aI2
aa(lp134
I0
aI1
aI2
aa(lp135
I0
aI1
aI2
aa(lp136
I0
aI1
aI2
aa(lp137
I0
aI1
aI2
aa(lp138
I0
aI1
aI2
aa(lp139
I0
aI1
aI2
aa(lp140
I0
aI1
aI2
aa(lp141
I0
aI1
aI2
aa(lp142
I0
aI1
aI2
aa(lp143
I0
aI1
aI2
aa(lp144
I0
aI1
aI2
aa(lp145
I0
aI1
aI2
aa(lp146
I0
aI1
aI2
aa(lp147
I0
aI1
aI2
aa(lp148
I0
aI1
aI2
aa(lp149
I0
aI1
aI2
aa(lp150
I0
aI1
aI2
aa(lp151
I0
aI1
aI2
aa(lp152
I0
aI1
aI2
aa(lp153
I0
aI1
aI2
aa(lp154
I0
aI1
aI2
aa(lp155
I0
aI1
aI2
aa(lp156
I0
aI1
aI2
aa(lp157
I0
aI1
aI2
aa(lp158
I0
aI1
aI2
aa(lp159
I0
aI1
aI2
aa(lp160
I0
aI1
aI2
aa(lp161
I0
aI1
aI2
aa(lp162
I0
aI1
aI2
aa(lp163
I0
aI1
aI2
aa(lp164
I0
aI1
aI2
aa(lp165
I0
aI1
aI2
aa(lp166
I0
aI1
aI2
aa(lp167
I0
aI1
aI2
aa(lp168
I0
aI1
aI2
aa(lp169
I0
aI1
aI2
aa(lp170
I0
aI1
aI2
aa(lp171
I0
aI1
aI2
aa(lp172
I0
aI1
aI2
aa(lp173
I0
aI1
aI2
aa(lp174
I0
aI1
aI2
aa(lp175
I0
aI1
aI2
aa(lp176
I0
aI1
aI2
aa(lp177
I0
aI1
aI2
aa(lp178
I0
aI1
aI2
aa(lp179
I0
aI1
aI2
aa(lp180
I0
aI1
aI2
aa(lp181
I0
aI1
aI2
aa(lp182
I0
aI1
aI2
aa(lp183
I0
aI1
aI2
aa(lp184
I0
aI1
aI2
aa(lp185
I0
aI1
aI2
aa(lp186
I0
aI1
aI2
aa(lp187
I0
aI1
aI2
aa(lp188
I0
aI1
aI2
aa(lp189
I0
aI1
aI2
aa(lp190
I0
aI1
aI2
aa(lp191
I0
aI1
aI2
aa(lp192
I0
aI1
aI2
aa(lp193
I0
aI1
aI2
aa(lp194
I0
aI1
aI2
aa(lp195
I0
aI1
aI2
aa(lp196
I0
aI1
aI2
aa(lp197
I0
aI1
aI2
aa(lp198
I0
aI1
aI2
aa(lp199
I0
aI1
aI2
aa(lp200
I0
aI1
aI2
aa(lp201
I0
aI1
aI2
aa(lp202
I0
aI1
aI2
aa(lp203
I0
aI1
aI2
aa(lp204
I0
aI1
aI2
aa(lp205
I0
aI1
aI2
aa(lp206
I0
aI1
aI2
aa(lp207
I0
aI1
aI2
aa(lp208
I0
aI1
aI2
aa(lp209
I0
aI1
aI2
aa(lp210
I0
aI1
aI2
aa(lp211
I0
aI1
aI2
aa(lp212
I0
aI1
aI2
aa(lp213
I0
aI1
aI2
aa(lp214
I0
aI1
aI2
aa(lp215
I0
aI1
aI2
aa(lp216
I0
aI1
aI2
aa(lp217
I0
aI1
aI2
aa(lp218
I0
aI1
aI2
aa(lp219
I0
aI1
aI2
aa(lp220
I0
aI1
aI2
aa(lp221
I0
aI1
aI2
aa(lp222
I0
aI1
aI2
aa(lp223
I0
aI1
aI2
aa(lp224
I0
aI1
aI2
aa(lp225
I0
aI1
aI2
aa(lp226
I0
aI1
aI2
aa(lp227
I0
aI1
aI2
aa(lp228
I0
aI1
aI2
aa(lp229
I0
aI1
aI2
aa(lp230
I0
aI1
aI2
aa(lp231
I0
aI1
aI2
aa(lp232
I0
aI1
aI2
aa(lp233
I0
aI1
aI2
aa(lp234
I0
aI1
aI2
aa(lp235
I0
aI1
aI2
aa(lp236
I0
aI1
aI2
aa(lp237
I0
aI1
aI2
aa(lp238
I0
aI1
aI2
aa(lp239
I0
aI1
aI2
aa(lp240
I0
aI1
aI2
aa(lp241
I0
aI1
aI2
aa(lp242
I0
aI1
aI2
aa(lp243
I0
aI1
aI2
aa(lp244
I0
aI1
aI2
aa(lp245
I0
aI1
aI2
aa(lp246
I0
aI1
aI2
aa(lp247
I0
aI1
aI2
aa(lp248
I0
aI1
aI2
aa(lp249
I0
aI1
aI2
aa(lp250
I0
aI1
aI2
aa(lp251
I0
aI1
aI2
aa(lp252
I0
aI1
aI2
aa(lp253
I0
aI1
aI2
aa(lp254
I0
aI1
aI2
aa(lp255
I0
aI1
aI2
aa(lp256
I0
aI1
aI2
aa(lp257
I0
aI1
aI2
aa(lp258
I0
aI1
aI2
aa(lp259
I0
aI1
aI2
aa(lp260
I0
aI1
aI2
aa(lp261
I0
aI1
aI2
aa(lp262
I0
aI1
aI2
aa(lp263
I1
aI0
aI2
aa(lp264
I1
aI0
aI2
aa(lp265
I1
aI0
aI2
aa(lp266
I1
aI0
aI2
aa(lp267
I1
aI0
aI2
aa(lp268
I1
aI0
aI2
aa(lp269
I1
aI0
aI2
aa(lp270
I1
aI0
aI2
aa(lp271
I1
aI0
aI2
aa(lp272
I1
aI0
aI2
aa(lp273
I1
aI0
aI2
aa(lp274
I1
aI0
aI2
aa(lp275
I1
aI0
aI2
aa(lp276
I1
aI0
aI2
aa(lp277
I1
aI0
aI2
aa(lp278
I1
aI0
aI2
aa(lp279
I1
aI0
aI2
aa(lp280
I1
aI0
aI2
aa(lp281
I1
aI0
aI2
aa(lp282
I1
aI0
aI2
aa(lp283
I1
aI0
aI2
aa(lp284
I1
aI0
aI2
aa(lp285
I1
aI0
aI2
aa(lp286
I1
aI0
aI2
aa(lp287
I1
aI0
aI2
aa(lp288
I1
aI0
aI2
aa(lp289
I1
aI0
aI2
aa(lp290
I1
aI0
aI2
aa(lp291
I1
aI0
aI2
aa(lp292
I1
aI0
aI2
aa(lp293
I1
aI0
aI2
aa(lp294
I1
aI0
aI2
aa(lp295
I1
aI0
aI2
aa(lp296
I1
aI0
aI2
aa(lp297
I1
aI0
aI2
aa(lp298
I1
aI0
aI2
aa(lp299
I1
aI0
aI2
aa(lp300
I1
aI0
aI2
aa(lp301
I1
aI0
aI2
aa(lp302
I1
aI0
aI2
aa(lp303
I1
aI0
aI2
aa(lp304
I1
aI0
aI2
aa(lp305
I1
aI0
aI2
aa(lp306
I1
aI0
aI2
aa(lp307
I1
aI0
aI2
aa(lp308
I1
aI0
aI2
aa(lp309
I1
aI0
aI2
aa(lp310
I1
aI0
aI2
aa(lp311
I1
aI0
aI2
aa(lp312
I1
aI0
aI2
aa(lp313
I1
aI0
aI2
aa(lp314
I1
aI0
aI2
aa(lp315
I1
aI0
aI2
aa(lp316
I1
aI0
aI2
aa(lp317
I1
aI0
aI2
aa(lp318
I1
aI0
aI2
aa(lp319
I1
aI0
aI2
aa(lp320
I1
aI0
aI2
aa(lp321
I1
aI0
aI2
aa(lp322
I1
aI0
aI2
aa(lp323
I1
aI0
aI2
aa(lp324
I1
aI0
aI2
aa(lp325
I1
aI0
aI2
aa(lp326
I1
aI0
aI2
aa(lp327
I1
aI0
aI2
aa(lp328
I1
aI0
aI2
aa(lp329
I1
aI0
aI2
aa(lp330
I1
aI0
aI2
aa(lp331
I1
aI0
aI2
aa(lp332
I1
aI0
aI2
aa(lp333
I1
aI0
aI2
aa(lp334
I1
aI0
aI2
aa(lp335
I1
aI0
aI2
aa(lp336
I1
aI0
aI2
aa(lp337
I1
aI0
aI2
aa(lp338
I1
aI0
aI2
aa(lp339
I1
aI0
aI2
aa(lp340
I1
aI0
aI2
aa(lp341
I1
aI0
aI2
aa(lp342
I1
aI0
aI2
aa(lp343
I1
aI0
aI2
aa(lp344
I1
aI0
aI2
aa(lp345
I1
aI0
aI2
aa(lp346
I1
aI0
aI2
aa(lp347
I1
aI0
aI2
aa(lp348
I1
aI0
aI2
aa(lp349
I1
aI0
aI2
aa(lp350
I1
aI0
aI2
aa(lp351
I1
aI0
aI2
aa(lp352
I1
aI0
aI2
aa(lp353
I1
aI0
aI2
aa(lp354
I1
aI0
aI2
aa(lp355
I1
aI0
aI2
aa(lp356
I1
aI0
aI2
aa(lp357
I1
aI0
aI2
aa(lp358
I1
aI0
aI2
aa(lp359
I1
aI0
aI2
aa(lp360
I1
aI0
aI2
aa(lp361
I1
aI0
aI2
aa(lp362
I1
aI0
aI2
aa(lp363
I1
aI0
aI2
aa(lp364
I1
aI0
aI2
aa(lp365
I1
aI0
aI2
aa(lp366
I1
aI0
aI2
aa(lp367
I1
aI0
aI2
aa(lp368
I1
aI0
aI2
aa(lp369
I1
aI0
aI2
aa(lp370
I1
aI0
aI2
aa(lp371
I1
aI0
aI2
aa(lp372
I1
aI0
aI2
aa(lp373
I1
aI0
aI2
aa(lp374
I1
aI0
aI2
aa(lp375
I1
aI0
aI2
aa(lp376
I1
aI0
aI2
aa(lp377
I1
aI0
aI2
aa(lp378
I1
aI0
aI2
aa(lp379
I1
aI0
aI2
aa(lp380
I1
aI0
aI2
aa(lp381
I1
aI0
aI2
aa(lp382
I1
aI0
aI2
aa(lp383
I1
aI0
aI2
aa(lp384
I1
aI0
aI2
aa(lp385
I1
aI0
aI2
aa(lp386
I1
aI0
aI2
aa(lp387
I1
aI0
aI2
aa(lp388
I1
aI0
aI2
aa(lp389
I1
aI0
aI2
aa(lp390
I1
aI0
aI2
aa(lp391
I1
aI0
aI2
aa(lp392
I1
aI0
aI2
aa(lp393
I1
aI0
aI2
aa(lp394
I1
aI0
aI2
aa(lp395
I1
aI0
aI2
aa(lp396
I1
aI0
aI2
aa(lp397
I1
aI0
aI2
aa(lp398
I1
aI0
aI2
aa(lp399
I1
aI0
aI2
aa(lp400
I1
aI0
aI2
aa(lp401
I1
aI0
aI2
aa(lp402
I1
aI0
aI2
aa(lp403
I1
aI0
aI2
aa(lp404
I1
aI0
aI2
aa(lp405
I1
aI0
aI2
aa(lp406
I1
aI0
aI2
aa(lp407
I1
aI0
aI2
aa(lp408
I1
aI0
aI2
aa(lp409
I1
aI0
aI2
aa(lp410
I1
aI0
aI2
aa(lp411
I1
aI0
aI2
aa(lp412
I1
aI0
aI2
aa(lp413
I1
aI0
aI2
aa(lp414
I1
aI0
aI2
aa(lp415
I1
aI0
aI2
aa(lp416
I1
aI0
aI2
aa(lp417
I1
aI0
aI2
aa(lp418
I1
aI0
aI2
aa(lp419
I1
aI0
aI2
aa(lp420
I1
aI0
aI2
aa(lp421
I1
aI0
aI2
aa(lp422
I1
aI0
aI2
aa(lp423
I1
aI0
aI2
aa(lp424
I1
aI0
aI2
aa(lp425
I1
aI2
aI0
aa(lp426
I1
aI2
aI0
aa(lp427
I1
aI2
aI0
aa(lp428
I1
aI2
aI0
aa(lp429
I1
aI2
aI0
aa(lp430
I1
aI2
aI0
aa(lp431
I1
aI2
aI0
aa(lp432
I1
aI2
aI0
aa(lp433
I1
aI2
aI0
aa(lp434
I1
aI2
aI0
aa(lp435
I1
aI2
aI0
aa(lp436
I1
aI2
aI0
aa(lp437
I1
aI2
aI0
aa(lp438
I1
aI2
aI0
aa(lp439
I1
aI2
aI0
aa(lp440
I1
aI2
aI0
aa(lp441
I1
aI2
aI0
aa(lp442
I1
aI2
aI0
aa(lp443
I1
aI2
aI0
aa(lp444
I1
aI2
aI0
aa(lp445
I1
aI2
aI0
aa(lp446
I1
aI2
aI0
aa(lp447
I1
aI2
aI0
aa(lp448
I1
aI2
aI0
aa(lp449
I1
aI2
aI0
aa(lp450
I1
aI2
aI0
aa(lp451
I1
aI2
aI0
aa(lp452
I1
aI2
aI0
aa(lp453
I1
aI2
aI0
aa(lp454
I1
aI2
aI0
aa(lp455
I1
aI2
aI0
aa(lp456
I1
aI2
aI0
aa(lp457
I1
aI2
aI0
aa(lp458
I1
aI2
aI0
aa(lp459
I1
aI2
aI0
aa(lp460
I1
aI2
aI0
aa(lp461
I1
aI2
aI0
aa(lp462
I1
aI2
aI0
aa(lp463
I1
aI2
aI0
aa(lp464
I1
aI2
aI0
aa(lp465
I1
aI2
aI0
aa(lp466
I1
aI2
aI0
aa(lp467
I1
aI2
aI0
aa(lp468
I1
aI2
aI0
aa(lp469
I1
aI2
aI0
aa(lp470
I1
aI2
aI0
aa(lp471
I1
aI2
aI0
aa(lp472
I1
aI2
aI0
aa(lp473
I1
aI2
aI0
aa(lp474
I1
aI2
aI0
aa(lp475
I1
aI2
aI0
aa(lp476
I1
aI2
aI0
aa(lp477
I1
aI2
aI0
aa(lp478
I1
aI2
aI0
aa(lp479
I1
aI2
aI0
aa(lp480
I1
aI2
aI0
aa(lp481
I1
aI2
aI0
aa(lp482
I1
aI2
aI0
aa(lp483
I1
aI2
aI0
aa(lp484
I1
aI2
aI0
aa(lp485
I1
aI2
aI0
aa(lp486
I1
aI2
aI0
aa(lp487
I1
aI2
aI0
aa(lp488
I1
aI2
aI0
aa(lp489
I1
aI2
aI0
aa(lp490
I1
aI2
aI0
aa(lp491
I1
aI2
aI0
aa(lp492
I1
aI2
aI0
aa(lp493
I1
aI2
aI0
aa(lp494
I1
aI2
aI0
aa(lp495
I1
aI2
aI0
aa(lp496
I1
aI2
aI0
aa(lp497
I1
aI2
aI0
aa(lp498
I1
aI2
aI0
aa(lp499
I1
aI2
aI0
aa(lp500
I1
aI2
aI0
aa(lp501
I1
aI2
aI0
aa(lp502
I1
aI2
aI0
aa(lp503
I1
aI2
aI0
aa(lp504
I1
aI2
aI0
aa(lp505
I1
aI2
aI0
aa(lp506
I1
aI2
aI0
aa(lp507
I1
aI2
aI0
aa(lp508
I1
aI2
aI0
aa(lp509
I1
aI2
aI0
aa(lp510
I1
aI2
aI0
aa(lp511
I1
aI2
aI0
aa(lp512
I1
aI2
aI0
aa(lp513
I1
aI2
aI0
aa(lp514
I1
aI2
aI0
aa(lp515
I1
aI2
aI0
aa(lp516
I1
aI2
aI0
aa(lp517
I1
aI2
aI0
aa(lp518
I1
aI2
aI0
aa(lp519
I1
aI2
aI0
aa(lp520
I1
aI2
aI0
aa(lp521
I1
aI2
aI0
aa(lp522
I1
aI2
aI0
aa(lp523
I1
aI2
aI0
aa(lp524
I1
aI2
aI0
aa(lp525
I1
aI2
aI0
aa(lp526
I1
aI2
aI0
aa(lp527
I1
aI2
aI0
aa(lp528
I1
aI2
aI0
aa(lp529
I1
aI2
aI0
aa(lp530
I1
aI2
aI0
aa(lp531
I1
aI2
aI0
aa(lp532
I1
aI2
aI0
aa(lp533
I1
aI2
aI0
aa(lp534
I1
aI2
aI0
aa(lp535
I2
aI1
aI0
aa(lp536
I2
aI1
aI0
aa(lp537
I2
aI1
aI0
aa(lp538
I2
aI1
aI0
aa(lp539
I2
aI1
aI0
aa(lp540
I2
aI1
aI0
aa(lp541
I2
aI1
aI0
aa(lp542
I2
aI1
aI0
aa(lp543
I2
aI1
aI0
aa(lp544
I2
aI1
aI0
aa(lp545
I2
aI1
aI0
aa(lp546
I2
aI1
aI0
aa(lp547
I2
aI1
aI0
aa(lp548
I2
aI1
aI0
aa(lp549
I2
aI1
aI0
aa(lp550
I2
aI1
aI0
aa(lp551
I2
aI1
aI0
aa(lp552
I2
aI1
aI0
aa(lp553
I2
aI1
aI0
aa(lp554
I2
aI1
aI0
aa(lp555
I2
aI1
aI0
aa(lp556
I2
aI1
aI0
aa(lp557
I2
aI1
aI0
aa(lp558
I2
aI1
aI0
aa(lp559
I2
aI1
aI0
aa(lp560
I2
aI1
aI0
aa(lp561
I2
aI1
aI0
aa(lp562
I2
aI1
aI0
aa(lp563
I2
aI1
aI0
aa(lp564
I2
aI1
aI0
aa(lp565
I2
aI1
aI0
aa(lp566
I2
aI1
aI0
aa(lp567
I2
aI1
aI0
aa(lp568
I2
aI1
aI0
aa(lp569
I2
aI1
aI0
aa(lp570
I2
aI1
aI0
aa(lp571
I2
aI1
aI0
aa(lp572
I2
aI1
aI0
aa(lp573
I2
aI1
aI0
aa(lp574
I2
aI1
aI0
aa(lp575
I2
aI1
aI0
aa(lp576
I2
aI1
aI0
aa(lp577
I2
aI1
aI0
aa(lp578
I2
aI1
aI0
aa(lp579
I2
aI1
aI0
aa(lp580
I2
aI1
aI0
aa(lp581
I2
aI1
aI0
aa(lp582
I2
aI1
aI0
aa(lp583
I2
aI1
aI0
aa(lp584
I0
aI2
aI1
aa(lp585
I0
aI2
aI1
aa(lp586
I0
aI2
aI1
aa(lp587
I0
aI2
aI1
aa(lp588
I0
aI2
aI1
aa(lp589
I0
aI2
aI1
aa(lp590
I0
aI2
aI1
aa(lp591
I0
aI2
aI1
aa(lp592
I0
aI2
aI1
aa(lp593
I0
aI2
aI1
aa(lp594
I0
aI2
aI1
aa(lp595
I0
aI2
aI1
aa(lp596
I0
aI2
aI1
aa(lp597
I0
aI2
aI1
aa(lp598
I0
aI2
aI1
aa(lp599
I0
aI2
aI1
aa(lp600
I0
aI2
aI1
aa(lp601
I0
aI2
aI1
aa(lp602
I0
aI2
aI1
aa(lp603
I0
aI2
aI1
aa(lp604
I0
aI2
aI1
aa(lp605
I0
aI2
aI1
aa(lp606
I0
aI2
aI1
aa(lp607
I0
aI2
aI1
aa(lp608
I0
aI2
aI1
aa(lp609
I0
aI2
aI1
aa(lp610
I0
aI2
aI1
aa(lp611
I0
aI2
aI1
aa(lp612
I0
aI2
aI1
aa(lp613
I0
aI2
aI1
aa(lp614
I0
aI2
aI1
aa(lp615
I0
aI2
aI1
aa(lp616
I0
aI2
aI1
aa(lp617
I0
aI2
aI1
aa(lp618
I0
aI2
aI1
aa(lp619
I0
aI2
aI1
aa(lp620
I2
aI0
aI1
aa(lp621
I2
aI0
aI1
aa(lp622
I2
aI0
aI1
aa(lp623
I2
aI0
aI1
aa(lp624
I2
aI0
aI1
aa(lp625
I2
aI0
aI1
aa(lp626
I2
aI0
aI1
aa(lp627
I2
aI0
aI1
aa(lp628
I2
aI0
aI1
aa(lp629
I2
aI0
aI1
aa(lp630
I2
aI0
aI1
aa(lp631
I2
aI0
aI1
aa(lp632
I2
aI0
aI1
aa(lp633
I2
aI0
aI1
aa(lp634
I2
aI0
aI1
aa(lp635
I2
aI0
aI1
aa(lp636
I2
aI0
aI1
aa(lp637
I2
aI0
aI1
aa(lp638
I2
aI0
aI1
aa(lp639
I2
aI0
aI1
aa(lp640
I2
aI0
aI1
aa(lp641
I2
aI0
aI1
aa(lp642
I2
aI0
aI1
aa(lp643
I2
aI0
aI1
aa(lp644
I2
aI0
aI1
aasS'test-lists'
p645
(lp646
(lp647
I2
aI0
aI1
aa(lp648
I0
aI1
aI2
aa(lp649
I1
aI0
aI2
aa(lp650
I2
aI0
aI1
aa(lp651
I0
aI2
aI1
aa(lp652
I2
aI0
aI1
aa(lp653
I0
aI1
aI2
aa(lp654
I0
aI1
aI2
aa(lp655
I1
aI2
aI0
aa(lp656
I0
aI1
aI2
aa(lp657
I1
aI0
aI2
aa(lp658
I1
aI2
aI0
aa(lp659
I1
aI0
aI2
aa(lp660
I2
aI1
aI0
aa(lp661
I0
aI1
aI2
aa(lp662
I1
aI0
aI2
aa(lp663
I1
aI0
aI2
aa(lp664
I0
aI2
aI1
aa(lp665
I0
aI1
aI2
aa(lp666
I0
aI2
aI1
aa(lp667
I2
aI1
aI0
aa(lp668
I0
aI1
aI2
aa(lp669
I1
aI0
aI2
aa(lp670
I0
aI1
aI2
aa(lp671
I1
aI2
aI0
aa(lp672
I1
aI2
aI0
aa(lp673
I1
aI2
aI0
aa(lp674
I1
aI0
aI2
aa(lp675
I1
aI0
aI2
aa(lp676
I2
aI1
aI0
aa(lp677
I2
aI1
aI0
aa(lp678
I1
aI0
aI2
aa(lp679
I0
aI1
aI2
aa(lp680
I2
aI1
aI0
aa(lp681
I1
aI2
aI0
aa(lp682
I1
aI0
aI2
aa(lp683
I1
aI2
aI0
aa(lp684
I0
aI1
aI2
aa(lp685
I0
aI2
aI1
aa(lp686
I1
aI2
aI0
aa(lp687
I2
aI1
aI0
aa(lp688
I1
aI0
aI2
aa(lp689
I1
aI0
aI2
aa(lp690
I1
aI0
aI2
aa(lp691
I0
aI1
aI2
aa(lp692
I1
aI0
aI2
aa(lp693
I0
aI1
aI2
aa(lp694
I1
aI2
aI0
aa(lp695
I0
aI1
aI2
aa(lp696
I1
aI0
aI2
aa(lp697
I1
aI2
aI0
aa(lp698
I0
aI1
aI2
aa(lp699
I1
aI0
aI2
aa(lp700
I0
aI1
aI2
aa(lp701
I1
aI0
aI2
aa(lp702
I2
aI0
aI1
aa(lp703
I0
aI1
aI2
aa(lp704
I0
aI1
aI2
aa(lp705
I1
aI0
aI2
aa(lp706
I1
aI2
aI0
aa(lp707
I1
aI2
aI0
aa(lp708
I2
aI1
aI0
aa(lp709
I1
aI0
aI2
aa(lp710
I2
aI1
aI0
aa(lp711
I0
aI2
aI1
aa(lp712
I2
aI0
aI1
aa(lp713
I2
aI0
aI1
aa(lp714
I1
aI0
aI2
aa(lp715
I1
aI2
aI0
aa(lp716
I0
aI1
aI2
aa(lp717
I0
aI1
aI2
aa(lp718
I0
aI1
aI2
aa(lp719
I0
aI1
aI2
aa(lp720
I1
aI2
aI0
aa(lp721
I0
aI1
aI2
aa(lp722
I1
aI0
aI2
aa(lp723
I0
aI1
aI2
aa(lp724
I0
aI1
aI2
aa(lp725
I1
aI0
aI2
aa(lp726
I0
aI1
aI2
aa(lp727
I1
aI0
aI2
aa(lp728
I1
aI0
aI2
aa(lp729
I2
aI1
aI0
aa(lp730
I1
aI2
aI0
aa(lp731
I0
aI1
aI2
aa(lp732
I0
aI1
aI2
aa(lp733
I0
aI1
aI2
aa(lp734
I0
aI1
aI2
aa(lp735
I0
aI1
aI2
aa(lp736
I1
aI0
aI2
aa(lp737
I1
aI0
aI2
aa(lp738
I0
aI2
aI1
aa(lp739
I1
aI0
aI2
aa(lp740
I1
aI0
aI2
aa(lp741
I0
aI1
aI2
aa(lp742
I0
aI1
aI2
aa(lp743
I0
aI1
aI2
aa(lp744
I1
aI0
aI2
aa(lp745
I1
aI2
aI0
aa(lp746
I0
aI1
aI2
aa(lp747
I2
aI0
aI1
aa(lp748
I0
aI1
aI2
aa(lp749
I1
aI2
aI0
aa(lp750
I0
aI2
aI1
aa(lp751
I1
aI0
aI2
aa(lp752
I1
aI0
aI2
aa(lp753
I0
aI2
aI1
aa(lp754
I0
aI1
aI2
aa(lp755
I1
aI0
aI2
aa(lp756
I1
aI0
aI2
aa(lp757
I2
aI1
aI0
aa(lp758
I0
aI1
aI2
aa(lp759
I2
aI1
aI0
aa(lp760
I0
aI1
aI2
aa(lp761
I1
aI2
aI0
aa(lp762
I1
aI2
aI0
aa(lp763
I1
aI2
aI0
aa(lp764
I1
aI0
aI2
aa(lp765
I2
aI0
aI1
aa(lp766
I2
aI0
aI1
aa(lp767
I1
aI2
aI0
aa(lp768
I0
aI1
aI2
aa(lp769
I1
aI0
aI2
aa(lp770
I0
aI1
aI2
aa(lp771
I1
aI0
aI2
aa(lp772
I0
aI1
aI2
aa(lp773
I0
aI1
aI2
aa(lp774
I1
aI0
aI2
aa(lp775
I2
aI1
aI0
aa(lp776
I0
aI2
aI1
aa(lp777
I1
aI0
aI2
aa(lp778
I1
aI0
aI2
aa(lp779
I1
aI2
aI0
aa(lp780
I0
aI1
aI2
aa(lp781
I1
aI0
aI2
aa(lp782
I1
aI0
aI2
aa(lp783
I1
aI0
aI2
aa(lp784
I0
aI1
aI2
aa(lp785
I0
aI2
aI1
aa(lp786
I1
aI0
aI2
aa(lp787
I2
aI1
aI0
aa(lp788
I0
aI1
aI2
aa(lp789
I2
aI1
aI0
aa(lp790
I1
aI0
aI2
aa(lp791
I0
aI1
aI2
aasS'RE-train-choices'
p792
(dp793
(I0
I1
tp794
g4
(g5
(I0
tp795
g7
tp796
Rp797
(I1
(I2
tp798
g14
I00
S'\x00\x00\x00\x00\x00@d@\x00\x00\x00\x00\x00\x00i@'
p799
tp800
bs(I1
I2
tp801
g4
(g5
(I0
tp802
g7
tp803
Rp804
(I1
(I2
tp805
g14
I00
S'\x00\x00\x00\x00\x00\x80H@\x00\x00\x00\x00\x00\x80[@'
p806
tp807
bs(I0
tp808
g4
(g5
(I0
tp809
g7
tp810
Rp811
(I1
(I1
tp812
g14
I00
S'\x00\x00\x00\x00\x00\x80m@'
p813
tp814
bs(I1
tp815
g4
(g5
(I0
tp816
g7
tp817
Rp818
(I1
(I1
tp819
g14
I00
S'\x00\x00\x00\x00\x00\x00q@'
p820
tp821
bs(I0
I1
I2
tp822
g4
(g5
(I0
tp823
g7
tp824
Rp825
(I1
(I3
tp826
g14
I00
S'\xb8\x1e\x85\xebQ\xe0c@\xe1z\x14\xaeG\x81N@\\\x8f\xc2\xf5(\xa0v@'
p827
tp828
bs(I2
tp829
g4
(g5
(I0
tp830
g7
tp831
Rp832
(I1
(I1
tp833
g14
I00
S'\x00\x00\x00\x00\x00\x80R@'
p834
tp835
bs(I0
I2
tp836
g4
(g5
(I0
tp837
g7
tp838
Rp839
(I1
(I2
tp840
g14
I00
S'\x00\x00\x00\x00\x00\x009@\x00\x00\x00\x00\x00\x00B@'
p841
tp842
bssS'N'
p843
I3
s.