(dp0
S'train-choices'
p1
(dp2
(I1
I2
tp3
cnumpy.core.multiarray
_reconstruct
p4
(cnumpy
ndarray
p5
(I0
tp6
S'b'
p7
tp8
Rp9
(I1
(I2
tp10
cnumpy
dtype
p11
(S'f8'
p12
I0
I1
tp13
Rp14
(I3
S'<'
p15
NNNI-1
I-1
I0
tp16
bI00
S'\x00\x00\x00\x00\x00\x80Z@\x00\x00\x00\x00\x00\xa0f@'
p17
tp18
bs(I0
I1
tp19
g4
(g5
(I0
tp20
g7
tp21
Rp22
(I1
(I2
tp23
g14
I00
S'\x00\x00\x00\x00\x00\x00B@\x00\x00\x00\x00\x00\x00\x00@'
p24
tp25
bs(I0
tp26
g4
(g5
(I0
tp27
g7
tp28
Rp29
(I1
(I1
tp30
g14
I00
S'\x00\x00\x00\x00\x00\x00\x14@'
p31
tp32
bs(I1
tp33
g4
(g5
(I0
tp34
g7
tp35
Rp36
(I1
(I1
tp37
g14
I00
S'\x00\x00\x00\x00\x00 k@'
p38
tp39
bs(I0
I1
I2
tp40
g4
(g5
(I0
tp41
g7
tp42
Rp43
(I1
(I3
tp44
g14
I00
S'\\\x8f\xc2\xf5(\xf0q@\xc2\xf5(\\\x8f\x02>@\xe1z\x14\xaeG\x01C@'
p45
tp46
bs(I2
tp47
g4
(g5
(I0
tp48
g7
tp49
Rp50
(I1
(I1
tp51
g14
I00
S'\x00\x00\x00\x00\x00\xa0`@'
p52
tp53
bs(I0
I2
tp54
g4
(g5
(I0
tp55
g7
tp56
Rp57
(I1
(I2
tp58
g14
I00
S'\x00\x00\x00\x00\x00\x00;@\x00\x00\x00\x00\x00\x00\x08@'
p59
tp60
bssS'train-lists'
p61
(lp62
(lp63
I0
aI2
aI1
aa(lp64
I0
aI2
aI1
aa(lp65
I0
aI2
aI1
aa(lp66
I0
aI2
aI1
aa(lp67
I0
aI2
aI1
aa(lp68
I0
aI2
aI1
aa(lp69
I0
aI2
aI1
aa(lp70
I0
aI2
aI1
aa(lp71
I0
aI2
aI1
aa(lp72
I0
aI2
aI1
aa(lp73
I0
aI2
aI1
aa(lp74
I0
aI2
aI1
aa(lp75
I0
aI2
aI1
aa(lp76
I0
aI2
aI1
aa(lp77
I0
aI2
aI1
aa(lp78
I0
aI2
aI1
aa(lp79
I0
aI2
aI1
aa(lp80
I0
aI2
aI1
aa(lp81
I0
aI2
aI1
aa(lp82
I0
aI2
aI1
aa(lp83
I0
aI2
aI1
aa(lp84
I0
aI2
aI1
aa(lp85
I0
aI2
aI1
aa(lp86
I0
aI2
aI1
aa(lp87
I0
aI2
aI1
aa(lp88
I0
aI2
aI1
aa(lp89
I0
aI2
aI1
aa(lp90
I0
aI2
aI1
aa(lp91
I0
aI2
aI1
aa(lp92
I0
aI2
aI1
aa(lp93
I0
aI2
aI1
aa(lp94
I0
aI2
aI1
aa(lp95
I0
aI2
aI1
aa(lp96
I0
aI2
aI1
aa(lp97
I0
aI2
aI1
aa(lp98
I0
aI2
aI1
aa(lp99
I0
aI2
aI1
aa(lp100
I0
aI2
aI1
aa(lp101
I0
aI2
aI1
aa(lp102
I0
aI2
aI1
aa(lp103
I0
aI2
aI1
aa(lp104
I0
aI2
aI1
aa(lp105
I0
aI2
aI1
aa(lp106
I0
aI2
aI1
aa(lp107
I0
aI2
aI1
aa(lp108
I0
aI2
aI1
aa(lp109
I0
aI2
aI1
aa(lp110
I0
aI2
aI1
aa(lp111
I0
aI2
aI1
aa(lp112
I0
aI2
aI1
aa(lp113
I0
aI2
aI1
aa(lp114
I0
aI2
aI1
aa(lp115
I0
aI2
aI1
aa(lp116
I0
aI2
aI1
aa(lp117
I0
aI2
aI1
aa(lp118
I0
aI2
aI1
aa(lp119
I0
aI2
aI1
aa(lp120
I0
aI2
aI1
aa(lp121
I0
aI2
aI1
aa(lp122
I0
aI2
aI1
aa(lp123
I0
aI2
aI1
aa(lp124
I0
aI2
aI1
aa(lp125
I0
aI2
aI1
aa(lp126
I0
aI2
aI1
aa(lp127
I0
aI2
aI1
aa(lp128
I0
aI2
aI1
aa(lp129
I0
aI2
aI1
aa(lp130
I0
aI2
aI1
aa(lp131
I0
aI2
aI1
aa(lp132
I0
aI2
aI1
aa(lp133
I0
aI2
aI1
aa(lp134
I0
aI2
aI1
aa(lp135
I0
aI2
aI1
aa(lp136
I0
aI2
aI1
aa(lp137
I0
aI2
aI1
aa(lp138
I0
aI2
aI1
aa(lp139
I0
aI2
aI1
aa(lp140
I0
aI2
aI1
aa(lp141
I0
aI2
aI1
aa(lp142
I0
aI2
aI1
aa(lp143
I0
aI2
aI1
aa(lp144
I0
aI2
aI1
aa(lp145
I0
aI2
aI1
aa(lp146
I0
aI2
aI1
aa(lp147
I0
aI2
aI1
aa(lp148
I0
aI2
aI1
aa(lp149
I0
aI2
aI1
aa(lp150
I0
aI2
aI1
aa(lp151
I0
aI2
aI1
aa(lp152
I0
aI2
aI1
aa(lp153
I0
aI2
aI1
aa(lp154
I0
aI2
aI1
aa(lp155
I0
aI2
aI1
aa(lp156
I0
aI2
aI1
aa(lp157
I0
aI2
aI1
aa(lp158
I0
aI2
aI1
aa(lp159
I0
aI2
aI1
aa(lp160
I0
aI2
aI1
aa(lp161
I0
aI2
aI1
aa(lp162
I0
aI2
aI1
aa(lp163
I0
aI2
aI1
aa(lp164
I0
aI2
aI1
aa(lp165
I0
aI2
aI1
aa(lp166
I0
aI2
aI1
aa(lp167
I0
aI2
aI1
aa(lp168
I0
aI2
aI1
aa(lp169
I0
aI2
aI1
aa(lp170
I0
aI2
aI1
aa(lp171
I0
aI2
aI1
aa(lp172
I0
aI2
aI1
aa(lp173
I0
aI2
aI1
aa(lp174
I0
aI2
aI1
aa(lp175
I0
aI2
aI1
aa(lp176
I0
aI2
aI1
aa(lp177
I0
aI2
aI1
aa(lp178
I0
aI2
aI1
aa(lp179
I0
aI2
aI1
aa(lp180
I0
aI2
aI1
aa(lp181
I0
aI2
aI1
aa(lp182
I0
aI2
aI1
aa(lp183
I0
aI2
aI1
aa(lp184
I0
aI2
aI1
aa(lp185
I0
aI2
aI1
aa(lp186
I0
aI2
aI1
aa(lp187
I0
aI2
aI1
aa(lp188
I0
aI2
aI1
aa(lp189
I0
aI2
aI1
aa(lp190
I0
aI2
aI1
aa(lp191
I0
aI2
aI1
aa(lp192
I0
aI2
aI1
aa(lp193
I0
aI2
aI1
aa(lp194
I0
aI2
aI1
aa(lp195
I0
aI2
aI1
aa(lp196
I0
aI2
aI1
aa(lp197
I0
aI2
aI1
aa(lp198
I0
aI2
aI1
aa(lp199
I0
aI2
aI1
aa(lp200
I0
aI2
aI1
aa(lp201
I0
aI2
aI1
aa(lp202
I0
aI2
aI1
aa(lp203
I0
aI2
aI1
aa(lp204
I0
aI2
aI1
aa(lp205
I0
aI2
aI1
aa(lp206
I0
aI2
aI1
aa(lp207
I0
aI2
aI1
aa(lp208
I0
aI2
aI1
aa(lp209
I0
aI2
aI1
aa(lp210
I0
aI2
aI1
aa(lp211
I0
aI2
aI1
aa(lp212
I0
aI2
aI1
aa(lp213
I0
aI2
aI1
aa(lp214
I0
aI2
aI1
aa(lp215
I0
aI2
aI1
aa(lp216
I0
aI2
aI1
aa(lp217
I0
aI2
aI1
aa(lp218
I0
aI2
aI1
aa(lp219
I0
aI2
aI1
aa(lp220
I0
aI2
aI1
aa(lp221
I0
aI2
aI1
aa(lp222
I0
aI2
aI1
aa(lp223
I0
aI2
aI1
aa(lp224
I0
aI2
aI1
aa(lp225
I0
aI2
aI1
aa(lp226
I0
aI2
aI1
aa(lp227
I0
aI2
aI1
aa(lp228
I0
aI2
aI1
aa(lp229
I0
aI2
aI1
aa(lp230
I0
aI2
aI1
aa(lp231
I0
aI2
aI1
aa(lp232
I0
aI2
aI1
aa(lp233
I0
aI2
aI1
aa(lp234
I0
aI2
aI1
aa(lp235
I0
aI2
aI1
aa(lp236
I0
aI2
aI1
aa(lp237
I0
aI2
aI1
aa(lp238
I0
aI2
aI1
aa(lp239
I0
aI2
aI1
aa(lp240
I0
aI2
aI1
aa(lp241
I0
aI2
aI1
aa(lp242
I0
aI2
aI1
aa(lp243
I0
aI2
aI1
aa(lp244
I0
aI1
aI2
aa(lp245
I0
aI1
aI2
aa(lp246
I0
aI1
aI2
aa(lp247
I0
aI1
aI2
aa(lp248
I0
aI1
aI2
aa(lp249
I0
aI1
aI2
aa(lp250
I0
aI1
aI2
aa(lp251
I0
aI1
aI2
aa(lp252
I0
aI1
aI2
aa(lp253
I0
aI1
aI2
aa(lp254
I0
aI1
aI2
aa(lp255
I0
aI1
aI2
aa(lp256
I0
aI1
aI2
aa(lp257
I0
aI1
aI2
aa(lp258
I0
aI1
aI2
aa(lp259
I0
aI1
aI2
aa(lp260
I0
aI1
aI2
aa(lp261
I0
aI1
aI2
aa(lp262
I0
aI1
aI2
aa(lp263
I0
aI1
aI2
aa(lp264
I0
aI1
aI2
aa(lp265
I0
aI1
aI2
aa(lp266
I0
aI1
aI2
aa(lp267
I0
aI1
aI2
aa(lp268
I0
aI1
aI2
aa(lp269
I0
aI1
aI2
aa(lp270
I0
aI1
aI2
aa(lp271
I0
aI1
aI2
aa(lp272
I0
aI1
aI2
aa(lp273
I0
aI1
aI2
aa(lp274
I0
aI1
aI2
aa(lp275
I0
aI1
aI2
aa(lp276
I0
aI1
aI2
aa(lp277
I0
aI1
aI2
aa(lp278
I0
aI1
aI2
aa(lp279
I0
aI1
aI2
aa(lp280
I0
aI1
aI2
aa(lp281
I0
aI1
aI2
aa(lp282
I0
aI1
aI2
aa(lp283
I0
aI1
aI2
aa(lp284
I0
aI1
aI2
aa(lp285
I0
aI1
aI2
aa(lp286
I0
aI1
aI2
aa(lp287
I0
aI1
aI2
aa(lp288
I0
aI1
aI2
aa(lp289
I0
aI1
aI2
aa(lp290
I0
aI1
aI2
aa(lp291
I0
aI1
aI2
aa(lp292
I0
aI1
aI2
aa(lp293
I0
aI1
aI2
aa(lp294
I0
aI1
aI2
aa(lp295
I0
aI1
aI2
aa(lp296
I0
aI1
aI2
aa(lp297
I0
aI1
aI2
aa(lp298
I0
aI1
aI2
aa(lp299
I0
aI1
aI2
aa(lp300
I0
aI1
aI2
aa(lp301
I0
aI1
aI2
aa(lp302
I0
aI1
aI2
aa(lp303
I0
aI1
aI2
aa(lp304
I0
aI1
aI2
aa(lp305
I0
aI1
aI2
aa(lp306
I0
aI1
aI2
aa(lp307
I0
aI1
aI2
aa(lp308
I0
aI1
aI2
aa(lp309
I0
aI1
aI2
aa(lp310
I0
aI1
aI2
aa(lp311
I0
aI1
aI2
aa(lp312
I0
aI1
aI2
aa(lp313
I0
aI1
aI2
aa(lp314
I0
aI1
aI2
aa(lp315
I0
aI1
aI2
aa(lp316
I0
aI1
aI2
aa(lp317
I0
aI1
aI2
aa(lp318
I0
aI1
aI2
aa(lp319
I0
aI1
aI2
aa(lp320
I0
aI1
aI2
aa(lp321
I0
aI1
aI2
aa(lp322
I0
aI1
aI2
aa(lp323
I0
aI1
aI2
aa(lp324
I0
aI1
aI2
aa(lp325
I0
aI1
aI2
aa(lp326
I0
aI1
aI2
aa(lp327
I0
aI1
aI2
aa(lp328
I0
aI1
aI2
aa(lp329
I0
aI1
aI2
aa(lp330
I0
aI1
aI2
aa(lp331
I0
aI1
aI2
aa(lp332
I0
aI1
aI2
aa(lp333
I0
aI1
aI2
aa(lp334
I0
aI1
aI2
aa(lp335
I0
aI1
aI2
aa(lp336
I0
aI1
aI2
aa(lp337
I0
aI1
aI2
aa(lp338
I0
aI1
aI2
aa(lp339
I0
aI1
aI2
aa(lp340
I0
aI1
aI2
aa(lp341
I0
aI1
aI2
aa(lp342
I0
aI1
aI2
aa(lp343
I0
aI1
aI2
aa(lp344
I0
aI1
aI2
aa(lp345
I0
aI1
aI2
aa(lp346
I0
aI1
aI2
aa(lp347
I0
aI1
aI2
aa(lp348
I0
aI1
aI2
aa(lp349
I0
aI1
aI2
aa(lp350
I2
aI0
aI1
aa(lp351
I2
aI0
aI1
aa(lp352
I2
aI0
aI1
aa(lp353
I2
aI0
aI1
aa(lp354
I2
aI0
aI1
aa(lp355
I2
aI0
aI1
aa(lp356
I2
aI0
aI1
aa(lp357
I2
aI0
aI1
aa(lp358
I2
aI0
aI1
aa(lp359
I2
aI0
aI1
aa(lp360
I2
aI0
aI1
aa(lp361
I2
aI0
aI1
aa(lp362
I2
aI0
aI1
aa(lp363
I2
aI0
aI1
aa(lp364
I2
aI0
aI1
aa(lp365
I2
aI0
aI1
aa(lp366
I2
aI0
aI1
aa(lp367
I2
aI0
aI1
aa(lp368
I2
aI0
aI1
aa(lp369
I2
aI0
aI1
aa(lp370
I2
aI0
aI1
aa(lp371
I2
aI0
aI1
aa(lp372
I2
aI0
aI1
aa(lp373
I2
aI0
aI1
aa(lp374
I2
aI0
aI1
aa(lp375
I2
aI0
aI1
aa(lp376
I2
aI0
aI1
aa(lp377
I2
aI0
aI1
aa(lp378
I2
aI0
aI1
aa(lp379
I2
aI0
aI1
aa(lp380
I2
aI0
aI1
aa(lp381
I2
aI0
aI1
aa(lp382
I2
aI0
aI1
aa(lp383
I2
aI0
aI1
aa(lp384
I2
aI0
aI1
aa(lp385
I2
aI0
aI1
aa(lp386
I1
aI0
aI2
aa(lp387
I1
aI0
aI2
aa(lp388
I1
aI0
aI2
aa(lp389
I1
aI0
aI2
aa(lp390
I1
aI0
aI2
aa(lp391
I1
aI0
aI2
aa(lp392
I1
aI0
aI2
aa(lp393
I1
aI0
aI2
aa(lp394
I1
aI0
aI2
aa(lp395
I1
aI0
aI2
aa(lp396
I1
aI0
aI2
aa(lp397
I1
aI0
aI2
aa(lp398
I1
aI0
aI2
aa(lp399
I1
aI0
aI2
aa(lp400
I1
aI0
aI2
aa(lp401
I1
aI0
aI2
aa(lp402
I1
aI0
aI2
aa(lp403
I1
aI0
aI2
aa(lp404
I1
aI0
aI2
aa(lp405
I1
aI0
aI2
aa(lp406
I1
aI0
aI2
aa(lp407
I1
aI0
aI2
aa(lp408
I1
aI0
aI2
aa(lp409
I1
aI0
aI2
aa(lp410
I1
aI0
aI2
aa(lp411
I1
aI0
aI2
aa(lp412
I1
aI0
aI2
aa(lp413
I1
aI2
aI0
aa(lp414
I1
aI2
aI0
aa(lp415
I1
aI2
aI0
aa(lp416
I2
aI1
aI0
aa(lp417
I2
aI1
aI0
aasS'test-lists'
p418
(lp419
(lp420
I0
aI1
aI2
aa(lp421
I0
aI1
aI2
aa(lp422
I1
aI0
aI2
aa(lp423
I0
aI1
aI2
aa(lp424
I0
aI2
aI1
aa(lp425
I0
aI2
aI1
aa(lp426
I0
aI1
aI2
aa(lp427
I0
aI2
aI1
aa(lp428
I0
aI2
aI1
aa(lp429
I0
aI1
aI2
aa(lp430
I0
aI1
aI2
aa(lp431
I0
aI2
aI1
aa(lp432
I0
aI1
aI2
aa(lp433
I0
aI1
aI2
aa(lp434
I0
aI2
aI1
aa(lp435
I0
aI2
aI1
aa(lp436
I0
aI1
aI2
aa(lp437
I0
aI1
aI2
aa(lp438
I0
aI2
aI1
aa(lp439
I0
aI2
aI1
aa(lp440
I0
aI1
aI2
aa(lp441
I0
aI2
aI1
aa(lp442
I0
aI2
aI1
aa(lp443
I2
aI0
aI1
aa(lp444
I0
aI2
aI1
aa(lp445
I2
aI0
aI1
aa(lp446
I0
aI1
aI2
aa(lp447
I0
aI2
aI1
aa(lp448
I0
aI1
aI2
aa(lp449
I0
aI2
aI1
aa(lp450
I0
aI2
aI1
aa(lp451
I0
aI2
aI1
aa(lp452
I2
aI0
aI1
aa(lp453
I0
aI2
aI1
aa(lp454
I0
aI2
aI1
aa(lp455
I0
aI2
aI1
aa(lp456
I0
aI2
aI1
aa(lp457
I0
aI2
aI1
aa(lp458
I0
aI2
aI1
aa(lp459
I1
aI0
aI2
aa(lp460
I2
aI1
aI0
aa(lp461
I0
aI1
aI2
aa(lp462
I1
aI0
aI2
aa(lp463
I0
aI1
aI2
aa(lp464
I0
aI1
aI2
aa(lp465
I0
aI1
aI2
aa(lp466
I0
aI1
aI2
aa(lp467
I0
aI2
aI1
aa(lp468
I0
aI2
aI1
aa(lp469
I0
aI2
aI1
aa(lp470
I0
aI2
aI1
aa(lp471
I0
aI2
aI1
aa(lp472
I1
aI0
aI2
aa(lp473
I0
aI2
aI1
aa(lp474
I1
aI2
aI0
aa(lp475
I0
aI2
aI1
aa(lp476
I1
aI0
aI2
aa(lp477
I0
aI1
aI2
aa(lp478
I0
aI2
aI1
aa(lp479
I0
aI2
aI1
aa(lp480
I0
aI2
aI1
aa(lp481
I0
aI2
aI1
aa(lp482
I0
aI1
aI2
aa(lp483
I0
aI1
aI2
aa(lp484
I0
aI1
aI2
aa(lp485
I0
aI1
aI2
aa(lp486
I1
aI2
aI0
aa(lp487
I1
aI0
aI2
aa(lp488
I0
aI1
aI2
aa(lp489
I0
aI1
aI2
aa(lp490
I0
aI1
aI2
aa(lp491
I0
aI2
aI1
aa(lp492
I1
aI0
aI2
aa(lp493
I0
aI2
aI1
aa(lp494
I0
aI2
aI1
aa(lp495
I0
aI2
aI1
aa(lp496
I0
aI2
aI1
aa(lp497
I0
aI2
aI1
aa(lp498
I0
aI1
aI2
aa(lp499
I0
aI1
aI2
aa(lp500
I0
aI2
aI1
aa(lp501
I0
aI2
aI1
aa(lp502
I0
aI1
aI2
aa(lp503
I0
aI2
aI1
aa(lp504
I0
aI2
aI1
aa(lp505
I0
aI1
aI2
aa(lp506
I0
aI2
aI1
aa(lp507
I2
aI0
aI1
aasS'RE-train-choices'
p508
(dp509
(I0
I1
tp510
g4
(g5
(I0
tp511
g7
tp512
Rp513
(I1
(I2
tp514
g14
I00
S'\x00\x00\x00\x00\x00\x00;@\x00\x00\x00\x00\x00\x80Z@'
p515
tp516
bs(I1
I2
tp517
g4
(g5
(I0
tp518
g7
tp519
Rp520
(I1
(I2
tp521
g14
I00
S'\x00\x00\x00\x00\x00\x00\x00@\x00\x00\x00\x00\x00\x00\x08@'
p522
tp523
bs(I0
tp524
g4
(g5
(I0
tp525
g7
tp526
Rp527
(I1
(I1
tp528
g14
I00
S'\x00\x00\x00\x00\x00\xf0q@'
p529
tp530
bs(I1
tp531
g4
(g5
(I0
tp532
g7
tp533
Rp534
(I1
(I1
tp535
g14
I00
S'\x00\x00\x00\x00\x00\x00>@'
p536
tp537
bs(I0
I1
I2
tp538
g4
(g5
(I0
tp539
g7
tp540
Rp541
(I1
(I3
tp542
g14
I00
S'\n\xd7\xa3p=\n\x14@\xb8\x1e\x85\xebQ k@\xb8\x1e\x85\xebQ\xa0`@'
p543
tp544
bs(I2
tp545
g4
(g5
(I0
tp546
g7
tp547
Rp548
(I1
(I1
tp549
g14
I00
S'\x00\x00\x00\x00\x00\x00C@'
p550
tp551
bs(I0
I2
tp552
g4
(g5
(I0
tp553
g7
tp554
Rp555
(I1
(I2
tp556
g14
I00
S'\x00\x00\x00\x00\x00\x00B@\x00\x00\x00\x00\x00\xa0f@'
p557
tp558
bssS'N'
p559
I3
s.