(dp0
S'train-choices'
p1
(dp2
(I1
I2
tp3
cnumpy.core.multiarray
_reconstruct
p4
(cnumpy
ndarray
p5
(I0
tp6
S'b'
p7
tp8
Rp9
(I1
(I2
tp10
cnumpy
dtype
p11
(S'f8'
p12
I0
I1
tp13
Rp14
(I3
S'<'
p15
NNNI-1
I-1
I0
tp16
bI00
S'\x00\x00\x00\x00\x00\xc0p@\x00\x00\x00\x00\x00\xc0Q@'
p17
tp18
bs(I0
I1
tp19
g4
(g5
(I0
tp20
g7
tp21
Rp22
(I1
(I2
tp23
g14
I00
S'\x00\x00\x00\x00\x00\x007@\x00\x00\x00\x00\x00\x00,@'
p24
tp25
bs(I0
tp26
g4
(g5
(I0
tp27
g7
tp28
Rp29
(I1
(I1
tp30
g14
I00
S'\x00\x00\x00\x00\x00\x80@@'
p31
tp32
bs(I1
tp33
g4
(g5
(I0
tp34
g7
tp35
Rp36
(I1
(I1
tp37
g14
I00
S'\x00\x00\x00\x00\x00\x80X@'
p38
tp39
bs(I0
I1
I2
tp40
g4
(g5
(I0
tp41
g7
tp42
Rp43
(I1
(I3
tp44
g14
I00
S'\x00\x00\x00\x00\x00\xb0q@\x00\x00\x00\x00\x00\x00Y@\x00\x00\x00\x00\x00\x00@@'
p45
tp46
bs(I2
tp47
g4
(g5
(I0
tp48
g7
tp49
Rp50
(I1
(I1
tp51
g14
I00
S'\x00\x00\x00\x00\x00\x90w@'
p52
tp53
bs(I3
tp54
g4
(g5
(I0
tp55
g7
tp56
Rp57
(I1
(I1
tp58
g14
I00
S'\x00\x00\x00\x00\x00\x002@'
p59
tp60
bs(I1
I2
I3
tp61
g4
(g5
(I0
tp62
g7
tp63
Rp64
(I1
(I3
tp65
g14
I00
S'\x00\x00\x00\x00\x00\x008@\x00\x00\x00\x00\x00\x00\x18@\x00\x00\x00\x00\x00\x00L@'
p66
tp67
bs(I0
I2
I3
tp68
g4
(g5
(I0
tp69
g7
tp70
Rp71
(I1
(I3
tp72
g14
I00
S'\x00\x00\x00\x00\x00\x00\x14@\x00\x00\x00\x00\x00\x00\xf0?\x00\x00\x00\x00\x00\x00 @'
p73
tp74
bs(I1
I3
tp75
g4
(g5
(I0
tp76
g7
tp77
Rp78
(I1
(I2
tp79
g14
I00
S'\x00\x00\x00\x00\x00\x00\x18@\x00\x00\x00\x00\x00\x00\x10@'
p80
tp81
bs(I2
I3
tp82
g4
(g5
(I0
tp83
g7
tp84
Rp85
(I1
(I2
tp86
g14
I00
S'\x00\x00\x00\x00\x00\x00"@\x00\x00\x00\x00\x00\x004@'
p87
tp88
bs(I0
I3
tp89
g4
(g5
(I0
tp90
g7
tp91
Rp92
(I1
(I2
tp93
g14
I00
S'\x00\x00\x00\x00\x00\x00\x08@\x00\x00\x00\x00\x00\x00\x00\x00'
p94
tp95
bs(I0
I1
I3
tp96
g4
(g5
(I0
tp97
g7
tp98
Rp99
(I1
(I3
tp100
g14
I00
S'\x00\x00\x00\x00\x00\x00\x10@\x00\x00\x00\x00\x00\x00\x00@\x00\x00\x00\x00\x00\x00\x14@'
p101
tp102
bs(I0
I2
tp103
g4
(g5
(I0
tp104
g7
tp105
Rp106
(I1
(I2
tp107
g14
I00
S'\x00\x00\x00\x00\x00@V@\x00\x00\x00\x00\x00\x003@'
p108
tp109
bs(I0
I1
I2
I3
tp110
g4
(g5
(I0
tp111
g7
tp112
Rp113
(I1
(I4
tp114
g14
I00
S'p=\n\xd7\xa3\x80U@\x85\xebQ\xb8\x1e\x05,@\x85\xebQ\xb8\x1e\x05&@\\\x8f\xc2\xf5(\xf0y@'
p115
tp116
bssS'train-lists'
p117
(lp118
(lp119
I3
aI0
aI1
aI2
aa(lp120
I3
aI0
aI1
aI2
aa(lp121
I3
aI0
aI1
aI2
aa(lp122
I3
aI0
aI1
aI2
aa(lp123
I3
aI0
aI1
aI2
aa(lp124
I3
aI0
aI1
aI2
aa(lp125
I3
aI0
aI1
aI2
aa(lp126
I3
aI0
aI1
aI2
aa(lp127
I3
aI0
aI1
aI2
aa(lp128
I3
aI0
aI1
aI2
aa(lp129
I3
aI0
aI1
aI2
aa(lp130
I3
aI0
aI1
aI2
aa(lp131
I3
aI0
aI1
aI2
aa(lp132
I3
aI0
aI1
aI2
aa(lp133
I3
aI0
aI1
aI2
aa(lp134
I3
aI0
aI1
aI2
aa(lp135
I3
aI0
aI1
aI2
aa(lp136
I3
aI0
aI1
aI2
aa(lp137
I3
aI0
aI1
aI2
aa(lp138
I3
aI0
aI1
aI2
aa(lp139
I3
aI0
aI1
aI2
aa(lp140
I3
aI0
aI1
aI2
aa(lp141
I3
aI0
aI1
aI2
aa(lp142
I3
aI0
aI1
aI2
aa(lp143
I3
aI0
aI1
aI2
aa(lp144
I3
aI0
aI1
aI2
aa(lp145
I3
aI0
aI1
aI2
aa(lp146
I3
aI0
aI1
aI2
aa(lp147
I3
aI0
aI1
aI2
aa(lp148
I3
aI0
aI1
aI2
aa(lp149
I3
aI0
aI1
aI2
aa(lp150
I3
aI0
aI1
aI2
aa(lp151
I3
aI0
aI1
aI2
aa(lp152
I3
aI0
aI1
aI2
aa(lp153
I3
aI0
aI1
aI2
aa(lp154
I3
aI0
aI1
aI2
aa(lp155
I3
aI0
aI1
aI2
aa(lp156
I3
aI0
aI1
aI2
aa(lp157
I3
aI0
aI1
aI2
aa(lp158
I3
aI0
aI1
aI2
aa(lp159
I3
aI0
aI1
aI2
aa(lp160
I3
aI0
aI1
aI2
aa(lp161
I3
aI0
aI1
aI2
aa(lp162
I3
aI0
aI1
aI2
aa(lp163
I3
aI0
aI1
aI2
aa(lp164
I3
aI0
aI1
aI2
aa(lp165
I3
aI0
aI1
aI2
aa(lp166
I3
aI0
aI1
aI2
aa(lp167
I3
aI0
aI1
aI2
aa(lp168
I3
aI0
aI1
aI2
aa(lp169
I3
aI0
aI1
aI2
aa(lp170
I3
aI0
aI1
aI2
aa(lp171
I3
aI0
aI1
aI2
aa(lp172
I3
aI0
aI1
aI2
aa(lp173
I3
aI0
aI1
aI2
aa(lp174
I3
aI0
aI1
aI2
aa(lp175
I3
aI0
aI1
aI2
aa(lp176
I3
aI0
aI1
aI2
aa(lp177
I3
aI0
aI1
aI2
aa(lp178
I3
aI0
aI1
aI2
aa(lp179
I3
aI0
aI1
aI2
aa(lp180
I3
aI0
aI1
aI2
aa(lp181
I3
aI0
aI1
aI2
aa(lp182
I3
aI0
aI1
aI2
aa(lp183
I3
aI0
aI1
aI2
aa(lp184
I3
aI0
aI1
aI2
aa(lp185
I3
aI0
aI1
aI2
aa(lp186
I3
aI0
aI1
aI2
aa(lp187
I3
aI0
aI1
aI2
aa(lp188
I3
aI0
aI1
aI2
aa(lp189
I3
aI0
aI1
aI2
aa(lp190
I3
aI0
aI1
aI2
aa(lp191
I3
aI0
aI1
aI2
aa(lp192
I3
aI0
aI1
aI2
aa(lp193
I3
aI0
aI1
aI2
aa(lp194
I3
aI0
aI1
aI2
aa(lp195
I3
aI0
aI1
aI2
aa(lp196
I3
aI0
aI1
aI2
aa(lp197
I3
aI0
aI1
aI2
aa(lp198
I3
aI0
aI1
aI2
aa(lp199
I3
aI0
aI1
aI2
aa(lp200
I3
aI0
aI1
aI2
aa(lp201
I3
aI0
aI1
aI2
aa(lp202
I3
aI0
aI1
aI2
aa(lp203
I3
aI0
aI1
aI2
aa(lp204
I3
aI0
aI1
aI2
aa(lp205
I3
aI0
aI1
aI2
aa(lp206
I3
aI0
aI1
aI2
aa(lp207
I3
aI0
aI1
aI2
aa(lp208
I3
aI0
aI1
aI2
aa(lp209
I3
aI0
aI1
aI2
aa(lp210
I3
aI0
aI1
aI2
aa(lp211
I3
aI0
aI1
aI2
aa(lp212
I3
aI0
aI1
aI2
aa(lp213
I3
aI0
aI1
aI2
aa(lp214
I3
aI0
aI1
aI2
aa(lp215
I3
aI0
aI1
aI2
aa(lp216
I3
aI0
aI1
aI2
aa(lp217
I3
aI0
aI1
aI2
aa(lp218
I3
aI0
aI1
aI2
aa(lp219
I3
aI0
aI1
aI2
aa(lp220
I3
aI0
aI1
aI2
aa(lp221
I3
aI0
aI1
aI2
aa(lp222
I3
aI0
aI1
aI2
aa(lp223
I3
aI0
aI1
aI2
aa(lp224
I3
aI0
aI1
aI2
aa(lp225
I3
aI0
aI1
aI2
aa(lp226
I3
aI0
aI1
aI2
aa(lp227
I3
aI0
aI1
aI2
aa(lp228
I3
aI0
aI1
aI2
aa(lp229
I3
aI0
aI1
aI2
aa(lp230
I3
aI0
aI1
aI2
aa(lp231
I3
aI0
aI1
aI2
aa(lp232
I3
aI0
aI1
aI2
aa(lp233
I3
aI0
aI1
aI2
aa(lp234
I3
aI0
aI1
aI2
aa(lp235
I3
aI0
aI1
aI2
aa(lp236
I3
aI0
aI1
aI2
aa(lp237
I3
aI0
aI1
aI2
aa(lp238
I3
aI0
aI1
aI2
aa(lp239
I3
aI0
aI1
aI2
aa(lp240
I3
aI0
aI1
aI2
aa(lp241
I3
aI0
aI1
aI2
aa(lp242
I3
aI0
aI1
aI2
aa(lp243
I3
aI0
aI1
aI2
aa(lp244
I3
aI0
aI1
aI2
aa(lp245
I3
aI0
aI1
aI2
aa(lp246
I3
aI0
aI1
aI2
aa(lp247
I3
aI0
aI1
aI2
aa(lp248
I3
aI0
aI1
aI2
aa(lp249
I3
aI0
aI1
aI2
aa(lp250
I3
aI0
aI1
aI2
aa(lp251
I3
aI0
aI1
aI2
aa(lp252
I3
aI0
aI1
aI2
aa(lp253
I3
aI0
aI1
aI2
aa(lp254
I3
aI0
aI1
aI2
aa(lp255
I3
aI0
aI1
aI2
aa(lp256
I3
aI0
aI1
aI2
aa(lp257
I3
aI0
aI1
aI2
aa(lp258
I3
aI0
aI1
aI2
aa(lp259
I3
aI0
aI1
aI2
aa(lp260
I3
aI0
aI1
aI2
aa(lp261
I3
aI0
aI1
aI2
aa(lp262
I3
aI0
aI1
aI2
aa(lp263
I3
aI0
aI1
aI2
aa(lp264
I3
aI0
aI1
aI2
aa(lp265
I3
aI0
aI1
aI2
aa(lp266
I3
aI0
aI1
aI2
aa(lp267
I3
aI0
aI1
aI2
aa(lp268
I3
aI0
aI1
aI2
aa(lp269
I3
aI0
aI1
aI2
aa(lp270
I3
aI0
aI1
aI2
aa(lp271
I3
aI0
aI1
aI2
aa(lp272
I3
aI0
aI1
aI2
aa(lp273
I3
aI0
aI1
aI2
aa(lp274
I3
aI0
aI1
aI2
aa(lp275
I3
aI0
aI1
aI2
aa(lp276
I3
aI0
aI1
aI2
aa(lp277
I3
aI0
aI1
aI2
aa(lp278
I3
aI0
aI1
aI2
aa(lp279
I3
aI0
aI1
aI2
aa(lp280
I3
aI0
aI1
aI2
aa(lp281
I3
aI0
aI1
aI2
aa(lp282
I3
aI0
aI1
aI2
aa(lp283
I3
aI0
aI1
aI2
aa(lp284
I3
aI0
aI1
aI2
aa(lp285
I3
aI0
aI1
aI2
aa(lp286
I3
aI0
aI1
aI2
aa(lp287
I3
aI0
aI1
aI2
aa(lp288
I3
aI0
aI1
aI2
aa(lp289
I3
aI0
aI1
aI2
aa(lp290
I3
aI0
aI1
aI2
aa(lp291
I3
aI0
aI1
aI2
aa(lp292
I3
aI0
aI1
aI2
aa(lp293
I3
aI0
aI1
aI2
aa(lp294
I3
aI0
aI1
aI2
aa(lp295
I3
aI0
aI1
aI2
aa(lp296
I3
aI0
aI1
aI2
aa(lp297
I3
aI0
aI1
aI2
aa(lp298
I3
aI0
aI1
aI2
aa(lp299
I3
aI0
aI1
aI2
aa(lp300
I3
aI0
aI1
aI2
aa(lp301
I3
aI0
aI1
aI2
aa(lp302
I3
aI0
aI1
aI2
aa(lp303
I3
aI0
aI1
aI2
aa(lp304
I3
aI0
aI1
aI2
aa(lp305
I3
aI0
aI1
aI2
aa(lp306
I3
aI0
aI1
aI2
aa(lp307
I3
aI0
aI1
aI2
aa(lp308
I3
aI0
aI1
aI2
aa(lp309
I3
aI0
aI1
aI2
aa(lp310
I3
aI0
aI1
aI2
aa(lp311
I3
aI0
aI1
aI2
aa(lp312
I3
aI0
aI1
aI2
aa(lp313
I3
aI0
aI1
aI2
aa(lp314
I3
aI0
aI1
aI2
aa(lp315
I3
aI0
aI1
aI2
aa(lp316
I3
aI0
aI1
aI2
aa(lp317
I3
aI0
aI1
aI2
aa(lp318
I3
aI0
aI1
aI2
aa(lp319
I3
aI0
aI1
aI2
aa(lp320
I3
aI0
aI1
aI2
aa(lp321
I3
aI0
aI1
aI2
aa(lp322
I3
aI0
aI1
aI2
aa(lp323
I3
aI0
aI1
aI2
aa(lp324
I3
aI0
aI1
aI2
aa(lp325
I3
aI0
aI1
aI2
aa(lp326
I3
aI0
aI1
aI2
aa(lp327
I3
aI0
aI1
aI2
aa(lp328
I3
aI0
aI1
aI2
aa(lp329
I3
aI0
aI1
aI2
aa(lp330
I3
aI0
aI1
aI2
aa(lp331
I3
aI0
aI1
aI2
aa(lp332
I3
aI0
aI1
aI2
aa(lp333
I3
aI0
aI1
aI2
aa(lp334
I3
aI0
aI1
aI2
aa(lp335
I3
aI0
aI1
aI2
aa(lp336
I3
aI0
aI1
aI2
aa(lp337
I3
aI0
aI1
aI2
aa(lp338
I3
aI0
aI1
aI2
aa(lp339
I3
aI0
aI1
aI2
aa(lp340
I3
aI0
aI1
aI2
aa(lp341
I3
aI0
aI1
aI2
aa(lp342
I3
aI0
aI1
aI2
aa(lp343
I3
aI1
aI0
aI2
aa(lp344
I3
aI1
aI0
aI2
aa(lp345
I3
aI1
aI0
aI2
aa(lp346
I3
aI1
aI0
aI2
aa(lp347
I3
aI1
aI0
aI2
aa(lp348
I3
aI1
aI0
aI2
aa(lp349
I3
aI1
aI0
aI2
aa(lp350
I3
aI1
aI0
aI2
aa(lp351
I3
aI1
aI0
aI2
aa(lp352
I3
aI1
aI0
aI2
aa(lp353
I3
aI1
aI0
aI2
aa(lp354
I3
aI1
aI0
aI2
aa(lp355
I3
aI1
aI0
aI2
aa(lp356
I3
aI1
aI0
aI2
aa(lp357
I3
aI1
aI0
aI2
aa(lp358
I3
aI1
aI0
aI2
aa(lp359
I3
aI1
aI0
aI2
aa(lp360
I3
aI1
aI0
aI2
aa(lp361
I3
aI1
aI0
aI2
aa(lp362
I3
aI1
aI0
aI2
aa(lp363
I3
aI1
aI0
aI2
aa(lp364
I3
aI1
aI0
aI2
aa(lp365
I3
aI1
aI0
aI2
aa(lp366
I3
aI1
aI0
aI2
aa(lp367
I3
aI1
aI0
aI2
aa(lp368
I3
aI1
aI0
aI2
aa(lp369
I3
aI1
aI0
aI2
aa(lp370
I3
aI1
aI0
aI2
aa(lp371
I3
aI1
aI0
aI2
aa(lp372
I3
aI1
aI0
aI2
aa(lp373
I3
aI1
aI0
aI2
aa(lp374
I3
aI1
aI0
aI2
aa(lp375
I3
aI1
aI0
aI2
aa(lp376
I3
aI1
aI0
aI2
aa(lp377
I3
aI1
aI0
aI2
aa(lp378
I3
aI1
aI0
aI2
aa(lp379
I3
aI1
aI0
aI2
aa(lp380
I3
aI1
aI0
aI2
aa(lp381
I3
aI1
aI0
aI2
aa(lp382
I3
aI1
aI0
aI2
aa(lp383
I3
aI1
aI0
aI2
aa(lp384
I3
aI1
aI0
aI2
aa(lp385
I3
aI1
aI0
aI2
aa(lp386
I3
aI1
aI0
aI2
aa(lp387
I3
aI1
aI0
aI2
aa(lp388
I3
aI1
aI0
aI2
aa(lp389
I3
aI1
aI0
aI2
aa(lp390
I3
aI1
aI0
aI2
aa(lp391
I3
aI1
aI0
aI2
aa(lp392
I3
aI1
aI0
aI2
aa(lp393
I3
aI1
aI0
aI2
aa(lp394
I3
aI1
aI0
aI2
aa(lp395
I3
aI1
aI0
aI2
aa(lp396
I3
aI1
aI0
aI2
aa(lp397
I3
aI1
aI0
aI2
aa(lp398
I3
aI1
aI0
aI2
aa(lp399
I3
aI1
aI0
aI2
aa(lp400
I3
aI1
aI0
aI2
aa(lp401
I3
aI1
aI0
aI2
aa(lp402
I3
aI1
aI0
aI2
aa(lp403
I3
aI1
aI0
aI2
aa(lp404
I3
aI1
aI0
aI2
aa(lp405
I3
aI1
aI0
aI2
aa(lp406
I3
aI1
aI0
aI2
aa(lp407
I3
aI1
aI0
aI2
aa(lp408
I3
aI1
aI0
aI2
aa(lp409
I3
aI1
aI0
aI2
aa(lp410
I3
aI1
aI0
aI2
aa(lp411
I3
aI1
aI0
aI2
aa(lp412
I3
aI1
aI0
aI2
aa(lp413
I3
aI1
aI0
aI2
aa(lp414
I3
aI1
aI0
aI2
aa(lp415
I3
aI1
aI0
aI2
aa(lp416
I3
aI1
aI0
aI2
aa(lp417
I3
aI1
aI0
aI2
aa(lp418
I3
aI1
aI0
aI2
aa(lp419
I3
aI1
aI0
aI2
aa(lp420
I3
aI1
aI0
aI2
aa(lp421
I3
aI1
aI0
aI2
aa(lp422
I3
aI1
aI0
aI2
aa(lp423
I3
aI1
aI0
aI2
aa(lp424
I3
aI1
aI0
aI2
aa(lp425
I3
aI0
aI2
aI1
aa(lp426
I3
aI0
aI2
aI1
aa(lp427
I3
aI0
aI2
aI1
aa(lp428
I3
aI0
aI2
aI1
aa(lp429
I3
aI0
aI2
aI1
aa(lp430
I3
aI0
aI2
aI1
aa(lp431
I3
aI0
aI2
aI1
aa(lp432
I3
aI0
aI2
aI1
aa(lp433
I3
aI0
aI2
aI1
aa(lp434
I3
aI0
aI2
aI1
aa(lp435
I3
aI0
aI2
aI1
aa(lp436
I3
aI0
aI2
aI1
aa(lp437
I3
aI0
aI2
aI1
aa(lp438
I3
aI0
aI2
aI1
aa(lp439
I3
aI0
aI2
aI1
aa(lp440
I3
aI0
aI2
aI1
aa(lp441
I3
aI0
aI2
aI1
aa(lp442
I3
aI0
aI2
aI1
aa(lp443
I3
aI0
aI2
aI1
aa(lp444
I3
aI0
aI2
aI1
aa(lp445
I3
aI0
aI2
aI1
aa(lp446
I3
aI0
aI2
aI1
aa(lp447
I3
aI0
aI2
aI1
aa(lp448
I3
aI0
aI2
aI1
aa(lp449
I3
aI0
aI2
aI1
aa(lp450
I3
aI0
aI2
aI1
aa(lp451
I3
aI0
aI2
aI1
aa(lp452
I3
aI0
aI2
aI1
aa(lp453
I3
aI0
aI2
aI1
aa(lp454
I3
aI0
aI2
aI1
aa(lp455
I3
aI0
aI2
aI1
aa(lp456
I3
aI0
aI2
aI1
aa(lp457
I3
aI0
aI2
aI1
aa(lp458
I3
aI0
aI2
aI1
aa(lp459
I3
aI0
aI2
aI1
aa(lp460
I3
aI0
aI2
aI1
aa(lp461
I3
aI0
aI2
aI1
aa(lp462
I3
aI0
aI2
aI1
aa(lp463
I3
aI0
aI2
aI1
aa(lp464
I3
aI0
aI2
aI1
aa(lp465
I3
aI0
aI2
aI1
aa(lp466
I3
aI0
aI2
aI1
aa(lp467
I3
aI0
aI2
aI1
aa(lp468
I3
aI0
aI2
aI1
aa(lp469
I3
aI0
aI2
aI1
aa(lp470
I3
aI0
aI2
aI1
aa(lp471
I3
aI0
aI2
aI1
aa(lp472
I3
aI0
aI2
aI1
aa(lp473
I3
aI0
aI2
aI1
aa(lp474
I3
aI0
aI2
aI1
aa(lp475
I3
aI0
aI2
aI1
aa(lp476
I3
aI0
aI2
aI1
aa(lp477
I3
aI0
aI2
aI1
aa(lp478
I3
aI0
aI2
aI1
aa(lp479
I3
aI0
aI2
aI1
aa(lp480
I3
aI0
aI2
aI1
aa(lp481
I3
aI0
aI2
aI1
aa(lp482
I3
aI0
aI2
aI1
aa(lp483
I3
aI0
aI2
aI1
aa(lp484
I0
aI3
aI1
aI2
aa(lp485
I0
aI3
aI1
aI2
aa(lp486
I0
aI3
aI1
aI2
aa(lp487
I0
aI3
aI1
aI2
aa(lp488
I0
aI3
aI1
aI2
aa(lp489
I0
aI3
aI1
aI2
aa(lp490
I0
aI3
aI1
aI2
aa(lp491
I0
aI3
aI1
aI2
aa(lp492
I0
aI3
aI1
aI2
aa(lp493
I0
aI3
aI1
aI2
aa(lp494
I0
aI3
aI1
aI2
aa(lp495
I0
aI3
aI1
aI2
aa(lp496
I0
aI3
aI1
aI2
aa(lp497
I0
aI3
aI1
aI2
aa(lp498
I0
aI3
aI1
aI2
aa(lp499
I0
aI3
aI1
aI2
aa(lp500
I0
aI3
aI1
aI2
aa(lp501
I0
aI3
aI1
aI2
aa(lp502
I0
aI3
aI1
aI2
aa(lp503
I0
aI3
aI1
aI2
aa(lp504
I0
aI3
aI1
aI2
aa(lp505
I0
aI3
aI1
aI2
aa(lp506
I0
aI3
aI1
aI2
aa(lp507
I0
aI3
aI1
aI2
aa(lp508
I0
aI3
aI1
aI2
aa(lp509
I0
aI3
aI1
aI2
aa(lp510
I0
aI3
aI1
aI2
aa(lp511
I0
aI3
aI1
aI2
aa(lp512
I0
aI3
aI1
aI2
aa(lp513
I0
aI3
aI1
aI2
aa(lp514
I0
aI3
aI1
aI2
aa(lp515
I0
aI3
aI1
aI2
aa(lp516
I0
aI3
aI1
aI2
aa(lp517
I0
aI3
aI1
aI2
aa(lp518
I0
aI3
aI1
aI2
aa(lp519
I0
aI3
aI1
aI2
aa(lp520
I0
aI3
aI1
aI2
aa(lp521
I0
aI3
aI1
aI2
aa(lp522
I0
aI3
aI1
aI2
aa(lp523
I0
aI3
aI1
aI2
aa(lp524
I0
aI3
aI1
aI2
aa(lp525
I0
aI3
aI1
aI2
aa(lp526
I0
aI3
aI1
aI2
aa(lp527
I0
aI3
aI1
aI2
aa(lp528
I3
aI2
aI0
aI1
aa(lp529
I3
aI2
aI0
aI1
aa(lp530
I3
aI2
aI0
aI1
aa(lp531
I3
aI2
aI0
aI1
aa(lp532
I3
aI2
aI0
aI1
aa(lp533
I3
aI2
aI0
aI1
aa(lp534
I3
aI2
aI0
aI1
aa(lp535
I3
aI2
aI0
aI1
aa(lp536
I3
aI2
aI0
aI1
aa(lp537
I3
aI2
aI0
aI1
aa(lp538
I3
aI2
aI0
aI1
aa(lp539
I3
aI2
aI0
aI1
aa(lp540
I3
aI2
aI0
aI1
aa(lp541
I3
aI2
aI0
aI1
aa(lp542
I3
aI2
aI0
aI1
aa(lp543
I3
aI2
aI0
aI1
aa(lp544
I3
aI2
aI0
aI1
aa(lp545
I3
aI2
aI0
aI1
aa(lp546
I3
aI1
aI2
aI0
aa(lp547
I3
aI1
aI2
aI0
aa(lp548
I3
aI1
aI2
aI0
aa(lp549
I3
aI1
aI2
aI0
aa(lp550
I3
aI1
aI2
aI0
aa(lp551
I3
aI1
aI2
aI0
aa(lp552
I3
aI1
aI2
aI0
aa(lp553
I3
aI1
aI2
aI0
aa(lp554
I3
aI1
aI2
aI0
aa(lp555
I3
aI1
aI2
aI0
aa(lp556
I3
aI1
aI2
aI0
aa(lp557
I3
aI1
aI2
aI0
aa(lp558
I3
aI1
aI2
aI0
aa(lp559
I3
aI1
aI2
aI0
aa(lp560
I3
aI1
aI2
aI0
aa(lp561
I3
aI1
aI2
aI0
aa(lp562
I3
aI1
aI2
aI0
aa(lp563
I3
aI1
aI2
aI0
aa(lp564
I0
aI3
aI2
aI1
aa(lp565
I0
aI3
aI2
aI1
aa(lp566
I0
aI3
aI2
aI1
aa(lp567
I0
aI3
aI2
aI1
aa(lp568
I0
aI3
aI2
aI1
aa(lp569
I0
aI3
aI2
aI1
aa(lp570
I0
aI3
aI2
aI1
aa(lp571
I0
aI3
aI2
aI1
aa(lp572
I0
aI3
aI2
aI1
aa(lp573
I0
aI3
aI2
aI1
aa(lp574
I0
aI3
aI2
aI1
aa(lp575
I0
aI3
aI2
aI1
aa(lp576
I3
aI2
aI1
aI0
aa(lp577
I3
aI2
aI1
aI0
aa(lp578
I3
aI2
aI1
aI0
aa(lp579
I3
aI2
aI1
aI0
aa(lp580
I3
aI2
aI1
aI0
aa(lp581
I3
aI2
aI1
aI0
aa(lp582
I3
aI2
aI1
aI0
aa(lp583
I3
aI2
aI1
aI0
aa(lp584
I3
aI2
aI1
aI0
aa(lp585
I3
aI2
aI1
aI0
aa(lp586
I3
aI2
aI1
aI0
aa(lp587
I3
aI2
aI1
aI0
aa(lp588
I3
aI2
aI1
aI0
aa(lp589
I3
aI2
aI1
aI0
aa(lp590
I0
aI1
aI3
aI2
aa(lp591
I0
aI1
aI3
aI2
aa(lp592
I0
aI1
aI3
aI2
aa(lp593
I0
aI1
aI3
aI2
aa(lp594
I0
aI1
aI3
aI2
aa(lp595
I0
aI1
aI3
aI2
aa(lp596
I0
aI1
aI3
aI2
aa(lp597
I0
aI1
aI3
aI2
aa(lp598
I0
aI1
aI3
aI2
aa(lp599
I0
aI1
aI3
aI2
aa(lp600
I0
aI1
aI3
aI2
aa(lp601
I0
aI1
aI3
aI2
aa(lp602
I0
aI1
aI3
aI2
aa(lp603
I0
aI1
aI3
aI2
aa(lp604
I0
aI1
aI3
aI2
aa(lp605
I0
aI1
aI3
aI2
aa(lp606
I0
aI1
aI2
aI3
aa(lp607
I0
aI1
aI2
aI3
aa(lp608
I0
aI1
aI2
aI3
aa(lp609
I0
aI1
aI2
aI3
aa(lp610
I0
aI1
aI2
aI3
aa(lp611
I0
aI1
aI2
aI3
aa(lp612
I0
aI1
aI2
aI3
aa(lp613
I0
aI1
aI2
aI3
aa(lp614
I1
aI3
aI0
aI2
aa(lp615
I1
aI3
aI0
aI2
aa(lp616
I1
aI3
aI0
aI2
aa(lp617
I1
aI3
aI0
aI2
aa(lp618
I1
aI3
aI0
aI2
aa(lp619
I1
aI3
aI0
aI2
aa(lp620
I1
aI3
aI0
aI2
aa(lp621
I2
aI3
aI0
aI1
aa(lp622
I2
aI3
aI0
aI1
aa(lp623
I2
aI3
aI0
aI1
aa(lp624
I2
aI3
aI0
aI1
aa(lp625
I2
aI3
aI0
aI1
aa(lp626
I0
aI2
aI1
aI3
aa(lp627
I0
aI2
aI1
aI3
aa(lp628
I0
aI2
aI1
aI3
aa(lp629
I0
aI2
aI1
aI3
aa(lp630
I1
aI0
aI3
aI2
aa(lp631
I1
aI0
aI3
aI2
aa(lp632
I1
aI0
aI3
aI2
aa(lp633
I1
aI0
aI3
aI2
aa(lp634
I0
aI2
aI3
aI1
aa(lp635
I0
aI2
aI3
aI1
aa(lp636
I2
aI0
aI3
aI1
aa(lp637
I2
aI0
aI3
aI1
aa(lp638
I2
aI0
aI1
aI3
aa(lp639
I2
aI0
aI1
aI3
aa(lp640
I2
aI1
aI0
aI3
aa(lp641
I2
aI1
aI0
aI3
aa(lp642
I1
aI3
aI2
aI0
aa(lp643
I1
aI0
aI2
aI3
aa(lp644
I1
aI2
aI0
aI3
aasS'test-lists'
p645
(lp646
(lp647
I3
aI0
aI1
aI2
aa(lp648
I3
aI0
aI1
aI2
aa(lp649
I0
aI3
aI1
aI2
aa(lp650
I0
aI3
aI2
aI1
aa(lp651
I3
aI0
aI1
aI2
aa(lp652
I3
aI0
aI1
aI2
aa(lp653
I0
aI1
aI2
aI3
aa(lp654
I0
aI3
aI2
aI1
aa(lp655
I3
aI1
aI0
aI2
aa(lp656
I3
aI1
aI0
aI2
aa(lp657
I0
aI3
aI1
aI2
aa(lp658
I3
aI1
aI0
aI2
aa(lp659
I0
aI3
aI1
aI2
aa(lp660
I3
aI1
aI0
aI2
aa(lp661
I3
aI0
aI1
aI2
aa(lp662
I3
aI0
aI1
aI2
aa(lp663
I3
aI0
aI1
aI2
aa(lp664
I3
aI0
aI1
aI2
aa(lp665
I3
aI1
aI0
aI2
aa(lp666
I0
aI3
aI2
aI1
aa(lp667
I3
aI1
aI0
aI2
aa(lp668
I0
aI2
aI3
aI1
aa(lp669
I3
aI0
aI1
aI2
aa(lp670
I3
aI2
aI1
aI0
aa(lp671
I3
aI2
aI1
aI0
aa(lp672
I3
aI0
aI1
aI2
aa(lp673
I3
aI1
aI0
aI2
aa(lp674
I3
aI2
aI0
aI1
aa(lp675
I0
aI3
aI1
aI2
aa(lp676
I3
aI0
aI1
aI2
aa(lp677
I0
aI3
aI1
aI2
aa(lp678
I3
aI0
aI2
aI1
aa(lp679
I3
aI1
aI0
aI2
aa(lp680
I3
aI0
aI2
aI1
aa(lp681
I3
aI0
aI2
aI1
aa(lp682
I3
aI0
aI1
aI2
aa(lp683
I0
aI3
aI1
aI2
aa(lp684
I3
aI0
aI1
aI2
aa(lp685
I0
aI3
aI1
aI2
aa(lp686
I3
aI0
aI1
aI2
aa(lp687
I3
aI0
aI1
aI2
aa(lp688
I0
aI3
aI1
aI2
aa(lp689
I3
aI0
aI1
aI2
aa(lp690
I0
aI3
aI1
aI2
aa(lp691
I3
aI0
aI1
aI2
aa(lp692
I3
aI2
aI0
aI1
aa(lp693
I3
aI1
aI0
aI2
aa(lp694
I0
aI3
aI2
aI1
aa(lp695
I3
aI0
aI1
aI2
aa(lp696
I3
aI2
aI1
aI0
aa(lp697
I0
aI3
aI1
aI2
aa(lp698
I3
aI1
aI0
aI2
aa(lp699
I3
aI0
aI1
aI2
aa(lp700
I3
aI1
aI0
aI2
aa(lp701
I3
aI0
aI1
aI2
aa(lp702
I3
aI0
aI1
aI2
aa(lp703
I3
aI0
aI2
aI1
aa(lp704
I3
aI0
aI1
aI2
aa(lp705
I2
aI3
aI1
aI0
aa(lp706
I3
aI0
aI2
aI1
aa(lp707
I3
aI0
aI1
aI2
aa(lp708
I0
aI3
aI1
aI2
aa(lp709
I3
aI0
aI1
aI2
aa(lp710
I3
aI0
aI1
aI2
aa(lp711
I3
aI0
aI1
aI2
aa(lp712
I3
aI0
aI2
aI1
aa(lp713
I3
aI0
aI1
aI2
aa(lp714
I0
aI3
aI1
aI2
aa(lp715
I3
aI1
aI0
aI2
aa(lp716
I0
aI3
aI2
aI1
aa(lp717
I3
aI1
aI0
aI2
aa(lp718
I3
aI1
aI0
aI2
aa(lp719
I3
aI1
aI0
aI2
aa(lp720
I3
aI2
aI0
aI1
aa(lp721
I3
aI0
aI1
aI2
aa(lp722
I3
aI0
aI1
aI2
aa(lp723
I3
aI2
aI0
aI1
aa(lp724
I0
aI3
aI1
aI2
aa(lp725
I3
aI0
aI1
aI2
aa(lp726
I3
aI1
aI0
aI2
aa(lp727
I3
aI1
aI0
aI2
aa(lp728
I3
aI0
aI1
aI2
aa(lp729
I3
aI0
aI2
aI1
aa(lp730
I3
aI1
aI0
aI2
aa(lp731
I3
aI0
aI1
aI2
aa(lp732
I3
aI0
aI1
aI2
aa(lp733
I3
aI0
aI1
aI2
aa(lp734
I3
aI0
aI1
aI2
aa(lp735
I3
aI0
aI1
aI2
aa(lp736
I3
aI1
aI0
aI2
aa(lp737
I3
aI0
aI1
aI2
aa(lp738
I3
aI0
aI1
aI2
aa(lp739
I0
aI3
aI1
aI2
aa(lp740
I3
aI0
aI1
aI2
aa(lp741
I0
aI3
aI2
aI1
aa(lp742
I0
aI3
aI1
aI2
aa(lp743
I3
aI1
aI0
aI2
aa(lp744
I0
aI3
aI1
aI2
aa(lp745
I3
aI1
aI0
aI2
aa(lp746
I3
aI0
aI1
aI2
aa(lp747
I3
aI0
aI1
aI2
aa(lp748
I3
aI0
aI1
aI2
aa(lp749
I3
aI0
aI2
aI1
aa(lp750
I0
aI3
aI1
aI2
aa(lp751
I3
aI2
aI0
aI1
aa(lp752
I3
aI0
aI2
aI1
aa(lp753
I3
aI0
aI1
aI2
aa(lp754
I3
aI0
aI1
aI2
aa(lp755
I3
aI0
aI1
aI2
aa(lp756
I3
aI1
aI2
aI0
aa(lp757
I3
aI0
aI1
aI2
aa(lp758
I0
aI3
aI1
aI2
aa(lp759
I3
aI0
aI2
aI1
aa(lp760
I0
aI3
aI1
aI2
aa(lp761
I0
aI1
aI3
aI2
aa(lp762
I3
aI0
aI1
aI2
aa(lp763
I3
aI1
aI0
aI2
aa(lp764
I3
aI0
aI1
aI2
aa(lp765
I3
aI0
aI1
aI2
aa(lp766
I3
aI0
aI1
aI2
aa(lp767
I3
aI0
aI2
aI1
aa(lp768
I3
aI1
aI0
aI2
aa(lp769
I3
aI0
aI1
aI2
aa(lp770
I3
aI1
aI0
aI2
aa(lp771
I3
aI1
aI0
aI2
aa(lp772
I3
aI0
aI1
aI2
aa(lp773
I3
aI0
aI1
aI2
aa(lp774
I3
aI0
aI1
aI2
aa(lp775
I0
aI2
aI1
aI3
aa(lp776
I3
aI0
aI2
aI1
aa(lp777
I3
aI0
aI1
aI2
aasS'RE-train-choices'
p778
(dp779
(I0
I1
tp780
g4
(g5
(I0
tp781
g7
tp782
Rp783
(I1
(I2
tp784
g14
I00
S'\x00\x00\x00\x00\x00\x00\x14@\x00\x00\x00\x00\x00\x008@'
p785
tp786
bs(I1
I2
tp787
g4
(g5
(I0
tp788
g7
tp789
Rp790
(I1
(I2
tp791
g14
I00
S'\x00\x00\x00\x00\x00\x00\x00@\x00\x00\x00\x00\x00\x00\xf0?'
p792
tp793
bs(I1
I3
tp794
g4
(g5
(I0
tp795
g7
tp796
Rp797
(I1
(I2
tp798
g14
I00
S'\x00\x00\x00\x00\x00\x00Y@\x00\x00\x00\x00\x00\x00 @'
p799
tp800
bs(I1
tp801
g4
(g5
(I0
tp802
g7
tp803
Rp804
(I1
(I1
tp805
g14
I00
S'\x00\x00\x00\x00\x00\x00,@'
p806
tp807
bs(I0
I2
I3
tp808
g4
(g5
(I0
tp809
g7
tp810
Rp811
(I1
(I3
tp812
g14
I00
S'\x00\x00\x00\x00\x00\x007@\x00\x00\x00\x00\x00\xc0Q@\x00\x00\x00\x00\x00\x00\x10@'
p813
tp814
bs(I2
tp815
g4
(g5
(I0
tp816
g7
tp817
Rp818
(I1
(I1
tp819
g14
I00
S'\x00\x00\x00\x00\x00\x00&@'
p820
tp821
bs(I3
tp822
g4
(g5
(I0
tp823
g7
tp824
Rp825
(I1
(I1
tp826
g14
I00
S'\x00\x00\x00\x00\x00\xf0y@'
p827
tp828
bs(I0
I1
I3
tp829
g4
(g5
(I0
tp830
g7
tp831
Rp832
(I1
(I3
tp833
g14
I00
S'\x00\x00\x00\x00\x00@V@\x00\x00\x00\x00\x00\xc0p@\x00\x00\x00\x00\x00\x004@'
p834
tp835
bs(I0
I1
I2
tp836
g4
(g5
(I0
tp837
g7
tp838
Rp839
(I1
(I3
tp840
g14
I00
S'\x00\x00\x00\x00\x00\x00\x08@\x00\x00\x00\x00\x00\x00\x18@\x00\x00\x00\x00\x00\x00"@'
p841
tp842
bs(I0
tp843
g4
(g5
(I0
tp844
g7
tp845
Rp846
(I1
(I1
tp847
g14
I00
S'\x00\x00\x00\x00\x00\x80U@'
p848
tp849
bs(I2
I3
tp850
g4
(g5
(I0
tp851
g7
tp852
Rp853
(I1
(I2
tp854
g14
I00
S'\x00\x00\x00\x00\x00\x00@@\x00\x00\x00\x00\x00\x00\x14@'
p855
tp856
bs(I0
I3
tp857
g4
(g5
(I0
tp858
g7
tp859
Rp860
(I1
(I2
tp861
g14
I00
S'\x00\x00\x00\x00\x00\xb0q@\x00\x00\x00\x00\x00\x00L@'
p862
tp863
bs(I1
I2
I3
tp864
g4
(g5
(I0
tp865
g7
tp866
Rp867
(I1
(I3
tp868
g14
I00
S'\x00\x00\x00\x00\x00\x00,@\x00\x00\x00\x00\x00\x003@\x00\x00\x00\x00\x00\x00\x00\x00'
p869
tp870
bs(I0
I2
tp871
g4
(g5
(I0
tp872
g7
tp873
Rp874
(I1
(I2
tp875
g14
I00
S'\x00\x00\x00\x00\x00\x00\x10@\x00\x00\x00\x00\x00\x00\x18@'
p876
tp877
bs(I0
I1
I2
I3
tp878
g4
(g5
(I0
tp879
g7
tp880
Rp881
(I1
(I4
tp882
g14
I00
S'\xe1z\x14\xaeG\x81@@p=\n\xd7\xa3\x80X@\\\x8f\xc2\xf5(\x90w@\xc2\xf5(\\\x8f\x022@'
p883
tp884
bssS'N'
p885
I4
s.