(dp0
S'train-choices'
p1
(dp2
(I1
I2
tp3
cnumpy.core.multiarray
_reconstruct
p4
(cnumpy
ndarray
p5
(I0
tp6
S'b'
p7
tp8
Rp9
(I1
(I2
tp10
cnumpy
dtype
p11
(S'f8'
p12
I0
I1
tp13
Rp14
(I3
S'<'
p15
NNNI-1
I-1
I0
tp16
bI00
S'\x00\x00\x00\x00\x00\x00`@\x00\x00\x00\x00\x00\x80J@'
p17
tp18
bs(I0
I1
tp19
g4
(g5
(I0
tp20
g7
tp21
Rp22
(I1
(I2
tp23
g14
I00
S'\x00\x00\x00\x00\x00\x00(@\x00\x00\x00\x00\x00\x80@@'
p24
tp25
bs(I0
tp26
g4
(g5
(I0
tp27
g7
tp28
Rp29
(I1
(I1
tp30
g14
I00
S'\x00\x00\x00\x00\x00\xc0]@'
p31
tp32
bs(I1
tp33
g4
(g5
(I0
tp34
g7
tp35
Rp36
(I1
(I1
tp37
g14
I00
S'\x00\x00\x00\x00\x00@P@'
p38
tp39
bs(I0
I1
I2
tp40
g4
(g5
(I0
tp41
g7
tp42
Rp43
(I1
(I3
tp44
g14
I00
S'\xb8\x1e\x85\xebQ\xa0f@\xb8\x1e\x85\xebQ l@\xe1z\x14\xaeG\x81F@'
p45
tp46
bs(I2
tp47
g4
(g5
(I0
tp48
g7
tp49
Rp50
(I1
(I1
tp51
g14
I00
S'\x00\x00\x00\x00\x00\xb0p@'
p52
tp53
bs(I0
I2
tp54
g4
(g5
(I0
tp55
g7
tp56
Rp57
(I1
(I2
tp58
g14
I00
S'\x00\x00\x00\x00\x00`a@\x00\x00\x00\x00\x00\x80U@'
p59
tp60
bssS'train-lists'
p61
(lp62
(lp63
I1
aI0
aI2
aa(lp64
I1
aI0
aI2
aa(lp65
I1
aI0
aI2
aa(lp66
I1
aI0
aI2
aa(lp67
I1
aI0
aI2
aa(lp68
I1
aI0
aI2
aa(lp69
I1
aI0
aI2
aa(lp70
I1
aI0
aI2
aa(lp71
I1
aI0
aI2
aa(lp72
I1
aI0
aI2
aa(lp73
I1
aI0
aI2
aa(lp74
I1
aI0
aI2
aa(lp75
I1
aI0
aI2
aa(lp76
I1
aI0
aI2
aa(lp77
I1
aI0
aI2
aa(lp78
I1
aI0
aI2
aa(lp79
I1
aI0
aI2
aa(lp80
I1
aI0
aI2
aa(lp81
I1
aI0
aI2
aa(lp82
I1
aI0
aI2
aa(lp83
I1
aI0
aI2
aa(lp84
I1
aI0
aI2
aa(lp85
I1
aI0
aI2
aa(lp86
I1
aI0
aI2
aa(lp87
I1
aI0
aI2
aa(lp88
I1
aI0
aI2
aa(lp89
I1
aI0
aI2
aa(lp90
I1
aI0
aI2
aa(lp91
I1
aI0
aI2
aa(lp92
I1
aI0
aI2
aa(lp93
I1
aI0
aI2
aa(lp94
I1
aI0
aI2
aa(lp95
I1
aI0
aI2
aa(lp96
I1
aI0
aI2
aa(lp97
I1
aI0
aI2
aa(lp98
I1
aI0
aI2
aa(lp99
I1
aI0
aI2
aa(lp100
I1
aI0
aI2
aa(lp101
I1
aI0
aI2
aa(lp102
I1
aI0
aI2
aa(lp103
I1
aI0
aI2
aa(lp104
I1
aI0
aI2
aa(lp105
I1
aI0
aI2
aa(lp106
I1
aI0
aI2
aa(lp107
I1
aI0
aI2
aa(lp108
I1
aI0
aI2
aa(lp109
I1
aI0
aI2
aa(lp110
I1
aI0
aI2
aa(lp111
I1
aI0
aI2
aa(lp112
I1
aI0
aI2
aa(lp113
I1
aI0
aI2
aa(lp114
I1
aI0
aI2
aa(lp115
I1
aI0
aI2
aa(lp116
I1
aI0
aI2
aa(lp117
I1
aI0
aI2
aa(lp118
I1
aI0
aI2
aa(lp119
I1
aI0
aI2
aa(lp120
I1
aI0
aI2
aa(lp121
I1
aI0
aI2
aa(lp122
I1
aI0
aI2
aa(lp123
I1
aI0
aI2
aa(lp124
I1
aI0
aI2
aa(lp125
I1
aI0
aI2
aa(lp126
I1
aI0
aI2
aa(lp127
I1
aI0
aI2
aa(lp128
I1
aI0
aI2
aa(lp129
I1
aI0
aI2
aa(lp130
I1
aI0
aI2
aa(lp131
I1
aI0
aI2
aa(lp132
I1
aI0
aI2
aa(lp133
I1
aI0
aI2
aa(lp134
I1
aI0
aI2
aa(lp135
I1
aI0
aI2
aa(lp136
I1
aI0
aI2
aa(lp137
I1
aI0
aI2
aa(lp138
I1
aI0
aI2
aa(lp139
I1
aI0
aI2
aa(lp140
I1
aI0
aI2
aa(lp141
I1
aI0
aI2
aa(lp142
I1
aI0
aI2
aa(lp143
I1
aI0
aI2
aa(lp144
I1
aI0
aI2
aa(lp145
I1
aI0
aI2
aa(lp146
I1
aI0
aI2
aa(lp147
I1
aI0
aI2
aa(lp148
I1
aI0
aI2
aa(lp149
I1
aI0
aI2
aa(lp150
I1
aI0
aI2
aa(lp151
I1
aI0
aI2
aa(lp152
I1
aI0
aI2
aa(lp153
I1
aI0
aI2
aa(lp154
I1
aI0
aI2
aa(lp155
I1
aI0
aI2
aa(lp156
I1
aI0
aI2
aa(lp157
I1
aI0
aI2
aa(lp158
I1
aI0
aI2
aa(lp159
I1
aI0
aI2
aa(lp160
I1
aI0
aI2
aa(lp161
I1
aI0
aI2
aa(lp162
I1
aI0
aI2
aa(lp163
I1
aI0
aI2
aa(lp164
I1
aI0
aI2
aa(lp165
I1
aI0
aI2
aa(lp166
I1
aI0
aI2
aa(lp167
I1
aI0
aI2
aa(lp168
I1
aI0
aI2
aa(lp169
I1
aI0
aI2
aa(lp170
I1
aI0
aI2
aa(lp171
I1
aI0
aI2
aa(lp172
I1
aI0
aI2
aa(lp173
I1
aI0
aI2
aa(lp174
I1
aI0
aI2
aa(lp175
I1
aI0
aI2
aa(lp176
I1
aI0
aI2
aa(lp177
I1
aI0
aI2
aa(lp178
I1
aI0
aI2
aa(lp179
I1
aI0
aI2
aa(lp180
I1
aI0
aI2
aa(lp181
I1
aI0
aI2
aa(lp182
I1
aI0
aI2
aa(lp183
I1
aI0
aI2
aa(lp184
I1
aI0
aI2
aa(lp185
I1
aI0
aI2
aa(lp186
I1
aI0
aI2
aa(lp187
I1
aI0
aI2
aa(lp188
I1
aI0
aI2
aa(lp189
I1
aI0
aI2
aa(lp190
I1
aI0
aI2
aa(lp191
I1
aI0
aI2
aa(lp192
I1
aI0
aI2
aa(lp193
I1
aI0
aI2
aa(lp194
I1
aI0
aI2
aa(lp195
I1
aI0
aI2
aa(lp196
I1
aI0
aI2
aa(lp197
I1
aI0
aI2
aa(lp198
I1
aI0
aI2
aa(lp199
I1
aI0
aI2
aa(lp200
I1
aI0
aI2
aa(lp201
I1
aI0
aI2
aa(lp202
I0
aI1
aI2
aa(lp203
I0
aI1
aI2
aa(lp204
I0
aI1
aI2
aa(lp205
I0
aI1
aI2
aa(lp206
I0
aI1
aI2
aa(lp207
I0
aI1
aI2
aa(lp208
I0
aI1
aI2
aa(lp209
I0
aI1
aI2
aa(lp210
I0
aI1
aI2
aa(lp211
I0
aI1
aI2
aa(lp212
I0
aI1
aI2
aa(lp213
I0
aI1
aI2
aa(lp214
I0
aI1
aI2
aa(lp215
I0
aI1
aI2
aa(lp216
I0
aI1
aI2
aa(lp217
I0
aI1
aI2
aa(lp218
I0
aI1
aI2
aa(lp219
I0
aI1
aI2
aa(lp220
I0
aI1
aI2
aa(lp221
I0
aI1
aI2
aa(lp222
I0
aI1
aI2
aa(lp223
I0
aI1
aI2
aa(lp224
I0
aI1
aI2
aa(lp225
I0
aI1
aI2
aa(lp226
I0
aI1
aI2
aa(lp227
I0
aI1
aI2
aa(lp228
I0
aI1
aI2
aa(lp229
I0
aI1
aI2
aa(lp230
I0
aI1
aI2
aa(lp231
I0
aI1
aI2
aa(lp232
I0
aI1
aI2
aa(lp233
I0
aI1
aI2
aa(lp234
I0
aI1
aI2
aa(lp235
I0
aI1
aI2
aa(lp236
I0
aI1
aI2
aa(lp237
I0
aI1
aI2
aa(lp238
I0
aI1
aI2
aa(lp239
I0
aI1
aI2
aa(lp240
I0
aI1
aI2
aa(lp241
I0
aI1
aI2
aa(lp242
I0
aI1
aI2
aa(lp243
I0
aI1
aI2
aa(lp244
I0
aI1
aI2
aa(lp245
I0
aI1
aI2
aa(lp246
I0
aI1
aI2
aa(lp247
I0
aI1
aI2
aa(lp248
I0
aI1
aI2
aa(lp249
I0
aI1
aI2
aa(lp250
I0
aI1
aI2
aa(lp251
I0
aI1
aI2
aa(lp252
I0
aI1
aI2
aa(lp253
I0
aI1
aI2
aa(lp254
I0
aI1
aI2
aa(lp255
I0
aI1
aI2
aa(lp256
I0
aI1
aI2
aa(lp257
I0
aI1
aI2
aa(lp258
I0
aI1
aI2
aa(lp259
I0
aI1
aI2
aa(lp260
I0
aI1
aI2
aa(lp261
I0
aI1
aI2
aa(lp262
I0
aI1
aI2
aa(lp263
I0
aI1
aI2
aa(lp264
I0
aI1
aI2
aa(lp265
I0
aI1
aI2
aa(lp266
I0
aI1
aI2
aa(lp267
I0
aI1
aI2
aa(lp268
I0
aI1
aI2
aa(lp269
I0
aI1
aI2
aa(lp270
I0
aI1
aI2
aa(lp271
I0
aI1
aI2
aa(lp272
I0
aI1
aI2
aa(lp273
I0
aI1
aI2
aa(lp274
I0
aI1
aI2
aa(lp275
I0
aI1
aI2
aa(lp276
I0
aI1
aI2
aa(lp277
I0
aI1
aI2
aa(lp278
I0
aI1
aI2
aa(lp279
I0
aI1
aI2
aa(lp280
I0
aI1
aI2
aa(lp281
I0
aI1
aI2
aa(lp282
I0
aI1
aI2
aa(lp283
I0
aI1
aI2
aa(lp284
I0
aI1
aI2
aa(lp285
I0
aI1
aI2
aa(lp286
I0
aI1
aI2
aa(lp287
I0
aI1
aI2
aa(lp288
I0
aI1
aI2
aa(lp289
I0
aI1
aI2
aa(lp290
I0
aI1
aI2
aa(lp291
I0
aI1
aI2
aa(lp292
I0
aI1
aI2
aa(lp293
I0
aI1
aI2
aa(lp294
I0
aI1
aI2
aa(lp295
I0
aI1
aI2
aa(lp296
I0
aI1
aI2
aa(lp297
I0
aI1
aI2
aa(lp298
I0
aI1
aI2
aa(lp299
I0
aI1
aI2
aa(lp300
I0
aI1
aI2
aa(lp301
I0
aI1
aI2
aa(lp302
I0
aI1
aI2
aa(lp303
I0
aI1
aI2
aa(lp304
I0
aI1
aI2
aa(lp305
I0
aI1
aI2
aa(lp306
I0
aI1
aI2
aa(lp307
I0
aI1
aI2
aa(lp308
I0
aI1
aI2
aa(lp309
I0
aI1
aI2
aa(lp310
I0
aI1
aI2
aa(lp311
I0
aI1
aI2
aa(lp312
I0
aI1
aI2
aa(lp313
I0
aI1
aI2
aa(lp314
I0
aI1
aI2
aa(lp315
I0
aI1
aI2
aa(lp316
I0
aI1
aI2
aa(lp317
I0
aI1
aI2
aa(lp318
I0
aI1
aI2
aa(lp319
I0
aI1
aI2
aa(lp320
I0
aI1
aI2
aa(lp321
I0
aI1
aI2
aa(lp322
I0
aI1
aI2
aa(lp323
I0
aI1
aI2
aa(lp324
I0
aI1
aI2
aa(lp325
I0
aI1
aI2
aa(lp326
I0
aI1
aI2
aa(lp327
I0
aI1
aI2
aa(lp328
I0
aI1
aI2
aa(lp329
I0
aI1
aI2
aa(lp330
I1
aI2
aI0
aa(lp331
I1
aI2
aI0
aa(lp332
I1
aI2
aI0
aa(lp333
I1
aI2
aI0
aa(lp334
I1
aI2
aI0
aa(lp335
I1
aI2
aI0
aa(lp336
I1
aI2
aI0
aa(lp337
I1
aI2
aI0
aa(lp338
I1
aI2
aI0
aa(lp339
I1
aI2
aI0
aa(lp340
I1
aI2
aI0
aa(lp341
I1
aI2
aI0
aa(lp342
I1
aI2
aI0
aa(lp343
I1
aI2
aI0
aa(lp344
I1
aI2
aI0
aa(lp345
I1
aI2
aI0
aa(lp346
I1
aI2
aI0
aa(lp347
I1
aI2
aI0
aa(lp348
I1
aI2
aI0
aa(lp349
I1
aI2
aI0
aa(lp350
I1
aI2
aI0
aa(lp351
I1
aI2
aI0
aa(lp352
I1
aI2
aI0
aa(lp353
I1
aI2
aI0
aa(lp354
I1
aI2
aI0
aa(lp355
I1
aI2
aI0
aa(lp356
I1
aI2
aI0
aa(lp357
I1
aI2
aI0
aa(lp358
I1
aI2
aI0
aa(lp359
I1
aI2
aI0
aa(lp360
I1
aI2
aI0
aa(lp361
I1
aI2
aI0
aa(lp362
I1
aI2
aI0
aa(lp363
I1
aI2
aI0
aa(lp364
I1
aI2
aI0
aa(lp365
I1
aI2
aI0
aa(lp366
I1
aI2
aI0
aa(lp367
I1
aI2
aI0
aa(lp368
I1
aI2
aI0
aa(lp369
I1
aI2
aI0
aa(lp370
I1
aI2
aI0
aa(lp371
I1
aI2
aI0
aa(lp372
I1
aI2
aI0
aa(lp373
I1
aI2
aI0
aa(lp374
I1
aI2
aI0
aa(lp375
I1
aI2
aI0
aa(lp376
I1
aI2
aI0
aa(lp377
I1
aI2
aI0
aa(lp378
I1
aI2
aI0
aa(lp379
I1
aI2
aI0
aa(lp380
I1
aI2
aI0
aa(lp381
I1
aI2
aI0
aa(lp382
I1
aI2
aI0
aa(lp383
I1
aI2
aI0
aa(lp384
I1
aI2
aI0
aa(lp385
I1
aI2
aI0
aa(lp386
I1
aI2
aI0
aa(lp387
I1
aI2
aI0
aa(lp388
I1
aI2
aI0
aa(lp389
I1
aI2
aI0
aa(lp390
I1
aI2
aI0
aa(lp391
I1
aI2
aI0
aa(lp392
I1
aI2
aI0
aa(lp393
I1
aI2
aI0
aa(lp394
I1
aI2
aI0
aa(lp395
I1
aI2
aI0
aa(lp396
I1
aI2
aI0
aa(lp397
I1
aI2
aI0
aa(lp398
I1
aI2
aI0
aa(lp399
I1
aI2
aI0
aa(lp400
I1
aI2
aI0
aa(lp401
I1
aI2
aI0
aa(lp402
I1
aI2
aI0
aa(lp403
I1
aI2
aI0
aa(lp404
I1
aI2
aI0
aa(lp405
I1
aI2
aI0
aa(lp406
I1
aI2
aI0
aa(lp407
I1
aI2
aI0
aa(lp408
I1
aI2
aI0
aa(lp409
I1
aI2
aI0
aa(lp410
I1
aI2
aI0
aa(lp411
I1
aI2
aI0
aa(lp412
I1
aI2
aI0
aa(lp413
I1
aI2
aI0
aa(lp414
I1
aI2
aI0
aa(lp415
I1
aI2
aI0
aa(lp416
I0
aI2
aI1
aa(lp417
I0
aI2
aI1
aa(lp418
I0
aI2
aI1
aa(lp419
I0
aI2
aI1
aa(lp420
I0
aI2
aI1
aa(lp421
I0
aI2
aI1
aa(lp422
I0
aI2
aI1
aa(lp423
I0
aI2
aI1
aa(lp424
I0
aI2
aI1
aa(lp425
I0
aI2
aI1
aa(lp426
I0
aI2
aI1
aa(lp427
I0
aI2
aI1
aa(lp428
I0
aI2
aI1
aa(lp429
I0
aI2
aI1
aa(lp430
I0
aI2
aI1
aa(lp431
I0
aI2
aI1
aa(lp432
I0
aI2
aI1
aa(lp433
I0
aI2
aI1
aa(lp434
I0
aI2
aI1
aa(lp435
I0
aI2
aI1
aa(lp436
I0
aI2
aI1
aa(lp437
I0
aI2
aI1
aa(lp438
I0
aI2
aI1
aa(lp439
I0
aI2
aI1
aa(lp440
I0
aI2
aI1
aa(lp441
I0
aI2
aI1
aa(lp442
I0
aI2
aI1
aa(lp443
I0
aI2
aI1
aa(lp444
I0
aI2
aI1
aa(lp445
I0
aI2
aI1
aa(lp446
I0
aI2
aI1
aa(lp447
I0
aI2
aI1
aa(lp448
I0
aI2
aI1
aa(lp449
I0
aI2
aI1
aa(lp450
I0
aI2
aI1
aa(lp451
I0
aI2
aI1
aa(lp452
I0
aI2
aI1
aa(lp453
I0
aI2
aI1
aa(lp454
I0
aI2
aI1
aa(lp455
I0
aI2
aI1
aa(lp456
I0
aI2
aI1
aa(lp457
I0
aI2
aI1
aa(lp458
I0
aI2
aI1
aa(lp459
I0
aI2
aI1
aa(lp460
I0
aI2
aI1
aa(lp461
I0
aI2
aI1
aa(lp462
I0
aI2
aI1
aa(lp463
I0
aI2
aI1
aa(lp464
I0
aI2
aI1
aa(lp465
I0
aI2
aI1
aa(lp466
I0
aI2
aI1
aa(lp467
I0
aI2
aI1
aa(lp468
I0
aI2
aI1
aa(lp469
I2
aI1
aI0
aa(lp470
I2
aI1
aI0
aa(lp471
I2
aI1
aI0
aa(lp472
I2
aI1
aI0
aa(lp473
I2
aI1
aI0
aa(lp474
I2
aI1
aI0
aa(lp475
I2
aI1
aI0
aa(lp476
I2
aI1
aI0
aa(lp477
I2
aI1
aI0
aa(lp478
I2
aI1
aI0
aa(lp479
I2
aI1
aI0
aa(lp480
I2
aI1
aI0
aa(lp481
I2
aI1
aI0
aa(lp482
I2
aI1
aI0
aa(lp483
I2
aI1
aI0
aa(lp484
I2
aI1
aI0
aa(lp485
I2
aI1
aI0
aa(lp486
I2
aI1
aI0
aa(lp487
I2
aI1
aI0
aa(lp488
I2
aI1
aI0
aa(lp489
I2
aI1
aI0
aa(lp490
I2
aI1
aI0
aa(lp491
I2
aI1
aI0
aa(lp492
I2
aI1
aI0
aa(lp493
I2
aI1
aI0
aa(lp494
I2
aI1
aI0
aa(lp495
I2
aI1
aI0
aa(lp496
I2
aI1
aI0
aa(lp497
I2
aI1
aI0
aa(lp498
I2
aI1
aI0
aa(lp499
I2
aI1
aI0
aa(lp500
I2
aI1
aI0
aa(lp501
I2
aI1
aI0
aa(lp502
I2
aI0
aI1
aa(lp503
I2
aI0
aI1
aa(lp504
I2
aI0
aI1
aa(lp505
I2
aI0
aI1
aa(lp506
I2
aI0
aI1
aa(lp507
I2
aI0
aI1
aa(lp508
I2
aI0
aI1
aa(lp509
I2
aI0
aI1
aa(lp510
I2
aI0
aI1
aa(lp511
I2
aI0
aI1
aa(lp512
I2
aI0
aI1
aa(lp513
I2
aI0
aI1
aasS'test-lists'
p514
(lp515
(lp516
I0
aI1
aI2
aa(lp517
I0
aI2
aI1
aa(lp518
I1
aI2
aI0
aa(lp519
I0
aI1
aI2
aa(lp520
I2
aI1
aI0
aa(lp521
I1
aI0
aI2
aa(lp522
I2
aI0
aI1
aa(lp523
I2
aI1
aI0
aa(lp524
I0
aI1
aI2
aa(lp525
I0
aI1
aI2
aa(lp526
I1
aI0
aI2
aa(lp527
I1
aI0
aI2
aa(lp528
I2
aI1
aI0
aa(lp529
I0
aI1
aI2
aa(lp530
I2
aI0
aI1
aa(lp531
I0
aI1
aI2
aa(lp532
I0
aI1
aI2
aa(lp533
I1
aI2
aI0
aa(lp534
I1
aI0
aI2
aa(lp535
I0
aI1
aI2
aa(lp536
I0
aI2
aI1
aa(lp537
I2
aI1
aI0
aa(lp538
I0
aI1
aI2
aa(lp539
I1
aI2
aI0
aa(lp540
I0
aI2
aI1
aa(lp541
I1
aI2
aI0
aa(lp542
I0
aI1
aI2
aa(lp543
I0
aI2
aI1
aa(lp544
I1
aI2
aI0
aa(lp545
I1
aI2
aI0
aa(lp546
I2
aI0
aI1
aa(lp547
I1
aI0
aI2
aa(lp548
I1
aI2
aI0
aa(lp549
I0
aI1
aI2
aa(lp550
I0
aI1
aI2
aa(lp551
I1
aI0
aI2
aa(lp552
I1
aI0
aI2
aa(lp553
I1
aI2
aI0
aa(lp554
I1
aI2
aI0
aa(lp555
I1
aI0
aI2
aa(lp556
I1
aI0
aI2
aa(lp557
I1
aI2
aI0
aa(lp558
I0
aI1
aI2
aa(lp559
I0
aI1
aI2
aa(lp560
I0
aI1
aI2
aa(lp561
I0
aI1
aI2
aa(lp562
I0
aI1
aI2
aa(lp563
I1
aI2
aI0
aa(lp564
I0
aI1
aI2
aa(lp565
I1
aI0
aI2
aa(lp566
I0
aI1
aI2
aa(lp567
I0
aI2
aI1
aa(lp568
I1
aI0
aI2
aa(lp569
I1
aI0
aI2
aa(lp570
I0
aI1
aI2
aa(lp571
I2
aI0
aI1
aa(lp572
I0
aI1
aI2
aa(lp573
I0
aI2
aI1
aa(lp574
I1
aI0
aI2
aa(lp575
I0
aI1
aI2
aa(lp576
I1
aI0
aI2
aa(lp577
I2
aI0
aI1
aa(lp578
I0
aI1
aI2
aa(lp579
I1
aI2
aI0
aa(lp580
I1
aI0
aI2
aa(lp581
I1
aI2
aI0
aa(lp582
I2
aI0
aI1
aa(lp583
I0
aI1
aI2
aa(lp584
I1
aI0
aI2
aa(lp585
I1
aI0
aI2
aa(lp586
I0
aI1
aI2
aa(lp587
I1
aI0
aI2
aa(lp588
I1
aI0
aI2
aa(lp589
I1
aI0
aI2
aa(lp590
I1
aI0
aI2
aa(lp591
I0
aI1
aI2
aa(lp592
I1
aI0
aI2
aa(lp593
I1
aI0
aI2
aa(lp594
I0
aI1
aI2
aa(lp595
I1
aI0
aI2
aa(lp596
I2
aI0
aI1
aa(lp597
I1
aI2
aI0
aa(lp598
I0
aI1
aI2
aa(lp599
I1
aI0
aI2
aa(lp600
I0
aI1
aI2
aa(lp601
I1
aI0
aI2
aa(lp602
I2
aI0
aI1
aa(lp603
I1
aI0
aI2
aa(lp604
I0
aI2
aI1
aa(lp605
I1
aI0
aI2
aa(lp606
I1
aI0
aI2
aa(lp607
I1
aI2
aI0
aa(lp608
I0
aI2
aI1
aa(lp609
I0
aI2
aI1
aa(lp610
I1
aI0
aI2
aa(lp611
I1
aI2
aI0
aa(lp612
I1
aI2
aI0
aa(lp613
I0
aI1
aI2
aa(lp614
I0
aI1
aI2
aa(lp615
I2
aI0
aI1
aa(lp616
I1
aI0
aI2
aa(lp617
I0
aI1
aI2
aa(lp618
I1
aI2
aI0
aa(lp619
I1
aI2
aI0
aa(lp620
I1
aI0
aI2
aa(lp621
I0
aI2
aI1
aa(lp622
I0
aI1
aI2
aa(lp623
I1
aI0
aI2
aa(lp624
I1
aI2
aI0
aa(lp625
I1
aI0
aI2
aa(lp626
I0
aI1
aI2
aa(lp627
I1
aI0
aI2
aasS'RE-train-choices'
p628
(dp629
(I0
I1
tp630
g4
(g5
(I0
tp631
g7
tp632
Rp633
(I1
(I2
tp634
g14
I00
S'\x00\x00\x00\x00\x00`a@\x00\x00\x00\x00\x00\x00`@'
p635
tp636
bs(I1
I2
tp637
g4
(g5
(I0
tp638
g7
tp639
Rp640
(I1
(I2
tp641
g14
I00
S'\x00\x00\x00\x00\x00\x80@@\x00\x00\x00\x00\x00\x80U@'
p642
tp643
bs(I0
tp644
g4
(g5
(I0
tp645
g7
tp646
Rp647
(I1
(I1
tp648
g14
I00
S'\x00\x00\x00\x00\x00\xa0f@'
p649
tp650
bs(I1
tp651
g4
(g5
(I0
tp652
g7
tp653
Rp654
(I1
(I1
tp655
g14
I00
S'\x00\x00\x00\x00\x00 l@'
p656
tp657
bs(I0
I1
I2
tp658
g4
(g5
(I0
tp659
g7
tp660
Rp661
(I1
(I3
tp662
g14
I00
S'p=\n\xd7\xa3\xc0]@p=\n\xd7\xa3@P@\\\x8f\xc2\xf5(\xb0p@'
p663
tp664
bs(I2
tp665
g4
(g5
(I0
tp666
g7
tp667
Rp668
(I1
(I1
tp669
g14
I00
S'\x00\x00\x00\x00\x00\x80F@'
p670
tp671
bs(I0
I2
tp672
g4
(g5
(I0
tp673
g7
tp674
Rp675
(I1
(I2
tp676
g14
I00
S'\x00\x00\x00\x00\x00\x00(@\x00\x00\x00\x00\x00\x80J@'
p677
tp678
bssS'N'
p679
I3
s.