(dp0
S'train-choices'
p1
(dp2
(I0
I1
tp3
cnumpy.core.multiarray
_reconstruct
p4
(cnumpy
ndarray
p5
(I0
tp6
S'b'
p7
tp8
Rp9
(I1
(I2
tp10
cnumpy
dtype
p11
(S'f8'
p12
I0
I1
tp13
Rp14
(I3
S'<'
p15
NNNI-1
I-1
I0
tp16
bI00
S'\x00\x00\x00\x00\x00\x00W@\x00\x00\x00\x00\x00\x00>@'
p17
tp18
bs(I1
I2
tp19
g4
(g5
(I0
tp20
g7
tp21
Rp22
(I1
(I2
tp23
g14
I00
S'\x00\x00\x00\x00\x00\x00\x1c@\x00\x00\x00\x00\x00\x001@'
p24
tp25
bs(I1
I3
tp26
g4
(g5
(I0
tp27
g7
tp28
Rp29
(I1
(I2
tp30
g14
I00
S'\x00\x00\x00\x00\x00\x00d@\x00\x00\x00\x00\x00\x80\\@'
p31
tp32
bs(I1
tp33
g4
(g5
(I0
tp34
g7
tp35
Rp36
(I1
(I1
tp37
g14
I00
S'\x00\x00\x00\x00\x00\xe0k@'
p38
tp39
bs(I0
I2
I3
tp40
g4
(g5
(I0
tp41
g7
tp42
Rp43
(I1
(I3
tp44
g14
I00
S'\x00\x00\x00\x00\x00\x002@\x00\x00\x00\x00\x00\x80@@\x00\x00\x00\x00\x00\x00\x1c@'
p45
tp46
bs(I2
tp47
g4
(g5
(I0
tp48
g7
tp49
Rp50
(I1
(I1
tp51
g14
I00
S'\x00\x00\x00\x00\x00\x007@'
p52
tp53
bs(I3
tp54
g4
(g5
(I0
tp55
g7
tp56
Rp57
(I1
(I1
tp58
g14
I00
S'\x00\x00\x00\x00\x00\x10s@'
p59
tp60
bs(I0
I1
I3
tp61
g4
(g5
(I0
tp62
g7
tp63
Rp64
(I1
(I3
tp65
g14
I00
S'\x00\x00\x00\x00\x00\xa0j@\x00\x00\x00\x00\x00\xe0a@\x00\x00\x00\x00\x00\x00X@'
p66
tp67
bs(I0
I1
I2
tp68
g4
(g5
(I0
tp69
g7
tp70
Rp71
(I1
(I3
tp72
g14
I00
S'\x00\x00\x00\x00\x00\x00*@\x00\x00\x00\x00\x00\x00\x1c@\x00\x00\x00\x00\x00\x00:@'
p73
tp74
bs(I0
tp75
g4
(g5
(I0
tp76
g7
tp77
Rp78
(I1
(I1
tp79
g14
I00
S'\x00\x00\x00\x00\x00\x00W@'
p80
tp81
bs(I2
I3
tp82
g4
(g5
(I0
tp83
g7
tp84
Rp85
(I1
(I2
tp86
g14
I00
S'\x00\x00\x00\x00\x00\x00:@\x00\x00\x00\x00\x00\x00\x1c@'
p87
tp88
bs(I0
I3
tp89
g4
(g5
(I0
tp90
g7
tp91
Rp92
(I1
(I2
tp93
g14
I00
S'\x00\x00\x00\x00\x00\xc0]@\x00\x00\x00\x00\x00\x80L@'
p94
tp95
bs(I1
I2
I3
tp96
g4
(g5
(I0
tp97
g7
tp98
Rp99
(I1
(I3
tp100
g14
I00
S'\x00\x00\x00\x00\x00\x00.@\x00\x00\x00\x00\x00\x80N@\x00\x00\x00\x00\x00\x00&@'
p101
tp102
bs(I0
I2
tp103
g4
(g5
(I0
tp104
g7
tp105
Rp106
(I1
(I2
tp107
g14
I00
S'\x00\x00\x00\x00\x00\x00"@\x00\x00\x00\x00\x00\x00\x14@'
p108
tp109
bs(I0
I1
I2
I3
tp110
g4
(g5
(I0
tp111
g7
tp112
Rp113
(I1
(I4
tp114
g14
I00
S'p=\n\xd7\xa3\xc0U@\xe1z\x14\xaeG\x01M@\\\x8f\xc2\xf5(@|@\xe1z\x14\xaeG\x01G@'
p115
tp116
bssS'train-lists'
p117
(lp118
(lp119
I2
aI0
aI1
aI3
aa(lp120
I2
aI0
aI1
aI3
aa(lp121
I2
aI0
aI1
aI3
aa(lp122
I2
aI0
aI1
aI3
aa(lp123
I2
aI0
aI1
aI3
aa(lp124
I2
aI0
aI1
aI3
aa(lp125
I2
aI0
aI1
aI3
aa(lp126
I2
aI0
aI1
aI3
aa(lp127
I2
aI0
aI1
aI3
aa(lp128
I2
aI0
aI1
aI3
aa(lp129
I2
aI0
aI1
aI3
aa(lp130
I2
aI0
aI1
aI3
aa(lp131
I2
aI0
aI1
aI3
aa(lp132
I2
aI0
aI1
aI3
aa(lp133
I2
aI0
aI1
aI3
aa(lp134
I2
aI0
aI1
aI3
aa(lp135
I2
aI0
aI1
aI3
aa(lp136
I2
aI0
aI1
aI3
aa(lp137
I2
aI0
aI1
aI3
aa(lp138
I2
aI0
aI1
aI3
aa(lp139
I2
aI0
aI1
aI3
aa(lp140
I2
aI0
aI1
aI3
aa(lp141
I2
aI0
aI1
aI3
aa(lp142
I2
aI0
aI1
aI3
aa(lp143
I2
aI0
aI1
aI3
aa(lp144
I2
aI0
aI1
aI3
aa(lp145
I2
aI0
aI1
aI3
aa(lp146
I2
aI0
aI1
aI3
aa(lp147
I2
aI0
aI1
aI3
aa(lp148
I2
aI0
aI1
aI3
aa(lp149
I2
aI0
aI1
aI3
aa(lp150
I2
aI0
aI1
aI3
aa(lp151
I2
aI0
aI1
aI3
aa(lp152
I2
aI0
aI1
aI3
aa(lp153
I2
aI0
aI1
aI3
aa(lp154
I2
aI0
aI1
aI3
aa(lp155
I2
aI0
aI1
aI3
aa(lp156
I2
aI0
aI1
aI3
aa(lp157
I2
aI0
aI1
aI3
aa(lp158
I2
aI0
aI1
aI3
aa(lp159
I2
aI0
aI1
aI3
aa(lp160
I2
aI0
aI1
aI3
aa(lp161
I2
aI0
aI1
aI3
aa(lp162
I2
aI0
aI1
aI3
aa(lp163
I2
aI0
aI1
aI3
aa(lp164
I2
aI0
aI1
aI3
aa(lp165
I2
aI0
aI1
aI3
aa(lp166
I2
aI0
aI1
aI3
aa(lp167
I2
aI0
aI1
aI3
aa(lp168
I2
aI0
aI1
aI3
aa(lp169
I2
aI0
aI1
aI3
aa(lp170
I2
aI0
aI1
aI3
aa(lp171
I2
aI0
aI1
aI3
aa(lp172
I2
aI0
aI1
aI3
aa(lp173
I2
aI0
aI1
aI3
aa(lp174
I2
aI0
aI1
aI3
aa(lp175
I2
aI0
aI1
aI3
aa(lp176
I2
aI0
aI1
aI3
aa(lp177
I2
aI0
aI1
aI3
aa(lp178
I2
aI0
aI1
aI3
aa(lp179
I2
aI0
aI1
aI3
aa(lp180
I2
aI0
aI1
aI3
aa(lp181
I2
aI0
aI1
aI3
aa(lp182
I2
aI0
aI1
aI3
aa(lp183
I2
aI0
aI1
aI3
aa(lp184
I2
aI0
aI1
aI3
aa(lp185
I2
aI0
aI1
aI3
aa(lp186
I2
aI0
aI1
aI3
aa(lp187
I2
aI0
aI1
aI3
aa(lp188
I2
aI0
aI1
aI3
aa(lp189
I2
aI0
aI1
aI3
aa(lp190
I2
aI0
aI1
aI3
aa(lp191
I2
aI0
aI1
aI3
aa(lp192
I2
aI0
aI1
aI3
aa(lp193
I2
aI0
aI1
aI3
aa(lp194
I2
aI0
aI1
aI3
aa(lp195
I2
aI0
aI1
aI3
aa(lp196
I2
aI0
aI1
aI3
aa(lp197
I2
aI0
aI1
aI3
aa(lp198
I2
aI0
aI1
aI3
aa(lp199
I2
aI0
aI1
aI3
aa(lp200
I2
aI0
aI1
aI3
aa(lp201
I2
aI0
aI1
aI3
aa(lp202
I2
aI0
aI1
aI3
aa(lp203
I2
aI0
aI1
aI3
aa(lp204
I2
aI0
aI1
aI3
aa(lp205
I2
aI0
aI1
aI3
aa(lp206
I2
aI0
aI1
aI3
aa(lp207
I2
aI0
aI1
aI3
aa(lp208
I2
aI0
aI1
aI3
aa(lp209
I2
aI0
aI1
aI3
aa(lp210
I2
aI0
aI1
aI3
aa(lp211
I2
aI0
aI1
aI3
aa(lp212
I2
aI0
aI1
aI3
aa(lp213
I2
aI0
aI1
aI3
aa(lp214
I2
aI0
aI1
aI3
aa(lp215
I2
aI0
aI1
aI3
aa(lp216
I2
aI0
aI1
aI3
aa(lp217
I2
aI0
aI1
aI3
aa(lp218
I2
aI0
aI1
aI3
aa(lp219
I2
aI0
aI1
aI3
aa(lp220
I2
aI0
aI1
aI3
aa(lp221
I2
aI0
aI1
aI3
aa(lp222
I2
aI0
aI1
aI3
aa(lp223
I2
aI0
aI1
aI3
aa(lp224
I2
aI0
aI1
aI3
aa(lp225
I2
aI0
aI1
aI3
aa(lp226
I2
aI0
aI1
aI3
aa(lp227
I2
aI0
aI1
aI3
aa(lp228
I2
aI0
aI1
aI3
aa(lp229
I2
aI0
aI1
aI3
aa(lp230
I2
aI0
aI1
aI3
aa(lp231
I2
aI0
aI1
aI3
aa(lp232
I2
aI0
aI1
aI3
aa(lp233
I2
aI0
aI1
aI3
aa(lp234
I2
aI0
aI1
aI3
aa(lp235
I2
aI0
aI1
aI3
aa(lp236
I2
aI0
aI1
aI3
aa(lp237
I2
aI0
aI1
aI3
aa(lp238
I2
aI0
aI1
aI3
aa(lp239
I2
aI0
aI1
aI3
aa(lp240
I2
aI0
aI1
aI3
aa(lp241
I2
aI0
aI1
aI3
aa(lp242
I2
aI0
aI1
aI3
aa(lp243
I2
aI0
aI1
aI3
aa(lp244
I2
aI0
aI1
aI3
aa(lp245
I2
aI1
aI0
aI3
aa(lp246
I2
aI1
aI0
aI3
aa(lp247
I2
aI1
aI0
aI3
aa(lp248
I2
aI1
aI0
aI3
aa(lp249
I2
aI1
aI0
aI3
aa(lp250
I2
aI1
aI0
aI3
aa(lp251
I2
aI1
aI0
aI3
aa(lp252
I2
aI1
aI0
aI3
aa(lp253
I2
aI1
aI0
aI3
aa(lp254
I2
aI1
aI0
aI3
aa(lp255
I2
aI1
aI0
aI3
aa(lp256
I2
aI1
aI0
aI3
aa(lp257
I2
aI1
aI0
aI3
aa(lp258
I2
aI1
aI0
aI3
aa(lp259
I2
aI1
aI0
aI3
aa(lp260
I2
aI1
aI0
aI3
aa(lp261
I2
aI1
aI0
aI3
aa(lp262
I2
aI1
aI0
aI3
aa(lp263
I2
aI1
aI0
aI3
aa(lp264
I2
aI1
aI0
aI3
aa(lp265
I2
aI1
aI0
aI3
aa(lp266
I2
aI1
aI0
aI3
aa(lp267
I2
aI1
aI0
aI3
aa(lp268
I2
aI1
aI0
aI3
aa(lp269
I2
aI1
aI0
aI3
aa(lp270
I2
aI1
aI0
aI3
aa(lp271
I2
aI1
aI0
aI3
aa(lp272
I2
aI1
aI0
aI3
aa(lp273
I2
aI1
aI0
aI3
aa(lp274
I2
aI1
aI0
aI3
aa(lp275
I2
aI1
aI0
aI3
aa(lp276
I2
aI1
aI0
aI3
aa(lp277
I2
aI1
aI0
aI3
aa(lp278
I2
aI1
aI0
aI3
aa(lp279
I2
aI1
aI0
aI3
aa(lp280
I2
aI1
aI0
aI3
aa(lp281
I2
aI1
aI0
aI3
aa(lp282
I2
aI1
aI0
aI3
aa(lp283
I2
aI1
aI0
aI3
aa(lp284
I2
aI1
aI0
aI3
aa(lp285
I2
aI1
aI0
aI3
aa(lp286
I2
aI1
aI0
aI3
aa(lp287
I2
aI1
aI0
aI3
aa(lp288
I2
aI1
aI0
aI3
aa(lp289
I2
aI1
aI0
aI3
aa(lp290
I2
aI1
aI0
aI3
aa(lp291
I2
aI1
aI0
aI3
aa(lp292
I2
aI1
aI0
aI3
aa(lp293
I2
aI1
aI0
aI3
aa(lp294
I2
aI1
aI0
aI3
aa(lp295
I2
aI1
aI0
aI3
aa(lp296
I2
aI1
aI0
aI3
aa(lp297
I2
aI1
aI0
aI3
aa(lp298
I2
aI1
aI0
aI3
aa(lp299
I2
aI1
aI0
aI3
aa(lp300
I2
aI1
aI0
aI3
aa(lp301
I2
aI1
aI0
aI3
aa(lp302
I2
aI1
aI0
aI3
aa(lp303
I2
aI1
aI0
aI3
aa(lp304
I2
aI1
aI0
aI3
aa(lp305
I2
aI1
aI0
aI3
aa(lp306
I2
aI1
aI0
aI3
aa(lp307
I2
aI1
aI0
aI3
aa(lp308
I2
aI1
aI0
aI3
aa(lp309
I2
aI1
aI0
aI3
aa(lp310
I2
aI1
aI0
aI3
aa(lp311
I2
aI1
aI0
aI3
aa(lp312
I2
aI1
aI0
aI3
aa(lp313
I2
aI1
aI0
aI3
aa(lp314
I2
aI1
aI0
aI3
aa(lp315
I2
aI1
aI0
aI3
aa(lp316
I2
aI1
aI0
aI3
aa(lp317
I2
aI1
aI0
aI3
aa(lp318
I2
aI1
aI0
aI3
aa(lp319
I2
aI1
aI0
aI3
aa(lp320
I2
aI1
aI0
aI3
aa(lp321
I2
aI1
aI0
aI3
aa(lp322
I2
aI1
aI0
aI3
aa(lp323
I2
aI1
aI0
aI3
aa(lp324
I2
aI1
aI0
aI3
aa(lp325
I2
aI1
aI0
aI3
aa(lp326
I2
aI1
aI0
aI3
aa(lp327
I2
aI1
aI0
aI3
aa(lp328
I2
aI1
aI0
aI3
aa(lp329
I2
aI1
aI0
aI3
aa(lp330
I2
aI1
aI0
aI3
aa(lp331
I2
aI1
aI0
aI3
aa(lp332
I2
aI1
aI0
aI3
aa(lp333
I2
aI1
aI0
aI3
aa(lp334
I2
aI1
aI0
aI3
aa(lp335
I2
aI1
aI0
aI3
aa(lp336
I2
aI1
aI0
aI3
aa(lp337
I2
aI1
aI0
aI3
aa(lp338
I2
aI1
aI0
aI3
aa(lp339
I2
aI1
aI0
aI3
aa(lp340
I2
aI1
aI0
aI3
aa(lp341
I2
aI1
aI0
aI3
aa(lp342
I2
aI1
aI0
aI3
aa(lp343
I2
aI1
aI0
aI3
aa(lp344
I2
aI0
aI3
aI1
aa(lp345
I2
aI0
aI3
aI1
aa(lp346
I2
aI0
aI3
aI1
aa(lp347
I2
aI0
aI3
aI1
aa(lp348
I2
aI0
aI3
aI1
aa(lp349
I2
aI0
aI3
aI1
aa(lp350
I2
aI0
aI3
aI1
aa(lp351
I2
aI0
aI3
aI1
aa(lp352
I2
aI0
aI3
aI1
aa(lp353
I2
aI0
aI3
aI1
aa(lp354
I2
aI0
aI3
aI1
aa(lp355
I2
aI0
aI3
aI1
aa(lp356
I2
aI0
aI3
aI1
aa(lp357
I2
aI0
aI3
aI1
aa(lp358
I2
aI0
aI3
aI1
aa(lp359
I2
aI0
aI3
aI1
aa(lp360
I2
aI0
aI3
aI1
aa(lp361
I2
aI0
aI3
aI1
aa(lp362
I2
aI0
aI3
aI1
aa(lp363
I2
aI0
aI3
aI1
aa(lp364
I2
aI0
aI3
aI1
aa(lp365
I2
aI0
aI3
aI1
aa(lp366
I2
aI0
aI3
aI1
aa(lp367
I2
aI0
aI3
aI1
aa(lp368
I2
aI0
aI3
aI1
aa(lp369
I2
aI0
aI3
aI1
aa(lp370
I2
aI0
aI3
aI1
aa(lp371
I2
aI0
aI3
aI1
aa(lp372
I2
aI0
aI3
aI1
aa(lp373
I2
aI0
aI3
aI1
aa(lp374
I2
aI0
aI3
aI1
aa(lp375
I2
aI0
aI3
aI1
aa(lp376
I2
aI0
aI3
aI1
aa(lp377
I2
aI0
aI3
aI1
aa(lp378
I2
aI0
aI3
aI1
aa(lp379
I2
aI0
aI3
aI1
aa(lp380
I2
aI0
aI3
aI1
aa(lp381
I2
aI0
aI3
aI1
aa(lp382
I2
aI0
aI3
aI1
aa(lp383
I2
aI0
aI3
aI1
aa(lp384
I2
aI0
aI3
aI1
aa(lp385
I2
aI0
aI3
aI1
aa(lp386
I2
aI0
aI3
aI1
aa(lp387
I2
aI0
aI3
aI1
aa(lp388
I2
aI0
aI3
aI1
aa(lp389
I2
aI0
aI3
aI1
aa(lp390
I2
aI0
aI3
aI1
aa(lp391
I2
aI0
aI3
aI1
aa(lp392
I2
aI0
aI3
aI1
aa(lp393
I2
aI0
aI3
aI1
aa(lp394
I2
aI0
aI3
aI1
aa(lp395
I2
aI0
aI3
aI1
aa(lp396
I2
aI0
aI3
aI1
aa(lp397
I2
aI0
aI3
aI1
aa(lp398
I2
aI0
aI3
aI1
aa(lp399
I2
aI0
aI3
aI1
aa(lp400
I2
aI0
aI3
aI1
aa(lp401
I2
aI0
aI3
aI1
aa(lp402
I2
aI0
aI3
aI1
aa(lp403
I2
aI0
aI3
aI1
aa(lp404
I2
aI0
aI3
aI1
aa(lp405
I2
aI0
aI3
aI1
aa(lp406
I2
aI0
aI3
aI1
aa(lp407
I2
aI0
aI3
aI1
aa(lp408
I2
aI0
aI3
aI1
aa(lp409
I2
aI0
aI3
aI1
aa(lp410
I2
aI0
aI3
aI1
aa(lp411
I2
aI0
aI3
aI1
aa(lp412
I2
aI0
aI3
aI1
aa(lp413
I2
aI0
aI3
aI1
aa(lp414
I2
aI0
aI3
aI1
aa(lp415
I2
aI0
aI3
aI1
aa(lp416
I2
aI0
aI3
aI1
aa(lp417
I2
aI0
aI3
aI1
aa(lp418
I2
aI0
aI3
aI1
aa(lp419
I2
aI0
aI3
aI1
aa(lp420
I2
aI0
aI3
aI1
aa(lp421
I2
aI0
aI3
aI1
aa(lp422
I2
aI0
aI3
aI1
aa(lp423
I2
aI0
aI3
aI1
aa(lp424
I2
aI0
aI3
aI1
aa(lp425
I2
aI0
aI3
aI1
aa(lp426
I2
aI0
aI3
aI1
aa(lp427
I2
aI0
aI3
aI1
aa(lp428
I2
aI0
aI3
aI1
aa(lp429
I2
aI0
aI3
aI1
aa(lp430
I2
aI0
aI3
aI1
aa(lp431
I2
aI3
aI0
aI1
aa(lp432
I2
aI3
aI0
aI1
aa(lp433
I2
aI3
aI0
aI1
aa(lp434
I2
aI3
aI0
aI1
aa(lp435
I2
aI3
aI0
aI1
aa(lp436
I2
aI3
aI0
aI1
aa(lp437
I2
aI3
aI0
aI1
aa(lp438
I2
aI3
aI0
aI1
aa(lp439
I2
aI3
aI0
aI1
aa(lp440
I2
aI3
aI0
aI1
aa(lp441
I2
aI3
aI0
aI1
aa(lp442
I2
aI3
aI0
aI1
aa(lp443
I2
aI3
aI0
aI1
aa(lp444
I2
aI3
aI0
aI1
aa(lp445
I2
aI3
aI0
aI1
aa(lp446
I2
aI3
aI0
aI1
aa(lp447
I2
aI3
aI0
aI1
aa(lp448
I2
aI3
aI0
aI1
aa(lp449
I2
aI3
aI0
aI1
aa(lp450
I2
aI3
aI0
aI1
aa(lp451
I2
aI3
aI0
aI1
aa(lp452
I2
aI3
aI0
aI1
aa(lp453
I2
aI3
aI0
aI1
aa(lp454
I2
aI3
aI0
aI1
aa(lp455
I2
aI3
aI0
aI1
aa(lp456
I2
aI3
aI0
aI1
aa(lp457
I2
aI3
aI0
aI1
aa(lp458
I2
aI3
aI0
aI1
aa(lp459
I2
aI3
aI0
aI1
aa(lp460
I2
aI3
aI0
aI1
aa(lp461
I2
aI3
aI0
aI1
aa(lp462
I2
aI3
aI0
aI1
aa(lp463
I2
aI3
aI0
aI1
aa(lp464
I2
aI3
aI0
aI1
aa(lp465
I2
aI3
aI0
aI1
aa(lp466
I2
aI3
aI0
aI1
aa(lp467
I2
aI3
aI0
aI1
aa(lp468
I2
aI3
aI0
aI1
aa(lp469
I2
aI3
aI0
aI1
aa(lp470
I2
aI3
aI0
aI1
aa(lp471
I2
aI3
aI0
aI1
aa(lp472
I2
aI3
aI0
aI1
aa(lp473
I2
aI3
aI0
aI1
aa(lp474
I2
aI3
aI0
aI1
aa(lp475
I2
aI3
aI0
aI1
aa(lp476
I2
aI3
aI0
aI1
aa(lp477
I2
aI3
aI0
aI1
aa(lp478
I2
aI3
aI0
aI1
aa(lp479
I2
aI3
aI0
aI1
aa(lp480
I2
aI3
aI0
aI1
aa(lp481
I2
aI3
aI0
aI1
aa(lp482
I2
aI3
aI0
aI1
aa(lp483
I2
aI3
aI0
aI1
aa(lp484
I2
aI3
aI0
aI1
aa(lp485
I2
aI3
aI0
aI1
aa(lp486
I2
aI3
aI0
aI1
aa(lp487
I2
aI3
aI0
aI1
aa(lp488
I2
aI3
aI0
aI1
aa(lp489
I2
aI3
aI0
aI1
aa(lp490
I2
aI3
aI0
aI1
aa(lp491
I2
aI3
aI0
aI1
aa(lp492
I2
aI3
aI0
aI1
aa(lp493
I2
aI3
aI0
aI1
aa(lp494
I2
aI3
aI0
aI1
aa(lp495
I2
aI3
aI0
aI1
aa(lp496
I2
aI3
aI0
aI1
aa(lp497
I2
aI3
aI0
aI1
aa(lp498
I2
aI3
aI0
aI1
aa(lp499
I2
aI3
aI0
aI1
aa(lp500
I2
aI3
aI0
aI1
aa(lp501
I2
aI3
aI0
aI1
aa(lp502
I2
aI3
aI0
aI1
aa(lp503
I2
aI3
aI0
aI1
aa(lp504
I2
aI3
aI0
aI1
aa(lp505
I2
aI1
aI3
aI0
aa(lp506
I2
aI1
aI3
aI0
aa(lp507
I2
aI1
aI3
aI0
aa(lp508
I2
aI1
aI3
aI0
aa(lp509
I2
aI1
aI3
aI0
aa(lp510
I2
aI1
aI3
aI0
aa(lp511
I2
aI1
aI3
aI0
aa(lp512
I2
aI1
aI3
aI0
aa(lp513
I2
aI1
aI3
aI0
aa(lp514
I2
aI1
aI3
aI0
aa(lp515
I2
aI1
aI3
aI0
aa(lp516
I2
aI1
aI3
aI0
aa(lp517
I2
aI1
aI3
aI0
aa(lp518
I2
aI1
aI3
aI0
aa(lp519
I2
aI1
aI3
aI0
aa(lp520
I2
aI1
aI3
aI0
aa(lp521
I2
aI1
aI3
aI0
aa(lp522
I2
aI1
aI3
aI0
aa(lp523
I2
aI1
aI3
aI0
aa(lp524
I2
aI1
aI3
aI0
aa(lp525
I2
aI1
aI3
aI0
aa(lp526
I2
aI1
aI3
aI0
aa(lp527
I2
aI1
aI3
aI0
aa(lp528
I2
aI1
aI3
aI0
aa(lp529
I2
aI1
aI3
aI0
aa(lp530
I2
aI1
aI3
aI0
aa(lp531
I2
aI1
aI3
aI0
aa(lp532
I2
aI1
aI3
aI0
aa(lp533
I2
aI1
aI3
aI0
aa(lp534
I2
aI1
aI3
aI0
aa(lp535
I2
aI1
aI3
aI0
aa(lp536
I2
aI1
aI3
aI0
aa(lp537
I2
aI1
aI3
aI0
aa(lp538
I2
aI1
aI3
aI0
aa(lp539
I2
aI1
aI3
aI0
aa(lp540
I2
aI1
aI3
aI0
aa(lp541
I2
aI1
aI3
aI0
aa(lp542
I2
aI1
aI3
aI0
aa(lp543
I2
aI1
aI3
aI0
aa(lp544
I2
aI1
aI3
aI0
aa(lp545
I2
aI1
aI3
aI0
aa(lp546
I2
aI1
aI3
aI0
aa(lp547
I2
aI1
aI3
aI0
aa(lp548
I2
aI1
aI3
aI0
aa(lp549
I0
aI2
aI1
aI3
aa(lp550
I0
aI2
aI1
aI3
aa(lp551
I0
aI2
aI1
aI3
aa(lp552
I0
aI2
aI1
aI3
aa(lp553
I0
aI2
aI1
aI3
aa(lp554
I0
aI2
aI1
aI3
aa(lp555
I0
aI2
aI1
aI3
aa(lp556
I0
aI2
aI1
aI3
aa(lp557
I0
aI2
aI1
aI3
aa(lp558
I0
aI2
aI1
aI3
aa(lp559
I0
aI2
aI1
aI3
aa(lp560
I0
aI2
aI1
aI3
aa(lp561
I0
aI2
aI1
aI3
aa(lp562
I0
aI2
aI1
aI3
aa(lp563
I0
aI2
aI1
aI3
aa(lp564
I0
aI2
aI1
aI3
aa(lp565
I0
aI2
aI1
aI3
aa(lp566
I0
aI2
aI1
aI3
aa(lp567
I0
aI2
aI1
aI3
aa(lp568
I0
aI2
aI1
aI3
aa(lp569
I0
aI2
aI1
aI3
aa(lp570
I0
aI2
aI1
aI3
aa(lp571
I0
aI2
aI1
aI3
aa(lp572
I0
aI2
aI1
aI3
aa(lp573
I0
aI2
aI1
aI3
aa(lp574
I0
aI2
aI1
aI3
aa(lp575
I0
aI2
aI1
aI3
aa(lp576
I0
aI2
aI1
aI3
aa(lp577
I0
aI2
aI1
aI3
aa(lp578
I0
aI2
aI1
aI3
aa(lp579
I0
aI2
aI1
aI3
aa(lp580
I0
aI2
aI1
aI3
aa(lp581
I0
aI2
aI1
aI3
aa(lp582
I0
aI2
aI1
aI3
aa(lp583
I2
aI3
aI1
aI0
aa(lp584
I2
aI3
aI1
aI0
aa(lp585
I2
aI3
aI1
aI0
aa(lp586
I2
aI3
aI1
aI0
aa(lp587
I2
aI3
aI1
aI0
aa(lp588
I2
aI3
aI1
aI0
aa(lp589
I2
aI3
aI1
aI0
aa(lp590
I2
aI3
aI1
aI0
aa(lp591
I2
aI3
aI1
aI0
aa(lp592
I2
aI3
aI1
aI0
aa(lp593
I2
aI3
aI1
aI0
aa(lp594
I2
aI3
aI1
aI0
aa(lp595
I2
aI3
aI1
aI0
aa(lp596
I2
aI3
aI1
aI0
aa(lp597
I2
aI3
aI1
aI0
aa(lp598
I2
aI3
aI1
aI0
aa(lp599
I2
aI3
aI1
aI0
aa(lp600
I2
aI3
aI1
aI0
aa(lp601
I2
aI3
aI1
aI0
aa(lp602
I2
aI3
aI1
aI0
aa(lp603
I2
aI3
aI1
aI0
aa(lp604
I2
aI3
aI1
aI0
aa(lp605
I0
aI2
aI3
aI1
aa(lp606
I0
aI2
aI3
aI1
aa(lp607
I0
aI2
aI3
aI1
aa(lp608
I0
aI2
aI3
aI1
aa(lp609
I0
aI2
aI3
aI1
aa(lp610
I0
aI2
aI3
aI1
aa(lp611
I0
aI2
aI3
aI1
aa(lp612
I0
aI2
aI3
aI1
aa(lp613
I0
aI2
aI3
aI1
aa(lp614
I0
aI2
aI3
aI1
aa(lp615
I0
aI2
aI3
aI1
aa(lp616
I0
aI2
aI3
aI1
aa(lp617
I0
aI2
aI3
aI1
aa(lp618
I0
aI2
aI3
aI1
aa(lp619
I0
aI2
aI3
aI1
aa(lp620
I0
aI2
aI3
aI1
aa(lp621
I0
aI2
aI3
aI1
aa(lp622
I0
aI2
aI3
aI1
aa(lp623
I0
aI2
aI3
aI1
aa(lp624
I0
aI2
aI3
aI1
aa(lp625
I0
aI2
aI3
aI1
aa(lp626
I0
aI2
aI3
aI1
aa(lp627
I0
aI2
aI3
aI1
aa(lp628
I0
aI2
aI3
aI1
aa(lp629
I0
aI2
aI3
aI1
aa(lp630
I0
aI2
aI3
aI1
aa(lp631
I0
aI2
aI3
aI1
aa(lp632
I1
aI2
aI0
aI3
aa(lp633
I1
aI2
aI0
aI3
aa(lp634
I1
aI2
aI0
aI3
aa(lp635
I1
aI2
aI0
aI3
aa(lp636
I1
aI2
aI0
aI3
aa(lp637
I1
aI2
aI0
aI3
aa(lp638
I1
aI2
aI0
aI3
aa(lp639
I1
aI2
aI0
aI3
aa(lp640
I1
aI2
aI0
aI3
aa(lp641
I1
aI2
aI0
aI3
aa(lp642
I1
aI2
aI0
aI3
aa(lp643
I1
aI2
aI0
aI3
aa(lp644
I1
aI2
aI0
aI3
aa(lp645
I1
aI2
aI0
aI3
aa(lp646
I1
aI2
aI0
aI3
aa(lp647
I1
aI2
aI0
aI3
aa(lp648
I1
aI2
aI0
aI3
aa(lp649
I1
aI2
aI0
aI3
aa(lp650
I1
aI2
aI0
aI3
aa(lp651
I1
aI2
aI0
aI3
aa(lp652
I3
aI2
aI0
aI1
aa(lp653
I3
aI2
aI0
aI1
aa(lp654
I3
aI2
aI0
aI1
aa(lp655
I3
aI2
aI0
aI1
aa(lp656
I3
aI2
aI0
aI1
aa(lp657
I3
aI2
aI0
aI1
aa(lp658
I3
aI2
aI0
aI1
aa(lp659
I3
aI2
aI0
aI1
aa(lp660
I3
aI2
aI0
aI1
aa(lp661
I3
aI2
aI0
aI1
aa(lp662
I3
aI2
aI0
aI1
aa(lp663
I3
aI2
aI0
aI1
aa(lp664
I3
aI2
aI0
aI1
aa(lp665
I3
aI2
aI0
aI1
aa(lp666
I3
aI2
aI0
aI1
aa(lp667
I3
aI2
aI0
aI1
aa(lp668
I3
aI2
aI0
aI1
aa(lp669
I3
aI2
aI0
aI1
aa(lp670
I0
aI1
aI2
aI3
aa(lp671
I0
aI1
aI2
aI3
aa(lp672
I0
aI1
aI2
aI3
aa(lp673
I0
aI1
aI2
aI3
aa(lp674
I0
aI1
aI2
aI3
aa(lp675
I0
aI1
aI2
aI3
aa(lp676
I0
aI1
aI2
aI3
aa(lp677
I0
aI1
aI2
aI3
aa(lp678
I0
aI1
aI2
aI3
aa(lp679
I0
aI1
aI2
aI3
aa(lp680
I0
aI1
aI2
aI3
aa(lp681
I0
aI1
aI2
aI3
aa(lp682
I0
aI1
aI2
aI3
aa(lp683
I0
aI1
aI2
aI3
aa(lp684
I3
aI0
aI2
aI1
aa(lp685
I3
aI0
aI2
aI1
aa(lp686
I3
aI0
aI2
aI1
aa(lp687
I3
aI0
aI2
aI1
aa(lp688
I3
aI0
aI2
aI1
aa(lp689
I3
aI0
aI2
aI1
aa(lp690
I3
aI0
aI2
aI1
aa(lp691
I3
aI0
aI2
aI1
aa(lp692
I3
aI0
aI2
aI1
aa(lp693
I3
aI0
aI2
aI1
aa(lp694
I1
aI0
aI2
aI3
aa(lp695
I1
aI0
aI2
aI3
aa(lp696
I1
aI0
aI2
aI3
aa(lp697
I1
aI0
aI2
aI3
aa(lp698
I1
aI0
aI2
aI3
aa(lp699
I1
aI0
aI2
aI3
aa(lp700
I1
aI0
aI2
aI3
aa(lp701
I1
aI0
aI2
aI3
aa(lp702
I1
aI0
aI2
aI3
aa(lp703
I1
aI0
aI2
aI3
aa(lp704
I1
aI0
aI2
aI3
aa(lp705
I1
aI0
aI2
aI3
aa(lp706
I1
aI2
aI3
aI0
aa(lp707
I1
aI2
aI3
aI0
aa(lp708
I1
aI2
aI3
aI0
aa(lp709
I1
aI2
aI3
aI0
aa(lp710
I1
aI2
aI3
aI0
aa(lp711
I1
aI2
aI3
aI0
aa(lp712
I1
aI2
aI3
aI0
aa(lp713
I1
aI2
aI3
aI0
aa(lp714
I1
aI2
aI3
aI0
aa(lp715
I1
aI2
aI3
aI0
aa(lp716
I1
aI2
aI3
aI0
aa(lp717
I1
aI2
aI3
aI0
aa(lp718
I1
aI2
aI3
aI0
aa(lp719
I0
aI3
aI2
aI1
aa(lp720
I0
aI3
aI2
aI1
aa(lp721
I0
aI3
aI2
aI1
aa(lp722
I0
aI3
aI2
aI1
aa(lp723
I0
aI3
aI2
aI1
aa(lp724
I0
aI3
aI2
aI1
aa(lp725
I0
aI3
aI2
aI1
aa(lp726
I3
aI2
aI1
aI0
aa(lp727
I3
aI2
aI1
aI0
aa(lp728
I3
aI2
aI1
aI0
aa(lp729
I3
aI2
aI1
aI0
aa(lp730
I3
aI2
aI1
aI0
aa(lp731
I3
aI2
aI1
aI0
aa(lp732
I3
aI2
aI1
aI0
aa(lp733
I3
aI2
aI1
aI0
aa(lp734
I1
aI0
aI3
aI2
aa(lp735
I1
aI0
aI3
aI2
aa(lp736
I1
aI0
aI3
aI2
aa(lp737
I1
aI0
aI3
aI2
aa(lp738
I1
aI0
aI3
aI2
aa(lp739
I1
aI0
aI3
aI2
aa(lp740
I1
aI3
aI0
aI2
aa(lp741
I1
aI3
aI0
aI2
aa(lp742
I1
aI3
aI0
aI2
aa(lp743
I1
aI3
aI0
aI2
aa(lp744
I3
aI1
aI0
aI2
aa(lp745
I3
aI1
aI0
aI2
aa(lp746
I3
aI1
aI0
aI2
aa(lp747
I3
aI1
aI0
aI2
aa(lp748
I3
aI1
aI0
aI2
aa(lp749
I0
aI1
aI3
aI2
aa(lp750
I0
aI3
aI1
aI2
aa(lp751
I0
aI3
aI1
aI2
aa(lp752
I0
aI3
aI1
aI2
aa(lp753
I0
aI3
aI1
aI2
aa(lp754
I3
aI0
aI1
aI2
aa(lp755
I3
aI0
aI1
aI2
aa(lp756
I3
aI0
aI1
aI2
aa(lp757
I1
aI3
aI2
aI0
aa(lp758
I1
aI3
aI2
aI0
aa(lp759
I1
aI3
aI2
aI0
aa(lp760
I3
aI1
aI2
aI0
aa(lp761
I3
aI1
aI2
aI0
aasS'test-lists'
p762
(lp763
(lp764
I2
aI0
aI1
aI3
aa(lp765
I2
aI0
aI1
aI3
aa(lp766
I0
aI1
aI3
aI2
aa(lp767
I2
aI0
aI3
aI1
aa(lp768
I2
aI0
aI1
aI3
aa(lp769
I2
aI1
aI0
aI3
aa(lp770
I2
aI0
aI1
aI3
aa(lp771
I2
aI0
aI1
aI3
aa(lp772
I2
aI3
aI0
aI1
aa(lp773
I2
aI0
aI3
aI1
aa(lp774
I2
aI0
aI1
aI3
aa(lp775
I1
aI2
aI0
aI3
aa(lp776
I2
aI0
aI3
aI1
aa(lp777
I2
aI0
aI3
aI1
aa(lp778
I2
aI0
aI1
aI3
aa(lp779
I2
aI0
aI3
aI1
aa(lp780
I1
aI3
aI0
aI2
aa(lp781
I0
aI2
aI3
aI1
aa(lp782
I2
aI0
aI3
aI1
aa(lp783
I2
aI3
aI1
aI0
aa(lp784
I2
aI1
aI0
aI3
aa(lp785
I2
aI0
aI1
aI3
aa(lp786
I2
aI0
aI1
aI3
aa(lp787
I2
aI1
aI3
aI0
aa(lp788
I2
aI0
aI3
aI1
aa(lp789
I1
aI2
aI0
aI3
aa(lp790
I1
aI2
aI0
aI3
aa(lp791
I2
aI3
aI0
aI1
aa(lp792
I2
aI1
aI0
aI3
aa(lp793
I2
aI0
aI3
aI1
aa(lp794
I2
aI0
aI3
aI1
aa(lp795
I2
aI0
aI1
aI3
aa(lp796
I2
aI3
aI0
aI1
aa(lp797
I2
aI3
aI0
aI1
aa(lp798
I2
aI3
aI1
aI0
aa(lp799
I2
aI0
aI1
aI3
aa(lp800
I0
aI2
aI3
aI1
aa(lp801
I2
aI3
aI1
aI0
aa(lp802
I1
aI0
aI3
aI2
aa(lp803
I2
aI0
aI3
aI1
aa(lp804
I2
aI0
aI3
aI1
aa(lp805
I1
aI0
aI3
aI2
aa(lp806
I2
aI0
aI3
aI1
aa(lp807
I2
aI1
aI3
aI0
aa(lp808
I0
aI1
aI3
aI2
aa(lp809
I0
aI2
aI1
aI3
aa(lp810
I0
aI1
aI2
aI3
aa(lp811
I0
aI2
aI1
aI3
aa(lp812
I3
aI2
aI0
aI1
aa(lp813
I3
aI0
aI1
aI2
aa(lp814
I2
aI1
aI3
aI0
aa(lp815
I2
aI0
aI1
aI3
aa(lp816
I2
aI3
aI1
aI0
aa(lp817
I2
aI1
aI3
aI0
aa(lp818
I2
aI0
aI1
aI3
aa(lp819
I2
aI0
aI3
aI1
aa(lp820
I2
aI0
aI3
aI1
aa(lp821
I2
aI0
aI1
aI3
aa(lp822
I2
aI0
aI1
aI3
aa(lp823
I2
aI0
aI1
aI3
aa(lp824
I2
aI1
aI0
aI3
aa(lp825
I2
aI1
aI0
aI3
aa(lp826
I2
aI1
aI3
aI0
aa(lp827
I2
aI0
aI1
aI3
aa(lp828
I3
aI2
aI0
aI1
aa(lp829
I3
aI2
aI0
aI1
aa(lp830
I2
aI0
aI3
aI1
aa(lp831
I0
aI2
aI1
aI3
aa(lp832
I2
aI3
aI1
aI0
aa(lp833
I2
aI1
aI0
aI3
aa(lp834
I2
aI3
aI1
aI0
aa(lp835
I2
aI1
aI3
aI0
aa(lp836
I2
aI0
aI3
aI1
aa(lp837
I2
aI1
aI0
aI3
aa(lp838
I2
aI3
aI1
aI0
aa(lp839
I2
aI3
aI0
aI1
aa(lp840
I1
aI2
aI0
aI3
aa(lp841
I2
aI0
aI3
aI1
aa(lp842
I0
aI2
aI1
aI3
aa(lp843
I3
aI2
aI0
aI1
aa(lp844
I3
aI0
aI2
aI1
aa(lp845
I2
aI0
aI1
aI3
aa(lp846
I0
aI2
aI1
aI3
aa(lp847
I3
aI0
aI2
aI1
aa(lp848
I0
aI3
aI2
aI1
aa(lp849
I0
aI2
aI1
aI3
aa(lp850
I2
aI3
aI1
aI0
aa(lp851
I0
aI2
aI3
aI1
aa(lp852
I2
aI3
aI0
aI1
aa(lp853
I2
aI1
aI0
aI3
aa(lp854
I2
aI1
aI0
aI3
aa(lp855
I2
aI0
aI3
aI1
aa(lp856
I0
aI2
aI1
aI3
aa(lp857
I3
aI0
aI2
aI1
aa(lp858
I2
aI1
aI0
aI3
aa(lp859
I2
aI1
aI0
aI3
aa(lp860
I3
aI2
aI0
aI1
aa(lp861
I0
aI3
aI2
aI1
aa(lp862
I2
aI1
aI0
aI3
aa(lp863
I1
aI0
aI2
aI3
aa(lp864
I0
aI2
aI3
aI1
aa(lp865
I2
aI1
aI0
aI3
aa(lp866
I2
aI3
aI0
aI1
aa(lp867
I0
aI2
aI3
aI1
aa(lp868
I2
aI1
aI0
aI3
aa(lp869
I2
aI0
aI1
aI3
aa(lp870
I3
aI2
aI0
aI1
aa(lp871
I2
aI3
aI0
aI1
aa(lp872
I2
aI1
aI0
aI3
aa(lp873
I2
aI0
aI3
aI1
aa(lp874
I2
aI1
aI0
aI3
aa(lp875
I2
aI0
aI3
aI1
aa(lp876
I2
aI1
aI0
aI3
aa(lp877
I2
aI1
aI0
aI3
aa(lp878
I2
aI1
aI0
aI3
aa(lp879
I2
aI1
aI0
aI3
aa(lp880
I2
aI1
aI0
aI3
aa(lp881
I2
aI0
aI3
aI1
aa(lp882
I2
aI3
aI0
aI1
aa(lp883
I1
aI2
aI0
aI3
aa(lp884
I2
aI3
aI0
aI1
aa(lp885
I2
aI1
aI3
aI0
aa(lp886
I2
aI3
aI0
aI1
aa(lp887
I2
aI3
aI0
aI1
aa(lp888
I2
aI0
aI3
aI1
aa(lp889
I2
aI1
aI0
aI3
aa(lp890
I2
aI3
aI1
aI0
aa(lp891
I2
aI1
aI0
aI3
aa(lp892
I0
aI1
aI2
aI3
aa(lp893
I2
aI3
aI0
aI1
aa(lp894
I2
aI0
aI1
aI3
aa(lp895
I3
aI2
aI1
aI0
aa(lp896
I1
aI3
aI0
aI2
aa(lp897
I2
aI3
aI0
aI1
aa(lp898
I3
aI0
aI2
aI1
aa(lp899
I2
aI0
aI3
aI1
aa(lp900
I2
aI1
aI0
aI3
aa(lp901
I2
aI0
aI1
aI3
aa(lp902
I2
aI1
aI0
aI3
aa(lp903
I0
aI2
aI3
aI1
aa(lp904
I3
aI2
aI0
aI1
aa(lp905
I1
aI0
aI2
aI3
aa(lp906
I1
aI2
aI0
aI3
aa(lp907
I2
aI1
aI0
aI3
aa(lp908
I2
aI1
aI0
aI3
aa(lp909
I0
aI1
aI3
aI2
aa(lp910
I0
aI2
aI1
aI3
aa(lp911
I2
aI0
aI1
aI3
aa(lp912
I2
aI3
aI1
aI0
aa(lp913
I2
aI3
aI0
aI1
aa(lp914
I1
aI2
aI0
aI3
aa(lp915
I0
aI2
aI1
aI3
aa(lp916
I2
aI3
aI1
aI0
aa(lp917
I2
aI0
aI3
aI1
aa(lp918
I0
aI1
aI3
aI2
aa(lp919
I2
aI1
aI0
aI3
aa(lp920
I2
aI0
aI1
aI3
aa(lp921
I2
aI0
aI1
aI3
aa(lp922
I2
aI3
aI0
aI1
aa(lp923
I0
aI1
aI2
aI3
aasS'RE-train-choices'
p924
(dp925
(I1
I2
tp926
g4
(g5
(I0
tp927
g7
tp928
Rp929
(I1
(I2
tp930
g14
I00
S'\x00\x00\x00\x00\x00\xe0a@\x00\x00\x00\x00\x00\x80@@'
p931
tp932
bs(I0
I1
tp933
g4
(g5
(I0
tp934
g7
tp935
Rp936
(I1
(I2
tp937
g14
I00
S'\x00\x00\x00\x00\x00\x002@\x00\x00\x00\x00\x00\x00.@'
p938
tp939
bs(I0
tp940
g4
(g5
(I0
tp941
g7
tp942
Rp943
(I1
(I1
tp944
g14
I00
S'\x00\x00\x00\x00\x00\xc0U@'
p945
tp946
bs(I1
tp947
g4
(g5
(I0
tp948
g7
tp949
Rp950
(I1
(I1
tp951
g14
I00
S'\x00\x00\x00\x00\x00\x00M@'
p952
tp953
bs(I0
I1
I2
tp954
g4
(g5
(I0
tp955
g7
tp956
Rp957
(I1
(I3
tp958
g14
I00
S'\x00\x00\x00\x00\x00\xc0]@\x00\x00\x00\x00\x00\x00d@\x00\x00\x00\x00\x00\x00:@'
p959
tp960
bs(I2
tp961
g4
(g5
(I0
tp962
g7
tp963
Rp964
(I1
(I1
tp965
g14
I00
S'\x00\x00\x00\x00\x00@|@'
p966
tp967
bs(I3
tp968
g4
(g5
(I0
tp969
g7
tp970
Rp971
(I1
(I1
tp972
g14
I00
S'\x00\x00\x00\x00\x00\x00G@'
p973
tp974
bs(I1
I2
I3
tp975
g4
(g5
(I0
tp976
g7
tp977
Rp978
(I1
(I3
tp979
g14
I00
S'\x00\x00\x00\x00\x00\x00>@\x00\x00\x00\x00\x00\x00\x14@\x00\x00\x00\x00\x00\x80L@'
p980
tp981
bs(I0
I2
I3
tp982
g4
(g5
(I0
tp983
g7
tp984
Rp985
(I1
(I3
tp986
g14
I00
S'\x00\x00\x00\x00\x00\x00W@\x00\x00\x00\x00\x00\x001@\x00\x00\x00\x00\x00\x80\\@'
p987
tp988
bs(I1
I3
tp989
g4
(g5
(I0
tp990
g7
tp991
Rp992
(I1
(I2
tp993
g14
I00
S'\x00\x00\x00\x00\x00\x00\x1c@\x00\x00\x00\x00\x00\x00\x1c@'
p994
tp995
bs(I2
I3
tp996
g4
(g5
(I0
tp997
g7
tp998
Rp999
(I1
(I2
tp1000
g14
I00
S'\x00\x00\x00\x00\x00\x00:@\x00\x00\x00\x00\x00\x00X@'
p1001
tp1002
bs(I0
I3
tp1003
g4
(g5
(I0
tp1004
g7
tp1005
Rp1006
(I1
(I2
tp1007
g14
I00
S'\x00\x00\x00\x00\x00\x00*@\x00\x00\x00\x00\x00\x00&@'
p1008
tp1009
bs(I0
I1
I3
tp1010
g4
(g5
(I0
tp1011
g7
tp1012
Rp1013
(I1
(I3
tp1014
g14
I00
S'\x00\x00\x00\x00\x00\x00"@\x00\x00\x00\x00\x00\x00\x1c@\x00\x00\x00\x00\x00\x00\x1c@'
p1015
tp1016
bs(I0
I2
tp1017
g4
(g5
(I0
tp1018
g7
tp1019
Rp1020
(I1
(I2
tp1021
g14
I00
S'\x00\x00\x00\x00\x00\xa0j@\x00\x00\x00\x00\x00\x80N@'
p1022
tp1023
bs(I0
I1
I2
I3
tp1024
g4
(g5
(I0
tp1025
g7
tp1026
Rp1027
(I1
(I4
tp1028
g14
I00
S'p=\n\xd7\xa3\x00W@\xb8\x1e\x85\xebQ\xe0k@\xc2\xf5(\\\x8f\x027@\\\x8f\xc2\xf5(\x10s@'
p1029
tp1030
bssS'N'
p1031
I4
s.