(dp0
S'train-choices'
p1
(dp2
(I1
I2
tp3
cnumpy.core.multiarray
_reconstruct
p4
(cnumpy
ndarray
p5
(I0
tp6
S'b'
p7
tp8
Rp9
(I1
(I2
tp10
cnumpy
dtype
p11
(S'f8'
p12
I0
I1
tp13
Rp14
(I3
S'<'
p15
NNNI-1
I-1
I0
tp16
bI00
S'\x00\x00\x00\x00\x00\x00E@\x00\x00\x00\x00\x00\x80Y@'
p17
tp18
bs(I0
I1
tp19
g4
(g5
(I0
tp20
g7
tp21
Rp22
(I1
(I2
tp23
g14
I00
S'\x00\x00\x00\x00\x00\x00>@\x00\x00\x00\x00\x00\x00\x08@'
p24
tp25
bs(I0
tp26
g4
(g5
(I0
tp27
g7
tp28
Rp29
(I1
(I1
tp30
g14
I00
S'\x00\x00\x00\x00\x00\xc0S@'
p31
tp32
bs(I1
tp33
g4
(g5
(I0
tp34
g7
tp35
Rp36
(I1
(I1
tp37
g14
I00
S'\x00\x00\x00\x00\x00\x80b@'
p38
tp39
bs(I0
I1
I2
tp40
g4
(g5
(I0
tp41
g7
tp42
Rp43
(I1
(I3
tp44
g14
I00
S'\x00\x00\x00\x00\x00\x00X@\x00\x00\x00\x00\x00\x00N@\x00\x00\x00\x00\x00\x007@'
p45
tp46
bs(I2
tp47
g4
(g5
(I0
tp48
g7
tp49
Rp50
(I1
(I1
tp51
g14
I00
S'\x00\x00\x00\x00\x00\x00^@'
p52
tp53
bs(I3
tp54
g4
(g5
(I0
tp55
g7
tp56
Rp57
(I1
(I1
tp58
g14
I00
S'\x00\x00\x00\x00\x00\x00$@'
p59
tp60
bs(I1
I2
I3
tp61
g4
(g5
(I0
tp62
g7
tp63
Rp64
(I1
(I3
tp65
g14
I00
S'\x00\x00\x00\x00\x00\x00(@\x00\x00\x00\x00\x00\x00*@\x00\x00\x00\x00\x00\x00H@'
p66
tp67
bs(I0
I2
I3
tp68
g4
(g5
(I0
tp69
g7
tp70
Rp71
(I1
(I3
tp72
g14
I00
S'\x00\x00\x00\x00\x00\x00(@\x00\x00\x00\x00\x00\x00"@\x00\x00\x00\x00\x00@Q@'
p73
tp74
bs(I1
I3
tp75
g4
(g5
(I0
tp76
g7
tp77
Rp78
(I1
(I2
tp79
g14
I00
S'\x00\x00\x00\x00\x00\x00\x00\x00\x00\x00\x00\x00\x00\x000@'
p80
tp81
bs(I2
I3
tp82
g4
(g5
(I0
tp83
g7
tp84
Rp85
(I1
(I2
tp86
g14
I00
S'\x00\x00\x00\x00\x00\x00 @\x00\x00\x00\x00\x00\x000@'
p87
tp88
bs(I0
I3
tp89
g4
(g5
(I0
tp90
g7
tp91
Rp92
(I1
(I2
tp93
g14
I00
S'\x00\x00\x00\x00\x00\x00\x00@\x00\x00\x00\x00\x00\x00"@'
p94
tp95
bs(I0
I1
I3
tp96
g4
(g5
(I0
tp97
g7
tp98
Rp99
(I1
(I3
tp100
g14
I00
S'\x00\x00\x00\x00\x00\x00\x08@\x00\x00\x00\x00\x00\x00\x00@\x00\x00\x00\x00\x00\x00$@'
p101
tp102
bs(I0
I2
tp103
g4
(g5
(I0
tp104
g7
tp105
Rp106
(I1
(I2
tp107
g14
I00
S'\x00\x00\x00\x00\x00\x00O@\x00\x00\x00\x00\x00\xc0P@'
p108
tp109
bs(I0
I1
I2
I3
tp110
g4
(g5
(I0
tp111
g7
tp112
Rp113
(I1
(I4
tp114
g14
I00
S'p=\n\xd7\xa3@R@p=\n\xd7\xa3\x80V@\x85\xebQ\xb8\x1e\x05.@\xb8\x1e\x85\xebQ`f@'
p115
tp116
bssS'train-lists'
p117
(lp118
(lp119
I3
aI0
aI2
aI1
aa(lp120
I3
aI0
aI2
aI1
aa(lp121
I3
aI0
aI2
aI1
aa(lp122
I3
aI0
aI2
aI1
aa(lp123
I3
aI0
aI2
aI1
aa(lp124
I3
aI0
aI2
aI1
aa(lp125
I3
aI0
aI2
aI1
aa(lp126
I3
aI0
aI2
aI1
aa(lp127
I3
aI0
aI2
aI1
aa(lp128
I3
aI0
aI2
aI1
aa(lp129
I3
aI0
aI2
aI1
aa(lp130
I3
aI0
aI2
aI1
aa(lp131
I3
aI0
aI2
aI1
aa(lp132
I3
aI0
aI2
aI1
aa(lp133
I3
aI0
aI2
aI1
aa(lp134
I3
aI0
aI2
aI1
aa(lp135
I3
aI0
aI2
aI1
aa(lp136
I3
aI0
aI2
aI1
aa(lp137
I3
aI0
aI2
aI1
aa(lp138
I3
aI0
aI2
aI1
aa(lp139
I3
aI0
aI2
aI1
aa(lp140
I3
aI0
aI2
aI1
aa(lp141
I3
aI0
aI2
aI1
aa(lp142
I3
aI0
aI2
aI1
aa(lp143
I3
aI0
aI2
aI1
aa(lp144
I3
aI0
aI2
aI1
aa(lp145
I3
aI0
aI2
aI1
aa(lp146
I3
aI0
aI2
aI1
aa(lp147
I3
aI0
aI2
aI1
aa(lp148
I3
aI0
aI2
aI1
aa(lp149
I3
aI0
aI2
aI1
aa(lp150
I3
aI0
aI2
aI1
aa(lp151
I3
aI0
aI2
aI1
aa(lp152
I3
aI0
aI2
aI1
aa(lp153
I3
aI0
aI2
aI1
aa(lp154
I3
aI0
aI2
aI1
aa(lp155
I3
aI0
aI2
aI1
aa(lp156
I3
aI0
aI2
aI1
aa(lp157
I3
aI0
aI2
aI1
aa(lp158
I3
aI0
aI2
aI1
aa(lp159
I3
aI0
aI2
aI1
aa(lp160
I3
aI0
aI2
aI1
aa(lp161
I3
aI0
aI2
aI1
aa(lp162
I3
aI0
aI2
aI1
aa(lp163
I3
aI0
aI2
aI1
aa(lp164
I3
aI0
aI2
aI1
aa(lp165
I3
aI0
aI2
aI1
aa(lp166
I3
aI0
aI2
aI1
aa(lp167
I3
aI0
aI2
aI1
aa(lp168
I3
aI0
aI2
aI1
aa(lp169
I3
aI0
aI2
aI1
aa(lp170
I3
aI0
aI2
aI1
aa(lp171
I3
aI0
aI2
aI1
aa(lp172
I3
aI0
aI2
aI1
aa(lp173
I3
aI0
aI2
aI1
aa(lp174
I3
aI0
aI2
aI1
aa(lp175
I3
aI0
aI2
aI1
aa(lp176
I3
aI0
aI2
aI1
aa(lp177
I3
aI0
aI2
aI1
aa(lp178
I3
aI0
aI2
aI1
aa(lp179
I3
aI0
aI2
aI1
aa(lp180
I3
aI0
aI2
aI1
aa(lp181
I1
aI3
aI2
aI0
aa(lp182
I1
aI3
aI2
aI0
aa(lp183
I1
aI3
aI2
aI0
aa(lp184
I1
aI3
aI2
aI0
aa(lp185
I1
aI3
aI2
aI0
aa(lp186
I1
aI3
aI2
aI0
aa(lp187
I1
aI3
aI2
aI0
aa(lp188
I1
aI3
aI2
aI0
aa(lp189
I1
aI3
aI2
aI0
aa(lp190
I1
aI3
aI2
aI0
aa(lp191
I1
aI3
aI2
aI0
aa(lp192
I1
aI3
aI2
aI0
aa(lp193
I1
aI3
aI2
aI0
aa(lp194
I1
aI3
aI2
aI0
aa(lp195
I1
aI3
aI2
aI0
aa(lp196
I1
aI3
aI2
aI0
aa(lp197
I1
aI3
aI2
aI0
aa(lp198
I1
aI3
aI2
aI0
aa(lp199
I1
aI3
aI2
aI0
aa(lp200
I1
aI3
aI2
aI0
aa(lp201
I1
aI3
aI2
aI0
aa(lp202
I1
aI3
aI2
aI0
aa(lp203
I1
aI3
aI2
aI0
aa(lp204
I1
aI3
aI2
aI0
aa(lp205
I1
aI3
aI2
aI0
aa(lp206
I1
aI3
aI2
aI0
aa(lp207
I1
aI3
aI2
aI0
aa(lp208
I1
aI3
aI2
aI0
aa(lp209
I1
aI3
aI2
aI0
aa(lp210
I1
aI3
aI2
aI0
aa(lp211
I1
aI3
aI2
aI0
aa(lp212
I1
aI3
aI2
aI0
aa(lp213
I1
aI3
aI2
aI0
aa(lp214
I1
aI3
aI2
aI0
aa(lp215
I0
aI3
aI2
aI1
aa(lp216
I0
aI3
aI2
aI1
aa(lp217
I0
aI3
aI2
aI1
aa(lp218
I0
aI3
aI2
aI1
aa(lp219
I0
aI3
aI2
aI1
aa(lp220
I0
aI3
aI2
aI1
aa(lp221
I0
aI3
aI2
aI1
aa(lp222
I0
aI3
aI2
aI1
aa(lp223
I0
aI3
aI2
aI1
aa(lp224
I0
aI3
aI2
aI1
aa(lp225
I0
aI3
aI2
aI1
aa(lp226
I0
aI3
aI2
aI1
aa(lp227
I0
aI3
aI2
aI1
aa(lp228
I0
aI3
aI2
aI1
aa(lp229
I0
aI3
aI2
aI1
aa(lp230
I0
aI3
aI2
aI1
aa(lp231
I0
aI3
aI2
aI1
aa(lp232
I0
aI3
aI2
aI1
aa(lp233
I0
aI3
aI2
aI1
aa(lp234
I0
aI3
aI2
aI1
aa(lp235
I0
aI3
aI2
aI1
aa(lp236
I0
aI3
aI2
aI1
aa(lp237
I0
aI3
aI2
aI1
aa(lp238
I0
aI3
aI2
aI1
aa(lp239
I0
aI3
aI2
aI1
aa(lp240
I0
aI3
aI2
aI1
aa(lp241
I0
aI3
aI2
aI1
aa(lp242
I0
aI3
aI2
aI1
aa(lp243
I0
aI3
aI2
aI1
aa(lp244
I0
aI3
aI2
aI1
aa(lp245
I0
aI3
aI2
aI1
aa(lp246
I0
aI3
aI2
aI1
aa(lp247
I0
aI3
aI2
aI1
aa(lp248
I0
aI3
aI2
aI1
aa(lp249
I0
aI3
aI2
aI1
aa(lp250
I0
aI3
aI2
aI1
aa(lp251
I0
aI3
aI2
aI1
aa(lp252
I0
aI3
aI2
aI1
aa(lp253
I0
aI3
aI2
aI1
aa(lp254
I0
aI3
aI2
aI1
aa(lp255
I1
aI3
aI0
aI2
aa(lp256
I1
aI3
aI0
aI2
aa(lp257
I1
aI3
aI0
aI2
aa(lp258
I1
aI3
aI0
aI2
aa(lp259
I1
aI3
aI0
aI2
aa(lp260
I1
aI3
aI0
aI2
aa(lp261
I1
aI3
aI0
aI2
aa(lp262
I1
aI3
aI0
aI2
aa(lp263
I1
aI3
aI0
aI2
aa(lp264
I1
aI3
aI0
aI2
aa(lp265
I1
aI3
aI0
aI2
aa(lp266
I1
aI3
aI0
aI2
aa(lp267
I1
aI3
aI0
aI2
aa(lp268
I1
aI3
aI0
aI2
aa(lp269
I1
aI3
aI0
aI2
aa(lp270
I1
aI3
aI0
aI2
aa(lp271
I1
aI3
aI0
aI2
aa(lp272
I1
aI3
aI0
aI2
aa(lp273
I1
aI3
aI0
aI2
aa(lp274
I1
aI3
aI0
aI2
aa(lp275
I1
aI3
aI0
aI2
aa(lp276
I1
aI3
aI0
aI2
aa(lp277
I1
aI3
aI0
aI2
aa(lp278
I1
aI3
aI0
aI2
aa(lp279
I1
aI3
aI0
aI2
aa(lp280
I1
aI3
aI0
aI2
aa(lp281
I1
aI3
aI0
aI2
aa(lp282
I1
aI3
aI0
aI2
aa(lp283
I1
aI3
aI0
aI2
aa(lp284
I1
aI3
aI0
aI2
aa(lp285
I1
aI3
aI0
aI2
aa(lp286
I1
aI3
aI0
aI2
aa(lp287
I1
aI3
aI0
aI2
aa(lp288
I1
aI3
aI0
aI2
aa(lp289
I1
aI3
aI0
aI2
aa(lp290
I3
aI1
aI2
aI0
aa(lp291
I3
aI1
aI2
aI0
aa(lp292
I3
aI1
aI2
aI0
aa(lp293
I3
aI1
aI2
aI0
aa(lp294
I3
aI1
aI2
aI0
aa(lp295
I3
aI1
aI2
aI0
aa(lp296
I3
aI1
aI2
aI0
aa(lp297
I3
aI1
aI2
aI0
aa(lp298
I3
aI1
aI2
aI0
aa(lp299
I3
aI1
aI2
aI0
aa(lp300
I3
aI1
aI2
aI0
aa(lp301
I3
aI1
aI2
aI0
aa(lp302
I3
aI1
aI2
aI0
aa(lp303
I3
aI1
aI2
aI0
aa(lp304
I3
aI1
aI2
aI0
aa(lp305
I3
aI1
aI2
aI0
aa(lp306
I3
aI1
aI2
aI0
aa(lp307
I3
aI1
aI2
aI0
aa(lp308
I3
aI1
aI2
aI0
aa(lp309
I3
aI1
aI2
aI0
aa(lp310
I3
aI1
aI2
aI0
aa(lp311
I3
aI1
aI2
aI0
aa(lp312
I3
aI1
aI2
aI0
aa(lp313
I3
aI1
aI2
aI0
aa(lp314
I3
aI1
aI2
aI0
aa(lp315
I3
aI1
aI2
aI0
aa(lp316
I3
aI1
aI2
aI0
aa(lp317
I3
aI1
aI2
aI0
aa(lp318
I3
aI1
aI2
aI0
aa(lp319
I3
aI1
aI2
aI0
aa(lp320
I3
aI1
aI2
aI0
aa(lp321
I3
aI1
aI2
aI0
aa(lp322
I3
aI1
aI2
aI0
aa(lp323
I3
aI0
aI1
aI2
aa(lp324
I3
aI0
aI1
aI2
aa(lp325
I3
aI0
aI1
aI2
aa(lp326
I3
aI0
aI1
aI2
aa(lp327
I3
aI0
aI1
aI2
aa(lp328
I3
aI0
aI1
aI2
aa(lp329
I3
aI0
aI1
aI2
aa(lp330
I3
aI0
aI1
aI2
aa(lp331
I3
aI0
aI1
aI2
aa(lp332
I3
aI0
aI1
aI2
aa(lp333
I3
aI0
aI1
aI2
aa(lp334
I3
aI0
aI1
aI2
aa(lp335
I3
aI0
aI1
aI2
aa(lp336
I3
aI0
aI1
aI2
aa(lp337
I3
aI0
aI1
aI2
aa(lp338
I3
aI0
aI1
aI2
aa(lp339
I3
aI0
aI1
aI2
aa(lp340
I3
aI0
aI1
aI2
aa(lp341
I3
aI0
aI1
aI2
aa(lp342
I3
aI0
aI1
aI2
aa(lp343
I3
aI0
aI1
aI2
aa(lp344
I3
aI0
aI1
aI2
aa(lp345
I3
aI0
aI1
aI2
aa(lp346
I3
aI0
aI1
aI2
aa(lp347
I3
aI0
aI1
aI2
aa(lp348
I3
aI0
aI1
aI2
aa(lp349
I3
aI0
aI1
aI2
aa(lp350
I3
aI0
aI1
aI2
aa(lp351
I3
aI0
aI1
aI2
aa(lp352
I3
aI0
aI1
aI2
aa(lp353
I3
aI0
aI1
aI2
aa(lp354
I3
aI0
aI1
aI2
aa(lp355
I3
aI0
aI1
aI2
aa(lp356
I3
aI0
aI1
aI2
aa(lp357
I3
aI1
aI0
aI2
aa(lp358
I3
aI1
aI0
aI2
aa(lp359
I3
aI1
aI0
aI2
aa(lp360
I3
aI1
aI0
aI2
aa(lp361
I3
aI1
aI0
aI2
aa(lp362
I3
aI1
aI0
aI2
aa(lp363
I3
aI1
aI0
aI2
aa(lp364
I3
aI1
aI0
aI2
aa(lp365
I3
aI1
aI0
aI2
aa(lp366
I3
aI1
aI0
aI2
aa(lp367
I3
aI1
aI0
aI2
aa(lp368
I3
aI1
aI0
aI2
aa(lp369
I3
aI1
aI0
aI2
aa(lp370
I3
aI1
aI0
aI2
aa(lp371
I3
aI1
aI0
aI2
aa(lp372
I3
aI1
aI0
aI2
aa(lp373
I3
aI1
aI0
aI2
aa(lp374
I3
aI1
aI0
aI2
aa(lp375
I3
aI1
aI0
aI2
aa(lp376
I3
aI1
aI0
aI2
aa(lp377
I3
aI1
aI0
aI2
aa(lp378
I3
aI1
aI0
aI2
aa(lp379
I3
aI1
aI0
aI2
aa(lp380
I3
aI1
aI0
aI2
aa(lp381
I3
aI1
aI0
aI2
aa(lp382
I3
aI1
aI0
aI2
aa(lp383
I3
aI1
aI0
aI2
aa(lp384
I3
aI2
aI0
aI1
aa(lp385
I3
aI2
aI0
aI1
aa(lp386
I3
aI2
aI0
aI1
aa(lp387
I3
aI2
aI0
aI1
aa(lp388
I3
aI2
aI0
aI1
aa(lp389
I3
aI2
aI0
aI1
aa(lp390
I3
aI2
aI0
aI1
aa(lp391
I3
aI2
aI0
aI1
aa(lp392
I3
aI2
aI0
aI1
aa(lp393
I3
aI2
aI0
aI1
aa(lp394
I3
aI2
aI0
aI1
aa(lp395
I3
aI2
aI0
aI1
aa(lp396
I3
aI2
aI0
aI1
aa(lp397
I3
aI2
aI0
aI1
aa(lp398
I3
aI2
aI0
aI1
aa(lp399
I3
aI2
aI0
aI1
aa(lp400
I3
aI2
aI0
aI1
aa(lp401
I3
aI2
aI0
aI1
aa(lp402
I3
aI2
aI0
aI1
aa(lp403
I3
aI2
aI0
aI1
aa(lp404
I0
aI2
aI3
aI1
aa(lp405
I0
aI2
aI3
aI1
aa(lp406
I0
aI2
aI3
aI1
aa(lp407
I0
aI2
aI3
aI1
aa(lp408
I0
aI2
aI3
aI1
aa(lp409
I0
aI2
aI3
aI1
aa(lp410
I0
aI2
aI3
aI1
aa(lp411
I0
aI2
aI3
aI1
aa(lp412
I0
aI2
aI3
aI1
aa(lp413
I0
aI2
aI3
aI1
aa(lp414
I0
aI2
aI3
aI1
aa(lp415
I0
aI2
aI3
aI1
aa(lp416
I0
aI2
aI3
aI1
aa(lp417
I1
aI2
aI3
aI0
aa(lp418
I1
aI2
aI3
aI0
aa(lp419
I1
aI2
aI3
aI0
aa(lp420
I1
aI2
aI3
aI0
aa(lp421
I1
aI2
aI3
aI0
aa(lp422
I1
aI2
aI3
aI0
aa(lp423
I1
aI2
aI3
aI0
aa(lp424
I0
aI3
aI1
aI2
aa(lp425
I0
aI3
aI1
aI2
aa(lp426
I0
aI3
aI1
aI2
aa(lp427
I0
aI3
aI1
aI2
aa(lp428
I0
aI3
aI1
aI2
aa(lp429
I0
aI3
aI1
aI2
aa(lp430
I0
aI3
aI1
aI2
aa(lp431
I0
aI3
aI1
aI2
aa(lp432
I1
aI0
aI3
aI2
aa(lp433
I1
aI0
aI3
aI2
aa(lp434
I1
aI0
aI3
aI2
aa(lp435
I1
aI0
aI3
aI2
aa(lp436
I1
aI0
aI3
aI2
aa(lp437
I1
aI0
aI3
aI2
aa(lp438
I1
aI0
aI3
aI2
aa(lp439
I1
aI0
aI3
aI2
aa(lp440
I1
aI0
aI3
aI2
aa(lp441
I2
aI3
aI0
aI1
aa(lp442
I2
aI3
aI0
aI1
aa(lp443
I2
aI3
aI0
aI1
aa(lp444
I2
aI3
aI0
aI1
aa(lp445
I2
aI3
aI0
aI1
aa(lp446
I2
aI3
aI0
aI1
aa(lp447
I2
aI3
aI0
aI1
aa(lp448
I2
aI3
aI0
aI1
aa(lp449
I2
aI3
aI0
aI1
aa(lp450
I2
aI3
aI0
aI1
aa(lp451
I0
aI1
aI3
aI2
aa(lp452
I0
aI1
aI3
aI2
aa(lp453
I0
aI1
aI3
aI2
aa(lp454
I0
aI1
aI3
aI2
aa(lp455
I0
aI1
aI3
aI2
aa(lp456
I0
aI1
aI3
aI2
aa(lp457
I0
aI1
aI3
aI2
aa(lp458
I3
aI2
aI1
aI0
aa(lp459
I3
aI2
aI1
aI0
aa(lp460
I3
aI2
aI1
aI0
aa(lp461
I0
aI1
aI2
aI3
aa(lp462
I0
aI1
aI2
aI3
aa(lp463
I0
aI1
aI2
aI3
aa(lp464
I0
aI1
aI2
aI3
aa(lp465
I0
aI1
aI2
aI3
aa(lp466
I2
aI0
aI3
aI1
aa(lp467
I2
aI0
aI3
aI1
aa(lp468
I2
aI0
aI3
aI1
aa(lp469
I1
aI0
aI2
aI3
aa(lp470
I1
aI0
aI2
aI3
aa(lp471
I1
aI0
aI2
aI3
aa(lp472
I2
aI1
aI3
aI0
aa(lp473
I2
aI1
aI3
aI0
aa(lp474
I1
aI2
aI0
aI3
aa(lp475
I1
aI2
aI0
aI3
aasS'test-lists'
p476
(lp477
(lp478
I0
aI3
aI2
aI1
aa(lp479
I0
aI3
aI1
aI2
aa(lp480
I3
aI2
aI1
aI0
aa(lp481
I0
aI3
aI2
aI1
aa(lp482
I1
aI3
aI2
aI0
aa(lp483
I0
aI3
aI1
aI2
aa(lp484
I1
aI3
aI0
aI2
aa(lp485
I1
aI2
aI3
aI0
aa(lp486
I3
aI0
aI2
aI1
aa(lp487
I3
aI2
aI0
aI1
aa(lp488
I3
aI1
aI0
aI2
aa(lp489
I1
aI3
aI0
aI2
aa(lp490
I0
aI1
aI3
aI2
aa(lp491
I1
aI2
aI3
aI0
aa(lp492
I0
aI3
aI2
aI1
aa(lp493
I3
aI1
aI0
aI2
aa(lp494
I0
aI2
aI3
aI1
aa(lp495
I1
aI3
aI2
aI0
aa(lp496
I3
aI1
aI2
aI0
aa(lp497
I3
aI1
aI2
aI0
aa(lp498
I1
aI3
aI2
aI0
aa(lp499
I1
aI3
aI0
aI2
aa(lp500
I1
aI3
aI2
aI0
aa(lp501
I2
aI0
aI3
aI1
aa(lp502
I0
aI3
aI2
aI1
aa(lp503
I1
aI2
aI3
aI0
aa(lp504
I0
aI3
aI1
aI2
aa(lp505
I3
aI1
aI2
aI0
aa(lp506
I3
aI0
aI2
aI1
aa(lp507
I1
aI3
aI0
aI2
aa(lp508
I1
aI3
aI2
aI0
aa(lp509
I1
aI3
aI2
aI0
aa(lp510
I3
aI1
aI0
aI2
aa(lp511
I3
aI1
aI2
aI0
aa(lp512
I3
aI0
aI2
aI1
aa(lp513
I1
aI3
aI0
aI2
aa(lp514
I3
aI1
aI0
aI2
aa(lp515
I0
aI3
aI2
aI1
aa(lp516
I1
aI3
aI2
aI0
aa(lp517
I1
aI0
aI3
aI2
aa(lp518
I0
aI3
aI2
aI1
aa(lp519
I3
aI0
aI2
aI1
aa(lp520
I1
aI3
aI0
aI2
aa(lp521
I1
aI3
aI0
aI2
aa(lp522
I1
aI3
aI2
aI0
aa(lp523
I1
aI3
aI2
aI0
aa(lp524
I3
aI0
aI1
aI2
aa(lp525
I3
aI0
aI2
aI1
aa(lp526
I3
aI2
aI1
aI0
aa(lp527
I3
aI0
aI2
aI1
aa(lp528
I1
aI3
aI2
aI0
aa(lp529
I3
aI1
aI0
aI2
aa(lp530
I0
aI3
aI2
aI1
aa(lp531
I0
aI3
aI2
aI1
aa(lp532
I1
aI3
aI0
aI2
aa(lp533
I1
aI3
aI2
aI0
aa(lp534
I3
aI0
aI1
aI2
aa(lp535
I3
aI0
aI2
aI1
aa(lp536
I3
aI0
aI2
aI1
aa(lp537
I3
aI1
aI2
aI0
aa(lp538
I3
aI0
aI1
aI2
aa(lp539
I3
aI1
aI0
aI2
aa(lp540
I0
aI2
aI3
aI1
aa(lp541
I0
aI3
aI2
aI1
aa(lp542
I1
aI3
aI2
aI0
aa(lp543
I2
aI1
aI3
aI0
aa(lp544
I3
aI2
aI1
aI0
aa(lp545
I3
aI1
aI0
aI2
aa(lp546
I1
aI2
aI3
aI0
aa(lp547
I1
aI2
aI3
aI0
aa(lp548
I1
aI3
aI0
aI2
aa(lp549
I0
aI1
aI3
aI2
aa(lp550
I1
aI3
aI2
aI0
aa(lp551
I3
aI1
aI0
aI2
aa(lp552
I1
aI3
aI0
aI2
aa(lp553
I3
aI2
aI0
aI1
aa(lp554
I1
aI3
aI0
aI2
aa(lp555
I0
aI3
aI1
aI2
aa(lp556
I1
aI0
aI3
aI2
aa(lp557
I1
aI3
aI2
aI0
aa(lp558
I1
aI3
aI0
aI2
aa(lp559
I3
aI0
aI1
aI2
aa(lp560
I3
aI0
aI2
aI1
aa(lp561
I3
aI1
aI2
aI0
aa(lp562
I0
aI2
aI3
aI1
aa(lp563
I3
aI2
aI1
aI0
aa(lp564
I1
aI3
aI2
aI0
aa(lp565
I1
aI3
aI0
aI2
aa(lp566
I3
aI0
aI2
aI1
aasS'RE-train-choices'
p567
(dp568
(I1
I2
tp569
g4
(g5
(I0
tp570
g7
tp571
Rp572
(I1
(I2
tp573
g14
I00
S'\x00\x00\x00\x00\x00\x00\x00@\x00\x00\x00\x00\x00\x00"@'
p574
tp575
bs(I0
I1
tp576
g4
(g5
(I0
tp577
g7
tp578
Rp579
(I1
(I2
tp580
g14
I00
S'\x00\x00\x00\x00\x00\x00(@\x00\x00\x00\x00\x00\x00(@'
p581
tp582
bs(I1
I3
tp583
g4
(g5
(I0
tp584
g7
tp585
Rp586
(I1
(I2
tp587
g14
I00
S'\x00\x00\x00\x00\x00\x00N@\x00\x00\x00\x00\x00@Q@'
p588
tp589
bs(I1
tp590
g4
(g5
(I0
tp591
g7
tp592
Rp593
(I1
(I1
tp594
g14
I00
S'\x00\x00\x00\x00\x00\x80V@'
p595
tp596
bs(I0
I2
I3
tp597
g4
(g5
(I0
tp598
g7
tp599
Rp600
(I1
(I3
tp601
g14
I00
S'\x00\x00\x00\x00\x00\x00>@\x00\x00\x00\x00\x00\x80Y@\x00\x00\x00\x00\x00\x000@'
p602
tp603
bs(I2
tp604
g4
(g5
(I0
tp605
g7
tp606
Rp607
(I1
(I1
tp608
g14
I00
S'\x00\x00\x00\x00\x00\x00.@'
p609
tp610
bs(I3
tp611
g4
(g5
(I0
tp612
g7
tp613
Rp614
(I1
(I1
tp615
g14
I00
S'\x00\x00\x00\x00\x00`f@'
p616
tp617
bs(I1
I2
I3
tp618
g4
(g5
(I0
tp619
g7
tp620
Rp621
(I1
(I3
tp622
g14
I00
S'\x00\x00\x00\x00\x00\x00\x08@\x00\x00\x00\x00\x00\xc0P@\x00\x00\x00\x00\x00\x00"@'
p623
tp624
bs(I0
I1
I2
tp625
g4
(g5
(I0
tp626
g7
tp627
Rp628
(I1
(I3
tp629
g14
I00
S'\x00\x00\x00\x00\x00\x00\x00@\x00\x00\x00\x00\x00\x00\x00\x00\x00\x00\x00\x00\x00\x00 @'
p630
tp631
bs(I0
tp632
g4
(g5
(I0
tp633
g7
tp634
Rp635
(I1
(I1
tp636
g14
I00
S'\x00\x00\x00\x00\x00@R@'
p637
tp638
bs(I2
I3
tp639
g4
(g5
(I0
tp640
g7
tp641
Rp642
(I1
(I2
tp643
g14
I00
S'\x00\x00\x00\x00\x00\x007@\x00\x00\x00\x00\x00\x00$@'
p644
tp645
bs(I0
I3
tp646
g4
(g5
(I0
tp647
g7
tp648
Rp649
(I1
(I2
tp650
g14
I00
S'\x00\x00\x00\x00\x00\x00X@\x00\x00\x00\x00\x00\x00H@'
p651
tp652
bs(I0
I1
I3
tp653
g4
(g5
(I0
tp654
g7
tp655
Rp656
(I1
(I3
tp657
g14
I00
S'\x00\x00\x00\x00\x00\x00O@\x00\x00\x00\x00\x00\x00E@\x00\x00\x00\x00\x00\x000@'
p658
tp659
bs(I0
I2
tp660
g4
(g5
(I0
tp661
g7
tp662
Rp663
(I1
(I2
tp664
g14
I00
S'\x00\x00\x00\x00\x00\x00\x08@\x00\x00\x00\x00\x00\x00*@'
p665
tp666
bs(I0
I1
I2
I3
tp667
g4
(g5
(I0
tp668
g7
tp669
Rp670
(I1
(I4
tp671
g14
I00
S'p=\n\xd7\xa3\xc0S@\xb8\x1e\x85\xebQ\x80b@p=\n\xd7\xa3\x00^@\x85\xebQ\xb8\x1e\x05$@'
p672
tp673
bssS'N'
p674
I4
s.