(dp0
S'train-choices'
p1
(dp2
(I0
I1
tp3
cnumpy.core.multiarray
_reconstruct
p4
(cnumpy
ndarray
p5
(I0
tp6
S'b'
p7
tp8
Rp9
(I1
(I2
tp10
cnumpy
dtype
p11
(S'f8'
p12
I0
I1
tp13
Rp14
(I3
S'<'
p15
NNNI-1
I-1
I0
tp16
bI00
S'\x00\x00\x00\x00\x00\x00b@\x00\x00\x00\x00\x00\x00H@'
p17
tp18
bs(I1
I2
tp19
g4
(g5
(I0
tp20
g7
tp21
Rp22
(I1
(I2
tp23
g14
I00
S'\x00\x00\x00\x00\x00\x00,@\x00\x00\x00\x00\x00\x00N@'
p24
tp25
bs(I0
tp26
g4
(g5
(I0
tp27
g7
tp28
Rp29
(I1
(I1
tp30
g14
I00
S'\x00\x00\x00\x00\x00\x00U@'
p31
tp32
bs(I1
tp33
g4
(g5
(I0
tp34
g7
tp35
Rp36
(I1
(I1
tp37
g14
I00
S'\x00\x00\x00\x00\x00\x80i@'
p38
tp39
bs(I0
I1
I2
tp40
g4
(g5
(I0
tp41
g7
tp42
Rp43
(I1
(I3
tp44
g14
I00
S'p=\n\xd7\xa3\x80R@\xe1z\x14\xaeG\x81G@\xb8\x1e\x85\xebQ\x00h@'
p45
tp46
bs(I2
tp47
g4
(g5
(I0
tp48
g7
tp49
Rp50
(I1
(I1
tp51
g14
I00
S'\x00\x00\x00\x00\x00\x009@'
p52
tp53
bs(I0
I2
tp54
g4
(g5
(I0
tp55
g7
tp56
Rp57
(I1
(I2
tp58
g14
I00
S'\x00\x00\x00\x00\x00\x00&@\x00\x00\x00\x00\x00\x00B@'
p59
tp60
bssS'train-lists'
p61
(lp62
(lp63
I2
aI0
aI1
aa(lp64
I2
aI0
aI1
aa(lp65
I2
aI0
aI1
aa(lp66
I2
aI0
aI1
aa(lp67
I2
aI0
aI1
aa(lp68
I2
aI0
aI1
aa(lp69
I2
aI0
aI1
aa(lp70
I2
aI0
aI1
aa(lp71
I2
aI0
aI1
aa(lp72
I2
aI0
aI1
aa(lp73
I2
aI0
aI1
aa(lp74
I2
aI0
aI1
aa(lp75
I2
aI0
aI1
aa(lp76
I2
aI0
aI1
aa(lp77
I2
aI0
aI1
aa(lp78
I2
aI0
aI1
aa(lp79
I2
aI0
aI1
aa(lp80
I2
aI0
aI1
aa(lp81
I2
aI0
aI1
aa(lp82
I2
aI0
aI1
aa(lp83
I2
aI0
aI1
aa(lp84
I2
aI0
aI1
aa(lp85
I2
aI0
aI1
aa(lp86
I2
aI0
aI1
aa(lp87
I2
aI0
aI1
aa(lp88
I2
aI0
aI1
aa(lp89
I2
aI0
aI1
aa(lp90
I2
aI0
aI1
aa(lp91
I2
aI0
aI1
aa(lp92
I2
aI0
aI1
aa(lp93
I2
aI0
aI1
aa(lp94
I2
aI0
aI1
aa(lp95
I2
aI0
aI1
aa(lp96
I2
aI0
aI1
aa(lp97
I2
aI0
aI1
aa(lp98
I2
aI0
aI1
aa(lp99
I2
aI0
aI1
aa(lp100
I2
aI0
aI1
aa(lp101
I2
aI0
aI1
aa(lp102
I2
aI0
aI1
aa(lp103
I2
aI0
aI1
aa(lp104
I2
aI0
aI1
aa(lp105
I2
aI0
aI1
aa(lp106
I2
aI0
aI1
aa(lp107
I2
aI0
aI1
aa(lp108
I2
aI0
aI1
aa(lp109
I2
aI0
aI1
aa(lp110
I2
aI0
aI1
aa(lp111
I2
aI0
aI1
aa(lp112
I2
aI0
aI1
aa(lp113
I2
aI0
aI1
aa(lp114
I2
aI0
aI1
aa(lp115
I2
aI0
aI1
aa(lp116
I2
aI0
aI1
aa(lp117
I2
aI0
aI1
aa(lp118
I2
aI0
aI1
aa(lp119
I2
aI0
aI1
aa(lp120
I2
aI0
aI1
aa(lp121
I2
aI0
aI1
aa(lp122
I2
aI0
aI1
aa(lp123
I2
aI0
aI1
aa(lp124
I2
aI0
aI1
aa(lp125
I2
aI0
aI1
aa(lp126
I2
aI0
aI1
aa(lp127
I2
aI0
aI1
aa(lp128
I2
aI0
aI1
aa(lp129
I2
aI0
aI1
aa(lp130
I2
aI0
aI1
aa(lp131
I2
aI0
aI1
aa(lp132
I2
aI0
aI1
aa(lp133
I2
aI0
aI1
aa(lp134
I2
aI0
aI1
aa(lp135
I2
aI0
aI1
aa(lp136
I2
aI0
aI1
aa(lp137
I2
aI0
aI1
aa(lp138
I2
aI0
aI1
aa(lp139
I2
aI0
aI1
aa(lp140
I2
aI0
aI1
aa(lp141
I2
aI0
aI1
aa(lp142
I2
aI0
aI1
aa(lp143
I2
aI0
aI1
aa(lp144
I2
aI0
aI1
aa(lp145
I2
aI0
aI1
aa(lp146
I2
aI0
aI1
aa(lp147
I2
aI0
aI1
aa(lp148
I2
aI0
aI1
aa(lp149
I2
aI0
aI1
aa(lp150
I2
aI0
aI1
aa(lp151
I2
aI0
aI1
aa(lp152
I2
aI0
aI1
aa(lp153
I2
aI0
aI1
aa(lp154
I2
aI0
aI1
aa(lp155
I2
aI0
aI1
aa(lp156
I2
aI0
aI1
aa(lp157
I2
aI0
aI1
aa(lp158
I2
aI0
aI1
aa(lp159
I2
aI0
aI1
aa(lp160
I2
aI0
aI1
aa(lp161
I2
aI0
aI1
aa(lp162
I2
aI0
aI1
aa(lp163
I2
aI0
aI1
aa(lp164
I2
aI0
aI1
aa(lp165
I2
aI0
aI1
aa(lp166
I2
aI0
aI1
aa(lp167
I2
aI0
aI1
aa(lp168
I2
aI0
aI1
aa(lp169
I2
aI0
aI1
aa(lp170
I2
aI0
aI1
aa(lp171
I2
aI0
aI1
aa(lp172
I2
aI0
aI1
aa(lp173
I2
aI0
aI1
aa(lp174
I2
aI0
aI1
aa(lp175
I2
aI0
aI1
aa(lp176
I2
aI0
aI1
aa(lp177
I2
aI0
aI1
aa(lp178
I2
aI0
aI1
aa(lp179
I2
aI0
aI1
aa(lp180
I2
aI0
aI1
aa(lp181
I2
aI0
aI1
aa(lp182
I2
aI0
aI1
aa(lp183
I2
aI0
aI1
aa(lp184
I2
aI0
aI1
aa(lp185
I2
aI0
aI1
aa(lp186
I2
aI0
aI1
aa(lp187
I2
aI0
aI1
aa(lp188
I2
aI0
aI1
aa(lp189
I2
aI0
aI1
aa(lp190
I2
aI0
aI1
aa(lp191
I2
aI0
aI1
aa(lp192
I2
aI0
aI1
aa(lp193
I2
aI0
aI1
aa(lp194
I2
aI0
aI1
aa(lp195
I2
aI0
aI1
aa(lp196
I2
aI0
aI1
aa(lp197
I2
aI0
aI1
aa(lp198
I2
aI0
aI1
aa(lp199
I2
aI0
aI1
aa(lp200
I2
aI0
aI1
aa(lp201
I2
aI0
aI1
aa(lp202
I2
aI0
aI1
aa(lp203
I2
aI0
aI1
aa(lp204
I2
aI0
aI1
aa(lp205
I2
aI0
aI1
aa(lp206
I2
aI0
aI1
aa(lp207
I0
aI2
aI1
aa(lp208
I0
aI2
aI1
aa(lp209
I0
aI2
aI1
aa(lp210
I0
aI2
aI1
aa(lp211
I0
aI2
aI1
aa(lp212
I0
aI2
aI1
aa(lp213
I0
aI2
aI1
aa(lp214
I0
aI2
aI1
aa(lp215
I0
aI2
aI1
aa(lp216
I0
aI2
aI1
aa(lp217
I0
aI2
aI1
aa(lp218
I0
aI2
aI1
aa(lp219
I0
aI2
aI1
aa(lp220
I0
aI2
aI1
aa(lp221
I0
aI2
aI1
aa(lp222
I0
aI2
aI1
aa(lp223
I0
aI2
aI1
aa(lp224
I0
aI2
aI1
aa(lp225
I0
aI2
aI1
aa(lp226
I0
aI2
aI1
aa(lp227
I0
aI2
aI1
aa(lp228
I0
aI2
aI1
aa(lp229
I0
aI2
aI1
aa(lp230
I0
aI2
aI1
aa(lp231
I0
aI2
aI1
aa(lp232
I0
aI2
aI1
aa(lp233
I0
aI2
aI1
aa(lp234
I0
aI2
aI1
aa(lp235
I0
aI2
aI1
aa(lp236
I0
aI2
aI1
aa(lp237
I0
aI2
aI1
aa(lp238
I0
aI2
aI1
aa(lp239
I0
aI2
aI1
aa(lp240
I0
aI2
aI1
aa(lp241
I0
aI2
aI1
aa(lp242
I0
aI2
aI1
aa(lp243
I0
aI2
aI1
aa(lp244
I0
aI2
aI1
aa(lp245
I0
aI2
aI1
aa(lp246
I0
aI2
aI1
aa(lp247
I0
aI2
aI1
aa(lp248
I0
aI2
aI1
aa(lp249
I0
aI2
aI1
aa(lp250
I0
aI2
aI1
aa(lp251
I0
aI2
aI1
aa(lp252
I0
aI2
aI1
aa(lp253
I0
aI2
aI1
aa(lp254
I0
aI2
aI1
aa(lp255
I0
aI2
aI1
aa(lp256
I0
aI2
aI1
aa(lp257
I0
aI2
aI1
aa(lp258
I0
aI2
aI1
aa(lp259
I0
aI2
aI1
aa(lp260
I0
aI2
aI1
aa(lp261
I0
aI2
aI1
aa(lp262
I0
aI2
aI1
aa(lp263
I0
aI2
aI1
aa(lp264
I0
aI2
aI1
aa(lp265
I0
aI2
aI1
aa(lp266
I0
aI2
aI1
aa(lp267
I2
aI1
aI0
aa(lp268
I2
aI1
aI0
aa(lp269
I2
aI1
aI0
aa(lp270
I2
aI1
aI0
aa(lp271
I2
aI1
aI0
aa(lp272
I2
aI1
aI0
aa(lp273
I2
aI1
aI0
aa(lp274
I2
aI1
aI0
aa(lp275
I2
aI1
aI0
aa(lp276
I2
aI1
aI0
aa(lp277
I2
aI1
aI0
aa(lp278
I2
aI1
aI0
aa(lp279
I2
aI1
aI0
aa(lp280
I2
aI1
aI0
aa(lp281
I2
aI1
aI0
aa(lp282
I2
aI1
aI0
aa(lp283
I2
aI1
aI0
aa(lp284
I2
aI1
aI0
aa(lp285
I2
aI1
aI0
aa(lp286
I2
aI1
aI0
aa(lp287
I2
aI1
aI0
aa(lp288
I2
aI1
aI0
aa(lp289
I2
aI1
aI0
aa(lp290
I2
aI1
aI0
aa(lp291
I2
aI1
aI0
aa(lp292
I2
aI1
aI0
aa(lp293
I2
aI1
aI0
aa(lp294
I2
aI1
aI0
aa(lp295
I2
aI1
aI0
aa(lp296
I2
aI1
aI0
aa(lp297
I2
aI1
aI0
aa(lp298
I2
aI1
aI0
aa(lp299
I2
aI1
aI0
aa(lp300
I2
aI1
aI0
aa(lp301
I2
aI1
aI0
aa(lp302
I2
aI1
aI0
aa(lp303
I2
aI1
aI0
aa(lp304
I2
aI1
aI0
aa(lp305
I2
aI1
aI0
aa(lp306
I2
aI1
aI0
aa(lp307
I2
aI1
aI0
aa(lp308
I2
aI1
aI0
aa(lp309
I2
aI1
aI0
aa(lp310
I2
aI1
aI0
aa(lp311
I2
aI1
aI0
aa(lp312
I2
aI1
aI0
aa(lp313
I2
aI1
aI0
aa(lp314
I2
aI1
aI0
aa(lp315
I1
aI2
aI0
aa(lp316
I1
aI2
aI0
aa(lp317
I1
aI2
aI0
aa(lp318
I1
aI2
aI0
aa(lp319
I1
aI2
aI0
aa(lp320
I1
aI2
aI0
aa(lp321
I1
aI2
aI0
aa(lp322
I1
aI2
aI0
aa(lp323
I1
aI2
aI0
aa(lp324
I1
aI2
aI0
aa(lp325
I1
aI2
aI0
aa(lp326
I1
aI2
aI0
aa(lp327
I1
aI2
aI0
aa(lp328
I1
aI2
aI0
aa(lp329
I1
aI2
aI0
aa(lp330
I1
aI2
aI0
aa(lp331
I1
aI2
aI0
aa(lp332
I1
aI2
aI0
aa(lp333
I1
aI2
aI0
aa(lp334
I1
aI2
aI0
aa(lp335
I1
aI2
aI0
aa(lp336
I1
aI2
aI0
aa(lp337
I1
aI2
aI0
aa(lp338
I1
aI2
aI0
aa(lp339
I1
aI2
aI0
aa(lp340
I1
aI2
aI0
aa(lp341
I1
aI2
aI0
aa(lp342
I1
aI2
aI0
aa(lp343
I1
aI2
aI0
aa(lp344
I1
aI2
aI0
aa(lp345
I1
aI2
aI0
aa(lp346
I1
aI2
aI0
aa(lp347
I1
aI2
aI0
aa(lp348
I1
aI2
aI0
aa(lp349
I1
aI2
aI0
aa(lp350
I1
aI2
aI0
aa(lp351
I0
aI1
aI2
aa(lp352
I0
aI1
aI2
aa(lp353
I0
aI1
aI2
aa(lp354
I0
aI1
aI2
aa(lp355
I0
aI1
aI2
aa(lp356
I0
aI1
aI2
aa(lp357
I0
aI1
aI2
aa(lp358
I0
aI1
aI2
aa(lp359
I0
aI1
aI2
aa(lp360
I0
aI1
aI2
aa(lp361
I0
aI1
aI2
aa(lp362
I0
aI1
aI2
aa(lp363
I0
aI1
aI2
aa(lp364
I0
aI1
aI2
aa(lp365
I1
aI0
aI2
aa(lp366
I1
aI0
aI2
aa(lp367
I1
aI0
aI2
aa(lp368
I1
aI0
aI2
aa(lp369
I1
aI0
aI2
aa(lp370
I1
aI0
aI2
aa(lp371
I1
aI0
aI2
aa(lp372
I1
aI0
aI2
aa(lp373
I1
aI0
aI2
aa(lp374
I1
aI0
aI2
aa(lp375
I1
aI0
aI2
aasS'test-lists'
p376
(lp377
(lp378
I0
aI2
aI1
aa(lp379
I2
aI0
aI1
aa(lp380
I2
aI0
aI1
aa(lp381
I2
aI1
aI0
aa(lp382
I2
aI0
aI1
aa(lp383
I2
aI0
aI1
aa(lp384
I2
aI0
aI1
aa(lp385
I2
aI0
aI1
aa(lp386
I2
aI0
aI1
aa(lp387
I1
aI2
aI0
aa(lp388
I1
aI2
aI0
aa(lp389
I2
aI1
aI0
aa(lp390
I2
aI0
aI1
aa(lp391
I2
aI1
aI0
aa(lp392
I2
aI0
aI1
aa(lp393
I2
aI0
aI1
aa(lp394
I2
aI0
aI1
aa(lp395
I2
aI1
aI0
aa(lp396
I2
aI0
aI1
aa(lp397
I2
aI0
aI1
aa(lp398
I0
aI2
aI1
aa(lp399
I2
aI0
aI1
aa(lp400
I2
aI1
aI0
aa(lp401
I2
aI0
aI1
aa(lp402
I1
aI0
aI2
aa(lp403
I2
aI0
aI1
aa(lp404
I2
aI1
aI0
aa(lp405
I1
aI2
aI0
aa(lp406
I2
aI0
aI1
aa(lp407
I0
aI2
aI1
aa(lp408
I0
aI2
aI1
aa(lp409
I2
aI1
aI0
aa(lp410
I2
aI0
aI1
aa(lp411
I2
aI0
aI1
aa(lp412
I0
aI2
aI1
aa(lp413
I2
aI0
aI1
aa(lp414
I2
aI0
aI1
aa(lp415
I1
aI2
aI0
aa(lp416
I2
aI0
aI1
aa(lp417
I2
aI1
aI0
aa(lp418
I0
aI1
aI2
aa(lp419
I2
aI0
aI1
aa(lp420
I2
aI0
aI1
aa(lp421
I1
aI0
aI2
aa(lp422
I2
aI0
aI1
aa(lp423
I1
aI2
aI0
aa(lp424
I2
aI0
aI1
aa(lp425
I2
aI0
aI1
aa(lp426
I0
aI2
aI1
aa(lp427
I0
aI1
aI2
aa(lp428
I1
aI2
aI0
aa(lp429
I1
aI2
aI0
aa(lp430
I0
aI2
aI1
aa(lp431
I0
aI2
aI1
aa(lp432
I2
aI1
aI0
aa(lp433
I2
aI0
aI1
aa(lp434
I0
aI2
aI1
aa(lp435
I2
aI0
aI1
aa(lp436
I0
aI1
aI2
aa(lp437
I2
aI0
aI1
aa(lp438
I2
aI0
aI1
aa(lp439
I0
aI1
aI2
aa(lp440
I2
aI0
aI1
aa(lp441
I0
aI2
aI1
aa(lp442
I1
aI2
aI0
aa(lp443
I2
aI0
aI1
aa(lp444
I2
aI0
aI1
aa(lp445
I2
aI0
aI1
aa(lp446
I2
aI0
aI1
aa(lp447
I2
aI0
aI1
aa(lp448
I2
aI0
aI1
aa(lp449
I1
aI2
aI0
aa(lp450
I2
aI0
aI1
aa(lp451
I2
aI0
aI1
aa(lp452
I2
aI0
aI1
aa(lp453
I2
aI1
aI0
aa(lp454
I0
aI2
aI1
aa(lp455
I2
aI0
aI1
aasS'RE-train-choices'
p456
(dp457
(I1
I2
tp458
g4
(g5
(I0
tp459
g7
tp460
Rp461
(I1
(I2
tp462
g14
I00
S'\x00\x00\x00\x00\x00\x00H@\x00\x00\x00\x00\x00\x00B@'
p463
tp464
bs(I0
I1
tp465
g4
(g5
(I0
tp466
g7
tp467
Rp468
(I1
(I2
tp469
g14
I00
S'\x00\x00\x00\x00\x00\x00&@\x00\x00\x00\x00\x00\x00,@'
p470
tp471
bs(I0
tp472
g4
(g5
(I0
tp473
g7
tp474
Rp475
(I1
(I1
tp476
g14
I00
S'\x00\x00\x00\x00\x00\x80R@'
p477
tp478
bs(I1
tp479
g4
(g5
(I0
tp480
g7
tp481
Rp482
(I1
(I1
tp483
g14
I00
S'\x00\x00\x00\x00\x00\x80G@'
p484
tp485
bs(I0
I1
I2
tp486
g4
(g5
(I0
tp487
g7
tp488
Rp489
(I1
(I3
tp490
g14
I00
S'p=\n\xd7\xa3\x00U@\xb8\x1e\x85\xebQ\x80i@\xc2\xf5(\\\x8f\x029@'
p491
tp492
bs(I2
tp493
g4
(g5
(I0
tp494
g7
tp495
Rp496
(I1
(I1
tp497
g14
I00
S'\x00\x00\x00\x00\x00\x00h@'
p498
tp499
bs(I0
I2
tp500
g4
(g5
(I0
tp501
g7
tp502
Rp503
(I1
(I2
tp504
g14
I00
S'\x00\x00\x00\x00\x00\x00b@\x00\x00\x00\x00\x00\x00N@'
p505
tp506
bssS'N'
p507
I3
s.