(dp0
S'train-choices'
p1
(dp2
(I0
I1
tp3
cnumpy.core.multiarray
_reconstruct
p4
(cnumpy
ndarray
p5
(I0
tp6
S'b'
p7
tp8
Rp9
(I1
(I2
tp10
cnumpy
dtype
p11
(S'f8'
p12
I0
I1
tp13
Rp14
(I3
S'<'
p15
NNNI-1
I-1
I0
tp16
bI00
S'\x00\x00\x00\x00\x00\x80e@\x00\x00\x00\x00\x00\x005@'
p17
tp18
bs(I1
I2
tp19
g4
(g5
(I0
tp20
g7
tp21
Rp22
(I1
(I2
tp23
g14
I00
S'\x00\x00\x00\x00\x00\x00L@\x00\x00\x00\x00\x00\xc0S@'
p24
tp25
bs(I1
I3
tp26
g4
(g5
(I0
tp27
g7
tp28
Rp29
(I1
(I2
tp30
g14
I00
S'\x00\x00\x00\x00\x00\x80D@\x00\x00\x00\x00\x00\xe0a@'
p31
tp32
bs(I1
tp33
g4
(g5
(I0
tp34
g7
tp35
Rp36
(I1
(I1
tp37
g14
I00
S'\x00\x00\x00\x00\x00\xa0x@'
p38
tp39
bs(I0
I1
I2
tp40
g4
(g5
(I0
tp41
g7
tp42
Rp43
(I1
(I3
tp44
g14
I00
S'\x00\x00\x00\x00\x00\x80L@\x00\x00\x00\x00\x00\x00&@\x00\x00\x00\x00\x00\x80H@'
p45
tp46
bs(I2
tp47
g4
(g5
(I0
tp48
g7
tp49
Rp50
(I1
(I1
tp51
g14
I00
S'\x00\x00\x00\x00\x00\xa0`@'
p52
tp53
bs(I3
tp54
g4
(g5
(I0
tp55
g7
tp56
Rp57
(I1
(I1
tp58
g14
I00
S'\x00\x00\x00\x00\x00\x00Z@'
p59
tp60
bs(I0
I1
I3
tp61
g4
(g5
(I0
tp62
g7
tp63
Rp64
(I1
(I3
tp65
g14
I00
S'\x00\x00\x00\x00\x00@]@\x00\x00\x00\x00\x00\x00"@\x00\x00\x00\x00\x00\x00b@'
p66
tp67
bs(I0
I2
I3
tp68
g4
(g5
(I0
tp69
g7
tp70
Rp71
(I1
(I3
tp72
g14
I00
S'\x00\x00\x00\x00\x00\x00C@\x00\x00\x00\x00\x00\x00\x00@\x00\x00\x00\x00\x00\x00\x00\x00'
p73
tp74
bs(I0
tp75
g4
(g5
(I0
tp76
g7
tp77
Rp78
(I1
(I1
tp79
g14
I00
S'\x00\x00\x00\x00\x00\x00<@'
p80
tp81
bs(I2
I3
tp82
g4
(g5
(I0
tp83
g7
tp84
Rp85
(I1
(I2
tp86
g14
I00
S'\x00\x00\x00\x00\x00\x80K@\x00\x00\x00\x00\x00\x80Q@'
p87
tp88
bs(I0
I3
tp89
g4
(g5
(I0
tp90
g7
tp91
Rp92
(I1
(I2
tp93
g14
I00
S'\x00\x00\x00\x00\x00\x00 @\x00\x00\x00\x00\x00\x00\x08@'
p94
tp95
bs(I1
I2
I3
tp96
g4
(g5
(I0
tp97
g7
tp98
Rp99
(I1
(I3
tp100
g14
I00
S'\x00\x00\x00\x00\x00\xc0U@\x00\x00\x00\x00\x00\xc0P@\x00\x00\x00\x00\x00\x80S@'
p101
tp102
bs(I0
I2
tp103
g4
(g5
(I0
tp104
g7
tp105
Rp106
(I1
(I2
tp107
g14
I00
S'\x00\x00\x00\x00\x00\x00\x1c@\x00\x00\x00\x00\x00\x00\x10@'
p108
tp109
bs(I0
I1
I2
I3
tp110
g4
(g5
(I0
tp111
g7
tp112
Rp113
(I1
(I4
tp114
g14
I00
S'\xb8\x1e\x85\xebQ\x00m@\xe1z\x14\xaeG\x01D@\\\x8f\xc2\xf5(\xe0p@p=\n\xd7\xa3@]@'
p115
tp116
bssS'train-lists'
p117
(lp118
(lp119
I2
aI3
aI0
aI1
aa(lp120
I2
aI3
aI0
aI1
aa(lp121
I2
aI3
aI0
aI1
aa(lp122
I2
aI3
aI0
aI1
aa(lp123
I2
aI3
aI0
aI1
aa(lp124
I2
aI3
aI0
aI1
aa(lp125
I2
aI3
aI0
aI1
aa(lp126
I2
aI3
aI0
aI1
aa(lp127
I2
aI3
aI0
aI1
aa(lp128
I2
aI3
aI0
aI1
aa(lp129
I2
aI3
aI0
aI1
aa(lp130
I2
aI3
aI0
aI1
aa(lp131
I2
aI3
aI0
aI1
aa(lp132
I2
aI3
aI0
aI1
aa(lp133
I2
aI3
aI0
aI1
aa(lp134
I2
aI3
aI0
aI1
aa(lp135
I2
aI3
aI0
aI1
aa(lp136
I2
aI3
aI0
aI1
aa(lp137
I2
aI3
aI0
aI1
aa(lp138
I2
aI3
aI0
aI1
aa(lp139
I2
aI3
aI0
aI1
aa(lp140
I2
aI3
aI0
aI1
aa(lp141
I2
aI3
aI0
aI1
aa(lp142
I2
aI3
aI0
aI1
aa(lp143
I2
aI3
aI0
aI1
aa(lp144
I2
aI3
aI0
aI1
aa(lp145
I2
aI3
aI0
aI1
aa(lp146
I2
aI3
aI0
aI1
aa(lp147
I2
aI3
aI0
aI1
aa(lp148
I2
aI3
aI0
aI1
aa(lp149
I2
aI3
aI0
aI1
aa(lp150
I2
aI3
aI0
aI1
aa(lp151
I2
aI3
aI0
aI1
aa(lp152
I2
aI3
aI0
aI1
aa(lp153
I2
aI3
aI0
aI1
aa(lp154
I2
aI3
aI0
aI1
aa(lp155
I2
aI3
aI0
aI1
aa(lp156
I2
aI3
aI0
aI1
aa(lp157
I2
aI3
aI0
aI1
aa(lp158
I2
aI3
aI0
aI1
aa(lp159
I2
aI3
aI0
aI1
aa(lp160
I2
aI3
aI0
aI1
aa(lp161
I2
aI3
aI0
aI1
aa(lp162
I2
aI3
aI0
aI1
aa(lp163
I2
aI3
aI0
aI1
aa(lp164
I2
aI3
aI0
aI1
aa(lp165
I2
aI3
aI0
aI1
aa(lp166
I2
aI3
aI0
aI1
aa(lp167
I2
aI3
aI0
aI1
aa(lp168
I2
aI3
aI0
aI1
aa(lp169
I2
aI3
aI0
aI1
aa(lp170
I2
aI3
aI0
aI1
aa(lp171
I2
aI3
aI0
aI1
aa(lp172
I2
aI3
aI0
aI1
aa(lp173
I2
aI3
aI0
aI1
aa(lp174
I2
aI3
aI0
aI1
aa(lp175
I2
aI3
aI0
aI1
aa(lp176
I2
aI3
aI0
aI1
aa(lp177
I2
aI3
aI0
aI1
aa(lp178
I2
aI3
aI0
aI1
aa(lp179
I2
aI3
aI0
aI1
aa(lp180
I2
aI3
aI0
aI1
aa(lp181
I2
aI3
aI0
aI1
aa(lp182
I2
aI3
aI0
aI1
aa(lp183
I2
aI3
aI0
aI1
aa(lp184
I2
aI3
aI0
aI1
aa(lp185
I2
aI3
aI0
aI1
aa(lp186
I2
aI3
aI0
aI1
aa(lp187
I2
aI3
aI0
aI1
aa(lp188
I2
aI3
aI0
aI1
aa(lp189
I2
aI3
aI0
aI1
aa(lp190
I2
aI3
aI0
aI1
aa(lp191
I2
aI3
aI0
aI1
aa(lp192
I2
aI3
aI0
aI1
aa(lp193
I2
aI3
aI0
aI1
aa(lp194
I2
aI3
aI0
aI1
aa(lp195
I2
aI3
aI0
aI1
aa(lp196
I2
aI3
aI0
aI1
aa(lp197
I2
aI3
aI0
aI1
aa(lp198
I2
aI3
aI0
aI1
aa(lp199
I2
aI3
aI0
aI1
aa(lp200
I2
aI3
aI0
aI1
aa(lp201
I2
aI3
aI0
aI1
aa(lp202
I2
aI3
aI0
aI1
aa(lp203
I2
aI3
aI0
aI1
aa(lp204
I2
aI3
aI0
aI1
aa(lp205
I2
aI3
aI0
aI1
aa(lp206
I2
aI3
aI0
aI1
aa(lp207
I2
aI3
aI0
aI1
aa(lp208
I2
aI3
aI0
aI1
aa(lp209
I2
aI3
aI0
aI1
aa(lp210
I2
aI3
aI0
aI1
aa(lp211
I2
aI3
aI0
aI1
aa(lp212
I2
aI3
aI0
aI1
aa(lp213
I2
aI3
aI0
aI1
aa(lp214
I2
aI3
aI0
aI1
aa(lp215
I2
aI3
aI0
aI1
aa(lp216
I2
aI3
aI0
aI1
aa(lp217
I2
aI3
aI0
aI1
aa(lp218
I2
aI3
aI0
aI1
aa(lp219
I2
aI3
aI0
aI1
aa(lp220
I2
aI3
aI0
aI1
aa(lp221
I2
aI3
aI0
aI1
aa(lp222
I2
aI3
aI0
aI1
aa(lp223
I2
aI3
aI0
aI1
aa(lp224
I2
aI3
aI0
aI1
aa(lp225
I2
aI3
aI0
aI1
aa(lp226
I2
aI3
aI0
aI1
aa(lp227
I2
aI3
aI0
aI1
aa(lp228
I2
aI3
aI0
aI1
aa(lp229
I2
aI3
aI0
aI1
aa(lp230
I2
aI3
aI0
aI1
aa(lp231
I2
aI3
aI0
aI1
aa(lp232
I2
aI3
aI0
aI1
aa(lp233
I2
aI3
aI0
aI1
aa(lp234
I2
aI3
aI0
aI1
aa(lp235
I2
aI3
aI0
aI1
aa(lp236
I2
aI3
aI0
aI1
aa(lp237
I2
aI3
aI0
aI1
aa(lp238
I2
aI3
aI0
aI1
aa(lp239
I2
aI3
aI0
aI1
aa(lp240
I2
aI3
aI0
aI1
aa(lp241
I2
aI3
aI0
aI1
aa(lp242
I2
aI3
aI0
aI1
aa(lp243
I2
aI3
aI0
aI1
aa(lp244
I2
aI3
aI0
aI1
aa(lp245
I2
aI3
aI0
aI1
aa(lp246
I2
aI3
aI0
aI1
aa(lp247
I2
aI3
aI0
aI1
aa(lp248
I2
aI3
aI0
aI1
aa(lp249
I2
aI3
aI0
aI1
aa(lp250
I2
aI0
aI3
aI1
aa(lp251
I2
aI0
aI3
aI1
aa(lp252
I2
aI0
aI3
aI1
aa(lp253
I2
aI0
aI3
aI1
aa(lp254
I2
aI0
aI3
aI1
aa(lp255
I2
aI0
aI3
aI1
aa(lp256
I2
aI0
aI3
aI1
aa(lp257
I2
aI0
aI3
aI1
aa(lp258
I2
aI0
aI3
aI1
aa(lp259
I2
aI0
aI3
aI1
aa(lp260
I2
aI0
aI3
aI1
aa(lp261
I2
aI0
aI3
aI1
aa(lp262
I2
aI0
aI3
aI1
aa(lp263
I2
aI0
aI3
aI1
aa(lp264
I2
aI0
aI3
aI1
aa(lp265
I2
aI0
aI3
aI1
aa(lp266
I2
aI0
aI3
aI1
aa(lp267
I2
aI0
aI3
aI1
aa(lp268
I2
aI0
aI3
aI1
aa(lp269
I2
aI0
aI3
aI1
aa(lp270
I2
aI0
aI3
aI1
aa(lp271
I2
aI0
aI3
aI1
aa(lp272
I2
aI0
aI3
aI1
aa(lp273
I2
aI0
aI3
aI1
aa(lp274
I2
aI0
aI3
aI1
aa(lp275
I2
aI0
aI3
aI1
aa(lp276
I2
aI0
aI3
aI1
aa(lp277
I2
aI0
aI3
aI1
aa(lp278
I2
aI0
aI3
aI1
aa(lp279
I2
aI0
aI3
aI1
aa(lp280
I2
aI0
aI3
aI1
aa(lp281
I2
aI0
aI3
aI1
aa(lp282
I2
aI0
aI3
aI1
aa(lp283
I2
aI0
aI3
aI1
aa(lp284
I2
aI0
aI3
aI1
aa(lp285
I2
aI0
aI3
aI1
aa(lp286
I2
aI0
aI3
aI1
aa(lp287
I2
aI0
aI3
aI1
aa(lp288
I2
aI0
aI3
aI1
aa(lp289
I2
aI0
aI3
aI1
aa(lp290
I2
aI0
aI3
aI1
aa(lp291
I2
aI0
aI3
aI1
aa(lp292
I2
aI0
aI3
aI1
aa(lp293
I2
aI0
aI3
aI1
aa(lp294
I2
aI0
aI3
aI1
aa(lp295
I2
aI0
aI3
aI1
aa(lp296
I2
aI0
aI3
aI1
aa(lp297
I2
aI0
aI3
aI1
aa(lp298
I2
aI0
aI3
aI1
aa(lp299
I2
aI0
aI3
aI1
aa(lp300
I2
aI0
aI3
aI1
aa(lp301
I2
aI0
aI3
aI1
aa(lp302
I2
aI0
aI3
aI1
aa(lp303
I2
aI0
aI3
aI1
aa(lp304
I2
aI0
aI3
aI1
aa(lp305
I2
aI0
aI3
aI1
aa(lp306
I2
aI0
aI3
aI1
aa(lp307
I2
aI0
aI3
aI1
aa(lp308
I2
aI0
aI3
aI1
aa(lp309
I2
aI0
aI3
aI1
aa(lp310
I2
aI0
aI3
aI1
aa(lp311
I2
aI0
aI3
aI1
aa(lp312
I2
aI0
aI3
aI1
aa(lp313
I2
aI0
aI3
aI1
aa(lp314
I2
aI0
aI3
aI1
aa(lp315
I2
aI0
aI3
aI1
aa(lp316
I2
aI0
aI3
aI1
aa(lp317
I2
aI0
aI3
aI1
aa(lp318
I2
aI0
aI3
aI1
aa(lp319
I2
aI0
aI3
aI1
aa(lp320
I2
aI0
aI3
aI1
aa(lp321
I2
aI0
aI3
aI1
aa(lp322
I2
aI0
aI3
aI1
aa(lp323
I2
aI0
aI3
aI1
aa(lp324
I2
aI0
aI3
aI1
aa(lp325
I2
aI0
aI3
aI1
aa(lp326
I2
aI0
aI3
aI1
aa(lp327
I2
aI0
aI3
aI1
aa(lp328
I2
aI0
aI3
aI1
aa(lp329
I2
aI0
aI3
aI1
aa(lp330
I2
aI0
aI3
aI1
aa(lp331
I2
aI0
aI3
aI1
aa(lp332
I2
aI0
aI3
aI1
aa(lp333
I2
aI0
aI3
aI1
aa(lp334
I2
aI0
aI3
aI1
aa(lp335
I2
aI0
aI3
aI1
aa(lp336
I2
aI0
aI3
aI1
aa(lp337
I2
aI0
aI3
aI1
aa(lp338
I2
aI0
aI3
aI1
aa(lp339
I2
aI0
aI3
aI1
aa(lp340
I2
aI0
aI3
aI1
aa(lp341
I2
aI0
aI3
aI1
aa(lp342
I2
aI0
aI3
aI1
aa(lp343
I2
aI0
aI3
aI1
aa(lp344
I2
aI0
aI3
aI1
aa(lp345
I2
aI0
aI3
aI1
aa(lp346
I2
aI0
aI3
aI1
aa(lp347
I2
aI0
aI3
aI1
aa(lp348
I2
aI0
aI3
aI1
aa(lp349
I3
aI2
aI0
aI1
aa(lp350
I3
aI2
aI0
aI1
aa(lp351
I3
aI2
aI0
aI1
aa(lp352
I3
aI2
aI0
aI1
aa(lp353
I3
aI2
aI0
aI1
aa(lp354
I3
aI2
aI0
aI1
aa(lp355
I3
aI2
aI0
aI1
aa(lp356
I3
aI2
aI0
aI1
aa(lp357
I3
aI2
aI0
aI1
aa(lp358
I3
aI2
aI0
aI1
aa(lp359
I3
aI2
aI0
aI1
aa(lp360
I3
aI2
aI0
aI1
aa(lp361
I3
aI2
aI0
aI1
aa(lp362
I3
aI2
aI0
aI1
aa(lp363
I3
aI2
aI0
aI1
aa(lp364
I3
aI2
aI0
aI1
aa(lp365
I3
aI2
aI0
aI1
aa(lp366
I3
aI2
aI0
aI1
aa(lp367
I3
aI2
aI0
aI1
aa(lp368
I3
aI2
aI0
aI1
aa(lp369
I3
aI2
aI0
aI1
aa(lp370
I3
aI2
aI0
aI1
aa(lp371
I3
aI2
aI0
aI1
aa(lp372
I3
aI2
aI0
aI1
aa(lp373
I3
aI2
aI0
aI1
aa(lp374
I3
aI2
aI0
aI1
aa(lp375
I3
aI2
aI0
aI1
aa(lp376
I3
aI2
aI0
aI1
aa(lp377
I3
aI2
aI0
aI1
aa(lp378
I3
aI2
aI0
aI1
aa(lp379
I3
aI2
aI0
aI1
aa(lp380
I3
aI2
aI0
aI1
aa(lp381
I3
aI2
aI0
aI1
aa(lp382
I3
aI2
aI0
aI1
aa(lp383
I3
aI2
aI0
aI1
aa(lp384
I3
aI2
aI0
aI1
aa(lp385
I3
aI2
aI0
aI1
aa(lp386
I3
aI2
aI0
aI1
aa(lp387
I3
aI2
aI0
aI1
aa(lp388
I3
aI2
aI0
aI1
aa(lp389
I3
aI2
aI0
aI1
aa(lp390
I0
aI1
aI3
aI2
aa(lp391
I0
aI1
aI3
aI2
aa(lp392
I0
aI1
aI3
aI2
aa(lp393
I0
aI1
aI3
aI2
aa(lp394
I0
aI1
aI3
aI2
aa(lp395
I0
aI1
aI3
aI2
aa(lp396
I0
aI1
aI3
aI2
aa(lp397
I0
aI1
aI3
aI2
aa(lp398
I0
aI1
aI3
aI2
aa(lp399
I0
aI1
aI3
aI2
aa(lp400
I0
aI1
aI3
aI2
aa(lp401
I0
aI1
aI3
aI2
aa(lp402
I0
aI1
aI3
aI2
aa(lp403
I0
aI1
aI3
aI2
aa(lp404
I0
aI1
aI3
aI2
aa(lp405
I0
aI1
aI3
aI2
aa(lp406
I0
aI1
aI3
aI2
aa(lp407
I0
aI1
aI3
aI2
aa(lp408
I0
aI1
aI3
aI2
aa(lp409
I0
aI1
aI3
aI2
aa(lp410
I0
aI1
aI3
aI2
aa(lp411
I0
aI1
aI3
aI2
aa(lp412
I0
aI1
aI3
aI2
aa(lp413
I0
aI1
aI3
aI2
aa(lp414
I0
aI1
aI3
aI2
aa(lp415
I0
aI1
aI3
aI2
aa(lp416
I0
aI1
aI3
aI2
aa(lp417
I0
aI1
aI3
aI2
aa(lp418
I0
aI1
aI3
aI2
aa(lp419
I0
aI1
aI3
aI2
aa(lp420
I0
aI1
aI3
aI2
aa(lp421
I0
aI1
aI3
aI2
aa(lp422
I0
aI1
aI3
aI2
aa(lp423
I0
aI1
aI3
aI2
aa(lp424
I0
aI1
aI3
aI2
aa(lp425
I0
aI1
aI3
aI2
aa(lp426
I0
aI1
aI3
aI2
aa(lp427
I0
aI1
aI3
aI2
aa(lp428
I0
aI1
aI3
aI2
aa(lp429
I0
aI1
aI3
aI2
aa(lp430
I0
aI1
aI3
aI2
aa(lp431
I0
aI1
aI3
aI2
aa(lp432
I0
aI1
aI3
aI2
aa(lp433
I0
aI1
aI3
aI2
aa(lp434
I0
aI1
aI3
aI2
aa(lp435
I0
aI2
aI3
aI1
aa(lp436
I0
aI2
aI3
aI1
aa(lp437
I0
aI2
aI3
aI1
aa(lp438
I0
aI2
aI3
aI1
aa(lp439
I0
aI2
aI3
aI1
aa(lp440
I0
aI2
aI3
aI1
aa(lp441
I0
aI2
aI3
aI1
aa(lp442
I0
aI2
aI3
aI1
aa(lp443
I0
aI2
aI3
aI1
aa(lp444
I0
aI2
aI3
aI1
aa(lp445
I0
aI2
aI3
aI1
aa(lp446
I0
aI2
aI3
aI1
aa(lp447
I0
aI2
aI3
aI1
aa(lp448
I0
aI2
aI3
aI1
aa(lp449
I0
aI2
aI3
aI1
aa(lp450
I0
aI2
aI3
aI1
aa(lp451
I0
aI2
aI3
aI1
aa(lp452
I0
aI2
aI3
aI1
aa(lp453
I0
aI2
aI3
aI1
aa(lp454
I0
aI2
aI3
aI1
aa(lp455
I0
aI2
aI3
aI1
aa(lp456
I0
aI2
aI3
aI1
aa(lp457
I0
aI2
aI3
aI1
aa(lp458
I0
aI2
aI3
aI1
aa(lp459
I0
aI2
aI3
aI1
aa(lp460
I0
aI2
aI3
aI1
aa(lp461
I0
aI2
aI3
aI1
aa(lp462
I0
aI2
aI3
aI1
aa(lp463
I0
aI2
aI3
aI1
aa(lp464
I0
aI2
aI3
aI1
aa(lp465
I0
aI2
aI3
aI1
aa(lp466
I0
aI2
aI3
aI1
aa(lp467
I0
aI2
aI3
aI1
aa(lp468
I0
aI2
aI3
aI1
aa(lp469
I0
aI2
aI3
aI1
aa(lp470
I0
aI2
aI3
aI1
aa(lp471
I0
aI2
aI3
aI1
aa(lp472
I0
aI2
aI3
aI1
aa(lp473
I0
aI2
aI3
aI1
aa(lp474
I0
aI2
aI3
aI1
aa(lp475
I0
aI2
aI3
aI1
aa(lp476
I0
aI2
aI3
aI1
aa(lp477
I0
aI2
aI3
aI1
aa(lp478
I0
aI2
aI3
aI1
aa(lp479
I0
aI3
aI2
aI1
aa(lp480
I0
aI3
aI2
aI1
aa(lp481
I0
aI3
aI2
aI1
aa(lp482
I0
aI3
aI2
aI1
aa(lp483
I0
aI3
aI2
aI1
aa(lp484
I0
aI3
aI2
aI1
aa(lp485
I0
aI3
aI2
aI1
aa(lp486
I0
aI3
aI2
aI1
aa(lp487
I0
aI3
aI2
aI1
aa(lp488
I0
aI3
aI2
aI1
aa(lp489
I0
aI3
aI2
aI1
aa(lp490
I0
aI3
aI2
aI1
aa(lp491
I0
aI3
aI2
aI1
aa(lp492
I0
aI3
aI2
aI1
aa(lp493
I0
aI3
aI2
aI1
aa(lp494
I0
aI3
aI2
aI1
aa(lp495
I0
aI3
aI2
aI1
aa(lp496
I0
aI3
aI2
aI1
aa(lp497
I0
aI3
aI2
aI1
aa(lp498
I0
aI3
aI2
aI1
aa(lp499
I0
aI3
aI2
aI1
aa(lp500
I0
aI3
aI2
aI1
aa(lp501
I0
aI3
aI2
aI1
aa(lp502
I0
aI3
aI2
aI1
aa(lp503
I0
aI3
aI2
aI1
aa(lp504
I0
aI3
aI2
aI1
aa(lp505
I0
aI3
aI2
aI1
aa(lp506
I0
aI3
aI2
aI1
aa(lp507
I0
aI3
aI2
aI1
aa(lp508
I0
aI3
aI2
aI1
aa(lp509
I0
aI3
aI2
aI1
aa(lp510
I0
aI3
aI2
aI1
aa(lp511
I0
aI3
aI2
aI1
aa(lp512
I0
aI3
aI2
aI1
aa(lp513
I0
aI3
aI2
aI1
aa(lp514
I0
aI3
aI2
aI1
aa(lp515
I0
aI3
aI2
aI1
aa(lp516
I0
aI3
aI2
aI1
aa(lp517
I0
aI3
aI2
aI1
aa(lp518
I0
aI3
aI2
aI1
aa(lp519
I0
aI3
aI2
aI1
aa(lp520
I0
aI3
aI2
aI1
aa(lp521
I3
aI0
aI2
aI1
aa(lp522
I3
aI0
aI2
aI1
aa(lp523
I3
aI0
aI2
aI1
aa(lp524
I3
aI0
aI2
aI1
aa(lp525
I3
aI0
aI2
aI1
aa(lp526
I3
aI0
aI2
aI1
aa(lp527
I3
aI0
aI2
aI1
aa(lp528
I3
aI0
aI2
aI1
aa(lp529
I3
aI0
aI2
aI1
aa(lp530
I3
aI0
aI2
aI1
aa(lp531
I3
aI0
aI2
aI1
aa(lp532
I3
aI0
aI2
aI1
aa(lp533
I3
aI0
aI2
aI1
aa(lp534
I3
aI0
aI2
aI1
aa(lp535
I3
aI0
aI2
aI1
aa(lp536
I3
aI0
aI2
aI1
aa(lp537
I3
aI0
aI2
aI1
aa(lp538
I3
aI0
aI2
aI1
aa(lp539
I3
aI0
aI2
aI1
aa(lp540
I3
aI0
aI2
aI1
aa(lp541
I3
aI0
aI2
aI1
aa(lp542
I3
aI0
aI2
aI1
aa(lp543
I3
aI0
aI2
aI1
aa(lp544
I3
aI0
aI2
aI1
aa(lp545
I3
aI0
aI2
aI1
aa(lp546
I3
aI0
aI2
aI1
aa(lp547
I3
aI0
aI2
aI1
aa(lp548
I3
aI0
aI2
aI1
aa(lp549
I3
aI0
aI2
aI1
aa(lp550
I3
aI0
aI2
aI1
aa(lp551
I3
aI0
aI2
aI1
aa(lp552
I3
aI0
aI2
aI1
aa(lp553
I3
aI0
aI2
aI1
aa(lp554
I3
aI0
aI2
aI1
aa(lp555
I3
aI0
aI2
aI1
aa(lp556
I3
aI0
aI2
aI1
aa(lp557
I3
aI0
aI2
aI1
aa(lp558
I0
aI1
aI2
aI3
aa(lp559
I0
aI1
aI2
aI3
aa(lp560
I0
aI1
aI2
aI3
aa(lp561
I0
aI1
aI2
aI3
aa(lp562
I0
aI1
aI2
aI3
aa(lp563
I0
aI1
aI2
aI3
aa(lp564
I0
aI1
aI2
aI3
aa(lp565
I0
aI1
aI2
aI3
aa(lp566
I0
aI1
aI2
aI3
aa(lp567
I0
aI1
aI2
aI3
aa(lp568
I0
aI1
aI2
aI3
aa(lp569
I0
aI1
aI2
aI3
aa(lp570
I0
aI1
aI2
aI3
aa(lp571
I0
aI1
aI2
aI3
aa(lp572
I0
aI1
aI2
aI3
aa(lp573
I0
aI1
aI2
aI3
aa(lp574
I0
aI1
aI2
aI3
aa(lp575
I0
aI1
aI2
aI3
aa(lp576
I0
aI1
aI2
aI3
aa(lp577
I0
aI1
aI2
aI3
aa(lp578
I0
aI1
aI2
aI3
aa(lp579
I0
aI1
aI2
aI3
aa(lp580
I0
aI1
aI2
aI3
aa(lp581
I0
aI1
aI2
aI3
aa(lp582
I0
aI1
aI2
aI3
aa(lp583
I0
aI1
aI2
aI3
aa(lp584
I0
aI1
aI2
aI3
aa(lp585
I0
aI1
aI2
aI3
aa(lp586
I0
aI1
aI2
aI3
aa(lp587
I0
aI1
aI2
aI3
aa(lp588
I0
aI1
aI2
aI3
aa(lp589
I0
aI1
aI2
aI3
aa(lp590
I0
aI1
aI2
aI3
aa(lp591
I0
aI1
aI2
aI3
aa(lp592
I0
aI1
aI2
aI3
aa(lp593
I0
aI1
aI2
aI3
aa(lp594
I0
aI1
aI2
aI3
aa(lp595
I0
aI1
aI2
aI3
aa(lp596
I0
aI1
aI2
aI3
aa(lp597
I0
aI1
aI2
aI3
aa(lp598
I0
aI1
aI2
aI3
aa(lp599
I0
aI1
aI2
aI3
aa(lp600
I0
aI3
aI1
aI2
aa(lp601
I0
aI3
aI1
aI2
aa(lp602
I0
aI3
aI1
aI2
aa(lp603
I0
aI3
aI1
aI2
aa(lp604
I0
aI3
aI1
aI2
aa(lp605
I0
aI3
aI1
aI2
aa(lp606
I0
aI3
aI1
aI2
aa(lp607
I0
aI3
aI1
aI2
aa(lp608
I0
aI3
aI1
aI2
aa(lp609
I0
aI3
aI1
aI2
aa(lp610
I0
aI3
aI1
aI2
aa(lp611
I0
aI3
aI1
aI2
aa(lp612
I0
aI3
aI1
aI2
aa(lp613
I0
aI3
aI1
aI2
aa(lp614
I0
aI3
aI1
aI2
aa(lp615
I0
aI3
aI1
aI2
aa(lp616
I0
aI3
aI1
aI2
aa(lp617
I0
aI3
aI1
aI2
aa(lp618
I0
aI3
aI1
aI2
aa(lp619
I0
aI3
aI1
aI2
aa(lp620
I0
aI3
aI1
aI2
aa(lp621
I0
aI3
aI1
aI2
aa(lp622
I0
aI3
aI1
aI2
aa(lp623
I0
aI3
aI1
aI2
aa(lp624
I0
aI3
aI1
aI2
aa(lp625
I0
aI3
aI1
aI2
aa(lp626
I0
aI3
aI1
aI2
aa(lp627
I0
aI3
aI1
aI2
aa(lp628
I0
aI3
aI1
aI2
aa(lp629
I0
aI3
aI1
aI2
aa(lp630
I0
aI3
aI1
aI2
aa(lp631
I0
aI3
aI1
aI2
aa(lp632
I0
aI3
aI1
aI2
aa(lp633
I0
aI3
aI1
aI2
aa(lp634
I0
aI3
aI1
aI2
aa(lp635
I0
aI3
aI1
aI2
aa(lp636
I1
aI0
aI3
aI2
aa(lp637
I1
aI0
aI3
aI2
aa(lp638
I1
aI0
aI3
aI2
aa(lp639
I1
aI0
aI3
aI2
aa(lp640
I1
aI0
aI3
aI2
aa(lp641
I1
aI0
aI3
aI2
aa(lp642
I1
aI0
aI3
aI2
aa(lp643
I1
aI0
aI3
aI2
aa(lp644
I1
aI0
aI3
aI2
aa(lp645
I1
aI0
aI3
aI2
aa(lp646
I1
aI0
aI3
aI2
aa(lp647
I1
aI0
aI3
aI2
aa(lp648
I1
aI0
aI3
aI2
aa(lp649
I1
aI0
aI3
aI2
aa(lp650
I1
aI0
aI3
aI2
aa(lp651
I1
aI0
aI3
aI2
aa(lp652
I1
aI0
aI3
aI2
aa(lp653
I1
aI0
aI3
aI2
aa(lp654
I1
aI0
aI3
aI2
aa(lp655
I1
aI0
aI3
aI2
aa(lp656
I1
aI0
aI3
aI2
aa(lp657
I1
aI0
aI3
aI2
aa(lp658
I1
aI0
aI3
aI2
aa(lp659
I1
aI0
aI3
aI2
aa(lp660
I1
aI0
aI3
aI2
aa(lp661
I0
aI2
aI1
aI3
aa(lp662
I0
aI2
aI1
aI3
aa(lp663
I0
aI2
aI1
aI3
aa(lp664
I0
aI2
aI1
aI3
aa(lp665
I0
aI2
aI1
aI3
aa(lp666
I0
aI2
aI1
aI3
aa(lp667
I0
aI2
aI1
aI3
aa(lp668
I0
aI2
aI1
aI3
aa(lp669
I0
aI2
aI1
aI3
aa(lp670
I0
aI2
aI1
aI3
aa(lp671
I0
aI2
aI1
aI3
aa(lp672
I0
aI2
aI1
aI3
aa(lp673
I0
aI2
aI1
aI3
aa(lp674
I0
aI2
aI1
aI3
aa(lp675
I0
aI2
aI1
aI3
aa(lp676
I0
aI2
aI1
aI3
aa(lp677
I0
aI2
aI1
aI3
aa(lp678
I0
aI2
aI1
aI3
aa(lp679
I0
aI2
aI1
aI3
aa(lp680
I0
aI2
aI1
aI3
aa(lp681
I0
aI2
aI1
aI3
aa(lp682
I0
aI2
aI1
aI3
aa(lp683
I0
aI2
aI1
aI3
aa(lp684
I3
aI0
aI1
aI2
aa(lp685
I3
aI0
aI1
aI2
aa(lp686
I3
aI0
aI1
aI2
aa(lp687
I3
aI0
aI1
aI2
aa(lp688
I3
aI0
aI1
aI2
aa(lp689
I3
aI0
aI1
aI2
aa(lp690
I3
aI0
aI1
aI2
aa(lp691
I3
aI0
aI1
aI2
aa(lp692
I3
aI0
aI1
aI2
aa(lp693
I3
aI0
aI1
aI2
aa(lp694
I3
aI0
aI1
aI2
aa(lp695
I3
aI0
aI1
aI2
aa(lp696
I3
aI0
aI1
aI2
aa(lp697
I3
aI0
aI1
aI2
aa(lp698
I3
aI0
aI1
aI2
aa(lp699
I3
aI0
aI1
aI2
aa(lp700
I3
aI0
aI1
aI2
aa(lp701
I3
aI0
aI1
aI2
aa(lp702
I3
aI0
aI1
aI2
aa(lp703
I3
aI0
aI1
aI2
aa(lp704
I2
aI0
aI1
aI3
aa(lp705
I2
aI0
aI1
aI3
aa(lp706
I2
aI0
aI1
aI3
aa(lp707
I2
aI0
aI1
aI3
aa(lp708
I2
aI0
aI1
aI3
aa(lp709
I2
aI0
aI1
aI3
aa(lp710
I2
aI0
aI1
aI3
aa(lp711
I2
aI0
aI1
aI3
aa(lp712
I2
aI0
aI1
aI3
aa(lp713
I2
aI0
aI1
aI3
aa(lp714
I2
aI0
aI1
aI3
aa(lp715
I2
aI0
aI1
aI3
aa(lp716
I2
aI0
aI1
aI3
aa(lp717
I2
aI0
aI1
aI3
aa(lp718
I2
aI0
aI1
aI3
aa(lp719
I2
aI0
aI1
aI3
aa(lp720
I2
aI0
aI1
aI3
aa(lp721
I2
aI0
aI1
aI3
aa(lp722
I1
aI0
aI2
aI3
aa(lp723
I1
aI0
aI2
aI3
aa(lp724
I1
aI0
aI2
aI3
aa(lp725
I1
aI0
aI2
aI3
aa(lp726
I1
aI0
aI2
aI3
aa(lp727
I1
aI0
aI2
aI3
aa(lp728
I1
aI0
aI2
aI3
aa(lp729
I1
aI0
aI2
aI3
aa(lp730
I1
aI0
aI2
aI3
aa(lp731
I1
aI0
aI2
aI3
aa(lp732
I1
aI0
aI2
aI3
aa(lp733
I1
aI0
aI2
aI3
aa(lp734
I1
aI0
aI2
aI3
aa(lp735
I2
aI3
aI1
aI0
aa(lp736
I2
aI3
aI1
aI0
aa(lp737
I2
aI3
aI1
aI0
aa(lp738
I2
aI3
aI1
aI0
aa(lp739
I2
aI3
aI1
aI0
aa(lp740
I2
aI3
aI1
aI0
aa(lp741
I2
aI3
aI1
aI0
aa(lp742
I2
aI3
aI1
aI0
aa(lp743
I2
aI3
aI1
aI0
aa(lp744
I2
aI3
aI1
aI0
aa(lp745
I2
aI3
aI1
aI0
aa(lp746
I2
aI3
aI1
aI0
aa(lp747
I2
aI3
aI1
aI0
aa(lp748
I3
aI2
aI1
aI0
aa(lp749
I3
aI2
aI1
aI0
aa(lp750
I3
aI2
aI1
aI0
aa(lp751
I3
aI2
aI1
aI0
aa(lp752
I3
aI2
aI1
aI0
aa(lp753
I3
aI2
aI1
aI0
aa(lp754
I3
aI2
aI1
aI0
aa(lp755
I3
aI2
aI1
aI0
aa(lp756
I3
aI1
aI0
aI2
aa(lp757
I3
aI1
aI0
aI2
aa(lp758
I3
aI1
aI0
aI2
aa(lp759
I3
aI1
aI0
aI2
aa(lp760
I3
aI1
aI0
aI2
aa(lp761
I3
aI1
aI0
aI2
aa(lp762
I3
aI1
aI0
aI2
aa(lp763
I2
aI1
aI0
aI3
aa(lp764
I2
aI1
aI0
aI3
aa(lp765
I2
aI1
aI0
aI3
aa(lp766
I2
aI1
aI0
aI3
aa(lp767
I2
aI1
aI0
aI3
aa(lp768
I2
aI1
aI0
aI3
aa(lp769
I2
aI1
aI0
aI3
aa(lp770
I3
aI1
aI2
aI0
aa(lp771
I3
aI1
aI2
aI0
aa(lp772
I3
aI1
aI2
aI0
aa(lp773
I3
aI1
aI2
aI0
aa(lp774
I2
aI1
aI3
aI0
aa(lp775
I2
aI1
aI3
aI0
aa(lp776
I1
aI2
aI3
aI0
aa(lp777
I1
aI2
aI0
aI3
aasS'test-lists'
p778
(lp779
(lp780
I3
aI1
aI0
aI2
aa(lp781
I0
aI1
aI2
aI3
aa(lp782
I1
aI0
aI2
aI3
aa(lp783
I0
aI2
aI3
aI1
aa(lp784
I3
aI2
aI0
aI1
aa(lp785
I3
aI0
aI2
aI1
aa(lp786
I1
aI0
aI2
aI3
aa(lp787
I2
aI3
aI0
aI1
aa(lp788
I2
aI3
aI0
aI1
aa(lp789
I3
aI0
aI1
aI2
aa(lp790
I2
aI3
aI0
aI1
aa(lp791
I0
aI2
aI1
aI3
aa(lp792
I0
aI3
aI1
aI2
aa(lp793
I3
aI0
aI1
aI2
aa(lp794
I3
aI2
aI0
aI1
aa(lp795
I0
aI3
aI1
aI2
aa(lp796
I2
aI0
aI1
aI3
aa(lp797
I0
aI1
aI3
aI2
aa(lp798
I2
aI0
aI1
aI3
aa(lp799
I0
aI2
aI3
aI1
aa(lp800
I0
aI3
aI1
aI2
aa(lp801
I2
aI3
aI0
aI1
aa(lp802
I1
aI0
aI2
aI3
aa(lp803
I3
aI0
aI2
aI1
aa(lp804
I2
aI3
aI0
aI1
aa(lp805
I1
aI3
aI0
aI2
aa(lp806
I2
aI0
aI3
aI1
aa(lp807
I2
aI0
aI3
aI1
aa(lp808
I0
aI2
aI1
aI3
aa(lp809
I3
aI1
aI0
aI2
aa(lp810
I1
aI0
aI3
aI2
aa(lp811
I2
aI3
aI1
aI0
aa(lp812
I3
aI0
aI2
aI1
aa(lp813
I0
aI1
aI3
aI2
aa(lp814
I3
aI2
aI0
aI1
aa(lp815
I0
aI2
aI3
aI1
aa(lp816
I0
aI1
aI3
aI2
aa(lp817
I2
aI3
aI0
aI1
aa(lp818
I2
aI3
aI0
aI1
aa(lp819
I1
aI0
aI3
aI2
aa(lp820
I0
aI2
aI1
aI3
aa(lp821
I0
aI2
aI3
aI1
aa(lp822
I0
aI3
aI2
aI1
aa(lp823
I0
aI1
aI3
aI2
aa(lp824
I0
aI1
aI2
aI3
aa(lp825
I2
aI0
aI3
aI1
aa(lp826
I0
aI1
aI2
aI3
aa(lp827
I3
aI0
aI1
aI2
aa(lp828
I2
aI3
aI0
aI1
aa(lp829
I3
aI2
aI0
aI1
aa(lp830
I2
aI3
aI0
aI1
aa(lp831
I1
aI0
aI2
aI3
aa(lp832
I3
aI2
aI0
aI1
aa(lp833
I2
aI3
aI1
aI0
aa(lp834
I3
aI0
aI1
aI2
aa(lp835
I2
aI3
aI0
aI1
aa(lp836
I0
aI3
aI2
aI1
aa(lp837
I2
aI3
aI1
aI0
aa(lp838
I3
aI2
aI1
aI0
aa(lp839
I0
aI2
aI1
aI3
aa(lp840
I2
aI3
aI0
aI1
aa(lp841
I2
aI3
aI0
aI1
aa(lp842
I0
aI1
aI3
aI2
aa(lp843
I1
aI0
aI3
aI2
aa(lp844
I0
aI3
aI2
aI1
aa(lp845
I0
aI2
aI1
aI3
aa(lp846
I2
aI3
aI1
aI0
aa(lp847
I0
aI3
aI2
aI1
aa(lp848
I3
aI2
aI1
aI0
aa(lp849
I2
aI0
aI3
aI1
aa(lp850
I3
aI0
aI2
aI1
aa(lp851
I0
aI2
aI1
aI3
aa(lp852
I3
aI0
aI2
aI1
aa(lp853
I2
aI0
aI3
aI1
aa(lp854
I2
aI3
aI0
aI1
aa(lp855
I0
aI2
aI3
aI1
aa(lp856
I0
aI2
aI3
aI1
aa(lp857
I0
aI1
aI3
aI2
aa(lp858
I2
aI3
aI0
aI1
aa(lp859
I3
aI0
aI2
aI1
aa(lp860
I2
aI3
aI1
aI0
aa(lp861
I2
aI3
aI0
aI1
aa(lp862
I3
aI0
aI2
aI1
aa(lp863
I3
aI1
aI0
aI2
aa(lp864
I1
aI0
aI3
aI2
aa(lp865
I2
aI3
aI0
aI1
aa(lp866
I0
aI1
aI2
aI3
aa(lp867
I3
aI2
aI0
aI1
aa(lp868
I3
aI0
aI2
aI1
aa(lp869
I2
aI0
aI3
aI1
aa(lp870
I2
aI3
aI0
aI1
aa(lp871
I2
aI3
aI0
aI1
aa(lp872
I3
aI2
aI0
aI1
aa(lp873
I0
aI3
aI2
aI1
aa(lp874
I2
aI3
aI0
aI1
aa(lp875
I1
aI0
aI3
aI2
aa(lp876
I2
aI3
aI0
aI1
aa(lp877
I2
aI3
aI0
aI1
aa(lp878
I0
aI1
aI3
aI2
aa(lp879
I3
aI2
aI1
aI0
aa(lp880
I2
aI3
aI0
aI1
aa(lp881
I0
aI2
aI3
aI1
aa(lp882
I3
aI2
aI0
aI1
aa(lp883
I3
aI2
aI0
aI1
aa(lp884
I3
aI2
aI0
aI1
aa(lp885
I0
aI3
aI2
aI1
aa(lp886
I3
aI2
aI1
aI0
aa(lp887
I1
aI0
aI2
aI3
aa(lp888
I0
aI1
aI2
aI3
aa(lp889
I2
aI3
aI0
aI1
aa(lp890
I0
aI2
aI1
aI3
aa(lp891
I3
aI0
aI1
aI2
aa(lp892
I2
aI3
aI0
aI1
aa(lp893
I2
aI0
aI1
aI3
aa(lp894
I1
aI0
aI3
aI2
aa(lp895
I3
aI0
aI1
aI2
aa(lp896
I2
aI3
aI0
aI1
aa(lp897
I0
aI3
aI1
aI2
aa(lp898
I2
aI3
aI0
aI1
aa(lp899
I3
aI0
aI1
aI2
aa(lp900
I2
aI3
aI0
aI1
aa(lp901
I2
aI3
aI0
aI1
aa(lp902
I2
aI0
aI3
aI1
aa(lp903
I2
aI0
aI1
aI3
aa(lp904
I1
aI0
aI3
aI2
aa(lp905
I3
aI2
aI0
aI1
aa(lp906
I2
aI3
aI0
aI1
aa(lp907
I2
aI0
aI3
aI1
aa(lp908
I0
aI3
aI1
aI2
aa(lp909
I0
aI1
aI2
aI3
aa(lp910
I3
aI2
aI0
aI1
aa(lp911
I0
aI3
aI2
aI1
aa(lp912
I2
aI0
aI1
aI3
aa(lp913
I0
aI3
aI1
aI2
aa(lp914
I0
aI3
aI2
aI1
aa(lp915
I0
aI2
aI3
aI1
aa(lp916
I0
aI3
aI1
aI2
aa(lp917
I2
aI0
aI1
aI3
aa(lp918
I1
aI0
aI2
aI3
aa(lp919
I3
aI2
aI0
aI1
aa(lp920
I2
aI0
aI3
aI1
aa(lp921
I2
aI0
aI1
aI3
aa(lp922
I0
aI1
aI3
aI2
aa(lp923
I0
aI3
aI2
aI1
aa(lp924
I0
aI2
aI1
aI3
aa(lp925
I3
aI1
aI0
aI2
aa(lp926
I3
aI0
aI2
aI1
aa(lp927
I2
aI0
aI3
aI1
aa(lp928
I0
aI2
aI3
aI1
aa(lp929
I2
aI3
aI0
aI1
aa(lp930
I2
aI3
aI0
aI1
aa(lp931
I3
aI0
aI2
aI1
aa(lp932
I0
aI3
aI2
aI1
aa(lp933
I3
aI0
aI2
aI1
aa(lp934
I2
aI3
aI0
aI1
aa(lp935
I2
aI3
aI0
aI1
aa(lp936
I2
aI0
aI3
aI1
aa(lp937
I0
aI1
aI3
aI2
aa(lp938
I1
aI0
aI2
aI3
aa(lp939
I2
aI1
aI0
aI3
aa(lp940
I2
aI3
aI0
aI1
aa(lp941
I2
aI0
aI1
aI3
aa(lp942
I3
aI0
aI2
aI1
aa(lp943
I0
aI2
aI1
aI3
aasS'RE-train-choices'
p944
(dp945
(I0
I1
tp946
g4
(g5
(I0
tp947
g7
tp948
Rp949
(I1
(I2
tp950
g14
I00
S'\x00\x00\x00\x00\x00\x00C@\x00\x00\x00\x00\x00\xc0U@'
p951
tp952
bs(I1
I2
tp953
g4
(g5
(I0
tp954
g7
tp955
Rp956
(I1
(I2
tp957
g14
I00
S'\x00\x00\x00\x00\x00\x00"@\x00\x00\x00\x00\x00\x00\x00@'
p958
tp959
bs(I0
tp960
g4
(g5
(I0
tp961
g7
tp962
Rp963
(I1
(I1
tp964
g14
I00
S'\x00\x00\x00\x00\x00\x00m@'
p965
tp966
bs(I1
tp967
g4
(g5
(I0
tp968
g7
tp969
Rp970
(I1
(I1
tp971
g14
I00
S'\x00\x00\x00\x00\x00\x00D@'
p972
tp973
bs(I0
I2
I3
tp974
g4
(g5
(I0
tp975
g7
tp976
Rp977
(I1
(I3
tp978
g14
I00
S'\x00\x00\x00\x00\x00\x80e@\x00\x00\x00\x00\x00\xc0S@\x00\x00\x00\x00\x00\xe0a@'
p979
tp980
bs(I2
tp981
g4
(g5
(I0
tp982
g7
tp983
Rp984
(I1
(I1
tp985
g14
I00
S'\x00\x00\x00\x00\x00\xe0p@'
p986
tp987
bs(I3
tp988
g4
(g5
(I0
tp989
g7
tp990
Rp991
(I1
(I1
tp992
g14
I00
S'\x00\x00\x00\x00\x00@]@'
p993
tp994
bs(I0
I1
I3
tp995
g4
(g5
(I0
tp996
g7
tp997
Rp998
(I1
(I3
tp999
g14
I00
S'\x00\x00\x00\x00\x00\x00\x1c@\x00\x00\x00\x00\x00\x00L@\x00\x00\x00\x00\x00\x80Q@'
p1000
tp1001
bs(I0
I1
I2
tp1002
g4
(g5
(I0
tp1003
g7
tp1004
Rp1005
(I1
(I3
tp1006
g14
I00
S'\x00\x00\x00\x00\x00\x00 @\x00\x00\x00\x00\x00\x80D@\x00\x00\x00\x00\x00\x80K@'
p1007
tp1008
bs(I1
I3
tp1009
g4
(g5
(I0
tp1010
g7
tp1011
Rp1012
(I1
(I2
tp1013
g14
I00
S'\x00\x00\x00\x00\x00\x00&@\x00\x00\x00\x00\x00\x00\x00\x00'
p1014
tp1015
bs(I2
I3
tp1016
g4
(g5
(I0
tp1017
g7
tp1018
Rp1019
(I1
(I2
tp1020
g14
I00
S'\x00\x00\x00\x00\x00\x80H@\x00\x00\x00\x00\x00\x00b@'
p1021
tp1022
bs(I0
I3
tp1023
g4
(g5
(I0
tp1024
g7
tp1025
Rp1026
(I1
(I2
tp1027
g14
I00
S'\x00\x00\x00\x00\x00\x80L@\x00\x00\x00\x00\x00\x80S@'
p1028
tp1029
bs(I1
I2
I3
tp1030
g4
(g5
(I0
tp1031
g7
tp1032
Rp1033
(I1
(I3
tp1034
g14
I00
S'\x00\x00\x00\x00\x00\x005@\x00\x00\x00\x00\x00\x00\x10@\x00\x00\x00\x00\x00\x00\x08@'
p1035
tp1036
bs(I0
I2
tp1037
g4
(g5
(I0
tp1038
g7
tp1039
Rp1040
(I1
(I2
tp1041
g14
I00
S'\x00\x00\x00\x00\x00@]@\x00\x00\x00\x00\x00\xc0P@'
p1042
tp1043
bs(I0
I1
I2
I3
tp1044
g4
(g5
(I0
tp1045
g7
tp1046
Rp1047
(I1
(I4
tp1048
g14
I00
S'\xc2\xf5(\\\x8f\x02<@\\\x8f\xc2\xf5(\xa0x@\xb8\x1e\x85\xebQ\xa0`@p=\n\xd7\xa3\x00Z@'
p1049
tp1050
bssS'N'
p1051
I4
s.