(dp0
S'train-choices'
p1
(dp2
(I0
I1
tp3
cnumpy.core.multiarray
_reconstruct
p4
(cnumpy
ndarray
p5
(I0
tp6
S'b'
p7
tp8
Rp9
(I1
(I2
tp10
cnumpy
dtype
p11
(S'f8'
p12
I0
I1
tp13
Rp14
(I3
S'<'
p15
NNNI-1
I-1
I0
tp16
bI00
S'\x00\x00\x00\x00\x00\x00(@\x00\x00\x00\x00\x00\x00_@'
p17
tp18
bs(I1
I2
tp19
g4
(g5
(I0
tp20
g7
tp21
Rp22
(I1
(I2
tp23
g14
I00
S'\x00\x00\x00\x00\x00\x00\x18@\x00\x00\x00\x00\x00\x00\x14@'
p24
tp25
bs(I0
tp26
g4
(g5
(I0
tp27
g7
tp28
Rp29
(I1
(I1
tp30
g14
I00
S'\x00\x00\x00\x00\x00\xb0u@'
p31
tp32
bs(I1
tp33
g4
(g5
(I0
tp34
g7
tp35
Rp36
(I1
(I1
tp37
g14
I00
S'\x00\x00\x00\x00\x00\x001@'
p38
tp39
bs(I0
I1
I2
tp40
g4
(g5
(I0
tp41
g7
tp42
Rp43
(I1
(I3
tp44
g14
I00
S'\x85\xebQ\xb8\x1e\x05&@\xb8\x1e\x85\xebQ\xa0n@\xb8\x1e\x85\xebQ\x00a@'
p45
tp46
bs(I2
tp47
g4
(g5
(I0
tp48
g7
tp49
Rp50
(I1
(I1
tp51
g14
I00
S'\x00\x00\x00\x00\x00\x00<@'
p52
tp53
bs(I0
I2
tp54
g4
(g5
(I0
tp55
g7
tp56
Rp57
(I1
(I2
tp58
g14
I00
S'\x00\x00\x00\x00\x00\x006@\x00\x00\x00\x00\x00\xe0k@'
p59
tp60
bssS'train-lists'
p61
(lp62
(lp63
I1
aI2
aI0
aa(lp64
I1
aI2
aI0
aa(lp65
I1
aI2
aI0
aa(lp66
I1
aI2
aI0
aa(lp67
I1
aI2
aI0
aa(lp68
I1
aI2
aI0
aa(lp69
I1
aI2
aI0
aa(lp70
I1
aI2
aI0
aa(lp71
I1
aI2
aI0
aa(lp72
I1
aI2
aI0
aa(lp73
I1
aI2
aI0
aa(lp74
I1
aI2
aI0
aa(lp75
I1
aI2
aI0
aa(lp76
I1
aI2
aI0
aa(lp77
I1
aI2
aI0
aa(lp78
I1
aI2
aI0
aa(lp79
I1
aI2
aI0
aa(lp80
I1
aI2
aI0
aa(lp81
I1
aI2
aI0
aa(lp82
I1
aI2
aI0
aa(lp83
I1
aI2
aI0
aa(lp84
I1
aI2
aI0
aa(lp85
I1
aI2
aI0
aa(lp86
I1
aI2
aI0
aa(lp87
I1
aI2
aI0
aa(lp88
I1
aI2
aI0
aa(lp89
I1
aI2
aI0
aa(lp90
I1
aI2
aI0
aa(lp91
I1
aI2
aI0
aa(lp92
I1
aI2
aI0
aa(lp93
I1
aI2
aI0
aa(lp94
I1
aI2
aI0
aa(lp95
I1
aI2
aI0
aa(lp96
I1
aI2
aI0
aa(lp97
I1
aI2
aI0
aa(lp98
I1
aI2
aI0
aa(lp99
I1
aI2
aI0
aa(lp100
I1
aI2
aI0
aa(lp101
I1
aI2
aI0
aa(lp102
I1
aI2
aI0
aa(lp103
I1
aI2
aI0
aa(lp104
I1
aI2
aI0
aa(lp105
I1
aI2
aI0
aa(lp106
I1
aI2
aI0
aa(lp107
I1
aI2
aI0
aa(lp108
I1
aI2
aI0
aa(lp109
I1
aI2
aI0
aa(lp110
I1
aI2
aI0
aa(lp111
I1
aI2
aI0
aa(lp112
I1
aI2
aI0
aa(lp113
I1
aI2
aI0
aa(lp114
I1
aI2
aI0
aa(lp115
I1
aI2
aI0
aa(lp116
I1
aI2
aI0
aa(lp117
I1
aI2
aI0
aa(lp118
I1
aI2
aI0
aa(lp119
I1
aI2
aI0
aa(lp120
I1
aI2
aI0
aa(lp121
I1
aI2
aI0
aa(lp122
I1
aI2
aI0
aa(lp123
I1
aI2
aI0
aa(lp124
I1
aI2
aI0
aa(lp125
I1
aI2
aI0
aa(lp126
I1
aI2
aI0
aa(lp127
I1
aI2
aI0
aa(lp128
I1
aI2
aI0
aa(lp129
I1
aI2
aI0
aa(lp130
I1
aI2
aI0
aa(lp131
I1
aI2
aI0
aa(lp132
I1
aI2
aI0
aa(lp133
I1
aI2
aI0
aa(lp134
I1
aI2
aI0
aa(lp135
I1
aI2
aI0
aa(lp136
I1
aI2
aI0
aa(lp137
I1
aI2
aI0
aa(lp138
I1
aI2
aI0
aa(lp139
I1
aI2
aI0
aa(lp140
I1
aI2
aI0
aa(lp141
I1
aI2
aI0
aa(lp142
I1
aI2
aI0
aa(lp143
I1
aI2
aI0
aa(lp144
I1
aI2
aI0
aa(lp145
I1
aI2
aI0
aa(lp146
I1
aI2
aI0
aa(lp147
I1
aI2
aI0
aa(lp148
I1
aI2
aI0
aa(lp149
I1
aI2
aI0
aa(lp150
I1
aI2
aI0
aa(lp151
I1
aI2
aI0
aa(lp152
I1
aI2
aI0
aa(lp153
I1
aI2
aI0
aa(lp154
I1
aI2
aI0
aa(lp155
I1
aI2
aI0
aa(lp156
I1
aI2
aI0
aa(lp157
I1
aI2
aI0
aa(lp158
I1
aI2
aI0
aa(lp159
I1
aI2
aI0
aa(lp160
I1
aI2
aI0
aa(lp161
I1
aI2
aI0
aa(lp162
I1
aI2
aI0
aa(lp163
I1
aI2
aI0
aa(lp164
I1
aI2
aI0
aa(lp165
I1
aI2
aI0
aa(lp166
I1
aI2
aI0
aa(lp167
I1
aI2
aI0
aa(lp168
I1
aI2
aI0
aa(lp169
I1
aI2
aI0
aa(lp170
I1
aI2
aI0
aa(lp171
I1
aI2
aI0
aa(lp172
I1
aI2
aI0
aa(lp173
I1
aI2
aI0
aa(lp174
I1
aI2
aI0
aa(lp175
I1
aI2
aI0
aa(lp176
I1
aI2
aI0
aa(lp177
I1
aI2
aI0
aa(lp178
I1
aI2
aI0
aa(lp179
I1
aI2
aI0
aa(lp180
I1
aI2
aI0
aa(lp181
I1
aI2
aI0
aa(lp182
I1
aI2
aI0
aa(lp183
I1
aI2
aI0
aa(lp184
I1
aI2
aI0
aa(lp185
I1
aI2
aI0
aa(lp186
I1
aI2
aI0
aa(lp187
I1
aI2
aI0
aa(lp188
I1
aI2
aI0
aa(lp189
I1
aI2
aI0
aa(lp190
I1
aI2
aI0
aa(lp191
I1
aI2
aI0
aa(lp192
I1
aI2
aI0
aa(lp193
I1
aI2
aI0
aa(lp194
I1
aI2
aI0
aa(lp195
I1
aI2
aI0
aa(lp196
I1
aI2
aI0
aa(lp197
I1
aI2
aI0
aa(lp198
I1
aI2
aI0
aa(lp199
I1
aI2
aI0
aa(lp200
I1
aI2
aI0
aa(lp201
I1
aI2
aI0
aa(lp202
I1
aI2
aI0
aa(lp203
I1
aI2
aI0
aa(lp204
I1
aI2
aI0
aa(lp205
I1
aI2
aI0
aa(lp206
I1
aI2
aI0
aa(lp207
I1
aI2
aI0
aa(lp208
I1
aI2
aI0
aa(lp209
I1
aI2
aI0
aa(lp210
I1
aI2
aI0
aa(lp211
I1
aI2
aI0
aa(lp212
I1
aI2
aI0
aa(lp213
I1
aI2
aI0
aa(lp214
I1
aI2
aI0
aa(lp215
I1
aI2
aI0
aa(lp216
I1
aI2
aI0
aa(lp217
I1
aI2
aI0
aa(lp218
I1
aI2
aI0
aa(lp219
I1
aI2
aI0
aa(lp220
I1
aI2
aI0
aa(lp221
I1
aI2
aI0
aa(lp222
I1
aI2
aI0
aa(lp223
I1
aI2
aI0
aa(lp224
I1
aI2
aI0
aa(lp225
I1
aI2
aI0
aa(lp226
I1
aI2
aI0
aa(lp227
I1
aI2
aI0
aa(lp228
I1
aI2
aI0
aa(lp229
I1
aI2
aI0
aa(lp230
I1
aI2
aI0
aa(lp231
I1
aI2
aI0
aa(lp232
I1
aI2
aI0
aa(lp233
I1
aI2
aI0
aa(lp234
I1
aI2
aI0
aa(lp235
I1
aI2
aI0
aa(lp236
I1
aI2
aI0
aa(lp237
I1
aI2
aI0
aa(lp238
I1
aI2
aI0
aa(lp239
I1
aI2
aI0
aa(lp240
I1
aI2
aI0
aa(lp241
I1
aI2
aI0
aa(lp242
I1
aI2
aI0
aa(lp243
I1
aI2
aI0
aa(lp244
I1
aI2
aI0
aa(lp245
I1
aI2
aI0
aa(lp246
I1
aI2
aI0
aa(lp247
I1
aI2
aI0
aa(lp248
I1
aI2
aI0
aa(lp249
I1
aI2
aI0
aa(lp250
I1
aI2
aI0
aa(lp251
I1
aI2
aI0
aa(lp252
I1
aI2
aI0
aa(lp253
I1
aI2
aI0
aa(lp254
I1
aI2
aI0
aa(lp255
I1
aI2
aI0
aa(lp256
I1
aI2
aI0
aa(lp257
I1
aI2
aI0
aa(lp258
I1
aI2
aI0
aa(lp259
I1
aI2
aI0
aa(lp260
I1
aI2
aI0
aa(lp261
I1
aI2
aI0
aa(lp262
I1
aI2
aI0
aa(lp263
I1
aI2
aI0
aa(lp264
I1
aI2
aI0
aa(lp265
I1
aI2
aI0
aa(lp266
I1
aI2
aI0
aa(lp267
I1
aI2
aI0
aa(lp268
I1
aI2
aI0
aa(lp269
I1
aI2
aI0
aa(lp270
I1
aI2
aI0
aa(lp271
I1
aI2
aI0
aa(lp272
I1
aI2
aI0
aa(lp273
I1
aI2
aI0
aa(lp274
I1
aI2
aI0
aa(lp275
I1
aI2
aI0
aa(lp276
I1
aI2
aI0
aa(lp277
I1
aI2
aI0
aa(lp278
I1
aI2
aI0
aa(lp279
I1
aI2
aI0
aa(lp280
I1
aI2
aI0
aa(lp281
I1
aI2
aI0
aa(lp282
I1
aI2
aI0
aa(lp283
I1
aI2
aI0
aa(lp284
I1
aI2
aI0
aa(lp285
I1
aI2
aI0
aa(lp286
I2
aI1
aI0
aa(lp287
I2
aI1
aI0
aa(lp288
I2
aI1
aI0
aa(lp289
I2
aI1
aI0
aa(lp290
I2
aI1
aI0
aa(lp291
I2
aI1
aI0
aa(lp292
I2
aI1
aI0
aa(lp293
I2
aI1
aI0
aa(lp294
I2
aI1
aI0
aa(lp295
I2
aI1
aI0
aa(lp296
I2
aI1
aI0
aa(lp297
I2
aI1
aI0
aa(lp298
I2
aI1
aI0
aa(lp299
I2
aI1
aI0
aa(lp300
I2
aI1
aI0
aa(lp301
I2
aI1
aI0
aa(lp302
I2
aI1
aI0
aa(lp303
I2
aI1
aI0
aa(lp304
I2
aI1
aI0
aa(lp305
I2
aI1
aI0
aa(lp306
I2
aI1
aI0
aa(lp307
I2
aI1
aI0
aa(lp308
I2
aI1
aI0
aa(lp309
I2
aI1
aI0
aa(lp310
I2
aI1
aI0
aa(lp311
I2
aI1
aI0
aa(lp312
I2
aI1
aI0
aa(lp313
I2
aI1
aI0
aa(lp314
I2
aI1
aI0
aa(lp315
I2
aI1
aI0
aa(lp316
I2
aI1
aI0
aa(lp317
I2
aI1
aI0
aa(lp318
I2
aI1
aI0
aa(lp319
I2
aI1
aI0
aa(lp320
I2
aI1
aI0
aa(lp321
I2
aI1
aI0
aa(lp322
I2
aI1
aI0
aa(lp323
I2
aI1
aI0
aa(lp324
I2
aI1
aI0
aa(lp325
I2
aI1
aI0
aa(lp326
I2
aI1
aI0
aa(lp327
I2
aI1
aI0
aa(lp328
I2
aI1
aI0
aa(lp329
I2
aI1
aI0
aa(lp330
I2
aI1
aI0
aa(lp331
I2
aI1
aI0
aa(lp332
I2
aI1
aI0
aa(lp333
I2
aI1
aI0
aa(lp334
I2
aI1
aI0
aa(lp335
I2
aI1
aI0
aa(lp336
I2
aI1
aI0
aa(lp337
I2
aI1
aI0
aa(lp338
I2
aI1
aI0
aa(lp339
I2
aI1
aI0
aa(lp340
I2
aI1
aI0
aa(lp341
I2
aI1
aI0
aa(lp342
I2
aI1
aI0
aa(lp343
I2
aI1
aI0
aa(lp344
I2
aI1
aI0
aa(lp345
I2
aI1
aI0
aa(lp346
I2
aI1
aI0
aa(lp347
I2
aI1
aI0
aa(lp348
I2
aI1
aI0
aa(lp349
I2
aI1
aI0
aa(lp350
I2
aI1
aI0
aa(lp351
I2
aI1
aI0
aa(lp352
I2
aI1
aI0
aa(lp353
I2
aI1
aI0
aa(lp354
I2
aI1
aI0
aa(lp355
I2
aI1
aI0
aa(lp356
I2
aI1
aI0
aa(lp357
I2
aI1
aI0
aa(lp358
I2
aI1
aI0
aa(lp359
I2
aI1
aI0
aa(lp360
I2
aI1
aI0
aa(lp361
I2
aI1
aI0
aa(lp362
I2
aI1
aI0
aa(lp363
I2
aI1
aI0
aa(lp364
I2
aI1
aI0
aa(lp365
I2
aI1
aI0
aa(lp366
I2
aI1
aI0
aa(lp367
I2
aI1
aI0
aa(lp368
I2
aI1
aI0
aa(lp369
I2
aI1
aI0
aa(lp370
I2
aI1
aI0
aa(lp371
I2
aI1
aI0
aa(lp372
I2
aI1
aI0
aa(lp373
I2
aI1
aI0
aa(lp374
I2
aI1
aI0
aa(lp375
I2
aI1
aI0
aa(lp376
I2
aI1
aI0
aa(lp377
I2
aI1
aI0
aa(lp378
I2
aI1
aI0
aa(lp379
I2
aI1
aI0
aa(lp380
I2
aI1
aI0
aa(lp381
I2
aI1
aI0
aa(lp382
I2
aI1
aI0
aa(lp383
I2
aI1
aI0
aa(lp384
I2
aI1
aI0
aa(lp385
I2
aI1
aI0
aa(lp386
I2
aI1
aI0
aa(lp387
I2
aI1
aI0
aa(lp388
I2
aI1
aI0
aa(lp389
I2
aI1
aI0
aa(lp390
I2
aI1
aI0
aa(lp391
I2
aI1
aI0
aa(lp392
I2
aI1
aI0
aa(lp393
I2
aI1
aI0
aa(lp394
I2
aI1
aI0
aa(lp395
I2
aI1
aI0
aa(lp396
I2
aI1
aI0
aa(lp397
I2
aI1
aI0
aa(lp398
I2
aI1
aI0
aa(lp399
I2
aI1
aI0
aa(lp400
I2
aI1
aI0
aa(lp401
I2
aI1
aI0
aa(lp402
I2
aI1
aI0
aa(lp403
I2
aI1
aI0
aa(lp404
I2
aI1
aI0
aa(lp405
I2
aI1
aI0
aa(lp406
I2
aI1
aI0
aa(lp407
I2
aI1
aI0
aa(lp408
I2
aI1
aI0
aa(lp409
I2
aI1
aI0
aa(lp410
I1
aI0
aI2
aa(lp411
I1
aI0
aI2
aa(lp412
I1
aI0
aI2
aa(lp413
I1
aI0
aI2
aa(lp414
I1
aI0
aI2
aa(lp415
I1
aI0
aI2
aa(lp416
I1
aI0
aI2
aa(lp417
I1
aI0
aI2
aa(lp418
I1
aI0
aI2
aa(lp419
I1
aI0
aI2
aa(lp420
I1
aI0
aI2
aa(lp421
I1
aI0
aI2
aa(lp422
I1
aI0
aI2
aa(lp423
I1
aI0
aI2
aa(lp424
I1
aI0
aI2
aa(lp425
I1
aI0
aI2
aa(lp426
I1
aI0
aI2
aa(lp427
I1
aI0
aI2
aa(lp428
I1
aI0
aI2
aa(lp429
I1
aI0
aI2
aa(lp430
I1
aI0
aI2
aa(lp431
I1
aI0
aI2
aa(lp432
I2
aI0
aI1
aa(lp433
I2
aI0
aI1
aa(lp434
I2
aI0
aI1
aa(lp435
I2
aI0
aI1
aa(lp436
I2
aI0
aI1
aa(lp437
I2
aI0
aI1
aa(lp438
I2
aI0
aI1
aa(lp439
I2
aI0
aI1
aa(lp440
I2
aI0
aI1
aa(lp441
I2
aI0
aI1
aa(lp442
I2
aI0
aI1
aa(lp443
I2
aI0
aI1
aa(lp444
I0
aI1
aI2
aa(lp445
I0
aI1
aI2
aa(lp446
I0
aI1
aI2
aa(lp447
I0
aI1
aI2
aa(lp448
I0
aI1
aI2
aa(lp449
I0
aI1
aI2
aa(lp450
I0
aI2
aI1
aa(lp451
I0
aI2
aI1
aa(lp452
I0
aI2
aI1
aa(lp453
I0
aI2
aI1
aa(lp454
I0
aI2
aI1
aasS'test-lists'
p455
(lp456
(lp457
I1
aI2
aI0
aa(lp458
I1
aI2
aI0
aa(lp459
I1
aI0
aI2
aa(lp460
I2
aI1
aI0
aa(lp461
I2
aI1
aI0
aa(lp462
I2
aI1
aI0
aa(lp463
I1
aI2
aI0
aa(lp464
I1
aI2
aI0
aa(lp465
I2
aI0
aI1
aa(lp466
I2
aI1
aI0
aa(lp467
I1
aI2
aI0
aa(lp468
I1
aI2
aI0
aa(lp469
I1
aI2
aI0
aa(lp470
I1
aI2
aI0
aa(lp471
I1
aI0
aI2
aa(lp472
I2
aI0
aI1
aa(lp473
I2
aI1
aI0
aa(lp474
I2
aI1
aI0
aa(lp475
I1
aI0
aI2
aa(lp476
I2
aI1
aI0
aa(lp477
I1
aI2
aI0
aa(lp478
I1
aI2
aI0
aa(lp479
I1
aI2
aI0
aa(lp480
I2
aI1
aI0
aa(lp481
I1
aI2
aI0
aa(lp482
I1
aI0
aI2
aa(lp483
I0
aI1
aI2
aa(lp484
I2
aI1
aI0
aa(lp485
I1
aI2
aI0
aa(lp486
I2
aI1
aI0
aa(lp487
I2
aI0
aI1
aa(lp488
I1
aI2
aI0
aa(lp489
I1
aI2
aI0
aa(lp490
I2
aI1
aI0
aa(lp491
I2
aI0
aI1
aa(lp492
I1
aI2
aI0
aa(lp493
I0
aI2
aI1
aa(lp494
I1
aI2
aI0
aa(lp495
I2
aI1
aI0
aa(lp496
I0
aI1
aI2
aa(lp497
I0
aI1
aI2
aa(lp498
I2
aI1
aI0
aa(lp499
I2
aI1
aI0
aa(lp500
I0
aI1
aI2
aa(lp501
I2
aI1
aI0
aa(lp502
I1
aI2
aI0
aa(lp503
I0
aI1
aI2
aa(lp504
I2
aI1
aI0
aa(lp505
I2
aI1
aI0
aa(lp506
I1
aI2
aI0
aa(lp507
I1
aI2
aI0
aa(lp508
I2
aI1
aI0
aa(lp509
I1
aI2
aI0
aa(lp510
I1
aI2
aI0
aa(lp511
I2
aI1
aI0
aa(lp512
I1
aI2
aI0
aa(lp513
I2
aI1
aI0
aa(lp514
I2
aI1
aI0
aa(lp515
I2
aI1
aI0
aa(lp516
I2
aI1
aI0
aa(lp517
I1
aI2
aI0
aa(lp518
I1
aI2
aI0
aa(lp519
I1
aI0
aI2
aa(lp520
I1
aI2
aI0
aa(lp521
I1
aI2
aI0
aa(lp522
I2
aI1
aI0
aa(lp523
I1
aI2
aI0
aa(lp524
I2
aI1
aI0
aa(lp525
I1
aI2
aI0
aa(lp526
I1
aI2
aI0
aa(lp527
I1
aI2
aI0
aa(lp528
I1
aI2
aI0
aa(lp529
I1
aI2
aI0
aa(lp530
I2
aI1
aI0
aa(lp531
I1
aI2
aI0
aa(lp532
I1
aI2
aI0
aa(lp533
I1
aI2
aI0
aa(lp534
I1
aI2
aI0
aa(lp535
I1
aI2
aI0
aa(lp536
I1
aI2
aI0
aa(lp537
I2
aI1
aI0
aa(lp538
I2
aI1
aI0
aa(lp539
I2
aI1
aI0
aa(lp540
I1
aI2
aI0
aa(lp541
I1
aI0
aI2
aa(lp542
I2
aI1
aI0
aa(lp543
I1
aI2
aI0
aa(lp544
I2
aI1
aI0
aa(lp545
I0
aI1
aI2
aa(lp546
I1
aI2
aI0
aa(lp547
I2
aI1
aI0
aa(lp548
I1
aI2
aI0
aa(lp549
I2
aI1
aI0
aa(lp550
I2
aI1
aI0
aa(lp551
I2
aI1
aI0
aa(lp552
I1
aI2
aI0
aa(lp553
I1
aI2
aI0
aa(lp554
I1
aI2
aI0
aasS'RE-train-choices'
p555
(dp556
(I1
I2
tp557
g4
(g5
(I0
tp558
g7
tp559
Rp560
(I1
(I2
tp561
g14
I00
S'\x00\x00\x00\x00\x00\x00_@\x00\x00\x00\x00\x00\xe0k@'
p562
tp563
bs(I0
I1
tp564
g4
(g5
(I0
tp565
g7
tp566
Rp567
(I1
(I2
tp568
g14
I00
S'\x00\x00\x00\x00\x00\x006@\x00\x00\x00\x00\x00\x00\x18@'
p569
tp570
bs(I0
tp571
g4
(g5
(I0
tp572
g7
tp573
Rp574
(I1
(I1
tp575
g14
I00
S'\x00\x00\x00\x00\x00\x00&@'
p576
tp577
bs(I1
tp578
g4
(g5
(I0
tp579
g7
tp580
Rp581
(I1
(I1
tp582
g14
I00
S'\x00\x00\x00\x00\x00\xa0n@'
p583
tp584
bs(I0
I1
I2
tp585
g4
(g5
(I0
tp586
g7
tp587
Rp588
(I1
(I3
tp589
g14
I00
S'\\\x8f\xc2\xf5(\xb0u@\xc2\xf5(\\\x8f\x021@\xc2\xf5(\\\x8f\x02<@'
p590
tp591
bs(I2
tp592
g4
(g5
(I0
tp593
g7
tp594
Rp595
(I1
(I1
tp596
g14
I00
S'\x00\x00\x00\x00\x00\x00a@'
p597
tp598
bs(I0
I2
tp599
g4
(g5
(I0
tp600
g7
tp601
Rp602
(I1
(I2
tp603
g14
I00
S'\x00\x00\x00\x00\x00\x00(@\x00\x00\x00\x00\x00\x00\x14@'
p604
tp605
bssS'N'
p606
I3
s.