(dp0
S'train-choices'
p1
(dp2
(I0
I1
tp3
cnumpy.core.multiarray
_reconstruct
p4
(cnumpy
ndarray
p5
(I0
tp6
S'b'
p7
tp8
Rp9
(I1
(I2
tp10
cnumpy
dtype
p11
(S'f8'
p12
I0
I1
tp13
Rp14
(I3
S'<'
p15
NNNI-1
I-1
I0
tp16
bI00
S'\x00\x00\x00\x00\x00\x00\x18@\x00\x00\x00\x00\x00\x00D@'
p17
tp18
bs(I1
I2
tp19
g4
(g5
(I0
tp20
g7
tp21
Rp22
(I1
(I2
tp23
g14
I00
S'\x00\x00\x00\x00\x00\x00,@\x00\x00\x00\x00\x00\x00"@'
p24
tp25
bs(I0
tp26
g4
(g5
(I0
tp27
g7
tp28
Rp29
(I1
(I1
tp30
g14
I00
S'\x00\x00\x00\x00\x00\x00c@'
p31
tp32
bs(I1
tp33
g4
(g5
(I0
tp34
g7
tp35
Rp36
(I1
(I1
tp37
g14
I00
S'\x00\x00\x00\x00\x00\x00:@'
p38
tp39
bs(I0
I2
I3
tp40
g4
(g5
(I0
tp41
g7
tp42
Rp43
(I1
(I3
tp44
g14
I00
S'\x00\x00\x00\x00\x00\x001@\x00\x00\x00\x00\x00\x80@@\x00\x00\x00\x00\x00\x007@'
p45
tp46
bs(I2
tp47
g4
(g5
(I0
tp48
g7
tp49
Rp50
(I1
(I1
tp51
g14
I00
S'\x00\x00\x00\x00\x00\x80E@'
p52
tp53
bs(I3
tp54
g4
(g5
(I0
tp55
g7
tp56
Rp57
(I1
(I1
tp58
g14
I00
S'\x00\x00\x00\x00\x00\x80P@'
p59
tp60
bs(I0
I1
I3
tp61
g4
(g5
(I0
tp62
g7
tp63
Rp64
(I1
(I3
tp65
g14
I00
S'\x00\x00\x00\x00\x00\x00.@\x00\x00\x00\x00\x00\x80U@\x00\x00\x00\x00\x00\x00<@'
p66
tp67
bs(I0
I1
I2
tp68
g4
(g5
(I0
tp69
g7
tp70
Rp71
(I1
(I3
tp72
g14
I00
S'\x00\x00\x00\x00\x00\x00&@\x00\x00\x00\x00\x00\x00.@\x00\x00\x00\x00\x00\x002@'
p73
tp74
bs(I1
I3
tp75
g4
(g5
(I0
tp76
g7
tp77
Rp78
(I1
(I2
tp79
g14
I00
S'\x00\x00\x00\x00\x00\x00.@\x00\x00\x00\x00\x00\x00&@'
p80
tp81
bs(I2
I3
tp82
g4
(g5
(I0
tp83
g7
tp84
Rp85
(I1
(I2
tp86
g14
I00
S'\x00\x00\x00\x00\x00\x004@\x00\x00\x00\x00\x00\x00.@'
p87
tp88
bs(I0
I3
tp89
g4
(g5
(I0
tp90
g7
tp91
Rp92
(I1
(I2
tp93
g14
I00
S'\x00\x00\x00\x00\x00\x00?@\x00\x00\x00\x00\x00\x00V@'
p94
tp95
bs(I1
I2
I3
tp96
g4
(g5
(I0
tp97
g7
tp98
Rp99
(I1
(I3
tp100
g14
I00
S'\x00\x00\x00\x00\x00\x002@\x00\x00\x00\x00\x00\x00&@\x00\x00\x00\x00\x00\x00(@'
p101
tp102
bs(I0
I2
tp103
g4
(g5
(I0
tp104
g7
tp105
Rp106
(I1
(I2
tp107
g14
I00
S'\x00\x00\x00\x00\x00\x00,@\x00\x00\x00\x00\x00\x008@'
p108
tp109
bs(I0
I1
I2
I3
tp110
g4
(g5
(I0
tp111
g7
tp112
Rp113
(I1
(I4
tp114
g14
I00
S'\xe1z\x14\xaeG\x81D@p=\n\xd7\xa3@R@\xb8\x1e\x85\xebQ `@\xe1z\x14\xaeG\x01F@'
p115
tp116
bssS'train-lists'
p117
(lp118
(lp119
I2
aI1
aI3
aI0
aa(lp120
I2
aI1
aI3
aI0
aa(lp121
I2
aI1
aI3
aI0
aa(lp122
I2
aI1
aI3
aI0
aa(lp123
I2
aI1
aI3
aI0
aa(lp124
I2
aI1
aI3
aI0
aa(lp125
I2
aI1
aI3
aI0
aa(lp126
I2
aI1
aI3
aI0
aa(lp127
I2
aI1
aI3
aI0
aa(lp128
I2
aI1
aI3
aI0
aa(lp129
I2
aI1
aI3
aI0
aa(lp130
I2
aI1
aI3
aI0
aa(lp131
I2
aI1
aI3
aI0
aa(lp132
I2
aI1
aI3
aI0
aa(lp133
I2
aI1
aI3
aI0
aa(lp134
I2
aI1
aI3
aI0
aa(lp135
I2
aI1
aI3
aI0
aa(lp136
I2
aI1
aI3
aI0
aa(lp137
I2
aI1
aI3
aI0
aa(lp138
I2
aI1
aI3
aI0
aa(lp139
I2
aI1
aI3
aI0
aa(lp140
I2
aI1
aI3
aI0
aa(lp141
I2
aI1
aI3
aI0
aa(lp142
I2
aI1
aI3
aI0
aa(lp143
I2
aI1
aI3
aI0
aa(lp144
I2
aI1
aI3
aI0
aa(lp145
I2
aI1
aI3
aI0
aa(lp146
I2
aI1
aI3
aI0
aa(lp147
I2
aI1
aI3
aI0
aa(lp148
I2
aI1
aI3
aI0
aa(lp149
I2
aI1
aI3
aI0
aa(lp150
I2
aI1
aI3
aI0
aa(lp151
I2
aI1
aI3
aI0
aa(lp152
I2
aI1
aI3
aI0
aa(lp153
I2
aI1
aI3
aI0
aa(lp154
I2
aI1
aI3
aI0
aa(lp155
I2
aI1
aI3
aI0
aa(lp156
I2
aI1
aI3
aI0
aa(lp157
I2
aI1
aI3
aI0
aa(lp158
I2
aI1
aI3
aI0
aa(lp159
I2
aI1
aI3
aI0
aa(lp160
I2
aI1
aI3
aI0
aa(lp161
I2
aI1
aI3
aI0
aa(lp162
I2
aI1
aI3
aI0
aa(lp163
I2
aI1
aI3
aI0
aa(lp164
I2
aI1
aI3
aI0
aa(lp165
I2
aI1
aI3
aI0
aa(lp166
I2
aI1
aI3
aI0
aa(lp167
I2
aI1
aI3
aI0
aa(lp168
I2
aI1
aI3
aI0
aa(lp169
I2
aI1
aI3
aI0
aa(lp170
I2
aI1
aI3
aI0
aa(lp171
I2
aI1
aI3
aI0
aa(lp172
I2
aI1
aI3
aI0
aa(lp173
I2
aI1
aI3
aI0
aa(lp174
I2
aI1
aI3
aI0
aa(lp175
I2
aI1
aI3
aI0
aa(lp176
I2
aI1
aI3
aI0
aa(lp177
I2
aI1
aI3
aI0
aa(lp178
I2
aI1
aI3
aI0
aa(lp179
I2
aI1
aI3
aI0
aa(lp180
I2
aI1
aI3
aI0
aa(lp181
I2
aI1
aI3
aI0
aa(lp182
I2
aI1
aI3
aI0
aa(lp183
I2
aI1
aI3
aI0
aa(lp184
I2
aI1
aI3
aI0
aa(lp185
I2
aI1
aI3
aI0
aa(lp186
I2
aI3
aI1
aI0
aa(lp187
I2
aI3
aI1
aI0
aa(lp188
I2
aI3
aI1
aI0
aa(lp189
I2
aI3
aI1
aI0
aa(lp190
I2
aI3
aI1
aI0
aa(lp191
I2
aI3
aI1
aI0
aa(lp192
I2
aI3
aI1
aI0
aa(lp193
I2
aI3
aI1
aI0
aa(lp194
I2
aI3
aI1
aI0
aa(lp195
I2
aI3
aI1
aI0
aa(lp196
I2
aI3
aI1
aI0
aa(lp197
I2
aI3
aI1
aI0
aa(lp198
I2
aI3
aI1
aI0
aa(lp199
I2
aI3
aI1
aI0
aa(lp200
I2
aI3
aI1
aI0
aa(lp201
I2
aI3
aI1
aI0
aa(lp202
I2
aI3
aI1
aI0
aa(lp203
I2
aI3
aI1
aI0
aa(lp204
I2
aI3
aI1
aI0
aa(lp205
I2
aI3
aI1
aI0
aa(lp206
I2
aI3
aI1
aI0
aa(lp207
I2
aI3
aI1
aI0
aa(lp208
I2
aI3
aI1
aI0
aa(lp209
I2
aI3
aI1
aI0
aa(lp210
I2
aI3
aI1
aI0
aa(lp211
I1
aI2
aI3
aI0
aa(lp212
I1
aI2
aI3
aI0
aa(lp213
I1
aI2
aI3
aI0
aa(lp214
I1
aI2
aI3
aI0
aa(lp215
I1
aI2
aI3
aI0
aa(lp216
I1
aI2
aI3
aI0
aa(lp217
I1
aI2
aI3
aI0
aa(lp218
I1
aI2
aI3
aI0
aa(lp219
I1
aI2
aI3
aI0
aa(lp220
I1
aI2
aI3
aI0
aa(lp221
I1
aI2
aI3
aI0
aa(lp222
I1
aI2
aI3
aI0
aa(lp223
I1
aI2
aI3
aI0
aa(lp224
I1
aI2
aI3
aI0
aa(lp225
I1
aI2
aI3
aI0
aa(lp226
I1
aI2
aI3
aI0
aa(lp227
I1
aI2
aI3
aI0
aa(lp228
I1
aI2
aI3
aI0
aa(lp229
I1
aI2
aI3
aI0
aa(lp230
I1
aI2
aI3
aI0
aa(lp231
I1
aI2
aI3
aI0
aa(lp232
I2
aI1
aI0
aI3
aa(lp233
I2
aI1
aI0
aI3
aa(lp234
I2
aI1
aI0
aI3
aa(lp235
I2
aI1
aI0
aI3
aa(lp236
I2
aI1
aI0
aI3
aa(lp237
I2
aI1
aI0
aI3
aa(lp238
I2
aI1
aI0
aI3
aa(lp239
I2
aI1
aI0
aI3
aa(lp240
I2
aI1
aI0
aI3
aa(lp241
I2
aI1
aI0
aI3
aa(lp242
I2
aI1
aI0
aI3
aa(lp243
I2
aI1
aI0
aI3
aa(lp244
I2
aI1
aI0
aI3
aa(lp245
I2
aI1
aI0
aI3
aa(lp246
I2
aI1
aI0
aI3
aa(lp247
I2
aI1
aI0
aI3
aa(lp248
I2
aI1
aI0
aI3
aa(lp249
I2
aI1
aI0
aI3
aa(lp250
I2
aI1
aI0
aI3
aa(lp251
I3
aI2
aI1
aI0
aa(lp252
I3
aI2
aI1
aI0
aa(lp253
I3
aI2
aI1
aI0
aa(lp254
I3
aI2
aI1
aI0
aa(lp255
I3
aI2
aI1
aI0
aa(lp256
I3
aI2
aI1
aI0
aa(lp257
I3
aI2
aI1
aI0
aa(lp258
I3
aI2
aI1
aI0
aa(lp259
I3
aI2
aI1
aI0
aa(lp260
I3
aI2
aI1
aI0
aa(lp261
I3
aI2
aI1
aI0
aa(lp262
I3
aI2
aI1
aI0
aa(lp263
I3
aI2
aI1
aI0
aa(lp264
I3
aI2
aI1
aI0
aa(lp265
I3
aI2
aI1
aI0
aa(lp266
I1
aI3
aI2
aI0
aa(lp267
I1
aI3
aI2
aI0
aa(lp268
I1
aI3
aI2
aI0
aa(lp269
I1
aI3
aI2
aI0
aa(lp270
I1
aI3
aI2
aI0
aa(lp271
I1
aI3
aI2
aI0
aa(lp272
I1
aI3
aI2
aI0
aa(lp273
I1
aI3
aI2
aI0
aa(lp274
I1
aI3
aI2
aI0
aa(lp275
I1
aI3
aI2
aI0
aa(lp276
I1
aI3
aI2
aI0
aa(lp277
I1
aI3
aI2
aI0
aa(lp278
I1
aI3
aI2
aI0
aa(lp279
I1
aI3
aI2
aI0
aa(lp280
I1
aI3
aI2
aI0
aa(lp281
I1
aI0
aI2
aI3
aa(lp282
I1
aI0
aI2
aI3
aa(lp283
I1
aI0
aI2
aI3
aa(lp284
I1
aI0
aI2
aI3
aa(lp285
I1
aI0
aI2
aI3
aa(lp286
I1
aI0
aI2
aI3
aa(lp287
I1
aI0
aI2
aI3
aa(lp288
I1
aI0
aI2
aI3
aa(lp289
I1
aI0
aI2
aI3
aa(lp290
I1
aI0
aI2
aI3
aa(lp291
I1
aI0
aI2
aI3
aa(lp292
I1
aI0
aI2
aI3
aa(lp293
I1
aI0
aI2
aI3
aa(lp294
I1
aI0
aI2
aI3
aa(lp295
I0
aI1
aI3
aI2
aa(lp296
I0
aI1
aI3
aI2
aa(lp297
I0
aI1
aI3
aI2
aa(lp298
I0
aI1
aI3
aI2
aa(lp299
I0
aI1
aI3
aI2
aa(lp300
I0
aI1
aI3
aI2
aa(lp301
I0
aI1
aI3
aI2
aa(lp302
I0
aI1
aI3
aI2
aa(lp303
I0
aI1
aI3
aI2
aa(lp304
I0
aI1
aI3
aI2
aa(lp305
I0
aI1
aI3
aI2
aa(lp306
I0
aI1
aI3
aI2
aa(lp307
I1
aI2
aI0
aI3
aa(lp308
I1
aI2
aI0
aI3
aa(lp309
I1
aI2
aI0
aI3
aa(lp310
I1
aI2
aI0
aI3
aa(lp311
I1
aI2
aI0
aI3
aa(lp312
I1
aI2
aI0
aI3
aa(lp313
I1
aI2
aI0
aI3
aa(lp314
I1
aI2
aI0
aI3
aa(lp315
I1
aI2
aI0
aI3
aa(lp316
I1
aI2
aI0
aI3
aa(lp317
I1
aI2
aI0
aI3
aa(lp318
I1
aI2
aI0
aI3
aa(lp319
I0
aI1
aI2
aI3
aa(lp320
I0
aI1
aI2
aI3
aa(lp321
I0
aI1
aI2
aI3
aa(lp322
I0
aI1
aI2
aI3
aa(lp323
I0
aI1
aI2
aI3
aa(lp324
I0
aI1
aI2
aI3
aa(lp325
I3
aI1
aI2
aI0
aa(lp326
I3
aI1
aI2
aI0
aa(lp327
I3
aI1
aI2
aI0
aa(lp328
I3
aI1
aI2
aI0
aa(lp329
I3
aI1
aI2
aI0
aa(lp330
I3
aI1
aI2
aI0
aa(lp331
I3
aI1
aI2
aI0
aa(lp332
I3
aI1
aI2
aI0
aa(lp333
I3
aI1
aI2
aI0
aa(lp334
I2
aI0
aI3
aI1
aa(lp335
I2
aI0
aI3
aI1
aa(lp336
I2
aI0
aI3
aI1
aa(lp337
I2
aI0
aI3
aI1
aa(lp338
I2
aI0
aI3
aI1
aa(lp339
I2
aI0
aI3
aI1
aa(lp340
I2
aI0
aI3
aI1
aa(lp341
I2
aI0
aI1
aI3
aa(lp342
I2
aI0
aI1
aI3
aa(lp343
I2
aI0
aI1
aI3
aa(lp344
I2
aI0
aI1
aI3
aa(lp345
I2
aI0
aI1
aI3
aa(lp346
I2
aI0
aI1
aI3
aa(lp347
I2
aI0
aI1
aI3
aa(lp348
I2
aI0
aI1
aI3
aa(lp349
I1
aI3
aI0
aI2
aa(lp350
I1
aI3
aI0
aI2
aa(lp351
I1
aI3
aI0
aI2
aa(lp352
I1
aI3
aI0
aI2
aa(lp353
I1
aI3
aI0
aI2
aa(lp354
I1
aI3
aI0
aI2
aa(lp355
I1
aI3
aI0
aI2
aa(lp356
I1
aI3
aI0
aI2
aa(lp357
I0
aI3
aI1
aI2
aa(lp358
I0
aI3
aI1
aI2
aa(lp359
I0
aI3
aI1
aI2
aa(lp360
I0
aI3
aI1
aI2
aa(lp361
I0
aI3
aI1
aI2
aa(lp362
I0
aI3
aI1
aI2
aa(lp363
I0
aI3
aI1
aI2
aa(lp364
I0
aI2
aI1
aI3
aa(lp365
I0
aI2
aI1
aI3
aa(lp366
I0
aI2
aI1
aI3
aa(lp367
I0
aI2
aI1
aI3
aa(lp368
I0
aI2
aI1
aI3
aa(lp369
I0
aI2
aI1
aI3
aa(lp370
I0
aI2
aI1
aI3
aa(lp371
I3
aI0
aI1
aI2
aa(lp372
I3
aI0
aI1
aI2
aa(lp373
I3
aI0
aI1
aI2
aa(lp374
I3
aI0
aI1
aI2
aa(lp375
I3
aI0
aI1
aI2
aa(lp376
I3
aI0
aI1
aI2
aa(lp377
I3
aI0
aI1
aI2
aa(lp378
I3
aI1
aI0
aI2
aa(lp379
I3
aI1
aI0
aI2
aa(lp380
I3
aI1
aI0
aI2
aa(lp381
I3
aI1
aI0
aI2
aa(lp382
I3
aI1
aI0
aI2
aa(lp383
I3
aI1
aI0
aI2
aa(lp384
I1
aI0
aI3
aI2
aa(lp385
I1
aI0
aI3
aI2
aa(lp386
I1
aI0
aI3
aI2
aa(lp387
I0
aI3
aI2
aI1
aa(lp388
I0
aI3
aI2
aI1
aa(lp389
I0
aI3
aI2
aI1
aa(lp390
I0
aI3
aI2
aI1
aa(lp391
I0
aI3
aI2
aI1
aa(lp392
I2
aI3
aI0
aI1
aa(lp393
I2
aI3
aI0
aI1
aa(lp394
I2
aI3
aI0
aI1
aa(lp395
I3
aI0
aI2
aI1
aa(lp396
I3
aI0
aI2
aI1
aa(lp397
I3
aI0
aI2
aI1
aa(lp398
I3
aI0
aI2
aI1
aa(lp399
I0
aI2
aI3
aI1
aa(lp400
I0
aI2
aI3
aI1
aa(lp401
I0
aI2
aI3
aI1
aa(lp402
I0
aI2
aI3
aI1
aa(lp403
I3
aI2
aI0
aI1
aa(lp404
I3
aI2
aI0
aI1
aa(lp405
I3
aI2
aI0
aI1
aasS'test-lists'
p406
(lp407
(lp408
I3
aI2
aI1
aI0
aa(lp409
I0
aI1
aI3
aI2
aa(lp410
I1
aI3
aI2
aI0
aa(lp411
I1
aI3
aI2
aI0
aa(lp412
I2
aI3
aI1
aI0
aa(lp413
I1
aI2
aI3
aI0
aa(lp414
I0
aI1
aI3
aI2
aa(lp415
I2
aI0
aI3
aI1
aa(lp416
I1
aI0
aI2
aI3
aa(lp417
I2
aI1
aI3
aI0
aa(lp418
I2
aI1
aI3
aI0
aa(lp419
I0
aI1
aI2
aI3
aa(lp420
I2
aI3
aI1
aI0
aa(lp421
I2
aI1
aI0
aI3
aa(lp422
I0
aI1
aI2
aI3
aa(lp423
I1
aI0
aI3
aI2
aa(lp424
I0
aI1
aI2
aI3
aa(lp425
I0
aI1
aI3
aI2
aa(lp426
I2
aI1
aI3
aI0
aa(lp427
I2
aI0
aI1
aI3
aa(lp428
I2
aI3
aI0
aI1
aa(lp429
I1
aI3
aI0
aI2
aa(lp430
I2
aI1
aI3
aI0
aa(lp431
I1
aI0
aI2
aI3
aa(lp432
I2
aI1
aI0
aI3
aa(lp433
I0
aI1
aI3
aI2
aa(lp434
I1
aI3
aI2
aI0
aa(lp435
I1
aI2
aI3
aI0
aa(lp436
I2
aI1
aI3
aI0
aa(lp437
I3
aI2
aI1
aI0
aa(lp438
I3
aI1
aI2
aI0
aa(lp439
I2
aI1
aI3
aI0
aa(lp440
I0
aI1
aI3
aI2
aa(lp441
I1
aI2
aI3
aI0
aa(lp442
I1
aI2
aI3
aI0
aa(lp443
I0
aI1
aI2
aI3
aa(lp444
I2
aI1
aI3
aI0
aa(lp445
I3
aI2
aI1
aI0
aa(lp446
I2
aI1
aI3
aI0
aa(lp447
I1
aI2
aI0
aI3
aa(lp448
I3
aI1
aI2
aI0
aa(lp449
I3
aI2
aI1
aI0
aa(lp450
I2
aI3
aI1
aI0
aa(lp451
I0
aI1
aI2
aI3
aa(lp452
I2
aI1
aI3
aI0
aa(lp453
I1
aI0
aI2
aI3
aa(lp454
I2
aI1
aI0
aI3
aa(lp455
I2
aI3
aI1
aI0
aa(lp456
I2
aI3
aI1
aI0
aa(lp457
I2
aI1
aI3
aI0
aa(lp458
I1
aI2
aI0
aI3
aa(lp459
I0
aI3
aI1
aI2
aa(lp460
I1
aI3
aI2
aI0
aa(lp461
I0
aI1
aI2
aI3
aa(lp462
I2
aI3
aI1
aI0
aa(lp463
I2
aI1
aI3
aI0
aa(lp464
I3
aI2
aI1
aI0
aa(lp465
I1
aI2
aI3
aI0
aa(lp466
I2
aI1
aI0
aI3
aa(lp467
I1
aI3
aI2
aI0
aa(lp468
I1
aI2
aI3
aI0
aa(lp469
I2
aI1
aI3
aI0
aa(lp470
I3
aI2
aI1
aI0
aa(lp471
I2
aI1
aI3
aI0
aa(lp472
I1
aI0
aI3
aI2
aa(lp473
I1
aI2
aI0
aI3
aa(lp474
I2
aI1
aI0
aI3
aa(lp475
I2
aI1
aI3
aI0
aa(lp476
I2
aI1
aI3
aI0
aa(lp477
I1
aI2
aI3
aI0
aa(lp478
I2
aI0
aI3
aI1
aasS'RE-train-choices'
p479
(dp480
(I1
I2
tp481
g4
(g5
(I0
tp482
g7
tp483
Rp484
(I1
(I2
tp485
g14
I00
S'\x00\x00\x00\x00\x00\x80U@\x00\x00\x00\x00\x00\x80@@'
p486
tp487
bs(I0
I1
tp488
g4
(g5
(I0
tp489
g7
tp490
Rp491
(I1
(I2
tp492
g14
I00
S'\x00\x00\x00\x00\x00\x001@\x00\x00\x00\x00\x00\x002@'
p493
tp494
bs(I1
I3
tp495
g4
(g5
(I0
tp496
g7
tp497
Rp498
(I1
(I2
tp499
g14
I00
S'\x00\x00\x00\x00\x00\x00.@\x00\x00\x00\x00\x00\x007@'
p500
tp501
bs(I1
tp502
g4
(g5
(I0
tp503
g7
tp504
Rp505
(I1
(I1
tp506
g14
I00
S'\x00\x00\x00\x00\x00@R@'
p507
tp508
bs(I0
I1
I2
tp509
g4
(g5
(I0
tp510
g7
tp511
Rp512
(I1
(I3
tp513
g14
I00
S'\x00\x00\x00\x00\x00\x00?@\x00\x00\x00\x00\x00\x00.@\x00\x00\x00\x00\x00\x004@'
p514
tp515
bs(I2
tp516
g4
(g5
(I0
tp517
g7
tp518
Rp519
(I1
(I1
tp520
g14
I00
S'\x00\x00\x00\x00\x00 `@'
p521
tp522
bs(I3
tp523
g4
(g5
(I0
tp524
g7
tp525
Rp526
(I1
(I1
tp527
g14
I00
S'\x00\x00\x00\x00\x00\x00F@'
p528
tp529
bs(I1
I2
I3
tp530
g4
(g5
(I0
tp531
g7
tp532
Rp533
(I1
(I3
tp534
g14
I00
S'\x00\x00\x00\x00\x00\x00D@\x00\x00\x00\x00\x00\x008@\x00\x00\x00\x00\x00\x00V@'
p535
tp536
bs(I0
I2
I3
tp537
g4
(g5
(I0
tp538
g7
tp539
Rp540
(I1
(I3
tp541
g14
I00
S'\x00\x00\x00\x00\x00\x00\x18@\x00\x00\x00\x00\x00\x00"@\x00\x00\x00\x00\x00\x00&@'
p542
tp543
bs(I0
tp544
g4
(g5
(I0
tp545
g7
tp546
Rp547
(I1
(I1
tp548
g14
I00
S'\x00\x00\x00\x00\x00\x80D@'
p549
tp550
bs(I2
I3
tp551
g4
(g5
(I0
tp552
g7
tp553
Rp554
(I1
(I2
tp555
g14
I00
S'\x00\x00\x00\x00\x00\x002@\x00\x00\x00\x00\x00\x00<@'
p556
tp557
bs(I0
I3
tp558
g4
(g5
(I0
tp559
g7
tp560
Rp561
(I1
(I2
tp562
g14
I00
S'\x00\x00\x00\x00\x00\x00&@\x00\x00\x00\x00\x00\x00(@'
p563
tp564
bs(I0
I1
I3
tp565
g4
(g5
(I0
tp566
g7
tp567
Rp568
(I1
(I3
tp569
g14
I00
S'\x00\x00\x00\x00\x00\x00,@\x00\x00\x00\x00\x00\x00,@\x00\x00\x00\x00\x00\x00.@'
p570
tp571
bs(I0
I2
tp572
g4
(g5
(I0
tp573
g7
tp574
Rp575
(I1
(I2
tp576
g14
I00
S'\x00\x00\x00\x00\x00\x00.@\x00\x00\x00\x00\x00\x00&@'
p577
tp578
bs(I0
I1
I2
I3
tp579
g4
(g5
(I0
tp580
g7
tp581
Rp582
(I1
(I4
tp583
g14
I00
S'\xb8\x1e\x85\xebQ\x00c@\xc2\xf5(\\\x8f\x02:@\xe1z\x14\xaeG\x81E@p=\n\xd7\xa3\x80P@'
p584
tp585
bssS'N'
p586
I4
s.