(dp0
S'train-choices'
p1
(dp2
(I0
I1
tp3
cnumpy.core.multiarray
_reconstruct
p4
(cnumpy
ndarray
p5
(I0
tp6
S'b'
p7
tp8
Rp9
(I1
(I2
tp10
cnumpy
dtype
p11
(S'f8'
p12
I0
I1
tp13
Rp14
(I3
S'<'
p15
NNNI-1
I-1
I0
tp16
bI00
S'\x00\x00\x00\x00\x00\xc0R@\x00\x00\x00\x00\x00\x80A@'
p17
tp18
bs(I1
I2
tp19
g4
(g5
(I0
tp20
g7
tp21
Rp22
(I1
(I2
tp23
g14
I00
S'\x00\x00\x00\x00\x00\x00 @\x00\x00\x00\x00\x00\x00=@'
p24
tp25
bs(I1
I3
tp26
g4
(g5
(I0
tp27
g7
tp28
Rp29
(I1
(I2
tp30
g14
I00
S'\x00\x00\x00\x00\x00\x00G@\x00\x00\x00\x00\x00\xc0[@'
p31
tp32
bs(I1
tp33
g4
(g5
(I0
tp34
g7
tp35
Rp36
(I1
(I1
tp37
g14
I00
S'\x00\x00\x00\x00\x00\xe0j@'
p38
tp39
bs(I0
I1
I2
tp40
g4
(g5
(I0
tp41
g7
tp42
Rp43
(I1
(I3
tp44
g14
I00
S'\x00\x00\x00\x00\x00\x004@\x00\x00\x00\x00\x00\x00.@\x00\x00\x00\x00\x00\x00B@'
p45
tp46
bs(I2
tp47
g4
(g5
(I0
tp48
g7
tp49
Rp50
(I1
(I1
tp51
g14
I00
S'\x00\x00\x00\x00\x00\x009@'
p52
tp53
bs(I3
tp54
g4
(g5
(I0
tp55
g7
tp56
Rp57
(I1
(I1
tp58
g14
I00
S'\x00\x00\x00\x00\x00\xc0W@'
p59
tp60
bs(I0
I1
I3
tp61
g4
(g5
(I0
tp62
g7
tp63
Rp64
(I1
(I3
tp65
g14
I00
S'\x00\x00\x00\x00\x00\xc0]@\x00\x00\x00\x00\x00\x00F@\x00\x00\x00\x00\x00\x80R@'
p66
tp67
bs(I0
I2
I3
tp68
g4
(g5
(I0
tp69
g7
tp70
Rp71
(I1
(I3
tp72
g14
I00
S'\x00\x00\x00\x00\x00\x00(@\x00\x00\x00\x00\x00\x009@\x00\x00\x00\x00\x00\x002@'
p73
tp74
bs(I0
tp75
g4
(g5
(I0
tp76
g7
tp77
Rp78
(I1
(I1
tp79
g14
I00
S'\x00\x00\x00\x00\x00@W@'
p80
tp81
bs(I2
I3
tp82
g4
(g5
(I0
tp83
g7
tp84
Rp85
(I1
(I2
tp86
g14
I00
S'\x00\x00\x00\x00\x00\x001@\x00\x00\x00\x00\x00\x00\x14@'
p87
tp88
bs(I0
I3
tp89
g4
(g5
(I0
tp90
g7
tp91
Rp92
(I1
(I2
tp93
g14
I00
S'\x00\x00\x00\x00\x00\x00@@\x00\x00\x00\x00\x00\x80B@'
p94
tp95
bs(I1
I2
I3
tp96
g4
(g5
(I0
tp97
g7
tp98
Rp99
(I1
(I3
tp100
g14
I00
S'\x00\x00\x00\x00\x00\x00$@\x00\x00\x00\x00\x00\x00C@\x00\x00\x00\x00\x00\x001@'
p101
tp102
bs(I0
I2
tp103
g4
(g5
(I0
tp104
g7
tp105
Rp106
(I1
(I2
tp107
g14
I00
S'\x00\x00\x00\x00\x00\x00(@\x00\x00\x00\x00\x00\x005@'
p108
tp109
bs(I0
I1
I2
I3
tp110
g4
(g5
(I0
tp111
g7
tp112
Rp113
(I1
(I4
tp114
g14
I00
S'p=\n\xd7\xa3@P@\xe1z\x14\xaeG\x81K@\xb8\x1e\x85\xebQ\xa0m@p=\n\xd7\xa3\xc0Q@'
p115
tp116
bssS'train-lists'
p117
(lp118
(lp119
I2
aI0
aI3
aI1
aa(lp120
I2
aI0
aI3
aI1
aa(lp121
I2
aI0
aI3
aI1
aa(lp122
I2
aI0
aI3
aI1
aa(lp123
I2
aI0
aI3
aI1
aa(lp124
I2
aI0
aI3
aI1
aa(lp125
I2
aI0
aI3
aI1
aa(lp126
I2
aI0
aI3
aI1
aa(lp127
I2
aI0
aI3
aI1
aa(lp128
I2
aI0
aI3
aI1
aa(lp129
I2
aI0
aI3
aI1
aa(lp130
I2
aI0
aI3
aI1
aa(lp131
I2
aI0
aI3
aI1
aa(lp132
I2
aI0
aI3
aI1
aa(lp133
I2
aI0
aI3
aI1
aa(lp134
I2
aI0
aI3
aI1
aa(lp135
I2
aI0
aI3
aI1
aa(lp136
I2
aI0
aI3
aI1
aa(lp137
I2
aI0
aI3
aI1
aa(lp138
I2
aI0
aI3
aI1
aa(lp139
I2
aI0
aI3
aI1
aa(lp140
I2
aI0
aI3
aI1
aa(lp141
I2
aI0
aI3
aI1
aa(lp142
I2
aI0
aI3
aI1
aa(lp143
I2
aI0
aI3
aI1
aa(lp144
I2
aI0
aI3
aI1
aa(lp145
I2
aI0
aI3
aI1
aa(lp146
I2
aI0
aI3
aI1
aa(lp147
I2
aI0
aI3
aI1
aa(lp148
I2
aI0
aI3
aI1
aa(lp149
I2
aI0
aI3
aI1
aa(lp150
I2
aI0
aI3
aI1
aa(lp151
I2
aI0
aI3
aI1
aa(lp152
I2
aI0
aI3
aI1
aa(lp153
I2
aI0
aI3
aI1
aa(lp154
I2
aI0
aI3
aI1
aa(lp155
I2
aI0
aI3
aI1
aa(lp156
I2
aI0
aI3
aI1
aa(lp157
I2
aI0
aI3
aI1
aa(lp158
I2
aI0
aI3
aI1
aa(lp159
I2
aI0
aI3
aI1
aa(lp160
I2
aI0
aI3
aI1
aa(lp161
I2
aI0
aI3
aI1
aa(lp162
I2
aI0
aI3
aI1
aa(lp163
I2
aI0
aI3
aI1
aa(lp164
I2
aI0
aI3
aI1
aa(lp165
I2
aI0
aI3
aI1
aa(lp166
I2
aI0
aI3
aI1
aa(lp167
I2
aI0
aI3
aI1
aa(lp168
I2
aI0
aI3
aI1
aa(lp169
I2
aI0
aI3
aI1
aa(lp170
I2
aI0
aI3
aI1
aa(lp171
I2
aI0
aI3
aI1
aa(lp172
I2
aI0
aI3
aI1
aa(lp173
I2
aI0
aI3
aI1
aa(lp174
I2
aI0
aI3
aI1
aa(lp175
I2
aI0
aI3
aI1
aa(lp176
I2
aI0
aI3
aI1
aa(lp177
I2
aI0
aI3
aI1
aa(lp178
I2
aI0
aI3
aI1
aa(lp179
I2
aI0
aI3
aI1
aa(lp180
I2
aI0
aI3
aI1
aa(lp181
I2
aI0
aI3
aI1
aa(lp182
I2
aI0
aI3
aI1
aa(lp183
I2
aI0
aI3
aI1
aa(lp184
I2
aI0
aI3
aI1
aa(lp185
I2
aI0
aI3
aI1
aa(lp186
I2
aI0
aI3
aI1
aa(lp187
I2
aI0
aI3
aI1
aa(lp188
I2
aI0
aI3
aI1
aa(lp189
I2
aI0
aI3
aI1
aa(lp190
I2
aI0
aI3
aI1
aa(lp191
I2
aI0
aI3
aI1
aa(lp192
I2
aI0
aI3
aI1
aa(lp193
I2
aI0
aI3
aI1
aa(lp194
I2
aI0
aI3
aI1
aa(lp195
I2
aI0
aI3
aI1
aa(lp196
I2
aI0
aI3
aI1
aa(lp197
I2
aI0
aI3
aI1
aa(lp198
I2
aI0
aI3
aI1
aa(lp199
I2
aI0
aI3
aI1
aa(lp200
I2
aI0
aI3
aI1
aa(lp201
I2
aI0
aI3
aI1
aa(lp202
I2
aI0
aI3
aI1
aa(lp203
I2
aI3
aI0
aI1
aa(lp204
I2
aI3
aI0
aI1
aa(lp205
I2
aI3
aI0
aI1
aa(lp206
I2
aI3
aI0
aI1
aa(lp207
I2
aI3
aI0
aI1
aa(lp208
I2
aI3
aI0
aI1
aa(lp209
I2
aI3
aI0
aI1
aa(lp210
I2
aI3
aI0
aI1
aa(lp211
I2
aI3
aI0
aI1
aa(lp212
I2
aI3
aI0
aI1
aa(lp213
I2
aI3
aI0
aI1
aa(lp214
I2
aI3
aI0
aI1
aa(lp215
I2
aI3
aI0
aI1
aa(lp216
I2
aI3
aI0
aI1
aa(lp217
I2
aI3
aI0
aI1
aa(lp218
I2
aI3
aI0
aI1
aa(lp219
I2
aI3
aI0
aI1
aa(lp220
I2
aI3
aI0
aI1
aa(lp221
I2
aI3
aI0
aI1
aa(lp222
I2
aI3
aI0
aI1
aa(lp223
I2
aI3
aI0
aI1
aa(lp224
I2
aI3
aI0
aI1
aa(lp225
I2
aI3
aI0
aI1
aa(lp226
I2
aI3
aI0
aI1
aa(lp227
I2
aI3
aI0
aI1
aa(lp228
I2
aI3
aI0
aI1
aa(lp229
I2
aI3
aI0
aI1
aa(lp230
I2
aI3
aI0
aI1
aa(lp231
I2
aI3
aI0
aI1
aa(lp232
I2
aI3
aI0
aI1
aa(lp233
I2
aI3
aI0
aI1
aa(lp234
I2
aI3
aI0
aI1
aa(lp235
I2
aI3
aI0
aI1
aa(lp236
I2
aI3
aI0
aI1
aa(lp237
I2
aI3
aI0
aI1
aa(lp238
I2
aI3
aI0
aI1
aa(lp239
I2
aI3
aI0
aI1
aa(lp240
I2
aI3
aI0
aI1
aa(lp241
I2
aI3
aI0
aI1
aa(lp242
I2
aI3
aI0
aI1
aa(lp243
I2
aI3
aI0
aI1
aa(lp244
I2
aI3
aI0
aI1
aa(lp245
I2
aI3
aI0
aI1
aa(lp246
I2
aI3
aI0
aI1
aa(lp247
I2
aI3
aI0
aI1
aa(lp248
I2
aI3
aI0
aI1
aa(lp249
I2
aI3
aI0
aI1
aa(lp250
I2
aI3
aI0
aI1
aa(lp251
I2
aI3
aI0
aI1
aa(lp252
I2
aI3
aI0
aI1
aa(lp253
I2
aI3
aI0
aI1
aa(lp254
I2
aI3
aI0
aI1
aa(lp255
I2
aI3
aI0
aI1
aa(lp256
I2
aI0
aI1
aI3
aa(lp257
I2
aI0
aI1
aI3
aa(lp258
I2
aI0
aI1
aI3
aa(lp259
I2
aI0
aI1
aI3
aa(lp260
I2
aI0
aI1
aI3
aa(lp261
I2
aI0
aI1
aI3
aa(lp262
I2
aI0
aI1
aI3
aa(lp263
I2
aI0
aI1
aI3
aa(lp264
I2
aI0
aI1
aI3
aa(lp265
I2
aI0
aI1
aI3
aa(lp266
I2
aI0
aI1
aI3
aa(lp267
I2
aI0
aI1
aI3
aa(lp268
I2
aI0
aI1
aI3
aa(lp269
I2
aI0
aI1
aI3
aa(lp270
I2
aI0
aI1
aI3
aa(lp271
I2
aI0
aI1
aI3
aa(lp272
I2
aI0
aI1
aI3
aa(lp273
I2
aI0
aI1
aI3
aa(lp274
I2
aI0
aI1
aI3
aa(lp275
I2
aI0
aI1
aI3
aa(lp276
I2
aI0
aI1
aI3
aa(lp277
I2
aI0
aI1
aI3
aa(lp278
I2
aI0
aI1
aI3
aa(lp279
I2
aI0
aI1
aI3
aa(lp280
I2
aI0
aI1
aI3
aa(lp281
I2
aI0
aI1
aI3
aa(lp282
I2
aI0
aI1
aI3
aa(lp283
I2
aI0
aI1
aI3
aa(lp284
I2
aI0
aI1
aI3
aa(lp285
I2
aI0
aI1
aI3
aa(lp286
I2
aI0
aI1
aI3
aa(lp287
I2
aI0
aI1
aI3
aa(lp288
I2
aI0
aI1
aI3
aa(lp289
I2
aI0
aI1
aI3
aa(lp290
I2
aI0
aI1
aI3
aa(lp291
I0
aI2
aI3
aI1
aa(lp292
I0
aI2
aI3
aI1
aa(lp293
I0
aI2
aI3
aI1
aa(lp294
I0
aI2
aI3
aI1
aa(lp295
I0
aI2
aI3
aI1
aa(lp296
I0
aI2
aI3
aI1
aa(lp297
I0
aI2
aI3
aI1
aa(lp298
I0
aI2
aI3
aI1
aa(lp299
I0
aI2
aI3
aI1
aa(lp300
I0
aI2
aI3
aI1
aa(lp301
I0
aI2
aI3
aI1
aa(lp302
I0
aI2
aI3
aI1
aa(lp303
I0
aI2
aI3
aI1
aa(lp304
I0
aI2
aI3
aI1
aa(lp305
I0
aI2
aI3
aI1
aa(lp306
I0
aI2
aI3
aI1
aa(lp307
I0
aI2
aI3
aI1
aa(lp308
I0
aI2
aI3
aI1
aa(lp309
I0
aI2
aI3
aI1
aa(lp310
I0
aI2
aI3
aI1
aa(lp311
I0
aI2
aI3
aI1
aa(lp312
I0
aI2
aI3
aI1
aa(lp313
I0
aI2
aI3
aI1
aa(lp314
I0
aI2
aI3
aI1
aa(lp315
I0
aI2
aI3
aI1
aa(lp316
I0
aI2
aI3
aI1
aa(lp317
I0
aI2
aI3
aI1
aa(lp318
I2
aI1
aI3
aI0
aa(lp319
I2
aI1
aI3
aI0
aa(lp320
I2
aI1
aI3
aI0
aa(lp321
I2
aI1
aI3
aI0
aa(lp322
I2
aI1
aI3
aI0
aa(lp323
I2
aI1
aI3
aI0
aa(lp324
I2
aI1
aI3
aI0
aa(lp325
I2
aI1
aI3
aI0
aa(lp326
I2
aI1
aI3
aI0
aa(lp327
I2
aI1
aI3
aI0
aa(lp328
I2
aI1
aI3
aI0
aa(lp329
I2
aI1
aI3
aI0
aa(lp330
I2
aI1
aI3
aI0
aa(lp331
I2
aI1
aI3
aI0
aa(lp332
I2
aI1
aI3
aI0
aa(lp333
I2
aI1
aI3
aI0
aa(lp334
I2
aI1
aI3
aI0
aa(lp335
I2
aI1
aI3
aI0
aa(lp336
I2
aI1
aI3
aI0
aa(lp337
I2
aI1
aI3
aI0
aa(lp338
I2
aI1
aI3
aI0
aa(lp339
I2
aI1
aI3
aI0
aa(lp340
I2
aI1
aI3
aI0
aa(lp341
I2
aI1
aI3
aI0
aa(lp342
I2
aI1
aI3
aI0
aa(lp343
I3
aI2
aI0
aI1
aa(lp344
I3
aI2
aI0
aI1
aa(lp345
I3
aI2
aI0
aI1
aa(lp346
I3
aI2
aI0
aI1
aa(lp347
I3
aI2
aI0
aI1
aa(lp348
I3
aI2
aI0
aI1
aa(lp349
I3
aI2
aI0
aI1
aa(lp350
I3
aI2
aI0
aI1
aa(lp351
I3
aI2
aI0
aI1
aa(lp352
I3
aI2
aI0
aI1
aa(lp353
I3
aI2
aI0
aI1
aa(lp354
I3
aI2
aI0
aI1
aa(lp355
I3
aI2
aI0
aI1
aa(lp356
I3
aI2
aI0
aI1
aa(lp357
I3
aI2
aI0
aI1
aa(lp358
I3
aI2
aI0
aI1
aa(lp359
I3
aI2
aI0
aI1
aa(lp360
I3
aI2
aI0
aI1
aa(lp361
I3
aI2
aI0
aI1
aa(lp362
I3
aI2
aI0
aI1
aa(lp363
I3
aI2
aI0
aI1
aa(lp364
I3
aI2
aI0
aI1
aa(lp365
I2
aI3
aI1
aI0
aa(lp366
I2
aI3
aI1
aI0
aa(lp367
I2
aI3
aI1
aI0
aa(lp368
I2
aI3
aI1
aI0
aa(lp369
I2
aI3
aI1
aI0
aa(lp370
I2
aI3
aI1
aI0
aa(lp371
I2
aI3
aI1
aI0
aa(lp372
I2
aI3
aI1
aI0
aa(lp373
I2
aI3
aI1
aI0
aa(lp374
I2
aI3
aI1
aI0
aa(lp375
I2
aI3
aI1
aI0
aa(lp376
I2
aI3
aI1
aI0
aa(lp377
I2
aI3
aI1
aI0
aa(lp378
I2
aI3
aI1
aI0
aa(lp379
I2
aI3
aI1
aI0
aa(lp380
I2
aI3
aI1
aI0
aa(lp381
I2
aI3
aI1
aI0
aa(lp382
I2
aI3
aI1
aI0
aa(lp383
I2
aI3
aI1
aI0
aa(lp384
I2
aI3
aI1
aI0
aa(lp385
I2
aI3
aI1
aI0
aa(lp386
I2
aI1
aI0
aI3
aa(lp387
I2
aI1
aI0
aI3
aa(lp388
I2
aI1
aI0
aI3
aa(lp389
I2
aI1
aI0
aI3
aa(lp390
I2
aI1
aI0
aI3
aa(lp391
I2
aI1
aI0
aI3
aa(lp392
I2
aI1
aI0
aI3
aa(lp393
I2
aI1
aI0
aI3
aa(lp394
I2
aI1
aI0
aI3
aa(lp395
I2
aI1
aI0
aI3
aa(lp396
I2
aI1
aI0
aI3
aa(lp397
I2
aI1
aI0
aI3
aa(lp398
I2
aI1
aI0
aI3
aa(lp399
I2
aI1
aI0
aI3
aa(lp400
I2
aI1
aI0
aI3
aa(lp401
I2
aI1
aI0
aI3
aa(lp402
I2
aI1
aI0
aI3
aa(lp403
I2
aI1
aI0
aI3
aa(lp404
I2
aI1
aI0
aI3
aa(lp405
I1
aI2
aI3
aI0
aa(lp406
I1
aI2
aI3
aI0
aa(lp407
I1
aI2
aI3
aI0
aa(lp408
I1
aI2
aI3
aI0
aa(lp409
I1
aI2
aI3
aI0
aa(lp410
I1
aI2
aI3
aI0
aa(lp411
I1
aI2
aI3
aI0
aa(lp412
I1
aI2
aI3
aI0
aa(lp413
I1
aI2
aI3
aI0
aa(lp414
I1
aI2
aI3
aI0
aa(lp415
I1
aI2
aI3
aI0
aa(lp416
I1
aI2
aI3
aI0
aa(lp417
I3
aI0
aI2
aI1
aa(lp418
I3
aI0
aI2
aI1
aa(lp419
I3
aI0
aI2
aI1
aa(lp420
I3
aI0
aI2
aI1
aa(lp421
I3
aI0
aI2
aI1
aa(lp422
I3
aI0
aI2
aI1
aa(lp423
I3
aI0
aI2
aI1
aa(lp424
I3
aI0
aI2
aI1
aa(lp425
I3
aI0
aI2
aI1
aa(lp426
I3
aI0
aI2
aI1
aa(lp427
I3
aI0
aI2
aI1
aa(lp428
I3
aI0
aI2
aI1
aa(lp429
I3
aI0
aI2
aI1
aa(lp430
I3
aI0
aI2
aI1
aa(lp431
I3
aI0
aI2
aI1
aa(lp432
I0
aI3
aI2
aI1
aa(lp433
I0
aI3
aI2
aI1
aa(lp434
I0
aI3
aI2
aI1
aa(lp435
I0
aI3
aI2
aI1
aa(lp436
I0
aI3
aI2
aI1
aa(lp437
I0
aI3
aI2
aI1
aa(lp438
I0
aI3
aI2
aI1
aa(lp439
I0
aI3
aI2
aI1
aa(lp440
I0
aI3
aI2
aI1
aa(lp441
I0
aI3
aI2
aI1
aa(lp442
I0
aI3
aI2
aI1
aa(lp443
I0
aI3
aI2
aI1
aa(lp444
I0
aI3
aI2
aI1
aa(lp445
I0
aI3
aI2
aI1
aa(lp446
I0
aI2
aI1
aI3
aa(lp447
I0
aI2
aI1
aI3
aa(lp448
I0
aI2
aI1
aI3
aa(lp449
I0
aI2
aI1
aI3
aa(lp450
I0
aI2
aI1
aI3
aa(lp451
I0
aI2
aI1
aI3
aa(lp452
I0
aI2
aI1
aI3
aa(lp453
I0
aI2
aI1
aI3
aa(lp454
I0
aI2
aI1
aI3
aa(lp455
I0
aI2
aI1
aI3
aa(lp456
I0
aI2
aI1
aI3
aa(lp457
I3
aI2
aI1
aI0
aa(lp458
I3
aI2
aI1
aI0
aa(lp459
I3
aI2
aI1
aI0
aa(lp460
I3
aI2
aI1
aI0
aa(lp461
I3
aI2
aI1
aI0
aa(lp462
I3
aI2
aI1
aI0
aa(lp463
I3
aI2
aI1
aI0
aa(lp464
I3
aI2
aI1
aI0
aa(lp465
I3
aI2
aI1
aI0
aa(lp466
I3
aI2
aI1
aI0
aa(lp467
I3
aI2
aI1
aI0
aa(lp468
I3
aI2
aI1
aI0
aa(lp469
I3
aI2
aI1
aI0
aa(lp470
I3
aI2
aI1
aI0
aa(lp471
I1
aI2
aI0
aI3
aa(lp472
I1
aI2
aI0
aI3
aa(lp473
I1
aI2
aI0
aI3
aa(lp474
I1
aI2
aI0
aI3
aa(lp475
I1
aI2
aI0
aI3
aa(lp476
I1
aI2
aI0
aI3
aa(lp477
I1
aI2
aI0
aI3
aa(lp478
I1
aI2
aI0
aI3
aa(lp479
I1
aI2
aI0
aI3
aa(lp480
I1
aI2
aI0
aI3
aa(lp481
I1
aI2
aI0
aI3
aa(lp482
I1
aI2
aI0
aI3
aa(lp483
I1
aI2
aI0
aI3
aa(lp484
I1
aI3
aI2
aI0
aa(lp485
I1
aI3
aI2
aI0
aa(lp486
I1
aI3
aI2
aI0
aa(lp487
I1
aI3
aI2
aI0
aa(lp488
I1
aI3
aI2
aI0
aa(lp489
I1
aI3
aI2
aI0
aa(lp490
I1
aI3
aI2
aI0
aa(lp491
I1
aI3
aI2
aI0
aa(lp492
I1
aI3
aI2
aI0
aa(lp493
I1
aI3
aI2
aI0
aa(lp494
I1
aI3
aI2
aI0
aa(lp495
I1
aI0
aI2
aI3
aa(lp496
I1
aI0
aI2
aI3
aa(lp497
I1
aI0
aI2
aI3
aa(lp498
I1
aI0
aI2
aI3
aa(lp499
I1
aI0
aI2
aI3
aa(lp500
I1
aI0
aI2
aI3
aa(lp501
I1
aI0
aI2
aI3
aa(lp502
I1
aI0
aI2
aI3
aa(lp503
I1
aI0
aI2
aI3
aa(lp504
I3
aI1
aI2
aI0
aa(lp505
I3
aI1
aI2
aI0
aa(lp506
I3
aI1
aI2
aI0
aa(lp507
I3
aI1
aI2
aI0
aa(lp508
I3
aI1
aI2
aI0
aa(lp509
I3
aI1
aI2
aI0
aa(lp510
I3
aI1
aI2
aI0
aa(lp511
I3
aI1
aI2
aI0
aa(lp512
I3
aI1
aI2
aI0
aa(lp513
I3
aI1
aI2
aI0
aa(lp514
I0
aI1
aI2
aI3
aa(lp515
I0
aI1
aI2
aI3
aa(lp516
I0
aI1
aI2
aI3
aa(lp517
I0
aI1
aI2
aI3
aa(lp518
I0
aI1
aI2
aI3
aa(lp519
I0
aI1
aI2
aI3
aa(lp520
I0
aI1
aI2
aI3
aa(lp521
I0
aI1
aI2
aI3
aa(lp522
I3
aI1
aI0
aI2
aa(lp523
I3
aI1
aI0
aI2
aa(lp524
I3
aI1
aI0
aI2
aa(lp525
I3
aI1
aI0
aI2
aa(lp526
I3
aI1
aI0
aI2
aa(lp527
I3
aI0
aI1
aI2
aa(lp528
I3
aI0
aI1
aI2
aa(lp529
I3
aI0
aI1
aI2
aa(lp530
I3
aI0
aI1
aI2
aa(lp531
I3
aI0
aI1
aI2
aa(lp532
I1
aI3
aI0
aI2
aa(lp533
I1
aI3
aI0
aI2
aa(lp534
I1
aI3
aI0
aI2
aa(lp535
I1
aI3
aI0
aI2
aa(lp536
I1
aI3
aI0
aI2
aa(lp537
I1
aI3
aI0
aI2
aa(lp538
I1
aI3
aI0
aI2
aa(lp539
I1
aI0
aI3
aI2
aa(lp540
I1
aI0
aI3
aI2
aa(lp541
I1
aI0
aI3
aI2
aa(lp542
I0
aI3
aI1
aI2
aa(lp543
I0
aI3
aI1
aI2
aa(lp544
I0
aI3
aI1
aI2
aa(lp545
I0
aI1
aI3
aI2
aa(lp546
I0
aI1
aI3
aI2
aasS'test-lists'
p547
(lp548
(lp549
I0
aI2
aI3
aI1
aa(lp550
I0
aI1
aI2
aI3
aa(lp551
I1
aI2
aI3
aI0
aa(lp552
I3
aI2
aI0
aI1
aa(lp553
I0
aI2
aI3
aI1
aa(lp554
I2
aI3
aI0
aI1
aa(lp555
I1
aI2
aI3
aI0
aa(lp556
I1
aI3
aI2
aI0
aa(lp557
I2
aI1
aI3
aI0
aa(lp558
I2
aI0
aI3
aI1
aa(lp559
I2
aI3
aI1
aI0
aa(lp560
I3
aI2
aI0
aI1
aa(lp561
I0
aI1
aI2
aI3
aa(lp562
I2
aI0
aI3
aI1
aa(lp563
I0
aI2
aI1
aI3
aa(lp564
I0
aI2
aI1
aI3
aa(lp565
I3
aI0
aI2
aI1
aa(lp566
I2
aI3
aI1
aI0
aa(lp567
I2
aI0
aI1
aI3
aa(lp568
I2
aI0
aI3
aI1
aa(lp569
I2
aI3
aI0
aI1
aa(lp570
I0
aI2
aI3
aI1
aa(lp571
I2
aI0
aI3
aI1
aa(lp572
I1
aI2
aI3
aI0
aa(lp573
I0
aI3
aI2
aI1
aa(lp574
I2
aI0
aI1
aI3
aa(lp575
I2
aI0
aI3
aI1
aa(lp576
I2
aI3
aI0
aI1
aa(lp577
I2
aI3
aI1
aI0
aa(lp578
I3
aI0
aI1
aI2
aa(lp579
I2
aI1
aI0
aI3
aa(lp580
I2
aI0
aI3
aI1
aa(lp581
I2
aI0
aI1
aI3
aa(lp582
I0
aI2
aI1
aI3
aa(lp583
I3
aI2
aI0
aI1
aa(lp584
I2
aI0
aI3
aI1
aa(lp585
I3
aI2
aI0
aI1
aa(lp586
I1
aI3
aI2
aI0
aa(lp587
I2
aI1
aI0
aI3
aa(lp588
I2
aI0
aI3
aI1
aa(lp589
I0
aI2
aI3
aI1
aa(lp590
I2
aI0
aI3
aI1
aa(lp591
I1
aI2
aI3
aI0
aa(lp592
I0
aI2
aI3
aI1
aa(lp593
I2
aI3
aI0
aI1
aa(lp594
I3
aI2
aI0
aI1
aa(lp595
I1
aI2
aI3
aI0
aa(lp596
I1
aI2
aI3
aI0
aa(lp597
I0
aI2
aI3
aI1
aa(lp598
I2
aI1
aI3
aI0
aa(lp599
I2
aI1
aI0
aI3
aa(lp600
I3
aI2
aI0
aI1
aa(lp601
I2
aI0
aI1
aI3
aa(lp602
I2
aI3
aI0
aI1
aa(lp603
I2
aI0
aI3
aI1
aa(lp604
I2
aI0
aI3
aI1
aa(lp605
I2
aI3
aI0
aI1
aa(lp606
I3
aI1
aI0
aI2
aa(lp607
I2
aI0
aI3
aI1
aa(lp608
I2
aI1
aI0
aI3
aa(lp609
I2
aI0
aI3
aI1
aa(lp610
I2
aI3
aI0
aI1
aa(lp611
I3
aI1
aI0
aI2
aa(lp612
I0
aI2
aI3
aI1
aa(lp613
I3
aI2
aI0
aI1
aa(lp614
I2
aI0
aI1
aI3
aa(lp615
I3
aI2
aI1
aI0
aa(lp616
I1
aI2
aI0
aI3
aa(lp617
I0
aI1
aI3
aI2
aa(lp618
I2
aI1
aI0
aI3
aa(lp619
I2
aI0
aI3
aI1
aa(lp620
I2
aI1
aI3
aI0
aa(lp621
I3
aI0
aI2
aI1
aa(lp622
I0
aI3
aI2
aI1
aa(lp623
I2
aI0
aI3
aI1
aa(lp624
I1
aI0
aI2
aI3
aa(lp625
I2
aI3
aI0
aI1
aa(lp626
I0
aI3
aI2
aI1
aa(lp627
I2
aI1
aI3
aI0
aa(lp628
I0
aI2
aI3
aI1
aa(lp629
I1
aI2
aI3
aI0
aa(lp630
I2
aI3
aI0
aI1
aa(lp631
I2
aI0
aI3
aI1
aa(lp632
I2
aI3
aI1
aI0
aa(lp633
I2
aI3
aI1
aI0
aa(lp634
I0
aI2
aI3
aI1
aa(lp635
I2
aI0
aI3
aI1
aa(lp636
I2
aI0
aI1
aI3
aa(lp637
I2
aI1
aI3
aI0
aa(lp638
I2
aI1
aI3
aI0
aa(lp639
I2
aI0
aI3
aI1
aa(lp640
I2
aI3
aI1
aI0
aa(lp641
I3
aI2
aI0
aI1
aa(lp642
I2
aI3
aI1
aI0
aa(lp643
I2
aI3
aI0
aI1
aa(lp644
I2
aI1
aI3
aI0
aa(lp645
I2
aI0
aI3
aI1
aa(lp646
I0
aI2
aI3
aI1
aa(lp647
I1
aI0
aI2
aI3
aa(lp648
I0
aI2
aI1
aI3
aa(lp649
I2
aI0
aI1
aI3
aa(lp650
I3
aI0
aI1
aI2
aa(lp651
I0
aI2
aI1
aI3
aa(lp652
I2
aI3
aI0
aI1
aa(lp653
I0
aI2
aI3
aI1
aa(lp654
I2
aI1
aI0
aI3
aa(lp655
I3
aI2
aI0
aI1
aasS'RE-train-choices'
p656
(dp657
(I1
I2
tp658
g4
(g5
(I0
tp659
g7
tp660
Rp661
(I1
(I2
tp662
g14
I00
S'\x00\x00\x00\x00\x00\x00F@\x00\x00\x00\x00\x00\x009@'
p663
tp664
bs(I0
I1
tp665
g4
(g5
(I0
tp666
g7
tp667
Rp668
(I1
(I2
tp669
g14
I00
S'\x00\x00\x00\x00\x00\x00(@\x00\x00\x00\x00\x00\x00$@'
p670
tp671
bs(I0
tp672
g4
(g5
(I0
tp673
g7
tp674
Rp675
(I1
(I1
tp676
g14
I00
S'\x00\x00\x00\x00\x00@P@'
p677
tp678
bs(I1
tp679
g4
(g5
(I0
tp680
g7
tp681
Rp682
(I1
(I1
tp683
g14
I00
S'\x00\x00\x00\x00\x00\x80K@'
p684
tp685
bs(I0
I2
I3
tp686
g4
(g5
(I0
tp687
g7
tp688
Rp689
(I1
(I3
tp690
g14
I00
S'\x00\x00\x00\x00\x00\xc0R@\x00\x00\x00\x00\x00\x00=@\x00\x00\x00\x00\x00\xc0[@'
p691
tp692
bs(I2
tp693
g4
(g5
(I0
tp694
g7
tp695
Rp696
(I1
(I1
tp697
g14
I00
S'\x00\x00\x00\x00\x00\xa0m@'
p698
tp699
bs(I3
tp700
g4
(g5
(I0
tp701
g7
tp702
Rp703
(I1
(I1
tp704
g14
I00
S'\x00\x00\x00\x00\x00\xc0Q@'
p705
tp706
bs(I1
I2
I3
tp707
g4
(g5
(I0
tp708
g7
tp709
Rp710
(I1
(I3
tp711
g14
I00
S'\x00\x00\x00\x00\x00\x80A@\x00\x00\x00\x00\x00\x005@\x00\x00\x00\x00\x00\x80B@'
p712
tp713
bs(I0
I1
I2
tp714
g4
(g5
(I0
tp715
g7
tp716
Rp717
(I1
(I3
tp718
g14
I00
S'\x00\x00\x00\x00\x00\x00@@\x00\x00\x00\x00\x00\x00G@\x00\x00\x00\x00\x00\x001@'
p719
tp720
bs(I1
I3
tp721
g4
(g5
(I0
tp722
g7
tp723
Rp724
(I1
(I2
tp725
g14
I00
S'\x00\x00\x00\x00\x00\x00.@\x00\x00\x00\x00\x00\x002@'
p726
tp727
bs(I2
I3
tp728
g4
(g5
(I0
tp729
g7
tp730
Rp731
(I1
(I2
tp732
g14
I00
S'\x00\x00\x00\x00\x00\x00B@\x00\x00\x00\x00\x00\x80R@'
p733
tp734
bs(I0
I3
tp735
g4
(g5
(I0
tp736
g7
tp737
Rp738
(I1
(I2
tp739
g14
I00
S'\x00\x00\x00\x00\x00\x004@\x00\x00\x00\x00\x00\x001@'
p740
tp741
bs(I0
I1
I3
tp742
g4
(g5
(I0
tp743
g7
tp744
Rp745
(I1
(I3
tp746
g14
I00
S'\x00\x00\x00\x00\x00\x00(@\x00\x00\x00\x00\x00\x00 @\x00\x00\x00\x00\x00\x00\x14@'
p747
tp748
bs(I0
I2
tp749
g4
(g5
(I0
tp750
g7
tp751
Rp752
(I1
(I2
tp753
g14
I00
S'\x00\x00\x00\x00\x00\xc0]@\x00\x00\x00\x00\x00\x00C@'
p754
tp755
bs(I0
I1
I2
I3
tp756
g4
(g5
(I0
tp757
g7
tp758
Rp759
(I1
(I4
tp760
g14
I00
S'p=\n\xd7\xa3@W@\xb8\x1e\x85\xebQ\xe0j@\xc2\xf5(\\\x8f\x029@p=\n\xd7\xa3\xc0W@'
p761
tp762
bssS'N'
p763
I4
s.