(dp0
S'train-choices'
p1
(dp2
(I1
I2
tp3
cnumpy.core.multiarray
_reconstruct
p4
(cnumpy
ndarray
p5
(I0
tp6
S'b'
p7
tp8
Rp9
(I1
(I2
tp10
cnumpy
dtype
p11
(S'f8'
p12
I0
I1
tp13
Rp14
(I3
S'<'
p15
NNNI-1
I-1
I0
tp16
bI00
S'\x00\x00\x00\x00\x00\x009@\x00\x00\x00\x00\x00\x00(@'
p17
tp18
bs(I0
I1
tp19
g4
(g5
(I0
tp20
g7
tp21
Rp22
(I1
(I2
tp23
g14
I00
S'\x00\x00\x00\x00\x00\x00\x08@\x00\x00\x00\x00\x00\x00\x10@'
p24
tp25
bs(I0
tp26
g4
(g5
(I0
tp27
g7
tp28
Rp29
(I1
(I1
tp30
g14
I00
S'\x00\x00\x00\x00\x00\x80E@'
p31
tp32
bs(I1
tp33
g4
(g5
(I0
tp34
g7
tp35
Rp36
(I1
(I1
tp37
g14
I00
S'\x00\x00\x00\x00\x00\x008@'
p38
tp39
bs(I0
I2
I3
tp40
g4
(g5
(I0
tp41
g7
tp42
Rp43
(I1
(I3
tp44
g14
I00
S'\x00\x00\x00\x00\x00@`@\x00\x00\x00\x00\x00\x00>@\x00\x00\x00\x00\x00\x80M@'
p45
tp46
bs(I2
tp47
g4
(g5
(I0
tp48
g7
tp49
Rp50
(I1
(I1
tp51
g14
I00
S'\x00\x00\x00\x00\x00`k@'
p52
tp53
bs(I3
tp54
g4
(g5
(I0
tp55
g7
tp56
Rp57
(I1
(I1
tp58
g14
I00
S'\x00\x00\x00\x00\x00\xc0`@'
p59
tp60
bs(I1
I2
I3
tp61
g4
(g5
(I0
tp62
g7
tp63
Rp64
(I1
(I3
tp65
g14
I00
S'\x00\x00\x00\x00\x00@[@\x00\x00\x00\x00\x00\x00,@\x00\x00\x00\x00\x00\x007@'
p66
tp67
bs(I0
I1
I2
tp68
g4
(g5
(I0
tp69
g7
tp70
Rp71
(I1
(I3
tp72
g14
I00
S'\x00\x00\x00\x00\x00\x00,@\x00\x00\x00\x00\x00\x003@\x00\x00\x00\x00\x00\x00\x14@'
p73
tp74
bs(I1
I3
tp75
g4
(g5
(I0
tp76
g7
tp77
Rp78
(I1
(I2
tp79
g14
I00
S'\x00\x00\x00\x00\x00\x00(@\x00\x00\x00\x00\x00\x00"@'
p80
tp81
bs(I2
I3
tp82
g4
(g5
(I0
tp83
g7
tp84
Rp85
(I1
(I2
tp86
g14
I00
S'\x00\x00\x00\x00\x00\x80Y@\x00\x00\x00\x00\x00 a@'
p87
tp88
bs(I0
I3
tp89
g4
(g5
(I0
tp90
g7
tp91
Rp92
(I1
(I2
tp93
g14
I00
S'\x00\x00\x00\x00\x00\x004@\x00\x00\x00\x00\x00\x002@'
p94
tp95
bs(I0
I1
I3
tp96
g4
(g5
(I0
tp97
g7
tp98
Rp99
(I1
(I3
tp100
g14
I00
S'\x00\x00\x00\x00\x00\x00\x1c@\x00\x00\x00\x00\x00\x00 @\x00\x00\x00\x00\x00\x00\x00@'
p101
tp102
bs(I0
I2
tp103
g4
(g5
(I0
tp104
g7
tp105
Rp106
(I1
(I2
tp107
g14
I00
S'\x00\x00\x00\x00\x00\x80L@\x00\x00\x00\x00\x00\x005@'
p108
tp109
bs(I0
I1
I2
I3
tp110
g4
(g5
(I0
tp111
g7
tp112
Rp113
(I1
(I4
tp114
g14
I00
S'\xb8\x1e\x85\xebQ@b@\xb8\x1e\x85\xebQ`k@\xc2\xf5(\\\x8f\x021@\xe1z\x14\xaeG\x01C@'
p115
tp116
bssS'train-lists'
p117
(lp118
(lp119
I1
aI0
aI3
aI2
aa(lp120
I1
aI0
aI3
aI2
aa(lp121
I1
aI0
aI3
aI2
aa(lp122
I1
aI0
aI3
aI2
aa(lp123
I1
aI0
aI3
aI2
aa(lp124
I1
aI0
aI3
aI2
aa(lp125
I1
aI0
aI3
aI2
aa(lp126
I1
aI0
aI3
aI2
aa(lp127
I1
aI0
aI3
aI2
aa(lp128
I1
aI0
aI3
aI2
aa(lp129
I1
aI0
aI3
aI2
aa(lp130
I1
aI0
aI3
aI2
aa(lp131
I1
aI0
aI3
aI2
aa(lp132
I1
aI0
aI3
aI2
aa(lp133
I1
aI0
aI3
aI2
aa(lp134
I1
aI0
aI3
aI2
aa(lp135
I1
aI0
aI3
aI2
aa(lp136
I1
aI0
aI3
aI2
aa(lp137
I1
aI0
aI3
aI2
aa(lp138
I1
aI0
aI3
aI2
aa(lp139
I1
aI0
aI3
aI2
aa(lp140
I1
aI0
aI3
aI2
aa(lp141
I1
aI0
aI3
aI2
aa(lp142
I1
aI0
aI3
aI2
aa(lp143
I1
aI0
aI3
aI2
aa(lp144
I1
aI0
aI3
aI2
aa(lp145
I1
aI0
aI3
aI2
aa(lp146
I1
aI0
aI3
aI2
aa(lp147
I1
aI0
aI3
aI2
aa(lp148
I1
aI0
aI3
aI2
aa(lp149
I1
aI0
aI3
aI2
aa(lp150
I1
aI0
aI3
aI2
aa(lp151
I1
aI0
aI3
aI2
aa(lp152
I1
aI0
aI3
aI2
aa(lp153
I1
aI0
aI3
aI2
aa(lp154
I1
aI0
aI3
aI2
aa(lp155
I1
aI0
aI3
aI2
aa(lp156
I1
aI0
aI3
aI2
aa(lp157
I1
aI0
aI3
aI2
aa(lp158
I1
aI0
aI3
aI2
aa(lp159
I1
aI0
aI3
aI2
aa(lp160
I1
aI0
aI3
aI2
aa(lp161
I1
aI0
aI3
aI2
aa(lp162
I1
aI0
aI3
aI2
aa(lp163
I1
aI0
aI3
aI2
aa(lp164
I1
aI0
aI3
aI2
aa(lp165
I1
aI0
aI3
aI2
aa(lp166
I1
aI0
aI3
aI2
aa(lp167
I1
aI0
aI3
aI2
aa(lp168
I1
aI0
aI3
aI2
aa(lp169
I1
aI0
aI3
aI2
aa(lp170
I1
aI0
aI3
aI2
aa(lp171
I1
aI0
aI3
aI2
aa(lp172
I1
aI0
aI3
aI2
aa(lp173
I1
aI0
aI3
aI2
aa(lp174
I1
aI0
aI3
aI2
aa(lp175
I1
aI0
aI3
aI2
aa(lp176
I1
aI0
aI3
aI2
aa(lp177
I1
aI0
aI3
aI2
aa(lp178
I1
aI0
aI3
aI2
aa(lp179
I1
aI0
aI3
aI2
aa(lp180
I1
aI0
aI3
aI2
aa(lp181
I1
aI0
aI3
aI2
aa(lp182
I1
aI0
aI3
aI2
aa(lp183
I1
aI0
aI3
aI2
aa(lp184
I1
aI0
aI3
aI2
aa(lp185
I1
aI0
aI3
aI2
aa(lp186
I1
aI0
aI3
aI2
aa(lp187
I1
aI0
aI3
aI2
aa(lp188
I1
aI0
aI3
aI2
aa(lp189
I1
aI0
aI3
aI2
aa(lp190
I1
aI0
aI3
aI2
aa(lp191
I1
aI0
aI3
aI2
aa(lp192
I1
aI0
aI3
aI2
aa(lp193
I1
aI0
aI3
aI2
aa(lp194
I0
aI1
aI3
aI2
aa(lp195
I0
aI1
aI3
aI2
aa(lp196
I0
aI1
aI3
aI2
aa(lp197
I0
aI1
aI3
aI2
aa(lp198
I0
aI1
aI3
aI2
aa(lp199
I0
aI1
aI3
aI2
aa(lp200
I0
aI1
aI3
aI2
aa(lp201
I0
aI1
aI3
aI2
aa(lp202
I0
aI1
aI3
aI2
aa(lp203
I0
aI1
aI3
aI2
aa(lp204
I0
aI1
aI3
aI2
aa(lp205
I0
aI1
aI3
aI2
aa(lp206
I0
aI1
aI3
aI2
aa(lp207
I0
aI1
aI3
aI2
aa(lp208
I0
aI1
aI3
aI2
aa(lp209
I0
aI1
aI3
aI2
aa(lp210
I0
aI1
aI3
aI2
aa(lp211
I0
aI1
aI3
aI2
aa(lp212
I0
aI1
aI3
aI2
aa(lp213
I0
aI1
aI3
aI2
aa(lp214
I0
aI1
aI3
aI2
aa(lp215
I0
aI1
aI3
aI2
aa(lp216
I0
aI1
aI3
aI2
aa(lp217
I0
aI1
aI3
aI2
aa(lp218
I0
aI1
aI3
aI2
aa(lp219
I0
aI1
aI3
aI2
aa(lp220
I0
aI1
aI3
aI2
aa(lp221
I0
aI1
aI3
aI2
aa(lp222
I0
aI1
aI3
aI2
aa(lp223
I0
aI1
aI3
aI2
aa(lp224
I0
aI1
aI3
aI2
aa(lp225
I0
aI1
aI3
aI2
aa(lp226
I0
aI1
aI3
aI2
aa(lp227
I0
aI1
aI3
aI2
aa(lp228
I0
aI1
aI3
aI2
aa(lp229
I0
aI1
aI3
aI2
aa(lp230
I0
aI1
aI3
aI2
aa(lp231
I0
aI1
aI3
aI2
aa(lp232
I0
aI1
aI3
aI2
aa(lp233
I0
aI1
aI3
aI2
aa(lp234
I0
aI1
aI3
aI2
aa(lp235
I0
aI1
aI3
aI2
aa(lp236
I0
aI1
aI3
aI2
aa(lp237
I0
aI1
aI3
aI2
aa(lp238
I0
aI1
aI3
aI2
aa(lp239
I0
aI1
aI3
aI2
aa(lp240
I0
aI1
aI3
aI2
aa(lp241
I0
aI1
aI3
aI2
aa(lp242
I0
aI1
aI3
aI2
aa(lp243
I0
aI1
aI3
aI2
aa(lp244
I0
aI1
aI3
aI2
aa(lp245
I0
aI1
aI3
aI2
aa(lp246
I0
aI1
aI3
aI2
aa(lp247
I0
aI1
aI3
aI2
aa(lp248
I0
aI1
aI3
aI2
aa(lp249
I0
aI1
aI3
aI2
aa(lp250
I0
aI1
aI3
aI2
aa(lp251
I0
aI1
aI3
aI2
aa(lp252
I0
aI1
aI3
aI2
aa(lp253
I0
aI1
aI3
aI2
aa(lp254
I0
aI1
aI3
aI2
aa(lp255
I0
aI1
aI3
aI2
aa(lp256
I1
aI0
aI2
aI3
aa(lp257
I1
aI0
aI2
aI3
aa(lp258
I1
aI0
aI2
aI3
aa(lp259
I1
aI0
aI2
aI3
aa(lp260
I1
aI0
aI2
aI3
aa(lp261
I1
aI0
aI2
aI3
aa(lp262
I1
aI0
aI2
aI3
aa(lp263
I1
aI0
aI2
aI3
aa(lp264
I1
aI0
aI2
aI3
aa(lp265
I1
aI0
aI2
aI3
aa(lp266
I1
aI0
aI2
aI3
aa(lp267
I1
aI0
aI2
aI3
aa(lp268
I1
aI0
aI2
aI3
aa(lp269
I1
aI0
aI2
aI3
aa(lp270
I1
aI0
aI2
aI3
aa(lp271
I1
aI0
aI2
aI3
aa(lp272
I1
aI0
aI2
aI3
aa(lp273
I1
aI0
aI2
aI3
aa(lp274
I1
aI0
aI2
aI3
aa(lp275
I1
aI0
aI2
aI3
aa(lp276
I1
aI0
aI2
aI3
aa(lp277
I1
aI0
aI2
aI3
aa(lp278
I1
aI0
aI2
aI3
aa(lp279
I1
aI0
aI2
aI3
aa(lp280
I1
aI0
aI2
aI3
aa(lp281
I1
aI0
aI2
aI3
aa(lp282
I1
aI0
aI2
aI3
aa(lp283
I1
aI0
aI2
aI3
aa(lp284
I1
aI0
aI2
aI3
aa(lp285
I1
aI0
aI2
aI3
aa(lp286
I1
aI0
aI2
aI3
aa(lp287
I1
aI0
aI2
aI3
aa(lp288
I1
aI0
aI2
aI3
aa(lp289
I1
aI0
aI2
aI3
aa(lp290
I1
aI0
aI2
aI3
aa(lp291
I1
aI0
aI2
aI3
aa(lp292
I1
aI0
aI2
aI3
aa(lp293
I1
aI0
aI2
aI3
aa(lp294
I1
aI0
aI2
aI3
aa(lp295
I1
aI0
aI2
aI3
aa(lp296
I1
aI0
aI2
aI3
aa(lp297
I1
aI0
aI2
aI3
aa(lp298
I1
aI0
aI2
aI3
aa(lp299
I1
aI0
aI2
aI3
aa(lp300
I1
aI0
aI2
aI3
aa(lp301
I1
aI0
aI2
aI3
aa(lp302
I1
aI0
aI2
aI3
aa(lp303
I1
aI0
aI2
aI3
aa(lp304
I1
aI0
aI2
aI3
aa(lp305
I1
aI0
aI2
aI3
aa(lp306
I1
aI0
aI2
aI3
aa(lp307
I1
aI0
aI2
aI3
aa(lp308
I1
aI0
aI2
aI3
aa(lp309
I1
aI0
aI2
aI3
aa(lp310
I1
aI0
aI2
aI3
aa(lp311
I0
aI1
aI2
aI3
aa(lp312
I0
aI1
aI2
aI3
aa(lp313
I0
aI1
aI2
aI3
aa(lp314
I0
aI1
aI2
aI3
aa(lp315
I0
aI1
aI2
aI3
aa(lp316
I0
aI1
aI2
aI3
aa(lp317
I0
aI1
aI2
aI3
aa(lp318
I0
aI1
aI2
aI3
aa(lp319
I0
aI1
aI2
aI3
aa(lp320
I0
aI1
aI2
aI3
aa(lp321
I0
aI1
aI2
aI3
aa(lp322
I0
aI1
aI2
aI3
aa(lp323
I0
aI1
aI2
aI3
aa(lp324
I0
aI1
aI2
aI3
aa(lp325
I0
aI1
aI2
aI3
aa(lp326
I0
aI1
aI2
aI3
aa(lp327
I0
aI1
aI2
aI3
aa(lp328
I0
aI1
aI2
aI3
aa(lp329
I0
aI1
aI2
aI3
aa(lp330
I0
aI1
aI2
aI3
aa(lp331
I0
aI1
aI2
aI3
aa(lp332
I0
aI1
aI2
aI3
aa(lp333
I0
aI1
aI2
aI3
aa(lp334
I0
aI1
aI2
aI3
aa(lp335
I0
aI1
aI2
aI3
aa(lp336
I0
aI1
aI2
aI3
aa(lp337
I0
aI1
aI2
aI3
aa(lp338
I0
aI1
aI2
aI3
aa(lp339
I0
aI1
aI2
aI3
aa(lp340
I0
aI1
aI2
aI3
aa(lp341
I0
aI1
aI2
aI3
aa(lp342
I0
aI1
aI2
aI3
aa(lp343
I0
aI1
aI2
aI3
aa(lp344
I0
aI1
aI2
aI3
aa(lp345
I0
aI1
aI2
aI3
aa(lp346
I0
aI1
aI2
aI3
aa(lp347
I0
aI1
aI2
aI3
aa(lp348
I0
aI1
aI2
aI3
aa(lp349
I0
aI1
aI2
aI3
aa(lp350
I0
aI1
aI2
aI3
aa(lp351
I0
aI1
aI2
aI3
aa(lp352
I0
aI1
aI2
aI3
aa(lp353
I0
aI1
aI2
aI3
aa(lp354
I0
aI1
aI2
aI3
aa(lp355
I0
aI1
aI2
aI3
aa(lp356
I0
aI1
aI2
aI3
aa(lp357
I0
aI1
aI2
aI3
aa(lp358
I1
aI3
aI0
aI2
aa(lp359
I1
aI3
aI0
aI2
aa(lp360
I1
aI3
aI0
aI2
aa(lp361
I1
aI3
aI0
aI2
aa(lp362
I1
aI3
aI0
aI2
aa(lp363
I1
aI3
aI0
aI2
aa(lp364
I1
aI3
aI0
aI2
aa(lp365
I1
aI3
aI0
aI2
aa(lp366
I1
aI3
aI0
aI2
aa(lp367
I1
aI3
aI0
aI2
aa(lp368
I1
aI3
aI0
aI2
aa(lp369
I1
aI3
aI0
aI2
aa(lp370
I1
aI3
aI0
aI2
aa(lp371
I1
aI3
aI0
aI2
aa(lp372
I1
aI3
aI0
aI2
aa(lp373
I1
aI3
aI0
aI2
aa(lp374
I1
aI3
aI0
aI2
aa(lp375
I1
aI3
aI0
aI2
aa(lp376
I1
aI3
aI0
aI2
aa(lp377
I1
aI3
aI0
aI2
aa(lp378
I1
aI3
aI0
aI2
aa(lp379
I1
aI3
aI0
aI2
aa(lp380
I1
aI3
aI0
aI2
aa(lp381
I1
aI3
aI0
aI2
aa(lp382
I1
aI3
aI0
aI2
aa(lp383
I1
aI3
aI0
aI2
aa(lp384
I1
aI3
aI0
aI2
aa(lp385
I1
aI3
aI0
aI2
aa(lp386
I1
aI3
aI0
aI2
aa(lp387
I1
aI3
aI0
aI2
aa(lp388
I1
aI3
aI0
aI2
aa(lp389
I1
aI3
aI0
aI2
aa(lp390
I1
aI3
aI0
aI2
aa(lp391
I1
aI3
aI0
aI2
aa(lp392
I1
aI3
aI0
aI2
aa(lp393
I1
aI3
aI0
aI2
aa(lp394
I1
aI3
aI0
aI2
aa(lp395
I1
aI3
aI0
aI2
aa(lp396
I1
aI3
aI0
aI2
aa(lp397
I1
aI3
aI0
aI2
aa(lp398
I1
aI3
aI0
aI2
aa(lp399
I1
aI3
aI0
aI2
aa(lp400
I0
aI3
aI1
aI2
aa(lp401
I0
aI3
aI1
aI2
aa(lp402
I0
aI3
aI1
aI2
aa(lp403
I0
aI3
aI1
aI2
aa(lp404
I0
aI3
aI1
aI2
aa(lp405
I0
aI3
aI1
aI2
aa(lp406
I0
aI3
aI1
aI2
aa(lp407
I0
aI3
aI1
aI2
aa(lp408
I0
aI3
aI1
aI2
aa(lp409
I0
aI3
aI1
aI2
aa(lp410
I0
aI3
aI1
aI2
aa(lp411
I0
aI3
aI1
aI2
aa(lp412
I0
aI3
aI1
aI2
aa(lp413
I0
aI3
aI1
aI2
aa(lp414
I0
aI3
aI1
aI2
aa(lp415
I0
aI3
aI1
aI2
aa(lp416
I0
aI3
aI1
aI2
aa(lp417
I3
aI1
aI0
aI2
aa(lp418
I3
aI1
aI0
aI2
aa(lp419
I3
aI1
aI0
aI2
aa(lp420
I3
aI1
aI0
aI2
aa(lp421
I3
aI1
aI0
aI2
aa(lp422
I3
aI1
aI0
aI2
aa(lp423
I3
aI1
aI0
aI2
aa(lp424
I3
aI1
aI0
aI2
aa(lp425
I3
aI1
aI0
aI2
aa(lp426
I3
aI1
aI0
aI2
aa(lp427
I3
aI1
aI0
aI2
aa(lp428
I3
aI1
aI0
aI2
aa(lp429
I3
aI1
aI0
aI2
aa(lp430
I3
aI1
aI0
aI2
aa(lp431
I3
aI1
aI0
aI2
aa(lp432
I1
aI3
aI2
aI0
aa(lp433
I1
aI3
aI2
aI0
aa(lp434
I1
aI3
aI2
aI0
aa(lp435
I1
aI3
aI2
aI0
aa(lp436
I1
aI3
aI2
aI0
aa(lp437
I1
aI3
aI2
aI0
aa(lp438
I1
aI3
aI2
aI0
aa(lp439
I1
aI3
aI2
aI0
aa(lp440
I1
aI3
aI2
aI0
aa(lp441
I1
aI3
aI2
aI0
aa(lp442
I1
aI3
aI2
aI0
aa(lp443
I1
aI3
aI2
aI0
aa(lp444
I1
aI3
aI2
aI0
aa(lp445
I1
aI3
aI2
aI0
aa(lp446
I1
aI3
aI2
aI0
aa(lp447
I1
aI3
aI2
aI0
aa(lp448
I1
aI3
aI2
aI0
aa(lp449
I1
aI2
aI0
aI3
aa(lp450
I1
aI2
aI0
aI3
aa(lp451
I1
aI2
aI0
aI3
aa(lp452
I1
aI2
aI0
aI3
aa(lp453
I1
aI2
aI0
aI3
aa(lp454
I1
aI2
aI0
aI3
aa(lp455
I1
aI2
aI0
aI3
aa(lp456
I1
aI2
aI0
aI3
aa(lp457
I1
aI2
aI0
aI3
aa(lp458
I1
aI2
aI0
aI3
aa(lp459
I1
aI2
aI0
aI3
aa(lp460
I1
aI2
aI0
aI3
aa(lp461
I1
aI2
aI0
aI3
aa(lp462
I1
aI2
aI0
aI3
aa(lp463
I1
aI2
aI0
aI3
aa(lp464
I1
aI2
aI0
aI3
aa(lp465
I1
aI2
aI0
aI3
aa(lp466
I1
aI2
aI0
aI3
aa(lp467
I1
aI2
aI3
aI0
aa(lp468
I1
aI2
aI3
aI0
aa(lp469
I1
aI2
aI3
aI0
aa(lp470
I1
aI2
aI3
aI0
aa(lp471
I1
aI2
aI3
aI0
aa(lp472
I1
aI2
aI3
aI0
aa(lp473
I1
aI2
aI3
aI0
aa(lp474
I1
aI2
aI3
aI0
aa(lp475
I1
aI2
aI3
aI0
aa(lp476
I1
aI2
aI3
aI0
aa(lp477
I1
aI2
aI3
aI0
aa(lp478
I1
aI2
aI3
aI0
aa(lp479
I0
aI2
aI1
aI3
aa(lp480
I0
aI2
aI1
aI3
aa(lp481
I0
aI2
aI1
aI3
aa(lp482
I0
aI2
aI1
aI3
aa(lp483
I0
aI2
aI1
aI3
aa(lp484
I0
aI2
aI1
aI3
aa(lp485
I0
aI2
aI1
aI3
aa(lp486
I0
aI2
aI1
aI3
aa(lp487
I0
aI3
aI2
aI1
aa(lp488
I0
aI3
aI2
aI1
aa(lp489
I0
aI3
aI2
aI1
aa(lp490
I0
aI3
aI2
aI1
aa(lp491
I0
aI3
aI2
aI1
aa(lp492
I0
aI3
aI2
aI1
aa(lp493
I3
aI0
aI1
aI2
aa(lp494
I3
aI0
aI1
aI2
aa(lp495
I3
aI0
aI1
aI2
aa(lp496
I3
aI0
aI1
aI2
aa(lp497
I3
aI0
aI1
aI2
aa(lp498
I3
aI0
aI1
aI2
aa(lp499
I3
aI0
aI1
aI2
aa(lp500
I3
aI0
aI1
aI2
aa(lp501
I0
aI2
aI3
aI1
aa(lp502
I0
aI2
aI3
aI1
aa(lp503
I0
aI2
aI3
aI1
aa(lp504
I0
aI2
aI3
aI1
aa(lp505
I0
aI2
aI3
aI1
aa(lp506
I0
aI2
aI3
aI1
aa(lp507
I3
aI0
aI2
aI1
aa(lp508
I3
aI0
aI2
aI1
aa(lp509
I3
aI0
aI2
aI1
aa(lp510
I3
aI0
aI2
aI1
aa(lp511
I3
aI0
aI2
aI1
aa(lp512
I3
aI0
aI2
aI1
aa(lp513
I3
aI1
aI2
aI0
aa(lp514
I3
aI1
aI2
aI0
aa(lp515
I3
aI1
aI2
aI0
aa(lp516
I3
aI1
aI2
aI0
aa(lp517
I2
aI1
aI3
aI0
aa(lp518
I2
aI1
aI3
aI0
aa(lp519
I2
aI1
aI3
aI0
aa(lp520
I2
aI1
aI3
aI0
aa(lp521
I2
aI1
aI3
aI0
aa(lp522
I2
aI1
aI3
aI0
aa(lp523
I3
aI2
aI1
aI0
aa(lp524
I3
aI2
aI1
aI0
aa(lp525
I3
aI2
aI1
aI0
aa(lp526
I3
aI2
aI1
aI0
aa(lp527
I2
aI0
aI1
aI3
aa(lp528
I2
aI0
aI1
aI3
aa(lp529
I2
aI0
aI1
aI3
aa(lp530
I2
aI0
aI1
aI3
aa(lp531
I3
aI2
aI0
aI1
aa(lp532
I2
aI3
aI0
aI1
aa(lp533
I2
aI3
aI0
aI1
aa(lp534
I2
aI0
aI3
aI1
aa(lp535
I2
aI0
aI3
aI1
aa(lp536
I2
aI0
aI3
aI1
aa(lp537
I2
aI1
aI0
aI3
aa(lp538
I2
aI1
aI0
aI3
aasS'test-lists'
p539
(lp540
(lp541
I1
aI0
aI2
aI3
aa(lp542
I0
aI3
aI2
aI1
aa(lp543
I3
aI1
aI0
aI2
aa(lp544
I1
aI0
aI2
aI3
aa(lp545
I1
aI0
aI3
aI2
aa(lp546
I2
aI3
aI1
aI0
aa(lp547
I0
aI1
aI3
aI2
aa(lp548
I3
aI1
aI0
aI2
aa(lp549
I3
aI2
aI1
aI0
aa(lp550
I0
aI1
aI2
aI3
aa(lp551
I0
aI1
aI3
aI2
aa(lp552
I1
aI3
aI2
aI0
aa(lp553
I0
aI1
aI2
aI3
aa(lp554
I0
aI2
aI3
aI1
aa(lp555
I3
aI1
aI0
aI2
aa(lp556
I2
aI0
aI1
aI3
aa(lp557
I0
aI1
aI2
aI3
aa(lp558
I1
aI0
aI3
aI2
aa(lp559
I1
aI0
aI3
aI2
aa(lp560
I1
aI3
aI0
aI2
aa(lp561
I1
aI3
aI0
aI2
aa(lp562
I0
aI1
aI3
aI2
aa(lp563
I0
aI1
aI2
aI3
aa(lp564
I1
aI0
aI3
aI2
aa(lp565
I1
aI0
aI2
aI3
aa(lp566
I1
aI0
aI3
aI2
aa(lp567
I1
aI3
aI0
aI2
aa(lp568
I1
aI0
aI3
aI2
aa(lp569
I1
aI0
aI3
aI2
aa(lp570
I0
aI1
aI3
aI2
aa(lp571
I2
aI3
aI0
aI1
aa(lp572
I3
aI0
aI1
aI2
aa(lp573
I0
aI3
aI1
aI2
aa(lp574
I0
aI1
aI2
aI3
aa(lp575
I1
aI0
aI3
aI2
aa(lp576
I2
aI1
aI0
aI3
aa(lp577
I1
aI0
aI3
aI2
aa(lp578
I1
aI0
aI2
aI3
aa(lp579
I3
aI1
aI0
aI2
aa(lp580
I1
aI0
aI2
aI3
aa(lp581
I1
aI0
aI3
aI2
aa(lp582
I1
aI3
aI0
aI2
aa(lp583
I1
aI0
aI2
aI3
aa(lp584
I1
aI2
aI3
aI0
aa(lp585
I0
aI1
aI3
aI2
aa(lp586
I1
aI0
aI3
aI2
aa(lp587
I3
aI2
aI0
aI1
aa(lp588
I1
aI0
aI2
aI3
aa(lp589
I1
aI0
aI3
aI2
aa(lp590
I0
aI3
aI1
aI2
aa(lp591
I1
aI3
aI0
aI2
aa(lp592
I0
aI3
aI2
aI1
aa(lp593
I1
aI0
aI3
aI2
aa(lp594
I1
aI2
aI3
aI0
aa(lp595
I1
aI3
aI0
aI2
aa(lp596
I0
aI1
aI3
aI2
aa(lp597
I1
aI0
aI3
aI2
aa(lp598
I1
aI0
aI2
aI3
aa(lp599
I1
aI0
aI2
aI3
aa(lp600
I1
aI0
aI3
aI2
aa(lp601
I1
aI2
aI3
aI0
aa(lp602
I1
aI0
aI2
aI3
aa(lp603
I1
aI2
aI3
aI0
aa(lp604
I0
aI1
aI3
aI2
aa(lp605
I1
aI3
aI0
aI2
aa(lp606
I0
aI3
aI1
aI2
aa(lp607
I0
aI1
aI3
aI2
aa(lp608
I0
aI1
aI2
aI3
aa(lp609
I0
aI1
aI3
aI2
aa(lp610
I1
aI3
aI0
aI2
aa(lp611
I1
aI0
aI3
aI2
aa(lp612
I3
aI1
aI2
aI0
aa(lp613
I0
aI1
aI3
aI2
aa(lp614
I0
aI1
aI2
aI3
aa(lp615
I0
aI2
aI1
aI3
aa(lp616
I1
aI0
aI3
aI2
aa(lp617
I0
aI1
aI2
aI3
aa(lp618
I1
aI0
aI2
aI3
aa(lp619
I3
aI1
aI0
aI2
aa(lp620
I0
aI3
aI1
aI2
aa(lp621
I1
aI3
aI0
aI2
aa(lp622
I1
aI0
aI2
aI3
aa(lp623
I1
aI0
aI3
aI2
aa(lp624
I0
aI1
aI2
aI3
aa(lp625
I1
aI0
aI3
aI2
aa(lp626
I0
aI1
aI3
aI2
aa(lp627
I0
aI1
aI2
aI3
aa(lp628
I1
aI3
aI0
aI2
aa(lp629
I0
aI1
aI2
aI3
aa(lp630
I1
aI0
aI2
aI3
aa(lp631
I3
aI1
aI0
aI2
aa(lp632
I0
aI1
aI3
aI2
aa(lp633
I3
aI2
aI0
aI1
aa(lp634
I0
aI1
aI3
aI2
aa(lp635
I1
aI3
aI0
aI2
aa(lp636
I1
aI3
aI0
aI2
aa(lp637
I0
aI1
aI3
aI2
aa(lp638
I0
aI1
aI3
aI2
aa(lp639
I3
aI0
aI2
aI1
aa(lp640
I0
aI2
aI3
aI1
aa(lp641
I0
aI3
aI2
aI1
aa(lp642
I3
aI2
aI0
aI1
aa(lp643
I3
aI1
aI2
aI0
aa(lp644
I0
aI1
aI3
aI2
aa(lp645
I0
aI1
aI3
aI2
aasS'RE-train-choices'
p646
(dp647
(I0
I1
tp648
g4
(g5
(I0
tp649
g7
tp650
Rp651
(I1
(I2
tp652
g14
I00
S'\x00\x00\x00\x00\x00@`@\x00\x00\x00\x00\x00@[@'
p653
tp654
bs(I1
I2
tp655
g4
(g5
(I0
tp656
g7
tp657
Rp658
(I1
(I2
tp659
g14
I00
S'\x00\x00\x00\x00\x00\x00 @\x00\x00\x00\x00\x00\x00>@'
p660
tp661
bs(I0
tp662
g4
(g5
(I0
tp663
g7
tp664
Rp665
(I1
(I1
tp666
g14
I00
S'\x00\x00\x00\x00\x00@b@'
p667
tp668
bs(I1
tp669
g4
(g5
(I0
tp670
g7
tp671
Rp672
(I1
(I1
tp673
g14
I00
S'\x00\x00\x00\x00\x00`k@'
p674
tp675
bs(I0
I1
I2
tp676
g4
(g5
(I0
tp677
g7
tp678
Rp679
(I1
(I3
tp680
g14
I00
S'\x00\x00\x00\x00\x00\x004@\x00\x00\x00\x00\x00\x00(@\x00\x00\x00\x00\x00\x80Y@'
p681
tp682
bs(I2
tp683
g4
(g5
(I0
tp684
g7
tp685
Rp686
(I1
(I1
tp687
g14
I00
S'\x00\x00\x00\x00\x00\x001@'
p688
tp689
bs(I3
tp690
g4
(g5
(I0
tp691
g7
tp692
Rp693
(I1
(I1
tp694
g14
I00
S'\x00\x00\x00\x00\x00\x00C@'
p695
tp696
bs(I0
I1
I3
tp697
g4
(g5
(I0
tp698
g7
tp699
Rp700
(I1
(I3
tp701
g14
I00
S'\x00\x00\x00\x00\x00\x80L@\x00\x00\x00\x00\x00\x009@\x00\x00\x00\x00\x00 a@'
p702
tp703
bs(I0
I2
I3
tp704
g4
(g5
(I0
tp705
g7
tp706
Rp707
(I1
(I3
tp708
g14
I00
S'\x00\x00\x00\x00\x00\x00\x08@\x00\x00\x00\x00\x00\x00(@\x00\x00\x00\x00\x00\x00"@'
p709
tp710
bs(I1
I3
tp711
g4
(g5
(I0
tp712
g7
tp713
Rp714
(I1
(I2
tp715
g14
I00
S'\x00\x00\x00\x00\x00\x003@\x00\x00\x00\x00\x00\x80M@'
p716
tp717
bs(I2
I3
tp718
g4
(g5
(I0
tp719
g7
tp720
Rp721
(I1
(I2
tp722
g14
I00
S'\x00\x00\x00\x00\x00\x00\x14@\x00\x00\x00\x00\x00\x00\x00@'
p723
tp724
bs(I0
I3
tp725
g4
(g5
(I0
tp726
g7
tp727
Rp728
(I1
(I2
tp729
g14
I00
S'\x00\x00\x00\x00\x00\x00,@\x00\x00\x00\x00\x00\x007@'
p730
tp731
bs(I1
I2
I3
tp732
g4
(g5
(I0
tp733
g7
tp734
Rp735
(I1
(I3
tp736
g14
I00
S'\x00\x00\x00\x00\x00\x00\x10@\x00\x00\x00\x00\x00\x005@\x00\x00\x00\x00\x00\x002@'
p737
tp738
bs(I0
I2
tp739
g4
(g5
(I0
tp740
g7
tp741
Rp742
(I1
(I2
tp743
g14
I00
S'\x00\x00\x00\x00\x00\x00\x1c@\x00\x00\x00\x00\x00\x00,@'
p744
tp745
bs(I0
I1
I2
I3
tp746
g4
(g5
(I0
tp747
g7
tp748
Rp749
(I1
(I4
tp750
g14
I00
S'\xe1z\x14\xaeG\x81E@\xc2\xf5(\\\x8f\x028@\xb8\x1e\x85\xebQ`k@\xb8\x1e\x85\xebQ\xc0`@'
p751
tp752
bssS'N'
p753
I4
s.